ARM GAS  /tmp/ccPodowx.s 			page 1


   1              		.cpu cortex-m0
   2              		.fpu softvfp
   3              		.eabi_attribute 20, 1
   4              		.eabi_attribute 21, 1
   5              		.eabi_attribute 23, 3
   6              		.eabi_attribute 24, 1
   7              		.eabi_attribute 25, 1
   8              		.eabi_attribute 26, 1
   9              		.eabi_attribute 30, 4
  10              		.eabi_attribute 34, 0
  11              		.eabi_attribute 18, 4
  12              		.code	16
  13              		.file	"adc_start.c"
  14              		.text
  15              	.Ltext0:
  16              		.cfi_sections	.debug_frame
  17              		.section	.text.startAdc,"ax",%progbits
  18              		.align	1
  19              		.global	startAdc
  20              		.code	16
  21              		.thumb_func
  22              		.type	startAdc, %function
  23              	startAdc:
  24              	.LFB77:
  25              		.file 1 "src/adc_start.c"
  26              		.loc 1 8 0
  27              		.cfi_startproc
  28 0000 70B5     		push	{r4, r5, r6, lr}
  29              	.LCFI0:
  30              		.cfi_def_cfa_offset 16
  31              		.cfi_offset 4, -16
  32              		.cfi_offset 5, -12
  33              		.cfi_offset 6, -8
  34              		.cfi_offset 14, -4
  35              		.loc 1 12 0
  36 0002 0020     		mov	r0, #0
  37              		.loc 1 8 0
  38 0004 92B0     		sub	sp, sp, #72
  39              	.LCFI1:
  40              		.cfi_def_cfa_offset 88
  41              		.loc 1 12 0
  42 0006 FFF7FEFF 		bl	RCC_ADCCLKConfig
  43              	.LVL0:
  44              		.loc 1 13 0
  45 000a 0120     		mov	r0, #1
  46 000c FFF7FEFF 		bl	RCC_HSI14Cmd
  47              	.LVL1:
  48              		.loc 1 15 0
  49 0010 3348     		ldr	r0, .L8
  50 0012 FFF7FEFF 		bl	DMA_DeInit
  51              	.LVL2:
  52              		.loc 1 17 0
  53 0016 3348     		ldr	r0, .L8+4
  54              		.loc 1 19 0
  55 0018 2021     		mov	r1, #32
  56              		.loc 1 16 0
  57 001a 334B     		ldr	r3, .L8+8
ARM GAS  /tmp/ccPodowx.s 			page 2


  58              		.loc 1 17 0
  59 001c 0890     		str	r0, [sp, #32]
  60              		.loc 1 25 0
  61 001e 8020     		mov	r0, #128
  62              		.loc 1 21 0
  63 0020 8022     		mov	r2, #128
  64              		.loc 1 19 0
  65 0022 0A91     		str	r1, [sp, #40]
  66              		.loc 1 23 0
  67 0024 8026     		mov	r6, #128
  68              		.loc 1 24 0
  69 0026 0F91     		str	r1, [sp, #60]
  70              		.loc 1 25 0
  71 0028 8101     		lsl	r1, r0, #6
  72              		.loc 1 22 0
  73 002a 5400     		lsl	r4, r2, #1
  74              		.loc 1 18 0
  75 002c 0025     		mov	r5, #0
  76              		.loc 1 16 0
  77 002e 0793     		str	r3, [sp, #28]
  78              		.loc 1 25 0
  79 0030 1091     		str	r1, [sp, #64]
  80              		.loc 1 23 0
  81 0032 F300     		lsl	r3, r6, #3
  82              		.loc 1 27 0
  83 0034 2A48     		ldr	r0, .L8
  84 0036 07A9     		add	r1, sp, #28
  85              		.loc 1 23 0
  86 0038 0E93     		str	r3, [sp, #56]
  87              		.loc 1 21 0
  88 003a 0C92     		str	r2, [sp, #48]
  89              		.loc 1 18 0
  90 003c 0995     		str	r5, [sp, #36]
  91              		.loc 1 20 0
  92 003e 0B95     		str	r5, [sp, #44]
  93              		.loc 1 22 0
  94 0040 0D94     		str	r4, [sp, #52]
  95              		.loc 1 26 0
  96 0042 1195     		str	r5, [sp, #68]
  97              		.loc 1 27 0
  98 0044 FFF7FEFF 		bl	DMA_Init
  99              	.LVL3:
 100              		.loc 1 29 0
 101 0048 2548     		ldr	r0, .L8
 102 004a 0121     		mov	r1, #1
 103 004c FFF7FEFF 		bl	DMA_Cmd
 104              	.LVL4:
 105              		.loc 1 32 0
 106 0050 2648     		ldr	r0, .L8+12
 107 0052 0221     		mov	r1, #2
 108              		.loc 1 38 0
 109 0054 01AC     		add	r4, sp, #4
 110              		.loc 1 32 0
 111 0056 FFF7FEFF 		bl	ADC_DMARequestModeConfig
 112              	.LVL5:
 113              		.loc 1 35 0
 114 005a 0121     		mov	r1, #1
ARM GAS  /tmp/ccPodowx.s 			page 3


 115 005c 2348     		ldr	r0, .L8+12
 116 005e FFF7FEFF 		bl	ADC_DMACmd
 117              	.LVL6:
 118              		.loc 1 38 0
 119 0062 201C     		mov	r0, r4
 120 0064 FFF7FEFF 		bl	ADC_StructInit
 121              	.LVL7:
 122              		.loc 1 42 0
 123 0068 0126     		mov	r6, #1
 124              		.loc 1 41 0
 125 006a 0195     		str	r5, [sp, #4]
 126              		.loc 1 43 0
 127 006c A560     		str	r5, [r4, #8]
 128              		.loc 1 44 0
 129 006e 2561     		str	r5, [r4, #16]
 130              		.loc 1 46 0
 131 0070 1E48     		ldr	r0, .L8+12
 132              		.loc 1 45 0
 133 0072 0425     		mov	r5, #4
 134              		.loc 1 46 0
 135 0074 211C     		mov	r1, r4
 136              		.loc 1 42 0
 137 0076 2671     		strb	r6, [r4, #4]
 138              		.loc 1 45 0
 139 0078 6561     		str	r5, [r4, #20]
 140              		.loc 1 46 0
 141 007a FFF7FEFF 		bl	ADC_Init
 142              	.LVL8:
 143              		.loc 1 49 0
 144 007e 1B48     		ldr	r0, .L8+12
 145 0080 311C     		mov	r1, r6
 146 0082 0722     		mov	r2, #7
 147 0084 FFF7FEFF 		bl	ADC_ChannelConfig
 148              	.LVL9:
 149              		.loc 1 50 0
 150 0088 1848     		ldr	r0, .L8+12
 151 008a 0221     		mov	r1, #2
 152 008c 0722     		mov	r2, #7
 153 008e FFF7FEFF 		bl	ADC_ChannelConfig
 154              	.LVL10:
 155              		.loc 1 51 0
 156 0092 1648     		ldr	r0, .L8+12
 157 0094 291C     		mov	r1, r5
 158 0096 0722     		mov	r2, #7
 159 0098 FFF7FEFF 		bl	ADC_ChannelConfig
 160              	.LVL11:
 161              		.loc 1 52 0
 162 009c 8022     		mov	r2, #128
 163 009e 5102     		lsl	r1, r2, #9
 164 00a0 1248     		ldr	r0, .L8+12
 165 00a2 0722     		mov	r2, #7
 166 00a4 FFF7FEFF 		bl	ADC_ChannelConfig
 167              	.LVL12:
 168              		.loc 1 54 0
 169 00a8 301C     		mov	r0, r6
 170 00aa FFF7FEFF 		bl	ADC_TempSensorCmd
 171              	.LVL13:
ARM GAS  /tmp/ccPodowx.s 			page 4


 172              		.loc 1 57 0
 173 00ae 0F48     		ldr	r0, .L8+12
 174 00b0 FFF7FEFF 		bl	ADC_GetCalibrationFactor
 175              	.LVL14:
 176              		.loc 1 60 0
 177 00b4 0D48     		ldr	r0, .L8+12
 178 00b6 311C     		mov	r1, r6
 179 00b8 FFF7FEFF 		bl	ADC_Cmd
 180              	.LVL15:
 181              	.L2:
 182              		.loc 1 63 0 discriminator 1
 183 00bc 0B48     		ldr	r0, .L8+12
 184 00be 0C49     		ldr	r1, .L8+16
 185 00c0 FFF7FEFF 		bl	ADC_GetFlagStatus
 186              	.LVL16:
 187 00c4 0028     		cmp	r0, #0
 188 00c6 F9D0     		beq	.L2
 189              		.loc 1 66 0
 190 00c8 0848     		ldr	r0, .L8+12
 191 00ca FFF7FEFF 		bl	ADC_StartOfConversion
 192              	.LVL17:
 193              		.loc 1 68 0
 194 00ce 094B     		ldr	r3, .L8+20
 195 00d0 0120     		mov	r0, #1
 196 00d2 1870     		strb	r0, [r3]
 197              		.loc 1 70 0
 198 00d4 0848     		ldr	r0, .L8+24
 199 00d6 FFF7FEFF 		bl	serDbg
 200              	.LVL18:
 201              		.loc 1 71 0
 202 00da 12B0     		add	sp, sp, #72
 203              		@ sp needed for prologue
 204 00dc 70BD     		pop	{r4, r5, r6, pc}
 205              	.L9:
 206 00de C046     		.align	2
 207              	.L8:
 208 00e0 08000240 		.word	1073872904
 209 00e4 00000000 		.word	.LANCHOR0
 210 00e8 40240140 		.word	1073816640
 211 00ec 00240140 		.word	1073816576
 212 00f0 01000001 		.word	16777217
 213 00f4 00000000 		.word	.LANCHOR1
 214 00f8 00000000 		.word	.LC2
 215              		.cfi_endproc
 216              	.LFE77:
 217              		.size	startAdc, .-startAdc
 218              		.section	.text.Vector64,"ax",%progbits
 219              		.align	1
 220              		.global	Vector64
 221              		.code	16
 222              		.thumb_func
 223              		.type	Vector64, %function
 224              	Vector64:
 225              	.LFB78:
 226              		.loc 1 74 0
 227              		.cfi_startproc
 228 0000 08B5     		push	{r3, lr}
ARM GAS  /tmp/ccPodowx.s 			page 5


 229              	.LCFI2:
 230              		.cfi_def_cfa_offset 8
 231              		.cfi_offset 3, -8
 232              		.cfi_offset 14, -4
 233              		.loc 1 76 0
 234 0002 0220     		mov	r0, #2
 235 0004 FFF7FEFF 		bl	DMA_GetITStatus
 236              	.LVL19:
 237 0008 0028     		cmp	r0, #0
 238 000a 02D0     		beq	.L10
 239              		.loc 1 78 0
 240 000c 0120     		mov	r0, #1
 241 000e FFF7FEFF 		bl	DMA_ClearITPendingBit
 242              	.LVL20:
 243              	.L10:
 244              		.loc 1 80 0
 245              		@ sp needed for prologue
 246 0012 08BD     		pop	{r3, pc}
 247              		.cfi_endproc
 248              	.LFE78:
 249              		.size	Vector64, .-Vector64
 250              		.global	adc_samples
 251              		.global	adc_status
 252              		.section	.rodata.str1.1,"aMS",%progbits,1
 253              	.LC2:
 254 0000 73746172 		.ascii	"startAdc Complete\015\012\000"
 254      74416463 
 254      20436F6D 
 254      706C6574 
 254      650D0A00 
 255              		.section	.bss.adc_status,"aw",%nobits
 256              		.set	.LANCHOR1,. + 0
 257              		.type	adc_status, %object
 258              		.size	adc_status, 1
 259              	adc_status:
 260 0000 00       		.space	1
 261              		.section	.bss.adc_samples,"aw",%nobits
 262              		.align	1
 263              		.set	.LANCHOR0,. + 0
 264              		.type	adc_samples, %object
 265              		.size	adc_samples, 64
 266              	adc_samples:
 267 0000 00000000 		.space	64
 267      00000000 
 267      00000000 
 267      00000000 
 267      00000000 
 268              		.text
 269              	.Letext0:
 270              		.file 2 "./os/nil/include/nil.h"
 271              		.file 3 "/media/data/src/x-tools/gcc-arm-none-eabi-4_7-2013q1/bin/../lib/gcc/arm-none-eabi/4.7.3/.
 272              		.file 4 "./os/nil/ports/ARMCMx/compilers/GCC/niltypes.h"
 273              		.file 5 "./os/ext/CMSIS/ST/stm32f0xx.h"
 274              		.file 6 "lib/STM32F0xx_StdPeriph_Driver/inc/stm32f0xx_adc.h"
 275              		.file 7 "lib/STM32F0xx_StdPeriph_Driver/inc/stm32f0xx_dma.h"
 276              		.file 8 "./os/nil/ports/ARMCMx/nilcore.h"
 277              		.file 9 "./os/nil/ports/ARMCMx/nilcore_v6m.h"
ARM GAS  /tmp/ccPodowx.s 			page 6


 278              		.file 10 "inc/threads.h"
 279              		.file 11 "lib/STM32F0xx_StdPeriph_Driver/inc/stm32f0xx_rcc.h"