ARM GAS  /tmp/ccPodowx.s 			page 1


   1              		.cpu cortex-m0
   2              		.fpu softvfp
   3              		.eabi_attribute 20, 1
   4              		.eabi_attribute 21, 1
   5              		.eabi_attribute 23, 3
   6              		.eabi_attribute 24, 1
   7              		.eabi_attribute 25, 1
   8              		.eabi_attribute 26, 1
   9              		.eabi_attribute 30, 4
  10              		.eabi_attribute 34, 0
  11              		.eabi_attribute 18, 4
  12              		.code	16
  13              		.file	"adc_start.c"
  14              		.text
  15              	.Ltext0:
  16              		.cfi_sections	.debug_frame
  17              		.section	.text.startAdc,"ax",%progbits
  18              		.align	1
  19              		.global	startAdc
  20              		.code	16
  21              		.thumb_func
  22              		.type	startAdc, %function
  23              	startAdc:
  24              	.LFB77:
  25              		.file 1 "src/adc_start.c"
  26              		.loc 1 8 0
  27              		.cfi_startproc
  28 0000 70B5     		push	{r4, r5, r6, lr}
  29              	.LCFI0:
  30              		.cfi_def_cfa_offset 16
  31              		.cfi_offset 4, -16
  32              		.cfi_offset 5, -12
  33              		.cfi_offset 6, -8
  34              		.cfi_offset 14, -4
  35              		.loc 1 12 0
  36 0002 0020     		mov	r0, #0
  37              		.loc 1 8 0
  38 0004 92B0     		sub	sp, sp, #72
  39              	.LCFI1:
  40              		.cfi_def_cfa_offset 88
  41              		.loc 1 12 0
  42 0006 FFF7FEFF 		bl	RCC_ADCCLKConfig
  43              	.LVL0:
  44              		.loc 1 13 0
  45 000a 0120     		mov	r0, #1
  46 000c FFF7FEFF 		bl	RCC_HSI14Cmd
  47              	.LVL1:
  48              		.loc 1 15 0
  49 0010 3348     		ldr	r0, .L8
  50 0012 FFF7FEFF 		bl	DMA_DeInit
  51              	.LVL2:
  52              		.loc 1 17 0
  53 0016 3348     		ldr	r0, .L8+4
  54              		.loc 1 19 0
  55 0018 2021     		mov	r1, #32
  56              		.loc 1 16 0
  57 001a 334B     		ldr	r3, .L8+8
ARM GAS  /tmp/ccPodowx.s 			page 2


  58              		.loc 1 17 0
  59 001c 0890     		str	r0, [sp, #32]
  60              		.loc 1 25 0
  61 001e 8020     		mov	r0, #128
  62              		.loc 1 21 0
  63 0020 8022     		mov	r2, #128
  64              		.loc 1 19 0
  65 0022 0A91     		str	r1, [sp, #40]
  66              		.loc 1 23 0
  67 0024 8026     		mov	r6, #128
  68              		.loc 1 24 0
  69 0026 0F91     		str	r1, [sp, #60]
  70              		.loc 1 25 0
  71 0028 8101     		lsl	r1, r0, #6
  72              		.loc 1 22 0
  73 002a 5400     		lsl	r4, r2, #1
  74              		.loc 1 18 0
  75 002c 0025     		mov	r5, #0
  76              		.loc 1 16 0
  77 002e 0793     		str	r3, [sp, #28]
  78              		.loc 1 25 0
  79 0030 1091     		str	r1, [sp, #64]
  80              		.loc 1 23 0
  81 0032 F300     		lsl	r3, r6, #3
  82              		.loc 1 27 0
  83 0034 2A48     		ldr	r0, .L8
  84 0036 07A9     		add	r1, sp, #28
  85              		.loc 1 23 0
  86 0038 0E93     		str	r3, [sp, #56]
  87              		.loc 1 21 0
  88 003a 0C92     		str	r2, [sp, #48]
  89              		.loc 1 18 0
  90 003c 0995     		str	r5, [sp, #36]
  91              		.loc 1 20 0
  92 003e 0B95     		str	r5, [sp, #44]
  93              		.loc 1 22 0
  94 0040 0D94     		str	r4, [sp, #52]
  95              		.loc 1 26 0
  96 0042 1195     		str	r5, [sp, #68]
  97              		.loc 1 27 0
  98 0044 FFF7FEFF 		bl	DMA_Init
  99              	.LVL3:
 100              		.loc 1 29 0
 101 0048 2548     		ldr	r0, .L8
 102 004a 0121     		mov	r1, #1
 103 004c FFF7FEFF 		bl	DMA_Cmd
 104              	.LVL4:
 105              		.loc 1 32 0
 106 0050 2648     		ldr	r0, .L8+12
 107 0052 0221     		mov	r1, #2
 108              		.loc 1 38 0
 109 0054 01AC     		add	r4, sp, #4
 110              		.loc 1 32 0
 111 0056 FFF7FEFF 		bl	ADC_DMARequestModeConfig
 112              	.LVL5:
 113              		.loc 1 35 0
 114 005a 0121     		mov	r1, #1
ARM GAS  /tmp/ccPodowx.s 			page 3


 115 005c 2348     		ldr	r0, .L8+12
 116 005e FFF7FEFF 		bl	ADC_DMACmd
 117              	.LVL6:
 118              		.loc 1 38 0
 119 0062 201C     		mov	r0, r4
 120 0064 FFF7FEFF 		bl	ADC_StructInit
 121              	.LVL7:
 122              		.loc 1 42 0
 123 0068 0126     		mov	r6, #1
 124              		.loc 1 41 0
 125 006a 0195     		str	r5, [sp, #4]
 126              		.loc 1 43 0
 127 006c A560     		str	r5, [r4, #8]
 128              		.loc 1 44 0
 129 006e 2561     		str	r5, [r4, #16]
 130              		.loc 1 46 0
 131 0070 1E48     		ldr	r0, .L8+12
 132              		.loc 1 45 0
 133 0072 0425     		mov	r5, #4
 134              		.loc 1 46 0
 135 0074 211C     		mov	r1, r4
 136              		.loc 1 42 0
 137 0076 2671     		strb	r6, [r4, #4]
 138              		.loc 1 45 0
 139 0078 6561     		str	r5, [r4, #20]
 140              		.loc 1 46 0
 141 007a FFF7FEFF 		bl	ADC_Init
 142              	.LVL8:
 143              		.loc 1 49 0
 144 007e 1B48     		ldr	r0, .L8+12
 145 0080 311C     		mov	r1, r6
 146 0082 0722     		mov	r2, #7
 147 0084 FFF7FEFF 		bl	ADC_ChannelConfig
 148              	.LVL9:
 149              		.loc 1 50 0
 150 0088 1848     		ldr	r0, .L8+12
 151 008a 0221     		mov	r1, #2
 152 008c 0722     		mov	r2, #7
 153 008e FFF7FEFF 		bl	ADC_ChannelConfig
 154              	.LVL10:
 155              		.loc 1 51 0
 156 0092 1648     		ldr	r0, .L8+12
 157 0094 291C     		mov	r1, r5
 158 0096 0722     		mov	r2, #7
 159 0098 FFF7FEFF 		bl	ADC_ChannelConfig
 160              	.LVL11:
 161              		.loc 1 52 0
 162 009c 8022     		mov	r2, #128
 163 009e 5102     		lsl	r1, r2, #9
 164 00a0 1248     		ldr	r0, .L8+12
 165 00a2 0722     		mov	r2, #7
 166 00a4 FFF7FEFF 		bl	ADC_ChannelConfig
 167              	.LVL12:
 168              		.loc 1 54 0
 169 00a8 301C     		mov	r0, r6
 170 00aa FFF7FEFF 		bl	ADC_TempSensorCmd
 171              	.LVL13:
ARM GAS  /tmp/ccPodowx.s 			page 4


 172              		.loc 1 57 0
 173 00ae 0F48     		ldr	r0, .L8+12
 174 00b0 FFF7FEFF 		bl	ADC_GetCalibrationFactor
 175              	.LVL14:
 176              		.loc 1 60 0
 177 00b4 0D48     		ldr	r0, .L8+12
 178 00b6 311C     		mov	r1, r6
 179 00b8 FFF7FEFF 		bl	ADC_Cmd
 180              	.LVL15:
 181              	.L2:
 182              		.loc 1 63 0 discriminator 1
 183 00bc 0B48     		ldr	r0, .L8+12
 184 00be 0C49     		ldr	r1, .L8+16
 185 00c0 FFF7FEFF 		bl	ADC_GetFlagStatus
 186              	.LVL16:
 187 00c4 0028     		cmp	r0, #0
 188 00c6 F9D0     		beq	.L2
 189              		.loc 1 66 0
 190 00c8 0848     		ldr	r0, .L8+12
 191 00ca FFF7FEFF 		bl	ADC_StartOfConversion
 192              	.LVL17:
 193              		.loc 1 68 0
 194 00ce 094B     		ldr	r3, .L8+20
 195 00d0 0120     		mov	r0, #1
 196 00d2 1870     		strb	r0, [r3]
 197              		.loc 1 70 0
 198 00d4 0848     		ldr	r0, .L8+24
 199 00d6 FFF7FEFF 		bl	serDbg
 200              	.LVL18:
 201              		.loc 1 71 0
 202 00da 12B0     		add	sp, sp, #72
 203              		@ sp needed for prologue
 204 00dc 70BD     		pop	{r4, r5, r6, pc}
 205              	.L9:
 206 00de C046     		.align	2
 207              	.L8:
 208 00e0 08000240 		.word	1073872904
 209 00e4 00000000 		.word	.LANCHOR0
 210 00e8 40240140 		.word	1073816640
 211 00ec 00240140 		.word	1073816576
 212 00f0 01000001 		.word	16777217
 213 00f4 00000000 		.word	.LANCHOR1
 214 00f8 00000000 		.word	.LC2
 215              		.cfi_endproc
 216              	.LFE77:
 217              		.size	startAdc, .-startAdc
 218              		.section	.text.Vector64,"ax",%progbits
 219              		.align	1
 220              		.global	Vector64
 221              		.code	16
 222              		.thumb_func
 223              		.type	Vector64, %function
 224              	Vector64:
 225              	.LFB78:
 226              		.loc 1 74 0
 227              		.cfi_startproc
 228 0000 08B5     		push	{r3, lr}
ARM GAS  /tmp/ccPodowx.s 			page 5


 229              	.LCFI2:
 230              		.cfi_def_cfa_offset 8
 231              		.cfi_offset 3, -8
 232              		.cfi_offset 14, -4
 233              		.loc 1 76 0
 234 0002 0220     		mov	r0, #2
 235 0004 FFF7FEFF 		bl	DMA_GetITStatus
 236              	.LVL19:
 237 0008 0028     		cmp	r0, #0
 238 000a 02D0     		beq	.L10
 239              		.loc 1 78 0
 240 000c 0120     		mov	r0, #1
 241 000e FFF7FEFF 		bl	DMA_ClearITPendingBit
 242              	.LVL20:
 243              	.L10:
 244              		.loc 1 80 0
 245              		@ sp needed for prologue
 246 0012 08BD     		pop	{r3, pc}
 247              		.cfi_endproc
 248              	.LFE78:
 249              		.size	Vector64, .-Vector64
 250              		.global	adc_samples
 251              		.global	adc_status
 252              		.section	.rodata.str1.1,"aMS",%progbits,1
 253              	.LC2:
 254 0000 73746172 		.ascii	"startAdc Complete\015\012\000"
 254      74416463 
 254      20436F6D 
 254      706C6574 
 254      650D0A00 
 255              		.section	.bss.adc_status,"aw",%nobits
 256              		.set	.LANCHOR1,. + 0
 257              		.type	adc_status, %object
 258              		.size	adc_status, 1
 259              	adc_status:
 260 0000 00       		.space	1
 261              		.section	.bss.adc_samples,"aw",%nobits
 262              		.align	1
 263              		.set	.LANCHOR0,. + 0
 264              		.type	adc_samples, %object
 265              		.size	adc_samples, 64
 266              	adc_samples:
 267 0000 00000000 		.space	64
 267      00000000 
 267      00000000 
 267      00000000 
 267      00000000 
 268              		.text
 269              	.Letext0:
 270              		.file 2 "./os/nil/include/nil.h"
 271              		.file 3 "/media/data/src/x-tools/gcc-arm-none-eabi-4_7-2013q1/bin/../lib/gcc/arm-none-eabi/4.7.3/.
 272              		.file 4 "./os/nil/ports/ARMCMx/compilers/GCC/niltypes.h"
 273              		.file 5 "./os/ext/CMSIS/ST/stm32f0xx.h"
 274              		.file 6 "lib/STM32F0xx_StdPeriph_Driver/inc/stm32f0xx_adc.h"
 275              		.file 7 "lib/STM32F0xx_StdPeriph_Driver/inc/stm32f0xx_dma.h"
 276              		.file 8 "./os/nil/ports/ARMCMx/nilcore.h"
 277              		.file 9 "./os/nil/ports/ARMCMx/nilcore_v6m.h"
ARM GAS  /tmp/ccPodowx.s 			page 6


 278              		.file 10 "inc/threads.h"
 279              		.file 11 "lib/STM32F0xx_StdPeriph_Driver/inc/stm32f0xx_rcc.h"
 280              		.section	.debug_info,"",%progbits
 281              	.Ldebug_info0:
 282 0000 150A0000 		.4byte	0xa15
 283 0004 0200     		.2byte	0x2
 284 0006 00000000 		.4byte	.Ldebug_abbrev0
 285 000a 04       		.byte	0x4
 286 000b 01       		.uleb128 0x1
 287 000c F9040000 		.4byte	.LASF102
 288 0010 01       		.byte	0x1
 289 0011 BF040000 		.4byte	.LASF103
 290 0015 42020000 		.4byte	.LASF104
 291 0019 00000000 		.4byte	.Ldebug_ranges0+0
 292 001d 00000000 		.4byte	0
 293 0021 00000000 		.4byte	0
 294 0025 00000000 		.4byte	.Ldebug_line0
 295 0029 02       		.uleb128 0x2
 296 002a CF040000 		.4byte	.LASF62
 297 002e 14       		.byte	0x14
 298 002f 02       		.byte	0x2
 299 0030 1E01     		.2byte	0x11e
 300 0032 81000000 		.4byte	0x81
 301 0036 03       		.uleb128 0x3
 302 0037 B1030000 		.4byte	.LASF0
 303 003b 02       		.byte	0x2
 304 003c 1F01     		.2byte	0x11f
 305 003e 08050000 		.4byte	0x508
 306 0042 02       		.byte	0x2
 307 0043 23       		.byte	0x23
 308 0044 00       		.uleb128 0
 309 0045 03       		.uleb128 0x3
 310 0046 A2040000 		.4byte	.LASF1
 311 004a 02       		.byte	0x2
 312 004b 2001     		.2byte	0x120
 313 004d F3000000 		.4byte	0xf3
 314 0051 02       		.byte	0x2
 315 0052 23       		.byte	0x23
 316 0053 04       		.uleb128 0x4
 317 0054 04       		.uleb128 0x4
 318 0055 753100   		.ascii	"u1\000"
 319 0058 02       		.byte	0x2
 320 0059 2B01     		.2byte	0x12b
 321 005b B8040000 		.4byte	0x4b8
 322 005f 02       		.byte	0x2
 323 0060 23       		.byte	0x23
 324 0061 08       		.uleb128 0x8
 325 0062 03       		.uleb128 0x3
 326 0063 76040000 		.4byte	.LASF2
 327 0067 02       		.byte	0x2
 328 0068 2C01     		.2byte	0x12c
 329 006a 0E050000 		.4byte	0x50e
 330 006e 02       		.byte	0x2
 331 006f 23       		.byte	0x23
 332 0070 0C       		.uleb128 0xc
 333 0071 03       		.uleb128 0x3
 334 0072 F6020000 		.4byte	.LASF3
ARM GAS  /tmp/ccPodowx.s 			page 7


 335 0076 02       		.byte	0x2
 336 0077 2F01     		.2byte	0x12f
 337 0079 09010000 		.4byte	0x109
 338 007d 02       		.byte	0x2
 339 007e 23       		.byte	0x23
 340 007f 10       		.uleb128 0x10
 341 0080 00       		.byte	0
 342 0081 05       		.uleb128 0x5
 343 0082 04       		.byte	0x4
 344 0083 05       		.byte	0x5
 345 0084 696E7400 		.ascii	"int\000"
 346 0088 06       		.uleb128 0x6
 347 0089 04       		.byte	0x4
 348 008a 07       		.byte	0x7
 349 008b 64000000 		.4byte	.LASF4
 350 008f 06       		.uleb128 0x6
 351 0090 01       		.byte	0x1
 352 0091 06       		.byte	0x6
 353 0092 DA040000 		.4byte	.LASF5
 354 0096 07       		.uleb128 0x7
 355 0097 2C020000 		.4byte	.LASF8
 356 009b 03       		.byte	0x3
 357 009c 2A       		.byte	0x2a
 358 009d A1000000 		.4byte	0xa1
 359 00a1 06       		.uleb128 0x6
 360 00a2 01       		.byte	0x1
 361 00a3 08       		.byte	0x8
 362 00a4 68040000 		.4byte	.LASF6
 363 00a8 06       		.uleb128 0x6
 364 00a9 02       		.byte	0x2
 365 00aa 05       		.byte	0x5
 366 00ab A7030000 		.4byte	.LASF7
 367 00af 07       		.uleb128 0x7
 368 00b0 4C030000 		.4byte	.LASF9
 369 00b4 03       		.byte	0x3
 370 00b5 36       		.byte	0x36
 371 00b6 BA000000 		.4byte	0xba
 372 00ba 06       		.uleb128 0x6
 373 00bb 02       		.byte	0x2
 374 00bc 07       		.byte	0x7
 375 00bd E6040000 		.4byte	.LASF10
 376 00c1 07       		.uleb128 0x7
 377 00c2 60040000 		.4byte	.LASF11
 378 00c6 03       		.byte	0x3
 379 00c7 4F       		.byte	0x4f
 380 00c8 CC000000 		.4byte	0xcc
 381 00cc 06       		.uleb128 0x6
 382 00cd 04       		.byte	0x4
 383 00ce 05       		.byte	0x5
 384 00cf C6030000 		.4byte	.LASF12
 385 00d3 07       		.uleb128 0x7
 386 00d4 1E010000 		.4byte	.LASF13
 387 00d8 03       		.byte	0x3
 388 00d9 50       		.byte	0x50
 389 00da DE000000 		.4byte	0xde
 390 00de 06       		.uleb128 0x6
 391 00df 04       		.byte	0x4
ARM GAS  /tmp/ccPodowx.s 			page 8


 392 00e0 07       		.byte	0x7
 393 00e1 3B040000 		.4byte	.LASF14
 394 00e5 06       		.uleb128 0x6
 395 00e6 08       		.byte	0x8
 396 00e7 05       		.byte	0x5
 397 00e8 6B020000 		.4byte	.LASF15
 398 00ec 06       		.uleb128 0x6
 399 00ed 08       		.byte	0x8
 400 00ee 07       		.byte	0x7
 401 00ef 44010000 		.4byte	.LASF16
 402 00f3 07       		.uleb128 0x7
 403 00f4 05020000 		.4byte	.LASF17
 404 00f8 04       		.byte	0x4
 405 00f9 37       		.byte	0x37
 406 00fa 96000000 		.4byte	0x96
 407 00fe 07       		.uleb128 0x7
 408 00ff 79020000 		.4byte	.LASF18
 409 0103 04       		.byte	0x4
 410 0104 38       		.byte	0x38
 411 0105 C1000000 		.4byte	0xc1
 412 0109 07       		.uleb128 0x7
 413 010a 27010000 		.4byte	.LASF19
 414 010e 04       		.byte	0x4
 415 010f 39       		.byte	0x39
 416 0110 D3000000 		.4byte	0xd3
 417 0114 07       		.uleb128 0x7
 418 0115 76010000 		.4byte	.LASF20
 419 0119 04       		.byte	0x4
 420 011a 3A       		.byte	0x3a
 421 011b C1000000 		.4byte	0xc1
 422 011f 06       		.uleb128 0x6
 423 0120 04       		.byte	0x4
 424 0121 07       		.byte	0x7
 425 0122 32040000 		.4byte	.LASF21
 426 0126 08       		.uleb128 0x8
 427 0127 D3000000 		.4byte	0xd3
 428 012b 09       		.uleb128 0x9
 429 012c 01       		.byte	0x1
 430 012d 05       		.byte	0x5
 431 012e FE       		.byte	0xfe
 432 012f 40010000 		.4byte	0x140
 433 0133 0A       		.uleb128 0xa
 434 0134 09040000 		.4byte	.LASF22
 435 0138 00       		.sleb128 0
 436 0139 0B       		.uleb128 0xb
 437 013a 53455400 		.ascii	"SET\000"
 438 013e 01       		.sleb128 1
 439 013f 00       		.byte	0
 440 0140 07       		.uleb128 0x7
 441 0141 C2000000 		.4byte	.LASF23
 442 0145 05       		.byte	0x5
 443 0146 FE       		.byte	0xfe
 444 0147 2B010000 		.4byte	0x12b
 445 014b 07       		.uleb128 0x7
 446 014c A0010000 		.4byte	.LASF24
 447 0150 05       		.byte	0x5
 448 0151 FE       		.byte	0xfe
ARM GAS  /tmp/ccPodowx.s 			page 9


 449 0152 2B010000 		.4byte	0x12b
 450 0156 0C       		.uleb128 0xc
 451 0157 01       		.byte	0x1
 452 0158 05       		.byte	0x5
 453 0159 0001     		.2byte	0x100
 454 015b 6C010000 		.4byte	0x16c
 455 015f 0A       		.uleb128 0xa
 456 0160 EA010000 		.4byte	.LASF25
 457 0164 00       		.sleb128 0
 458 0165 0A       		.uleb128 0xa
 459 0166 2B040000 		.4byte	.LASF26
 460 016a 01       		.sleb128 1
 461 016b 00       		.byte	0
 462 016c 0D       		.uleb128 0xd
 463 016d 7F000000 		.4byte	.LASF27
 464 0171 05       		.byte	0x5
 465 0172 0001     		.2byte	0x100
 466 0174 56010000 		.4byte	0x156
 467 0178 0E       		.uleb128 0xe
 468 0179 44       		.byte	0x44
 469 017a 05       		.byte	0x5
 470 017b 0D01     		.2byte	0x10d
 471 017d 42020000 		.4byte	0x242
 472 0181 04       		.uleb128 0x4
 473 0182 49535200 		.ascii	"ISR\000"
 474 0186 05       		.byte	0x5
 475 0187 0F01     		.2byte	0x10f
 476 0189 26010000 		.4byte	0x126
 477 018d 02       		.byte	0x2
 478 018e 23       		.byte	0x23
 479 018f 00       		.uleb128 0
 480 0190 04       		.uleb128 0x4
 481 0191 49455200 		.ascii	"IER\000"
 482 0195 05       		.byte	0x5
 483 0196 1001     		.2byte	0x110
 484 0198 26010000 		.4byte	0x126
 485 019c 02       		.byte	0x2
 486 019d 23       		.byte	0x23
 487 019e 04       		.uleb128 0x4
 488 019f 04       		.uleb128 0x4
 489 01a0 435200   		.ascii	"CR\000"
 490 01a3 05       		.byte	0x5
 491 01a4 1101     		.2byte	0x111
 492 01a6 26010000 		.4byte	0x126
 493 01aa 02       		.byte	0x2
 494 01ab 23       		.byte	0x23
 495 01ac 08       		.uleb128 0x8
 496 01ad 03       		.uleb128 0x3
 497 01ae FD020000 		.4byte	.LASF28
 498 01b2 05       		.byte	0x5
 499 01b3 1201     		.2byte	0x112
 500 01b5 26010000 		.4byte	0x126
 501 01b9 02       		.byte	0x2
 502 01ba 23       		.byte	0x23
 503 01bb 0C       		.uleb128 0xc
 504 01bc 03       		.uleb128 0x3
 505 01bd 03030000 		.4byte	.LASF29
ARM GAS  /tmp/ccPodowx.s 			page 10


 506 01c1 05       		.byte	0x5
 507 01c2 1301     		.2byte	0x113
 508 01c4 26010000 		.4byte	0x126
 509 01c8 02       		.byte	0x2
 510 01c9 23       		.byte	0x23
 511 01ca 10       		.uleb128 0x10
 512 01cb 03       		.uleb128 0x3
 513 01cc 88010000 		.4byte	.LASF30
 514 01d0 05       		.byte	0x5
 515 01d1 1401     		.2byte	0x114
 516 01d3 26010000 		.4byte	0x126
 517 01d7 02       		.byte	0x2
 518 01d8 23       		.byte	0x23
 519 01d9 14       		.uleb128 0x14
 520 01da 03       		.uleb128 0x3
 521 01db 7F030000 		.4byte	.LASF31
 522 01df 05       		.byte	0x5
 523 01e0 1501     		.2byte	0x115
 524 01e2 D3000000 		.4byte	0xd3
 525 01e6 02       		.byte	0x2
 526 01e7 23       		.byte	0x23
 527 01e8 18       		.uleb128 0x18
 528 01e9 03       		.uleb128 0x3
 529 01ea 89030000 		.4byte	.LASF32
 530 01ee 05       		.byte	0x5
 531 01ef 1601     		.2byte	0x116
 532 01f1 D3000000 		.4byte	0xd3
 533 01f5 02       		.byte	0x2
 534 01f6 23       		.byte	0x23
 535 01f7 1C       		.uleb128 0x1c
 536 01f8 04       		.uleb128 0x4
 537 01f9 545200   		.ascii	"TR\000"
 538 01fc 05       		.byte	0x5
 539 01fd 1701     		.2byte	0x117
 540 01ff 26010000 		.4byte	0x126
 541 0203 02       		.byte	0x2
 542 0204 23       		.byte	0x23
 543 0205 20       		.uleb128 0x20
 544 0206 03       		.uleb128 0x3
 545 0207 93030000 		.4byte	.LASF33
 546 020b 05       		.byte	0x5
 547 020c 1801     		.2byte	0x118
 548 020e D3000000 		.4byte	0xd3
 549 0212 02       		.byte	0x2
 550 0213 23       		.byte	0x23
 551 0214 24       		.uleb128 0x24
 552 0215 03       		.uleb128 0x3
 553 0216 7C010000 		.4byte	.LASF34
 554 021a 05       		.byte	0x5
 555 021b 1901     		.2byte	0x119
 556 021d 26010000 		.4byte	0x126
 557 0221 02       		.byte	0x2
 558 0222 23       		.byte	0x23
 559 0223 28       		.uleb128 0x28
 560 0224 03       		.uleb128 0x3
 561 0225 9D030000 		.4byte	.LASF35
 562 0229 05       		.byte	0x5
ARM GAS  /tmp/ccPodowx.s 			page 11


 563 022a 1A01     		.2byte	0x11a
 564 022c 42020000 		.4byte	0x242
 565 0230 02       		.byte	0x2
 566 0231 23       		.byte	0x23
 567 0232 2C       		.uleb128 0x2c
 568 0233 04       		.uleb128 0x4
 569 0234 445200   		.ascii	"DR\000"
 570 0237 05       		.byte	0x5
 571 0238 1B01     		.2byte	0x11b
 572 023a 26010000 		.4byte	0x126
 573 023e 02       		.byte	0x2
 574 023f 23       		.byte	0x23
 575 0240 40       		.uleb128 0x40
 576 0241 00       		.byte	0
 577 0242 0F       		.uleb128 0xf
 578 0243 D3000000 		.4byte	0xd3
 579 0247 52020000 		.4byte	0x252
 580 024b 10       		.uleb128 0x10
 581 024c 1F010000 		.4byte	0x11f
 582 0250 04       		.byte	0x4
 583 0251 00       		.byte	0
 584 0252 0D       		.uleb128 0xd
 585 0253 5F020000 		.4byte	.LASF36
 586 0257 05       		.byte	0x5
 587 0258 1C01     		.2byte	0x11c
 588 025a 78010000 		.4byte	0x178
 589 025e 0E       		.uleb128 0xe
 590 025f 10       		.byte	0x10
 591 0260 05       		.byte	0x5
 592 0261 6C01     		.2byte	0x16c
 593 0263 A4020000 		.4byte	0x2a4
 594 0267 04       		.uleb128 0x4
 595 0268 43435200 		.ascii	"CCR\000"
 596 026c 05       		.byte	0x5
 597 026d 6E01     		.2byte	0x16e
 598 026f 26010000 		.4byte	0x126
 599 0273 02       		.byte	0x2
 600 0274 23       		.byte	0x23
 601 0275 00       		.uleb128 0
 602 0276 03       		.uleb128 0x3
 603 0277 11010000 		.4byte	.LASF37
 604 027b 05       		.byte	0x5
 605 027c 6F01     		.2byte	0x16f
 606 027e 26010000 		.4byte	0x126
 607 0282 02       		.byte	0x2
 608 0283 23       		.byte	0x23
 609 0284 04       		.uleb128 0x4
 610 0285 03       		.uleb128 0x3
 611 0286 83010000 		.4byte	.LASF38
 612 028a 05       		.byte	0x5
 613 028b 7001     		.2byte	0x170
 614 028d 26010000 		.4byte	0x126
 615 0291 02       		.byte	0x2
 616 0292 23       		.byte	0x23
 617 0293 08       		.uleb128 0x8
 618 0294 03       		.uleb128 0x3
 619 0295 B5000000 		.4byte	.LASF39
ARM GAS  /tmp/ccPodowx.s 			page 12


 620 0299 05       		.byte	0x5
 621 029a 7101     		.2byte	0x171
 622 029c 26010000 		.4byte	0x126
 623 02a0 02       		.byte	0x2
 624 02a1 23       		.byte	0x23
 625 02a2 0C       		.uleb128 0xc
 626 02a3 00       		.byte	0
 627 02a4 0D       		.uleb128 0xd
 628 02a5 D3020000 		.4byte	.LASF40
 629 02a9 05       		.byte	0x5
 630 02aa 7201     		.2byte	0x172
 631 02ac 5E020000 		.4byte	0x25e
 632 02b0 11       		.uleb128 0x11
 633 02b1 18       		.byte	0x18
 634 02b2 06       		.byte	0x6
 635 02b3 36       		.byte	0x36
 636 02b4 0D030000 		.4byte	0x30d
 637 02b8 12       		.uleb128 0x12
 638 02b9 BB020000 		.4byte	.LASF41
 639 02bd 06       		.byte	0x6
 640 02be 38       		.byte	0x38
 641 02bf D3000000 		.4byte	0xd3
 642 02c3 02       		.byte	0x2
 643 02c4 23       		.byte	0x23
 644 02c5 00       		.uleb128 0
 645 02c6 12       		.uleb128 0x12
 646 02c7 C1010000 		.4byte	.LASF42
 647 02cb 06       		.byte	0x6
 648 02cc 3B       		.byte	0x3b
 649 02cd 6C010000 		.4byte	0x16c
 650 02d1 02       		.byte	0x2
 651 02d2 23       		.byte	0x23
 652 02d3 04       		.uleb128 0x4
 653 02d4 12       		.uleb128 0x12
 654 02d5 A2020000 		.4byte	.LASF43
 655 02d9 06       		.byte	0x6
 656 02da 3F       		.byte	0x3f
 657 02db D3000000 		.4byte	0xd3
 658 02df 02       		.byte	0x2
 659 02e0 23       		.byte	0x23
 660 02e1 08       		.uleb128 0x8
 661 02e2 12       		.uleb128 0x12
 662 02e3 17020000 		.4byte	.LASF44
 663 02e7 06       		.byte	0x6
 664 02e8 43       		.byte	0x43
 665 02e9 D3000000 		.4byte	0xd3
 666 02ed 02       		.byte	0x2
 667 02ee 23       		.byte	0x23
 668 02ef 0C       		.uleb128 0xc
 669 02f0 12       		.uleb128 0x12
 670 02f1 DB030000 		.4byte	.LASF45
 671 02f5 06       		.byte	0x6
 672 02f6 47       		.byte	0x47
 673 02f7 D3000000 		.4byte	0xd3
 674 02fb 02       		.byte	0x2
 675 02fc 23       		.byte	0x23
 676 02fd 10       		.uleb128 0x10
ARM GAS  /tmp/ccPodowx.s 			page 13


 677 02fe 12       		.uleb128 0x12
 678 02ff 09030000 		.4byte	.LASF46
 679 0303 06       		.byte	0x6
 680 0304 4A       		.byte	0x4a
 681 0305 D3000000 		.4byte	0xd3
 682 0309 02       		.byte	0x2
 683 030a 23       		.byte	0x23
 684 030b 14       		.uleb128 0x14
 685 030c 00       		.byte	0
 686 030d 07       		.uleb128 0x7
 687 030e 16000000 		.4byte	.LASF47
 688 0312 06       		.byte	0x6
 689 0313 4D       		.byte	0x4d
 690 0314 B0020000 		.4byte	0x2b0
 691 0318 11       		.uleb128 0x11
 692 0319 2C       		.byte	0x2c
 693 031a 07       		.byte	0x7
 694 031b 34       		.byte	0x34
 695 031c BB030000 		.4byte	0x3bb
 696 0320 12       		.uleb128 0x12
 697 0321 E4000000 		.4byte	.LASF48
 698 0325 07       		.byte	0x7
 699 0326 36       		.byte	0x36
 700 0327 D3000000 		.4byte	0xd3
 701 032b 02       		.byte	0x2
 702 032c 23       		.byte	0x23
 703 032d 00       		.uleb128 0
 704 032e 12       		.uleb128 0x12
 705 032f 37000000 		.4byte	.LASF49
 706 0333 07       		.byte	0x7
 707 0334 38       		.byte	0x38
 708 0335 D3000000 		.4byte	0xd3
 709 0339 02       		.byte	0x2
 710 033a 23       		.byte	0x23
 711 033b 04       		.uleb128 0x4
 712 033c 12       		.uleb128 0x12
 713 033d 4A000000 		.4byte	.LASF50
 714 0341 07       		.byte	0x7
 715 0342 3A       		.byte	0x3a
 716 0343 D3000000 		.4byte	0xd3
 717 0347 02       		.byte	0x2
 718 0348 23       		.byte	0x23
 719 0349 08       		.uleb128 0x8
 720 034a 12       		.uleb128 0x12
 721 034b 1C040000 		.4byte	.LASF51
 722 034f 07       		.byte	0x7
 723 0350 3D       		.byte	0x3d
 724 0351 D3000000 		.4byte	0xd3
 725 0355 02       		.byte	0x2
 726 0356 23       		.byte	0x23
 727 0357 0C       		.uleb128 0xc
 728 0358 12       		.uleb128 0x12
 729 0359 7F020000 		.4byte	.LASF52
 730 035d 07       		.byte	0x7
 731 035e 41       		.byte	0x41
 732 035f D3000000 		.4byte	0xd3
 733 0363 02       		.byte	0x2
ARM GAS  /tmp/ccPodowx.s 			page 14


 734 0364 23       		.byte	0x23
 735 0365 10       		.uleb128 0x10
 736 0366 12       		.uleb128 0x12
 737 0367 34020000 		.4byte	.LASF53
 738 036b 07       		.byte	0x7
 739 036c 44       		.byte	0x44
 740 036d D3000000 		.4byte	0xd3
 741 0371 02       		.byte	0x2
 742 0372 23       		.byte	0x23
 743 0373 14       		.uleb128 0x14
 744 0374 12       		.uleb128 0x12
 745 0375 23030000 		.4byte	.LASF54
 746 0379 07       		.byte	0x7
 747 037a 47       		.byte	0x47
 748 037b D3000000 		.4byte	0xd3
 749 037f 02       		.byte	0x2
 750 0380 23       		.byte	0x23
 751 0381 18       		.uleb128 0x18
 752 0382 12       		.uleb128 0x12
 753 0383 55030000 		.4byte	.LASF55
 754 0387 07       		.byte	0x7
 755 0388 4A       		.byte	0x4a
 756 0389 D3000000 		.4byte	0xd3
 757 038d 02       		.byte	0x2
 758 038e 23       		.byte	0x23
 759 038f 1C       		.uleb128 0x1c
 760 0390 12       		.uleb128 0x12
 761 0391 0E020000 		.4byte	.LASF56
 762 0395 07       		.byte	0x7
 763 0396 4D       		.byte	0x4d
 764 0397 D3000000 		.4byte	0xd3
 765 039b 02       		.byte	0x2
 766 039c 23       		.byte	0x23
 767 039d 20       		.uleb128 0x20
 768 039e 12       		.uleb128 0x12
 769 039f A8000000 		.4byte	.LASF57
 770 03a3 07       		.byte	0x7
 771 03a4 52       		.byte	0x52
 772 03a5 D3000000 		.4byte	0xd3
 773 03a9 02       		.byte	0x2
 774 03aa 23       		.byte	0x23
 775 03ab 24       		.uleb128 0x24
 776 03ac 12       		.uleb128 0x12
 777 03ad BA000000 		.4byte	.LASF58
 778 03b1 07       		.byte	0x7
 779 03b2 55       		.byte	0x55
 780 03b3 D3000000 		.4byte	0xd3
 781 03b7 02       		.byte	0x2
 782 03b8 23       		.byte	0x23
 783 03b9 28       		.uleb128 0x28
 784 03ba 00       		.byte	0
 785 03bb 07       		.uleb128 0x7
 786 03bc B6030000 		.4byte	.LASF59
 787 03c0 07       		.byte	0x7
 788 03c1 57       		.byte	0x57
 789 03c2 18030000 		.4byte	0x318
 790 03c6 07       		.uleb128 0x7
ARM GAS  /tmp/ccPodowx.s 			page 15


 791 03c7 B2010000 		.4byte	.LASF60
 792 03cb 08       		.byte	0x8
 793 03cc 77       		.byte	0x77
 794 03cd AF000000 		.4byte	0xaf
 795 03d1 07       		.uleb128 0x7
 796 03d2 26000000 		.4byte	.LASF61
 797 03d6 08       		.byte	0x8
 798 03d7 7D       		.byte	0x7d
 799 03d8 DC030000 		.4byte	0x3dc
 800 03dc 13       		.uleb128 0x13
 801 03dd 04       		.byte	0x4
 802 03de 14       		.uleb128 0x14
 803 03df CF030000 		.4byte	.LASF63
 804 03e3 24       		.byte	0x24
 805 03e4 09       		.byte	0x9
 806 03e5 A4       		.byte	0xa4
 807 03e6 62040000 		.4byte	0x462
 808 03ea 15       		.uleb128 0x15
 809 03eb 723800   		.ascii	"r8\000"
 810 03ee 09       		.byte	0x9
 811 03ef A5       		.byte	0xa5
 812 03f0 D1030000 		.4byte	0x3d1
 813 03f4 02       		.byte	0x2
 814 03f5 23       		.byte	0x23
 815 03f6 00       		.uleb128 0
 816 03f7 15       		.uleb128 0x15
 817 03f8 723900   		.ascii	"r9\000"
 818 03fb 09       		.byte	0x9
 819 03fc A6       		.byte	0xa6
 820 03fd D1030000 		.4byte	0x3d1
 821 0401 02       		.byte	0x2
 822 0402 23       		.byte	0x23
 823 0403 04       		.uleb128 0x4
 824 0404 15       		.uleb128 0x15
 825 0405 72313000 		.ascii	"r10\000"
 826 0409 09       		.byte	0x9
 827 040a A7       		.byte	0xa7
 828 040b D1030000 		.4byte	0x3d1
 829 040f 02       		.byte	0x2
 830 0410 23       		.byte	0x23
 831 0411 08       		.uleb128 0x8
 832 0412 15       		.uleb128 0x15
 833 0413 72313100 		.ascii	"r11\000"
 834 0417 09       		.byte	0x9
 835 0418 A8       		.byte	0xa8
 836 0419 D1030000 		.4byte	0x3d1
 837 041d 02       		.byte	0x2
 838 041e 23       		.byte	0x23
 839 041f 0C       		.uleb128 0xc
 840 0420 15       		.uleb128 0x15
 841 0421 723400   		.ascii	"r4\000"
 842 0424 09       		.byte	0x9
 843 0425 A9       		.byte	0xa9
 844 0426 D1030000 		.4byte	0x3d1
 845 042a 02       		.byte	0x2
 846 042b 23       		.byte	0x23
 847 042c 10       		.uleb128 0x10
ARM GAS  /tmp/ccPodowx.s 			page 16


 848 042d 15       		.uleb128 0x15
 849 042e 723500   		.ascii	"r5\000"
 850 0431 09       		.byte	0x9
 851 0432 AA       		.byte	0xaa
 852 0433 D1030000 		.4byte	0x3d1
 853 0437 02       		.byte	0x2
 854 0438 23       		.byte	0x23
 855 0439 14       		.uleb128 0x14
 856 043a 15       		.uleb128 0x15
 857 043b 723600   		.ascii	"r6\000"
 858 043e 09       		.byte	0x9
 859 043f AB       		.byte	0xab
 860 0440 D1030000 		.4byte	0x3d1
 861 0444 02       		.byte	0x2
 862 0445 23       		.byte	0x23
 863 0446 18       		.uleb128 0x18
 864 0447 15       		.uleb128 0x15
 865 0448 723700   		.ascii	"r7\000"
 866 044b 09       		.byte	0x9
 867 044c AC       		.byte	0xac
 868 044d D1030000 		.4byte	0x3d1
 869 0451 02       		.byte	0x2
 870 0452 23       		.byte	0x23
 871 0453 1C       		.uleb128 0x1c
 872 0454 15       		.uleb128 0x15
 873 0455 6C7200   		.ascii	"lr\000"
 874 0458 09       		.byte	0x9
 875 0459 AD       		.byte	0xad
 876 045a D1030000 		.4byte	0x3d1
 877 045e 02       		.byte	0x2
 878 045f 23       		.byte	0x23
 879 0460 20       		.uleb128 0x20
 880 0461 00       		.byte	0
 881 0462 07       		.uleb128 0x7
 882 0463 CA020000 		.4byte	.LASF64
 883 0467 02       		.byte	0x2
 884 0468 F3       		.byte	0xf3
 885 0469 DE030000 		.4byte	0x3de
 886 046d 11       		.uleb128 0x11
 887 046e 04       		.byte	0x4
 888 046f 02       		.byte	0x2
 889 0470 F8       		.byte	0xf8
 890 0471 84040000 		.4byte	0x484
 891 0475 15       		.uleb128 0x15
 892 0476 636E7400 		.ascii	"cnt\000"
 893 047a 02       		.byte	0x2
 894 047b F9       		.byte	0xf9
 895 047c 84040000 		.4byte	0x484
 896 0480 02       		.byte	0x2
 897 0481 23       		.byte	0x23
 898 0482 00       		.uleb128 0
 899 0483 00       		.byte	0
 900 0484 08       		.uleb128 0x8
 901 0485 14010000 		.4byte	0x114
 902 0489 07       		.uleb128 0x7
 903 048a 89040000 		.4byte	.LASF65
 904 048e 02       		.byte	0x2
ARM GAS  /tmp/ccPodowx.s 			page 17


 905 048f FA       		.byte	0xfa
 906 0490 6D040000 		.4byte	0x46d
 907 0494 16       		.uleb128 0x16
 908 0495 04       		.byte	0x4
 909 0496 9A040000 		.4byte	0x49a
 910 049a 17       		.uleb128 0x17
 911 049b 9F040000 		.4byte	0x49f
 912 049f 06       		.uleb128 0x6
 913 04a0 01       		.byte	0x1
 914 04a1 08       		.byte	0x8
 915 04a2 BC010000 		.4byte	.LASF66
 916 04a6 0D       		.uleb128 0xd
 917 04a7 F2010000 		.4byte	.LASF67
 918 04ab 02       		.byte	0x2
 919 04ac 1901     		.2byte	0x119
 920 04ae B2040000 		.4byte	0x4b2
 921 04b2 16       		.uleb128 0x16
 922 04b3 04       		.byte	0x4
 923 04b4 29000000 		.4byte	0x29
 924 04b8 18       		.uleb128 0x18
 925 04b9 04       		.byte	0x4
 926 04ba 02       		.byte	0x2
 927 04bb 2301     		.2byte	0x123
 928 04bd FC040000 		.4byte	0x4fc
 929 04c1 19       		.uleb128 0x19
 930 04c2 6D736700 		.ascii	"msg\000"
 931 04c6 02       		.byte	0x2
 932 04c7 2401     		.2byte	0x124
 933 04c9 FE000000 		.4byte	0xfe
 934 04cd 19       		.uleb128 0x19
 935 04ce 7000     		.ascii	"p\000"
 936 04d0 02       		.byte	0x2
 937 04d1 2501     		.2byte	0x125
 938 04d3 DC030000 		.4byte	0x3dc
 939 04d7 19       		.uleb128 0x19
 940 04d8 74727000 		.ascii	"trp\000"
 941 04dc 02       		.byte	0x2
 942 04dd 2601     		.2byte	0x126
 943 04df FC040000 		.4byte	0x4fc
 944 04e3 1A       		.uleb128 0x1a
 945 04e4 DF000000 		.4byte	.LASF68
 946 04e8 02       		.byte	0x2
 947 04e9 2701     		.2byte	0x127
 948 04eb 02050000 		.4byte	0x502
 949 04ef 1A       		.uleb128 0x1a
 950 04f0 A8040000 		.4byte	.LASF69
 951 04f4 02       		.byte	0x2
 952 04f5 2901     		.2byte	0x129
 953 04f7 09010000 		.4byte	0x109
 954 04fb 00       		.byte	0
 955 04fc 16       		.uleb128 0x16
 956 04fd 04       		.byte	0x4
 957 04fe A6040000 		.4byte	0x4a6
 958 0502 16       		.uleb128 0x16
 959 0503 04       		.byte	0x4
 960 0504 89040000 		.4byte	0x489
 961 0508 16       		.uleb128 0x16
ARM GAS  /tmp/ccPodowx.s 			page 18


 962 0509 04       		.byte	0x4
 963 050a 62040000 		.4byte	0x462
 964 050e 08       		.uleb128 0x8
 965 050f C6030000 		.4byte	0x3c6
 966 0513 0E       		.uleb128 0xe
 967 0514 98       		.byte	0x98
 968 0515 02       		.byte	0x2
 969 0516 3D01     		.2byte	0x13d
 970 0518 59050000 		.4byte	0x559
 971 051c 03       		.uleb128 0x3
 972 051d 42050000 		.4byte	.LASF70
 973 0521 02       		.byte	0x2
 974 0522 4101     		.2byte	0x141
 975 0524 B2040000 		.4byte	0x4b2
 976 0528 02       		.byte	0x2
 977 0529 23       		.byte	0x23
 978 052a 00       		.uleb128 0
 979 052b 03       		.uleb128 0x3
 980 052c 71000000 		.4byte	.LASF71
 981 0530 02       		.byte	0x2
 982 0531 4701     		.2byte	0x147
 983 0533 B2040000 		.4byte	0x4b2
 984 0537 02       		.byte	0x2
 985 0538 23       		.byte	0x23
 986 0539 04       		.uleb128 0x4
 987 053a 03       		.uleb128 0x3
 988 053b 1B030000 		.4byte	.LASF72
 989 053f 02       		.byte	0x2
 990 0540 4C01     		.2byte	0x14c
 991 0542 C6030000 		.4byte	0x3c6
 992 0546 02       		.byte	0x2
 993 0547 23       		.byte	0x23
 994 0548 08       		.uleb128 0x8
 995 0549 03       		.uleb128 0x3
 996 054a 58040000 		.4byte	.LASF73
 997 054e 02       		.byte	0x2
 998 054f 5B01     		.2byte	0x15b
 999 0551 59050000 		.4byte	0x559
 1000 0555 02       		.byte	0x2
 1001 0556 23       		.byte	0x23
 1002 0557 0C       		.uleb128 0xc
 1003 0558 00       		.byte	0
 1004 0559 0F       		.uleb128 0xf
 1005 055a 29000000 		.4byte	0x29
 1006 055e 69050000 		.4byte	0x569
 1007 0562 10       		.uleb128 0x10
 1008 0563 1F010000 		.4byte	0x11f
 1009 0567 06       		.byte	0x6
 1010 0568 00       		.byte	0
 1011 0569 0D       		.uleb128 0xd
 1012 056a 0F040000 		.4byte	.LASF74
 1013 056e 02       		.byte	0x2
 1014 056f 6401     		.2byte	0x164
 1015 0571 13050000 		.4byte	0x513
 1016 0575 16       		.uleb128 0x16
 1017 0576 04       		.byte	0x4
 1018 0577 A4020000 		.4byte	0x2a4
ARM GAS  /tmp/ccPodowx.s 			page 19


 1019 057b 06       		.uleb128 0x6
 1020 057c 01       		.byte	0x1
 1021 057d 02       		.byte	0x2
 1022 057e 8D010000 		.4byte	.LASF75
 1023 0582 14       		.uleb128 0x14
 1024 0583 93010000 		.4byte	.LASF76
 1025 0587 01       		.byte	0x1
 1026 0588 0A       		.byte	0xa
 1027 0589 A5       		.byte	0xa5
 1028 058a 9D050000 		.4byte	0x59d
 1029 058e 12       		.uleb128 0x12
 1030 058f E9030000 		.4byte	.LASF77
 1031 0593 0A       		.byte	0xa
 1032 0594 A6       		.byte	0xa6
 1033 0595 96000000 		.4byte	0x96
 1034 0599 02       		.byte	0x2
 1035 059a 23       		.byte	0x23
 1036 059b 00       		.uleb128 0
 1037 059c 00       		.byte	0
 1038 059d 07       		.uleb128 0x7
 1039 059e 95040000 		.4byte	.LASF78
 1040 05a2 0A       		.byte	0xa
 1041 05a3 A8       		.byte	0xa8
 1042 05a4 82050000 		.4byte	0x582
 1043 05a8 1B       		.uleb128 0x1b
 1044 05a9 01       		.byte	0x1
 1045 05aa 3B010000 		.4byte	.LASF81
 1046 05ae 01       		.byte	0x1
 1047 05af 07       		.byte	0x7
 1048 05b0 01       		.byte	0x1
 1049 05b1 00000000 		.4byte	.LFB77
 1050 05b5 FC000000 		.4byte	.LFE77
 1051 05b9 00000000 		.4byte	.LLST0
 1052 05bd 01       		.byte	0x1
 1053 05be D9070000 		.4byte	0x7d9
 1054 05c2 1C       		.uleb128 0x1c
 1055 05c3 52000000 		.4byte	.LASF79
 1056 05c7 01       		.byte	0x1
 1057 05c8 09       		.byte	0x9
 1058 05c9 0D030000 		.4byte	0x30d
 1059 05cd 03       		.byte	0x3
 1060 05ce 91       		.byte	0x91
 1061 05cf AC7F     		.sleb128 -84
 1062 05d1 1C       		.uleb128 0x1c
 1063 05d2 CD000000 		.4byte	.LASF80
 1064 05d6 01       		.byte	0x1
 1065 05d7 0A       		.byte	0xa
 1066 05d8 BB030000 		.4byte	0x3bb
 1067 05dc 02       		.byte	0x2
 1068 05dd 91       		.byte	0x91
 1069 05de 44       		.sleb128 -60
 1070 05df 1D       		.uleb128 0x1d
 1071 05e0 0A000000 		.4byte	.LVL0
 1072 05e4 58080000 		.4byte	0x858
 1073 05e8 F2050000 		.4byte	0x5f2
 1074 05ec 1E       		.uleb128 0x1e
 1075 05ed 01       		.byte	0x1
ARM GAS  /tmp/ccPodowx.s 			page 20


 1076 05ee 50       		.byte	0x50
 1077 05ef 01       		.byte	0x1
 1078 05f0 30       		.byte	0x30
 1079 05f1 00       		.byte	0
 1080 05f2 1D       		.uleb128 0x1d
 1081 05f3 10000000 		.4byte	.LVL1
 1082 05f7 6D080000 		.4byte	0x86d
 1083 05fb 05060000 		.4byte	0x605
 1084 05ff 1E       		.uleb128 0x1e
 1085 0600 01       		.byte	0x1
 1086 0601 50       		.byte	0x50
 1087 0602 01       		.byte	0x1
 1088 0603 31       		.byte	0x31
 1089 0604 00       		.byte	0
 1090 0605 1D       		.uleb128 0x1d
 1091 0606 16000000 		.4byte	.LVL2
 1092 060a 82080000 		.4byte	0x882
 1093 060e 1C060000 		.4byte	0x61c
 1094 0612 1E       		.uleb128 0x1e
 1095 0613 01       		.byte	0x1
 1096 0614 50       		.byte	0x50
 1097 0615 05       		.byte	0x5
 1098 0616 0C       		.byte	0xc
 1099 0617 08000240 		.4byte	0x40020008
 1100 061b 00       		.byte	0
 1101 061c 1D       		.uleb128 0x1d
 1102 061d 48000000 		.4byte	.LVL3
 1103 0621 97080000 		.4byte	0x897
 1104 0625 39060000 		.4byte	0x639
 1105 0629 1E       		.uleb128 0x1e
 1106 062a 01       		.byte	0x1
 1107 062b 51       		.byte	0x51
 1108 062c 02       		.byte	0x2
 1109 062d 91       		.byte	0x91
 1110 062e 44       		.sleb128 -60
 1111 062f 1E       		.uleb128 0x1e
 1112 0630 01       		.byte	0x1
 1113 0631 50       		.byte	0x50
 1114 0632 05       		.byte	0x5
 1115 0633 0C       		.byte	0xc
 1116 0634 08000240 		.4byte	0x40020008
 1117 0638 00       		.byte	0
 1118 0639 1D       		.uleb128 0x1d
 1119 063a 50000000 		.4byte	.LVL4
 1120 063e B7080000 		.4byte	0x8b7
 1121 0642 55060000 		.4byte	0x655
 1122 0646 1E       		.uleb128 0x1e
 1123 0647 01       		.byte	0x1
 1124 0648 51       		.byte	0x51
 1125 0649 01       		.byte	0x1
 1126 064a 31       		.byte	0x31
 1127 064b 1E       		.uleb128 0x1e
 1128 064c 01       		.byte	0x1
 1129 064d 50       		.byte	0x50
 1130 064e 05       		.byte	0x5
 1131 064f 0C       		.byte	0xc
 1132 0650 08000240 		.4byte	0x40020008
ARM GAS  /tmp/ccPodowx.s 			page 21


 1133 0654 00       		.byte	0
 1134 0655 1D       		.uleb128 0x1d
 1135 0656 5A000000 		.4byte	.LVL5
 1136 065a D1080000 		.4byte	0x8d1
 1137 065e 71060000 		.4byte	0x671
 1138 0662 1E       		.uleb128 0x1e
 1139 0663 01       		.byte	0x1
 1140 0664 51       		.byte	0x51
 1141 0665 01       		.byte	0x1
 1142 0666 32       		.byte	0x32
 1143 0667 1E       		.uleb128 0x1e
 1144 0668 01       		.byte	0x1
 1145 0669 50       		.byte	0x50
 1146 066a 05       		.byte	0x5
 1147 066b 0C       		.byte	0xc
 1148 066c 00240140 		.4byte	0x40012400
 1149 0670 00       		.byte	0
 1150 0671 1D       		.uleb128 0x1d
 1151 0672 62000000 		.4byte	.LVL6
 1152 0676 F1080000 		.4byte	0x8f1
 1153 067a 8D060000 		.4byte	0x68d
 1154 067e 1E       		.uleb128 0x1e
 1155 067f 01       		.byte	0x1
 1156 0680 51       		.byte	0x51
 1157 0681 01       		.byte	0x1
 1158 0682 31       		.byte	0x31
 1159 0683 1E       		.uleb128 0x1e
 1160 0684 01       		.byte	0x1
 1161 0685 50       		.byte	0x50
 1162 0686 05       		.byte	0x5
 1163 0687 0C       		.byte	0xc
 1164 0688 00240140 		.4byte	0x40012400
 1165 068c 00       		.byte	0
 1166 068d 1D       		.uleb128 0x1d
 1167 068e 68000000 		.4byte	.LVL7
 1168 0692 0B090000 		.4byte	0x90b
 1169 0696 A1060000 		.4byte	0x6a1
 1170 069a 1E       		.uleb128 0x1e
 1171 069b 01       		.byte	0x1
 1172 069c 50       		.byte	0x50
 1173 069d 02       		.byte	0x2
 1174 069e 74       		.byte	0x74
 1175 069f 00       		.sleb128 0
 1176 06a0 00       		.byte	0
 1177 06a1 1D       		.uleb128 0x1d
 1178 06a2 7E000000 		.4byte	.LVL8
 1179 06a6 26090000 		.4byte	0x926
 1180 06aa BE060000 		.4byte	0x6be
 1181 06ae 1E       		.uleb128 0x1e
 1182 06af 01       		.byte	0x1
 1183 06b0 51       		.byte	0x51
 1184 06b1 02       		.byte	0x2
 1185 06b2 74       		.byte	0x74
 1186 06b3 00       		.sleb128 0
 1187 06b4 1E       		.uleb128 0x1e
 1188 06b5 01       		.byte	0x1
 1189 06b6 50       		.byte	0x50
ARM GAS  /tmp/ccPodowx.s 			page 22


 1190 06b7 05       		.byte	0x5
 1191 06b8 0C       		.byte	0xc
 1192 06b9 00240140 		.4byte	0x40012400
 1193 06bd 00       		.byte	0
 1194 06be 1D       		.uleb128 0x1d
 1195 06bf 88000000 		.4byte	.LVL9
 1196 06c3 40090000 		.4byte	0x940
 1197 06c7 E0060000 		.4byte	0x6e0
 1198 06cb 1E       		.uleb128 0x1e
 1199 06cc 01       		.byte	0x1
 1200 06cd 52       		.byte	0x52
 1201 06ce 01       		.byte	0x1
 1202 06cf 37       		.byte	0x37
 1203 06d0 1E       		.uleb128 0x1e
 1204 06d1 01       		.byte	0x1
 1205 06d2 51       		.byte	0x51
 1206 06d3 02       		.byte	0x2
 1207 06d4 76       		.byte	0x76
 1208 06d5 00       		.sleb128 0
 1209 06d6 1E       		.uleb128 0x1e
 1210 06d7 01       		.byte	0x1
 1211 06d8 50       		.byte	0x50
 1212 06d9 05       		.byte	0x5
 1213 06da 0C       		.byte	0xc
 1214 06db 00240140 		.4byte	0x40012400
 1215 06df 00       		.byte	0
 1216 06e0 1D       		.uleb128 0x1d
 1217 06e1 92000000 		.4byte	.LVL10
 1218 06e5 40090000 		.4byte	0x940
 1219 06e9 01070000 		.4byte	0x701
 1220 06ed 1E       		.uleb128 0x1e
 1221 06ee 01       		.byte	0x1
 1222 06ef 52       		.byte	0x52
 1223 06f0 01       		.byte	0x1
 1224 06f1 37       		.byte	0x37
 1225 06f2 1E       		.uleb128 0x1e
 1226 06f3 01       		.byte	0x1
 1227 06f4 51       		.byte	0x51
 1228 06f5 01       		.byte	0x1
 1229 06f6 32       		.byte	0x32
 1230 06f7 1E       		.uleb128 0x1e
 1231 06f8 01       		.byte	0x1
 1232 06f9 50       		.byte	0x50
 1233 06fa 05       		.byte	0x5
 1234 06fb 0C       		.byte	0xc
 1235 06fc 00240140 		.4byte	0x40012400
 1236 0700 00       		.byte	0
 1237 0701 1D       		.uleb128 0x1d
 1238 0702 9C000000 		.4byte	.LVL11
 1239 0706 40090000 		.4byte	0x940
 1240 070a 23070000 		.4byte	0x723
 1241 070e 1E       		.uleb128 0x1e
 1242 070f 01       		.byte	0x1
 1243 0710 52       		.byte	0x52
 1244 0711 01       		.byte	0x1
 1245 0712 37       		.byte	0x37
 1246 0713 1E       		.uleb128 0x1e
ARM GAS  /tmp/ccPodowx.s 			page 23


 1247 0714 01       		.byte	0x1
 1248 0715 51       		.byte	0x51
 1249 0716 02       		.byte	0x2
 1250 0717 75       		.byte	0x75
 1251 0718 00       		.sleb128 0
 1252 0719 1E       		.uleb128 0x1e
 1253 071a 01       		.byte	0x1
 1254 071b 50       		.byte	0x50
 1255 071c 05       		.byte	0x5
 1256 071d 0C       		.byte	0xc
 1257 071e 00240140 		.4byte	0x40012400
 1258 0722 00       		.byte	0
 1259 0723 1D       		.uleb128 0x1d
 1260 0724 A8000000 		.4byte	.LVL12
 1261 0728 40090000 		.4byte	0x940
 1262 072c 46070000 		.4byte	0x746
 1263 0730 1E       		.uleb128 0x1e
 1264 0731 01       		.byte	0x1
 1265 0732 52       		.byte	0x52
 1266 0733 01       		.byte	0x1
 1267 0734 37       		.byte	0x37
 1268 0735 1E       		.uleb128 0x1e
 1269 0736 01       		.byte	0x1
 1270 0737 51       		.byte	0x51
 1271 0738 03       		.byte	0x3
 1272 0739 40       		.byte	0x40
 1273 073a 3C       		.byte	0x3c
 1274 073b 24       		.byte	0x24
 1275 073c 1E       		.uleb128 0x1e
 1276 073d 01       		.byte	0x1
 1277 073e 50       		.byte	0x50
 1278 073f 05       		.byte	0x5
 1279 0740 0C       		.byte	0xc
 1280 0741 00240140 		.4byte	0x40012400
 1281 0745 00       		.byte	0
 1282 0746 1D       		.uleb128 0x1d
 1283 0747 AE000000 		.4byte	.LVL13
 1284 074b 5F090000 		.4byte	0x95f
 1285 074f 5A070000 		.4byte	0x75a
 1286 0753 1E       		.uleb128 0x1e
 1287 0754 01       		.byte	0x1
 1288 0755 50       		.byte	0x50
 1289 0756 02       		.byte	0x2
 1290 0757 76       		.byte	0x76
 1291 0758 00       		.sleb128 0
 1292 0759 00       		.byte	0
 1293 075a 1D       		.uleb128 0x1d
 1294 075b B4000000 		.4byte	.LVL14
 1295 075f 74090000 		.4byte	0x974
 1296 0763 71070000 		.4byte	0x771
 1297 0767 1E       		.uleb128 0x1e
 1298 0768 01       		.byte	0x1
 1299 0769 50       		.byte	0x50
 1300 076a 05       		.byte	0x5
 1301 076b 0C       		.byte	0xc
 1302 076c 00240140 		.4byte	0x40012400
 1303 0770 00       		.byte	0
ARM GAS  /tmp/ccPodowx.s 			page 24


 1304 0771 1D       		.uleb128 0x1d
 1305 0772 BC000000 		.4byte	.LVL15
 1306 0776 8D090000 		.4byte	0x98d
 1307 077a 8E070000 		.4byte	0x78e
 1308 077e 1E       		.uleb128 0x1e
 1309 077f 01       		.byte	0x1
 1310 0780 51       		.byte	0x51
 1311 0781 02       		.byte	0x2
 1312 0782 76       		.byte	0x76
 1313 0783 00       		.sleb128 0
 1314 0784 1E       		.uleb128 0x1e
 1315 0785 01       		.byte	0x1
 1316 0786 50       		.byte	0x50
 1317 0787 05       		.byte	0x5
 1318 0788 0C       		.byte	0xc
 1319 0789 00240140 		.4byte	0x40012400
 1320 078d 00       		.byte	0
 1321 078e 1D       		.uleb128 0x1d
 1322 078f C4000000 		.4byte	.LVL16
 1323 0793 A7090000 		.4byte	0x9a7
 1324 0797 AE070000 		.4byte	0x7ae
 1325 079b 1E       		.uleb128 0x1e
 1326 079c 01       		.byte	0x1
 1327 079d 51       		.byte	0x51
 1328 079e 05       		.byte	0x5
 1329 079f 0C       		.byte	0xc
 1330 07a0 01000001 		.4byte	0x1000001
 1331 07a4 1E       		.uleb128 0x1e
 1332 07a5 01       		.byte	0x1
 1333 07a6 50       		.byte	0x50
 1334 07a7 05       		.byte	0x5
 1335 07a8 0C       		.byte	0xc
 1336 07a9 00240140 		.4byte	0x40012400
 1337 07ad 00       		.byte	0
 1338 07ae 1D       		.uleb128 0x1d
 1339 07af CE000000 		.4byte	.LVL17
 1340 07b3 C5090000 		.4byte	0x9c5
 1341 07b7 C5070000 		.4byte	0x7c5
 1342 07bb 1E       		.uleb128 0x1e
 1343 07bc 01       		.byte	0x1
 1344 07bd 50       		.byte	0x50
 1345 07be 05       		.byte	0x5
 1346 07bf 0C       		.byte	0xc
 1347 07c0 00240140 		.4byte	0x40012400
 1348 07c4 00       		.byte	0
 1349 07c5 1F       		.uleb128 0x1f
 1350 07c6 DA000000 		.4byte	.LVL18
 1351 07ca DA090000 		.4byte	0x9da
 1352 07ce 1E       		.uleb128 0x1e
 1353 07cf 01       		.byte	0x1
 1354 07d0 50       		.byte	0x50
 1355 07d1 05       		.byte	0x5
 1356 07d2 03       		.byte	0x3
 1357 07d3 00000000 		.4byte	.LC2
 1358 07d7 00       		.byte	0
 1359 07d8 00       		.byte	0
 1360 07d9 1B       		.uleb128 0x1b
ARM GAS  /tmp/ccPodowx.s 			page 25


 1361 07da 01       		.byte	0x1
 1362 07db A9010000 		.4byte	.LASF82
 1363 07df 01       		.byte	0x1
 1364 07e0 49       		.byte	0x49
 1365 07e1 01       		.byte	0x1
 1366 07e2 00000000 		.4byte	.LFB78
 1367 07e6 14000000 		.4byte	.LFE78
 1368 07ea 2D000000 		.4byte	.LLST1
 1369 07ee 01       		.byte	0x1
 1370 07ef 16080000 		.4byte	0x816
 1371 07f3 1D       		.uleb128 0x1d
 1372 07f4 08000000 		.4byte	.LVL19
 1373 07f8 EE090000 		.4byte	0x9ee
 1374 07fc 06080000 		.4byte	0x806
 1375 0800 1E       		.uleb128 0x1e
 1376 0801 01       		.byte	0x1
 1377 0802 50       		.byte	0x50
 1378 0803 01       		.byte	0x1
 1379 0804 32       		.byte	0x32
 1380 0805 00       		.byte	0
 1381 0806 1F       		.uleb128 0x1f
 1382 0807 12000000 		.4byte	.LVL20
 1383 080b 070A0000 		.4byte	0xa07
 1384 080f 1E       		.uleb128 0x1e
 1385 0810 01       		.byte	0x1
 1386 0811 50       		.byte	0x50
 1387 0812 01       		.byte	0x1
 1388 0813 31       		.byte	0x31
 1389 0814 00       		.byte	0
 1390 0815 00       		.byte	0
 1391 0816 20       		.uleb128 0x20
 1392 0817 6E696C00 		.ascii	"nil\000"
 1393 081b 02       		.byte	0x2
 1394 081c F602     		.2byte	0x2f6
 1395 081e 69050000 		.4byte	0x569
 1396 0822 01       		.byte	0x1
 1397 0823 01       		.byte	0x1
 1398 0824 21       		.uleb128 0x21
 1399 0825 4D040000 		.4byte	.LASF83
 1400 0829 01       		.byte	0x1
 1401 082a 04       		.byte	0x4
 1402 082b 9D050000 		.4byte	0x59d
 1403 082f 01       		.byte	0x1
 1404 0830 05       		.byte	0x5
 1405 0831 03       		.byte	0x3
 1406 0832 00000000 		.4byte	adc_status
 1407 0836 0F       		.uleb128 0xf
 1408 0837 AF000000 		.4byte	0xaf
 1409 083b 46080000 		.4byte	0x846
 1410 083f 10       		.uleb128 0x10
 1411 0840 1F010000 		.4byte	0x11f
 1412 0844 1F       		.byte	0x1f
 1413 0845 00       		.byte	0
 1414 0846 21       		.uleb128 0x21
 1415 0847 73030000 		.4byte	.LASF84
 1416 084b 01       		.byte	0x1
 1417 084c 05       		.byte	0x5
ARM GAS  /tmp/ccPodowx.s 			page 26


 1418 084d 36080000 		.4byte	0x836
 1419 0851 01       		.byte	0x1
 1420 0852 05       		.byte	0x5
 1421 0853 03       		.byte	0x3
 1422 0854 00000000 		.4byte	adc_samples
 1423 0858 22       		.uleb128 0x22
 1424 0859 01       		.byte	0x1
 1425 085a 91020000 		.4byte	.LASF85
 1426 085e 0B       		.byte	0xb
 1427 085f E301     		.2byte	0x1e3
 1428 0861 01       		.byte	0x1
 1429 0862 01       		.byte	0x1
 1430 0863 6D080000 		.4byte	0x86d
 1431 0867 23       		.uleb128 0x23
 1432 0868 D3000000 		.4byte	0xd3
 1433 086c 00       		.byte	0
 1434 086d 22       		.uleb128 0x22
 1435 086e 01       		.byte	0x1
 1436 086f 4A050000 		.4byte	.LASF86
 1437 0873 0B       		.byte	0xb
 1438 0874 D301     		.2byte	0x1d3
 1439 0876 01       		.byte	0x1
 1440 0877 01       		.byte	0x1
 1441 0878 82080000 		.4byte	0x882
 1442 087c 23       		.uleb128 0x23
 1443 087d 6C010000 		.4byte	0x16c
 1444 0881 00       		.byte	0
 1445 0882 22       		.uleb128 0x22
 1446 0883 01       		.byte	0x1
 1447 0884 7E040000 		.4byte	.LASF87
 1448 0888 07       		.byte	0x7
 1449 0889 3F01     		.2byte	0x13f
 1450 088b 01       		.byte	0x1
 1451 088c 01       		.byte	0x1
 1452 088d 97080000 		.4byte	0x897
 1453 0891 23       		.uleb128 0x23
 1454 0892 75050000 		.4byte	0x575
 1455 0896 00       		.byte	0
 1456 0897 22       		.uleb128 0x22
 1457 0898 01       		.byte	0x1
 1458 0899 76000000 		.4byte	.LASF88
 1459 089d 07       		.byte	0x7
 1460 089e 4201     		.2byte	0x142
 1461 08a0 01       		.byte	0x1
 1462 08a1 01       		.byte	0x1
 1463 08a2 B1080000 		.4byte	0x8b1
 1464 08a6 23       		.uleb128 0x23
 1465 08a7 75050000 		.4byte	0x575
 1466 08ab 23       		.uleb128 0x23
 1467 08ac B1080000 		.4byte	0x8b1
 1468 08b0 00       		.byte	0
 1469 08b1 16       		.uleb128 0x16
 1470 08b2 04       		.byte	0x4
 1471 08b3 BB030000 		.4byte	0x3bb
 1472 08b7 22       		.uleb128 0x22
 1473 08b8 01       		.byte	0x1
 1474 08b9 2F000000 		.4byte	.LASF89
ARM GAS  /tmp/ccPodowx.s 			page 27


 1475 08bd 07       		.byte	0x7
 1476 08be 4401     		.2byte	0x144
 1477 08c0 01       		.byte	0x1
 1478 08c1 01       		.byte	0x1
 1479 08c2 D1080000 		.4byte	0x8d1
 1480 08c6 23       		.uleb128 0x23
 1481 08c7 75050000 		.4byte	0x575
 1482 08cb 23       		.uleb128 0x23
 1483 08cc 6C010000 		.4byte	0x16c
 1484 08d0 00       		.byte	0
 1485 08d1 22       		.uleb128 0x22
 1486 08d2 01       		.byte	0x1
 1487 08d3 8F000000 		.4byte	.LASF90
 1488 08d7 06       		.byte	0x6
 1489 08d8 9901     		.2byte	0x199
 1490 08da 01       		.byte	0x1
 1491 08db 01       		.byte	0x1
 1492 08dc EB080000 		.4byte	0x8eb
 1493 08e0 23       		.uleb128 0x23
 1494 08e1 EB080000 		.4byte	0x8eb
 1495 08e5 23       		.uleb128 0x23
 1496 08e6 D3000000 		.4byte	0xd3
 1497 08ea 00       		.byte	0
 1498 08eb 16       		.uleb128 0x16
 1499 08ec 04       		.byte	0x4
 1500 08ed 52020000 		.4byte	0x252
 1501 08f1 22       		.uleb128 0x22
 1502 08f2 01       		.byte	0x1
 1503 08f3 68030000 		.4byte	.LASF91
 1504 08f7 06       		.byte	0x6
 1505 08f8 9801     		.2byte	0x198
 1506 08fa 01       		.byte	0x1
 1507 08fb 01       		.byte	0x1
 1508 08fc 0B090000 		.4byte	0x90b
 1509 0900 23       		.uleb128 0x23
 1510 0901 EB080000 		.4byte	0x8eb
 1511 0905 23       		.uleb128 0x23
 1512 0906 6C010000 		.4byte	0x16c
 1513 090a 00       		.byte	0
 1514 090b 22       		.uleb128 0x22
 1515 090c 01       		.byte	0x1
 1516 090d E7020000 		.4byte	.LASF92
 1517 0911 06       		.byte	0x6
 1518 0912 7A01     		.2byte	0x17a
 1519 0914 01       		.byte	0x1
 1520 0915 01       		.byte	0x1
 1521 0916 20090000 		.4byte	0x920
 1522 091a 23       		.uleb128 0x23
 1523 091b 20090000 		.4byte	0x920
 1524 091f 00       		.byte	0
 1525 0920 16       		.uleb128 0x16
 1526 0921 04       		.byte	0x4
 1527 0922 0D030000 		.4byte	0x30d
 1528 0926 22       		.uleb128 0x22
 1529 0927 01       		.byte	0x1
 1530 0928 5B010000 		.4byte	.LASF93
 1531 092c 06       		.byte	0x6
ARM GAS  /tmp/ccPodowx.s 			page 28


 1532 092d 7901     		.2byte	0x179
 1533 092f 01       		.byte	0x1
 1534 0930 01       		.byte	0x1
 1535 0931 40090000 		.4byte	0x940
 1536 0935 23       		.uleb128 0x23
 1537 0936 EB080000 		.4byte	0x8eb
 1538 093a 23       		.uleb128 0x23
 1539 093b 20090000 		.4byte	0x920
 1540 093f 00       		.byte	0
 1541 0940 22       		.uleb128 0x22
 1542 0941 01       		.byte	0x1
 1543 0942 D8010000 		.4byte	.LASF94
 1544 0946 06       		.byte	0x6
 1545 0947 8E01     		.2byte	0x18e
 1546 0949 01       		.byte	0x1
 1547 094a 01       		.byte	0x1
 1548 094b 5F090000 		.4byte	0x95f
 1549 094f 23       		.uleb128 0x23
 1550 0950 EB080000 		.4byte	0x8eb
 1551 0954 23       		.uleb128 0x23
 1552 0955 D3000000 		.4byte	0xd3
 1553 0959 23       		.uleb128 0x23
 1554 095a D3000000 		.4byte	0xd3
 1555 095e 00       		.byte	0
 1556 095f 22       		.uleb128 0x22
 1557 0960 01       		.byte	0x1
 1558 0961 64010000 		.4byte	.LASF95
 1559 0965 06       		.byte	0x6
 1560 0966 8901     		.2byte	0x189
 1561 0968 01       		.byte	0x1
 1562 0969 01       		.byte	0x1
 1563 096a 74090000 		.4byte	0x974
 1564 096e 23       		.uleb128 0x23
 1565 096f 6C010000 		.4byte	0x16c
 1566 0973 00       		.byte	0
 1567 0974 24       		.uleb128 0x24
 1568 0975 01       		.byte	0x1
 1569 0976 F0030000 		.4byte	.LASF97
 1570 097a 06       		.byte	0x6
 1571 097b 9201     		.2byte	0x192
 1572 097d 01       		.byte	0x1
 1573 097e D3000000 		.4byte	0xd3
 1574 0982 01       		.byte	0x1
 1575 0983 8D090000 		.4byte	0x98d
 1576 0987 23       		.uleb128 0x23
 1577 0988 EB080000 		.4byte	0x8eb
 1578 098c 00       		.byte	0
 1579 098d 22       		.uleb128 0x22
 1580 098e 01       		.byte	0x1
 1581 098f 33010000 		.4byte	.LASF96
 1582 0993 06       		.byte	0x6
 1583 0994 7C01     		.2byte	0x17c
 1584 0996 01       		.byte	0x1
 1585 0997 01       		.byte	0x1
 1586 0998 A7090000 		.4byte	0x9a7
 1587 099c 23       		.uleb128 0x23
 1588 099d EB080000 		.4byte	0x8eb
ARM GAS  /tmp/ccPodowx.s 			page 29


 1589 09a1 23       		.uleb128 0x23
 1590 09a2 6C010000 		.4byte	0x16c
 1591 09a6 00       		.byte	0
 1592 09a7 24       		.uleb128 0x24
 1593 09a8 01       		.byte	0x1
 1594 09a9 3A030000 		.4byte	.LASF98
 1595 09ad 06       		.byte	0x6
 1596 09ae 9D01     		.2byte	0x19d
 1597 09b0 01       		.byte	0x1
 1598 09b1 40010000 		.4byte	0x140
 1599 09b5 01       		.byte	0x1
 1600 09b6 C5090000 		.4byte	0x9c5
 1601 09ba 23       		.uleb128 0x23
 1602 09bb EB080000 		.4byte	0x8eb
 1603 09bf 23       		.uleb128 0x23
 1604 09c0 D3000000 		.4byte	0xd3
 1605 09c4 00       		.byte	0
 1606 09c5 22       		.uleb128 0x22
 1607 09c6 01       		.byte	0x1
 1608 09c7 FB000000 		.4byte	.LASF99
 1609 09cb 06       		.byte	0x6
 1610 09cc 9401     		.2byte	0x194
 1611 09ce 01       		.byte	0x1
 1612 09cf 01       		.byte	0x1
 1613 09d0 DA090000 		.4byte	0x9da
 1614 09d4 23       		.uleb128 0x23
 1615 09d5 EB080000 		.4byte	0x8eb
 1616 09d9 00       		.byte	0
 1617 09da 25       		.uleb128 0x25
 1618 09db 01       		.byte	0x1
 1619 09dc 17010000 		.4byte	.LASF100
 1620 09e0 0A       		.byte	0xa
 1621 09e1 53       		.byte	0x53
 1622 09e2 01       		.byte	0x1
 1623 09e3 01       		.byte	0x1
 1624 09e4 EE090000 		.4byte	0x9ee
 1625 09e8 23       		.uleb128 0x23
 1626 09e9 94040000 		.4byte	0x494
 1627 09ed 00       		.byte	0
 1628 09ee 24       		.uleb128 0x24
 1629 09ef 01       		.byte	0x1
 1630 09f0 AF040000 		.4byte	.LASF101
 1631 09f4 07       		.byte	0x7
 1632 09f5 4E01     		.2byte	0x14e
 1633 09f7 01       		.byte	0x1
 1634 09f8 4B010000 		.4byte	0x14b
 1635 09fc 01       		.byte	0x1
 1636 09fd 070A0000 		.4byte	0xa07
 1637 0a01 23       		.uleb128 0x23
 1638 0a02 D3000000 		.4byte	0xd3
 1639 0a06 00       		.byte	0
 1640 0a07 26       		.uleb128 0x26
 1641 0a08 01       		.byte	0x1
 1642 0a09 00000000 		.4byte	.LASF105
 1643 0a0d 07       		.byte	0x7
 1644 0a0e 4F01     		.2byte	0x14f
 1645 0a10 01       		.byte	0x1
ARM GAS  /tmp/ccPodowx.s 			page 30


 1646 0a11 01       		.byte	0x1
 1647 0a12 23       		.uleb128 0x23
 1648 0a13 D3000000 		.4byte	0xd3
 1649 0a17 00       		.byte	0
 1650 0a18 00       		.byte	0
 1651              		.section	.debug_abbrev,"",%progbits
 1652              	.Ldebug_abbrev0:
 1653 0000 01       		.uleb128 0x1
 1654 0001 11       		.uleb128 0x11
 1655 0002 01       		.byte	0x1
 1656 0003 25       		.uleb128 0x25
 1657 0004 0E       		.uleb128 0xe
 1658 0005 13       		.uleb128 0x13
 1659 0006 0B       		.uleb128 0xb
 1660 0007 03       		.uleb128 0x3
 1661 0008 0E       		.uleb128 0xe
 1662 0009 1B       		.uleb128 0x1b
 1663 000a 0E       		.uleb128 0xe
 1664 000b 55       		.uleb128 0x55
 1665 000c 06       		.uleb128 0x6
 1666 000d 11       		.uleb128 0x11
 1667 000e 01       		.uleb128 0x1
 1668 000f 52       		.uleb128 0x52
 1669 0010 01       		.uleb128 0x1
 1670 0011 10       		.uleb128 0x10
 1671 0012 06       		.uleb128 0x6
 1672 0013 00       		.byte	0
 1673 0014 00       		.byte	0
 1674 0015 02       		.uleb128 0x2
 1675 0016 13       		.uleb128 0x13
 1676 0017 01       		.byte	0x1
 1677 0018 03       		.uleb128 0x3
 1678 0019 0E       		.uleb128 0xe
 1679 001a 0B       		.uleb128 0xb
 1680 001b 0B       		.uleb128 0xb
 1681 001c 3A       		.uleb128 0x3a
 1682 001d 0B       		.uleb128 0xb
 1683 001e 3B       		.uleb128 0x3b
 1684 001f 05       		.uleb128 0x5
 1685 0020 01       		.uleb128 0x1
 1686 0021 13       		.uleb128 0x13
 1687 0022 00       		.byte	0
 1688 0023 00       		.byte	0
 1689 0024 03       		.uleb128 0x3
 1690 0025 0D       		.uleb128 0xd
 1691 0026 00       		.byte	0
 1692 0027 03       		.uleb128 0x3
 1693 0028 0E       		.uleb128 0xe
 1694 0029 3A       		.uleb128 0x3a
 1695 002a 0B       		.uleb128 0xb
 1696 002b 3B       		.uleb128 0x3b
 1697 002c 05       		.uleb128 0x5
 1698 002d 49       		.uleb128 0x49
 1699 002e 13       		.uleb128 0x13
 1700 002f 38       		.uleb128 0x38
 1701 0030 0A       		.uleb128 0xa
 1702 0031 00       		.byte	0
ARM GAS  /tmp/ccPodowx.s 			page 31


 1703 0032 00       		.byte	0
 1704 0033 04       		.uleb128 0x4
 1705 0034 0D       		.uleb128 0xd
 1706 0035 00       		.byte	0
 1707 0036 03       		.uleb128 0x3
 1708 0037 08       		.uleb128 0x8
 1709 0038 3A       		.uleb128 0x3a
 1710 0039 0B       		.uleb128 0xb
 1711 003a 3B       		.uleb128 0x3b
 1712 003b 05       		.uleb128 0x5
 1713 003c 49       		.uleb128 0x49
 1714 003d 13       		.uleb128 0x13
 1715 003e 38       		.uleb128 0x38
 1716 003f 0A       		.uleb128 0xa
 1717 0040 00       		.byte	0
 1718 0041 00       		.byte	0
 1719 0042 05       		.uleb128 0x5
 1720 0043 24       		.uleb128 0x24
 1721 0044 00       		.byte	0
 1722 0045 0B       		.uleb128 0xb
 1723 0046 0B       		.uleb128 0xb
 1724 0047 3E       		.uleb128 0x3e
 1725 0048 0B       		.uleb128 0xb
 1726 0049 03       		.uleb128 0x3
 1727 004a 08       		.uleb128 0x8
 1728 004b 00       		.byte	0
 1729 004c 00       		.byte	0
 1730 004d 06       		.uleb128 0x6
 1731 004e 24       		.uleb128 0x24
 1732 004f 00       		.byte	0
 1733 0050 0B       		.uleb128 0xb
 1734 0051 0B       		.uleb128 0xb
 1735 0052 3E       		.uleb128 0x3e
 1736 0053 0B       		.uleb128 0xb
 1737 0054 03       		.uleb128 0x3
 1738 0055 0E       		.uleb128 0xe
 1739 0056 00       		.byte	0
 1740 0057 00       		.byte	0
 1741 0058 07       		.uleb128 0x7
 1742 0059 16       		.uleb128 0x16
 1743 005a 00       		.byte	0
 1744 005b 03       		.uleb128 0x3
 1745 005c 0E       		.uleb128 0xe
 1746 005d 3A       		.uleb128 0x3a
 1747 005e 0B       		.uleb128 0xb
 1748 005f 3B       		.uleb128 0x3b
 1749 0060 0B       		.uleb128 0xb
 1750 0061 49       		.uleb128 0x49
 1751 0062 13       		.uleb128 0x13
 1752 0063 00       		.byte	0
 1753 0064 00       		.byte	0
 1754 0065 08       		.uleb128 0x8
 1755 0066 35       		.uleb128 0x35
 1756 0067 00       		.byte	0
 1757 0068 49       		.uleb128 0x49
 1758 0069 13       		.uleb128 0x13
 1759 006a 00       		.byte	0
ARM GAS  /tmp/ccPodowx.s 			page 32


 1760 006b 00       		.byte	0
 1761 006c 09       		.uleb128 0x9
 1762 006d 04       		.uleb128 0x4
 1763 006e 01       		.byte	0x1
 1764 006f 0B       		.uleb128 0xb
 1765 0070 0B       		.uleb128 0xb
 1766 0071 3A       		.uleb128 0x3a
 1767 0072 0B       		.uleb128 0xb
 1768 0073 3B       		.uleb128 0x3b
 1769 0074 0B       		.uleb128 0xb
 1770 0075 01       		.uleb128 0x1
 1771 0076 13       		.uleb128 0x13
 1772 0077 00       		.byte	0
 1773 0078 00       		.byte	0
 1774 0079 0A       		.uleb128 0xa
 1775 007a 28       		.uleb128 0x28
 1776 007b 00       		.byte	0
 1777 007c 03       		.uleb128 0x3
 1778 007d 0E       		.uleb128 0xe
 1779 007e 1C       		.uleb128 0x1c
 1780 007f 0D       		.uleb128 0xd
 1781 0080 00       		.byte	0
 1782 0081 00       		.byte	0
 1783 0082 0B       		.uleb128 0xb
 1784 0083 28       		.uleb128 0x28
 1785 0084 00       		.byte	0
 1786 0085 03       		.uleb128 0x3
 1787 0086 08       		.uleb128 0x8
 1788 0087 1C       		.uleb128 0x1c
 1789 0088 0D       		.uleb128 0xd
 1790 0089 00       		.byte	0
 1791 008a 00       		.byte	0
 1792 008b 0C       		.uleb128 0xc
 1793 008c 04       		.uleb128 0x4
 1794 008d 01       		.byte	0x1
 1795 008e 0B       		.uleb128 0xb
 1796 008f 0B       		.uleb128 0xb
 1797 0090 3A       		.uleb128 0x3a
 1798 0091 0B       		.uleb128 0xb
 1799 0092 3B       		.uleb128 0x3b
 1800 0093 05       		.uleb128 0x5
 1801 0094 01       		.uleb128 0x1
 1802 0095 13       		.uleb128 0x13
 1803 0096 00       		.byte	0
 1804 0097 00       		.byte	0
 1805 0098 0D       		.uleb128 0xd
 1806 0099 16       		.uleb128 0x16
 1807 009a 00       		.byte	0
 1808 009b 03       		.uleb128 0x3
 1809 009c 0E       		.uleb128 0xe
 1810 009d 3A       		.uleb128 0x3a
 1811 009e 0B       		.uleb128 0xb
 1812 009f 3B       		.uleb128 0x3b
 1813 00a0 05       		.uleb128 0x5
 1814 00a1 49       		.uleb128 0x49
 1815 00a2 13       		.uleb128 0x13
 1816 00a3 00       		.byte	0
ARM GAS  /tmp/ccPodowx.s 			page 33


 1817 00a4 00       		.byte	0
 1818 00a5 0E       		.uleb128 0xe
 1819 00a6 13       		.uleb128 0x13
 1820 00a7 01       		.byte	0x1
 1821 00a8 0B       		.uleb128 0xb
 1822 00a9 0B       		.uleb128 0xb
 1823 00aa 3A       		.uleb128 0x3a
 1824 00ab 0B       		.uleb128 0xb
 1825 00ac 3B       		.uleb128 0x3b
 1826 00ad 05       		.uleb128 0x5
 1827 00ae 01       		.uleb128 0x1
 1828 00af 13       		.uleb128 0x13
 1829 00b0 00       		.byte	0
 1830 00b1 00       		.byte	0
 1831 00b2 0F       		.uleb128 0xf
 1832 00b3 01       		.uleb128 0x1
 1833 00b4 01       		.byte	0x1
 1834 00b5 49       		.uleb128 0x49
 1835 00b6 13       		.uleb128 0x13
 1836 00b7 01       		.uleb128 0x1
 1837 00b8 13       		.uleb128 0x13
 1838 00b9 00       		.byte	0
 1839 00ba 00       		.byte	0
 1840 00bb 10       		.uleb128 0x10
 1841 00bc 21       		.uleb128 0x21
 1842 00bd 00       		.byte	0
 1843 00be 49       		.uleb128 0x49
 1844 00bf 13       		.uleb128 0x13
 1845 00c0 2F       		.uleb128 0x2f
 1846 00c1 0B       		.uleb128 0xb
 1847 00c2 00       		.byte	0
 1848 00c3 00       		.byte	0
 1849 00c4 11       		.uleb128 0x11
 1850 00c5 13       		.uleb128 0x13
 1851 00c6 01       		.byte	0x1
 1852 00c7 0B       		.uleb128 0xb
 1853 00c8 0B       		.uleb128 0xb
 1854 00c9 3A       		.uleb128 0x3a
 1855 00ca 0B       		.uleb128 0xb
 1856 00cb 3B       		.uleb128 0x3b
 1857 00cc 0B       		.uleb128 0xb
 1858 00cd 01       		.uleb128 0x1
 1859 00ce 13       		.uleb128 0x13
 1860 00cf 00       		.byte	0
 1861 00d0 00       		.byte	0
 1862 00d1 12       		.uleb128 0x12
 1863 00d2 0D       		.uleb128 0xd
 1864 00d3 00       		.byte	0
 1865 00d4 03       		.uleb128 0x3
 1866 00d5 0E       		.uleb128 0xe
 1867 00d6 3A       		.uleb128 0x3a
 1868 00d7 0B       		.uleb128 0xb
 1869 00d8 3B       		.uleb128 0x3b
 1870 00d9 0B       		.uleb128 0xb
 1871 00da 49       		.uleb128 0x49
 1872 00db 13       		.uleb128 0x13
 1873 00dc 38       		.uleb128 0x38
ARM GAS  /tmp/ccPodowx.s 			page 34


 1874 00dd 0A       		.uleb128 0xa
 1875 00de 00       		.byte	0
 1876 00df 00       		.byte	0
 1877 00e0 13       		.uleb128 0x13
 1878 00e1 0F       		.uleb128 0xf
 1879 00e2 00       		.byte	0
 1880 00e3 0B       		.uleb128 0xb
 1881 00e4 0B       		.uleb128 0xb
 1882 00e5 00       		.byte	0
 1883 00e6 00       		.byte	0
 1884 00e7 14       		.uleb128 0x14
 1885 00e8 13       		.uleb128 0x13
 1886 00e9 01       		.byte	0x1
 1887 00ea 03       		.uleb128 0x3
 1888 00eb 0E       		.uleb128 0xe
 1889 00ec 0B       		.uleb128 0xb
 1890 00ed 0B       		.uleb128 0xb
 1891 00ee 3A       		.uleb128 0x3a
 1892 00ef 0B       		.uleb128 0xb
 1893 00f0 3B       		.uleb128 0x3b
 1894 00f1 0B       		.uleb128 0xb
 1895 00f2 01       		.uleb128 0x1
 1896 00f3 13       		.uleb128 0x13
 1897 00f4 00       		.byte	0
 1898 00f5 00       		.byte	0
 1899 00f6 15       		.uleb128 0x15
 1900 00f7 0D       		.uleb128 0xd
 1901 00f8 00       		.byte	0
 1902 00f9 03       		.uleb128 0x3
 1903 00fa 08       		.uleb128 0x8
 1904 00fb 3A       		.uleb128 0x3a
 1905 00fc 0B       		.uleb128 0xb
 1906 00fd 3B       		.uleb128 0x3b
 1907 00fe 0B       		.uleb128 0xb
 1908 00ff 49       		.uleb128 0x49
 1909 0100 13       		.uleb128 0x13
 1910 0101 38       		.uleb128 0x38
 1911 0102 0A       		.uleb128 0xa
 1912 0103 00       		.byte	0
 1913 0104 00       		.byte	0
 1914 0105 16       		.uleb128 0x16
 1915 0106 0F       		.uleb128 0xf
 1916 0107 00       		.byte	0
 1917 0108 0B       		.uleb128 0xb
 1918 0109 0B       		.uleb128 0xb
 1919 010a 49       		.uleb128 0x49
 1920 010b 13       		.uleb128 0x13
 1921 010c 00       		.byte	0
 1922 010d 00       		.byte	0
 1923 010e 17       		.uleb128 0x17
 1924 010f 26       		.uleb128 0x26
 1925 0110 00       		.byte	0
 1926 0111 49       		.uleb128 0x49
 1927 0112 13       		.uleb128 0x13
 1928 0113 00       		.byte	0
 1929 0114 00       		.byte	0
 1930 0115 18       		.uleb128 0x18
ARM GAS  /tmp/ccPodowx.s 			page 35


 1931 0116 17       		.uleb128 0x17
 1932 0117 01       		.byte	0x1
 1933 0118 0B       		.uleb128 0xb
 1934 0119 0B       		.uleb128 0xb
 1935 011a 3A       		.uleb128 0x3a
 1936 011b 0B       		.uleb128 0xb
 1937 011c 3B       		.uleb128 0x3b
 1938 011d 05       		.uleb128 0x5
 1939 011e 01       		.uleb128 0x1
 1940 011f 13       		.uleb128 0x13
 1941 0120 00       		.byte	0
 1942 0121 00       		.byte	0
 1943 0122 19       		.uleb128 0x19
 1944 0123 0D       		.uleb128 0xd
 1945 0124 00       		.byte	0
 1946 0125 03       		.uleb128 0x3
 1947 0126 08       		.uleb128 0x8
 1948 0127 3A       		.uleb128 0x3a
 1949 0128 0B       		.uleb128 0xb
 1950 0129 3B       		.uleb128 0x3b
 1951 012a 05       		.uleb128 0x5
 1952 012b 49       		.uleb128 0x49
 1953 012c 13       		.uleb128 0x13
 1954 012d 00       		.byte	0
 1955 012e 00       		.byte	0
 1956 012f 1A       		.uleb128 0x1a
 1957 0130 0D       		.uleb128 0xd
 1958 0131 00       		.byte	0
 1959 0132 03       		.uleb128 0x3
 1960 0133 0E       		.uleb128 0xe
 1961 0134 3A       		.uleb128 0x3a
 1962 0135 0B       		.uleb128 0xb
 1963 0136 3B       		.uleb128 0x3b
 1964 0137 05       		.uleb128 0x5
 1965 0138 49       		.uleb128 0x49
 1966 0139 13       		.uleb128 0x13
 1967 013a 00       		.byte	0
 1968 013b 00       		.byte	0
 1969 013c 1B       		.uleb128 0x1b
 1970 013d 2E       		.uleb128 0x2e
 1971 013e 01       		.byte	0x1
 1972 013f 3F       		.uleb128 0x3f
 1973 0140 0C       		.uleb128 0xc
 1974 0141 03       		.uleb128 0x3
 1975 0142 0E       		.uleb128 0xe
 1976 0143 3A       		.uleb128 0x3a
 1977 0144 0B       		.uleb128 0xb
 1978 0145 3B       		.uleb128 0x3b
 1979 0146 0B       		.uleb128 0xb
 1980 0147 27       		.uleb128 0x27
 1981 0148 0C       		.uleb128 0xc
 1982 0149 11       		.uleb128 0x11
 1983 014a 01       		.uleb128 0x1
 1984 014b 12       		.uleb128 0x12
 1985 014c 01       		.uleb128 0x1
 1986 014d 40       		.uleb128 0x40
 1987 014e 06       		.uleb128 0x6
ARM GAS  /tmp/ccPodowx.s 			page 36


 1988 014f 9742     		.uleb128 0x2117
 1989 0151 0C       		.uleb128 0xc
 1990 0152 01       		.uleb128 0x1
 1991 0153 13       		.uleb128 0x13
 1992 0154 00       		.byte	0
 1993 0155 00       		.byte	0
 1994 0156 1C       		.uleb128 0x1c
 1995 0157 34       		.uleb128 0x34
 1996 0158 00       		.byte	0
 1997 0159 03       		.uleb128 0x3
 1998 015a 0E       		.uleb128 0xe
 1999 015b 3A       		.uleb128 0x3a
 2000 015c 0B       		.uleb128 0xb
 2001 015d 3B       		.uleb128 0x3b
 2002 015e 0B       		.uleb128 0xb
 2003 015f 49       		.uleb128 0x49
 2004 0160 13       		.uleb128 0x13
 2005 0161 02       		.uleb128 0x2
 2006 0162 0A       		.uleb128 0xa
 2007 0163 00       		.byte	0
 2008 0164 00       		.byte	0
 2009 0165 1D       		.uleb128 0x1d
 2010 0166 898201   		.uleb128 0x4109
 2011 0169 01       		.byte	0x1
 2012 016a 11       		.uleb128 0x11
 2013 016b 01       		.uleb128 0x1
 2014 016c 31       		.uleb128 0x31
 2015 016d 13       		.uleb128 0x13
 2016 016e 01       		.uleb128 0x1
 2017 016f 13       		.uleb128 0x13
 2018 0170 00       		.byte	0
 2019 0171 00       		.byte	0
 2020 0172 1E       		.uleb128 0x1e
 2021 0173 8A8201   		.uleb128 0x410a
 2022 0176 00       		.byte	0
 2023 0177 02       		.uleb128 0x2
 2024 0178 0A       		.uleb128 0xa
 2025 0179 9142     		.uleb128 0x2111
 2026 017b 0A       		.uleb128 0xa
 2027 017c 00       		.byte	0
 2028 017d 00       		.byte	0
 2029 017e 1F       		.uleb128 0x1f
 2030 017f 898201   		.uleb128 0x4109
 2031 0182 01       		.byte	0x1
 2032 0183 11       		.uleb128 0x11
 2033 0184 01       		.uleb128 0x1
 2034 0185 31       		.uleb128 0x31
 2035 0186 13       		.uleb128 0x13
 2036 0187 00       		.byte	0
 2037 0188 00       		.byte	0
 2038 0189 20       		.uleb128 0x20
 2039 018a 34       		.uleb128 0x34
 2040 018b 00       		.byte	0
 2041 018c 03       		.uleb128 0x3
 2042 018d 08       		.uleb128 0x8
 2043 018e 3A       		.uleb128 0x3a
 2044 018f 0B       		.uleb128 0xb
ARM GAS  /tmp/ccPodowx.s 			page 37


 2045 0190 3B       		.uleb128 0x3b
 2046 0191 05       		.uleb128 0x5
 2047 0192 49       		.uleb128 0x49
 2048 0193 13       		.uleb128 0x13
 2049 0194 3F       		.uleb128 0x3f
 2050 0195 0C       		.uleb128 0xc
 2051 0196 3C       		.uleb128 0x3c
 2052 0197 0C       		.uleb128 0xc
 2053 0198 00       		.byte	0
 2054 0199 00       		.byte	0
 2055 019a 21       		.uleb128 0x21
 2056 019b 34       		.uleb128 0x34
 2057 019c 00       		.byte	0
 2058 019d 03       		.uleb128 0x3
 2059 019e 0E       		.uleb128 0xe
 2060 019f 3A       		.uleb128 0x3a
 2061 01a0 0B       		.uleb128 0xb
 2062 01a1 3B       		.uleb128 0x3b
 2063 01a2 0B       		.uleb128 0xb
 2064 01a3 49       		.uleb128 0x49
 2065 01a4 13       		.uleb128 0x13
 2066 01a5 3F       		.uleb128 0x3f
 2067 01a6 0C       		.uleb128 0xc
 2068 01a7 02       		.uleb128 0x2
 2069 01a8 0A       		.uleb128 0xa
 2070 01a9 00       		.byte	0
 2071 01aa 00       		.byte	0
 2072 01ab 22       		.uleb128 0x22
 2073 01ac 2E       		.uleb128 0x2e
 2074 01ad 01       		.byte	0x1
 2075 01ae 3F       		.uleb128 0x3f
 2076 01af 0C       		.uleb128 0xc
 2077 01b0 03       		.uleb128 0x3
 2078 01b1 0E       		.uleb128 0xe
 2079 01b2 3A       		.uleb128 0x3a
 2080 01b3 0B       		.uleb128 0xb
 2081 01b4 3B       		.uleb128 0x3b
 2082 01b5 05       		.uleb128 0x5
 2083 01b6 27       		.uleb128 0x27
 2084 01b7 0C       		.uleb128 0xc
 2085 01b8 3C       		.uleb128 0x3c
 2086 01b9 0C       		.uleb128 0xc
 2087 01ba 01       		.uleb128 0x1
 2088 01bb 13       		.uleb128 0x13
 2089 01bc 00       		.byte	0
 2090 01bd 00       		.byte	0
 2091 01be 23       		.uleb128 0x23
 2092 01bf 05       		.uleb128 0x5
 2093 01c0 00       		.byte	0
 2094 01c1 49       		.uleb128 0x49
 2095 01c2 13       		.uleb128 0x13
 2096 01c3 00       		.byte	0
 2097 01c4 00       		.byte	0
 2098 01c5 24       		.uleb128 0x24
 2099 01c6 2E       		.uleb128 0x2e
 2100 01c7 01       		.byte	0x1
 2101 01c8 3F       		.uleb128 0x3f
ARM GAS  /tmp/ccPodowx.s 			page 38


 2102 01c9 0C       		.uleb128 0xc
 2103 01ca 03       		.uleb128 0x3
 2104 01cb 0E       		.uleb128 0xe
 2105 01cc 3A       		.uleb128 0x3a
 2106 01cd 0B       		.uleb128 0xb
 2107 01ce 3B       		.uleb128 0x3b
 2108 01cf 05       		.uleb128 0x5
 2109 01d0 27       		.uleb128 0x27
 2110 01d1 0C       		.uleb128 0xc
 2111 01d2 49       		.uleb128 0x49
 2112 01d3 13       		.uleb128 0x13
 2113 01d4 3C       		.uleb128 0x3c
 2114 01d5 0C       		.uleb128 0xc
 2115 01d6 01       		.uleb128 0x1
 2116 01d7 13       		.uleb128 0x13
 2117 01d8 00       		.byte	0
 2118 01d9 00       		.byte	0
 2119 01da 25       		.uleb128 0x25
 2120 01db 2E       		.uleb128 0x2e
 2121 01dc 01       		.byte	0x1
 2122 01dd 3F       		.uleb128 0x3f
 2123 01de 0C       		.uleb128 0xc
 2124 01df 03       		.uleb128 0x3
 2125 01e0 0E       		.uleb128 0xe
 2126 01e1 3A       		.uleb128 0x3a
 2127 01e2 0B       		.uleb128 0xb
 2128 01e3 3B       		.uleb128 0x3b
 2129 01e4 0B       		.uleb128 0xb
 2130 01e5 27       		.uleb128 0x27
 2131 01e6 0C       		.uleb128 0xc
 2132 01e7 3C       		.uleb128 0x3c
 2133 01e8 0C       		.uleb128 0xc
 2134 01e9 01       		.uleb128 0x1
 2135 01ea 13       		.uleb128 0x13
 2136 01eb 00       		.byte	0
 2137 01ec 00       		.byte	0
 2138 01ed 26       		.uleb128 0x26
 2139 01ee 2E       		.uleb128 0x2e
 2140 01ef 01       		.byte	0x1
 2141 01f0 3F       		.uleb128 0x3f
 2142 01f1 0C       		.uleb128 0xc
 2143 01f2 03       		.uleb128 0x3
 2144 01f3 0E       		.uleb128 0xe
 2145 01f4 3A       		.uleb128 0x3a
 2146 01f5 0B       		.uleb128 0xb
 2147 01f6 3B       		.uleb128 0x3b
 2148 01f7 05       		.uleb128 0x5
 2149 01f8 27       		.uleb128 0x27
 2150 01f9 0C       		.uleb128 0xc
 2151 01fa 3C       		.uleb128 0x3c
 2152 01fb 0C       		.uleb128 0xc
 2153 01fc 00       		.byte	0
 2154 01fd 00       		.byte	0
 2155 01fe 00       		.byte	0
 2156              		.section	.debug_loc,"",%progbits
 2157              	.Ldebug_loc0:
 2158              	.LLST0:
ARM GAS  /tmp/ccPodowx.s 			page 39


 2159 0000 00000000 		.4byte	.LFB77
 2160 0004 02000000 		.4byte	.LCFI0
 2161 0008 0200     		.2byte	0x2
 2162 000a 7D       		.byte	0x7d
 2163 000b 00       		.sleb128 0
 2164 000c 02000000 		.4byte	.LCFI0
 2165 0010 06000000 		.4byte	.LCFI1
 2166 0014 0200     		.2byte	0x2
 2167 0016 7D       		.byte	0x7d
 2168 0017 10       		.sleb128 16
 2169 0018 06000000 		.4byte	.LCFI1
 2170 001c FC000000 		.4byte	.LFE77
 2171 0020 0300     		.2byte	0x3
 2172 0022 7D       		.byte	0x7d
 2173 0023 D800     		.sleb128 88
 2174 0025 00000000 		.4byte	0
 2175 0029 00000000 		.4byte	0
 2176              	.LLST1:
 2177 002d 00000000 		.4byte	.LFB78
 2178 0031 02000000 		.4byte	.LCFI2
 2179 0035 0200     		.2byte	0x2
 2180 0037 7D       		.byte	0x7d
 2181 0038 00       		.sleb128 0
 2182 0039 02000000 		.4byte	.LCFI2
 2183 003d 14000000 		.4byte	.LFE78
 2184 0041 0200     		.2byte	0x2
 2185 0043 7D       		.byte	0x7d
 2186 0044 08       		.sleb128 8
 2187 0045 00000000 		.4byte	0
 2188 0049 00000000 		.4byte	0
 2189              		.section	.debug_aranges,"",%progbits
 2190 0000 24000000 		.4byte	0x24
 2191 0004 0200     		.2byte	0x2
 2192 0006 00000000 		.4byte	.Ldebug_info0
 2193 000a 04       		.byte	0x4
 2194 000b 00       		.byte	0
 2195 000c 0000     		.2byte	0
 2196 000e 0000     		.2byte	0
 2197 0010 00000000 		.4byte	.LFB77
 2198 0014 FC000000 		.4byte	.LFE77-.LFB77
 2199 0018 00000000 		.4byte	.LFB78
 2200 001c 14000000 		.4byte	.LFE78-.LFB78
 2201 0020 00000000 		.4byte	0
 2202 0024 00000000 		.4byte	0
 2203              		.section	.debug_ranges,"",%progbits
 2204              	.Ldebug_ranges0:
 2205 0000 00000000 		.4byte	.LFB77
 2206 0004 FC000000 		.4byte	.LFE77
 2207 0008 00000000 		.4byte	.LFB78
 2208 000c 14000000 		.4byte	.LFE78
 2209 0010 00000000 		.4byte	0
 2210 0014 00000000 		.4byte	0
 2211              		.section	.debug_line,"",%progbits
 2212              	.Ldebug_line0:
 2213 0000 1F020000 		.section	.debug_str,"MS",%progbits,1
 2213      0200BA01 
 2213      00000201 
ARM GAS  /tmp/ccPodowx.s 			page 40


 2213      FB0E0D00 
 2213      01010101 
 2214              	.LASF105:
 2215 0000 444D415F 		.ascii	"DMA_ClearITPendingBit\000"
 2215      436C6561 
 2215      72495450 
 2215      656E6469 
 2215      6E674269 
 2216              	.LASF47:
 2217 0016 4144435F 		.ascii	"ADC_InitTypeDef\000"
 2217      496E6974 
 2217      54797065 
 2217      44656600 
 2218              	.LASF61:
 2219 0026 72656761 		.ascii	"regarm_t\000"
 2219      726D5F74 
 2219      00
 2220              	.LASF89:
 2221 002f 444D415F 		.ascii	"DMA_Cmd\000"
 2221      436D6400 
 2222              	.LASF49:
 2223 0037 444D415F 		.ascii	"DMA_MemoryBaseAddr\000"
 2223      4D656D6F 
 2223      72794261 
 2223      73654164 
 2223      647200
 2224              	.LASF50:
 2225 004a 444D415F 		.ascii	"DMA_DIR\000"
 2225      44495200 
 2226              	.LASF79:
 2227 0052 4144435F 		.ascii	"ADC_InitStructure\000"
 2227      496E6974 
 2227      53747275 
 2227      63747572 
 2227      6500
 2228              	.LASF4:
 2229 0064 756E7369 		.ascii	"unsigned int\000"
 2229      676E6564 
 2229      20696E74 
 2229      00
 2230              	.LASF71:
 2231 0071 6E657874 		.ascii	"next\000"
 2231      00
 2232              	.LASF88:
 2233 0076 444D415F 		.ascii	"DMA_Init\000"
 2233      496E6974 
 2233      00
 2234              	.LASF27:
 2235 007f 46756E63 		.ascii	"FunctionalState\000"
 2235      74696F6E 
 2235      616C5374 
 2235      61746500 
 2236              	.LASF90:
 2237 008f 4144435F 		.ascii	"ADC_DMARequestModeConfig\000"
 2237      444D4152 
 2237      65717565 
 2237      73744D6F 
ARM GAS  /tmp/ccPodowx.s 			page 41


 2237      6465436F 
 2238              	.LASF57:
 2239 00a8 444D415F 		.ascii	"DMA_Priority\000"
 2239      5072696F 
 2239      72697479 
 2239      00
 2240              	.LASF39:
 2241 00b5 434D4152 		.ascii	"CMAR\000"
 2241      00
 2242              	.LASF58:
 2243 00ba 444D415F 		.ascii	"DMA_M2M\000"
 2243      4D324D00 
 2244              	.LASF23:
 2245 00c2 466C6167 		.ascii	"FlagStatus\000"
 2245      53746174 
 2245      757300
 2246              	.LASF80:
 2247 00cd 444D415F 		.ascii	"DMA_InitStructure\000"
 2247      496E6974 
 2247      53747275 
 2247      63747572 
 2247      6500
 2248              	.LASF68:
 2249 00df 73656D70 		.ascii	"semp\000"
 2249      00
 2250              	.LASF48:
 2251 00e4 444D415F 		.ascii	"DMA_PeripheralBaseAddr\000"
 2251      50657269 
 2251      70686572 
 2251      616C4261 
 2251      73654164 
 2252              	.LASF99:
 2253 00fb 4144435F 		.ascii	"ADC_StartOfConversion\000"
 2253      53746172 
 2253      744F6643 
 2253      6F6E7665 
 2253      7273696F 
 2254              	.LASF37:
 2255 0111 434E4454 		.ascii	"CNDTR\000"
 2255      5200
 2256              	.LASF100:
 2257 0117 73657244 		.ascii	"serDbg\000"
 2257      626700
 2258              	.LASF13:
 2259 011e 75696E74 		.ascii	"uint32_t\000"
 2259      33325F74 
 2259      00
 2260              	.LASF19:
 2261 0127 6576656E 		.ascii	"eventmask_t\000"
 2261      746D6173 
 2261      6B5F7400 
 2262              	.LASF96:
 2263 0133 4144435F 		.ascii	"ADC_Cmd\000"
 2263      436D6400 
 2264              	.LASF81:
 2265 013b 73746172 		.ascii	"startAdc\000"
 2265      74416463 
ARM GAS  /tmp/ccPodowx.s 			page 42


 2265      00
 2266              	.LASF16:
 2267 0144 6C6F6E67 		.ascii	"long long unsigned int\000"
 2267      206C6F6E 
 2267      6720756E 
 2267      7369676E 
 2267      65642069 
 2268              	.LASF93:
 2269 015b 4144435F 		.ascii	"ADC_Init\000"
 2269      496E6974 
 2269      00
 2270              	.LASF95:
 2271 0164 4144435F 		.ascii	"ADC_TempSensorCmd\000"
 2271      54656D70 
 2271      53656E73 
 2271      6F72436D 
 2271      6400
 2272              	.LASF20:
 2273 0176 636E745F 		.ascii	"cnt_t\000"
 2273      7400
 2274              	.LASF34:
 2275 017c 43485345 		.ascii	"CHSELR\000"
 2275      4C5200
 2276              	.LASF38:
 2277 0183 43504152 		.ascii	"CPAR\000"
 2277      00
 2278              	.LASF30:
 2279 0188 534D5052 		.ascii	"SMPR\000"
 2279      00
 2280              	.LASF75:
 2281 018d 5F426F6F 		.ascii	"_Bool\000"
 2281      6C00
 2282              	.LASF76:
 2283 0193 5F5F6164 		.ascii	"__adc_status\000"
 2283      635F7374 
 2283      61747573 
 2283      00
 2284              	.LASF24:
 2285 01a0 49545374 		.ascii	"ITStatus\000"
 2285      61747573 
 2285      00
 2286              	.LASF82:
 2287 01a9 56656374 		.ascii	"Vector64\000"
 2287      6F723634 
 2287      00
 2288              	.LASF60:
 2289 01b2 73797374 		.ascii	"systime_t\000"
 2289      696D655F 
 2289      7400
 2290              	.LASF66:
 2291 01bc 63686172 		.ascii	"char\000"
 2291      00
 2292              	.LASF42:
 2293 01c1 4144435F 		.ascii	"ADC_ContinuousConvMode\000"
 2293      436F6E74 
 2293      696E756F 
 2293      7573436F 
ARM GAS  /tmp/ccPodowx.s 			page 43


 2293      6E764D6F 
 2294              	.LASF94:
 2295 01d8 4144435F 		.ascii	"ADC_ChannelConfig\000"
 2295      4368616E 
 2295      6E656C43 
 2295      6F6E6669 
 2295      6700
 2296              	.LASF25:
 2297 01ea 44495341 		.ascii	"DISABLE\000"
 2297      424C4500 
 2298              	.LASF67:
 2299 01f2 74687265 		.ascii	"thread_reference_t\000"
 2299      61645F72 
 2299      65666572 
 2299      656E6365 
 2299      5F7400
 2300              	.LASF17:
 2301 0205 74737461 		.ascii	"tstate_t\000"
 2301      74655F74 
 2301      00
 2302              	.LASF56:
 2303 020e 444D415F 		.ascii	"DMA_Mode\000"
 2303      4D6F6465 
 2303      00
 2304              	.LASF44:
 2305 0217 4144435F 		.ascii	"ADC_ExternalTrigConv\000"
 2305      45787465 
 2305      726E616C 
 2305      54726967 
 2305      436F6E76 
 2306              	.LASF8:
 2307 022c 75696E74 		.ascii	"uint8_t\000"
 2307      385F7400 
 2308              	.LASF53:
 2309 0234 444D415F 		.ascii	"DMA_MemoryInc\000"
 2309      4D656D6F 
 2309      7279496E 
 2309      6300
 2310              	.LASF104:
 2311 0242 2F6D6564 		.ascii	"/media/data/src/OpenTCS/code\000"
 2311      69612F64 
 2311      6174612F 
 2311      7372632F 
 2311      4F70656E 
 2312              	.LASF36:
 2313 025f 4144435F 		.ascii	"ADC_TypeDef\000"
 2313      54797065 
 2313      44656600 
 2314              	.LASF15:
 2315 026b 6C6F6E67 		.ascii	"long long int\000"
 2315      206C6F6E 
 2315      6720696E 
 2315      7400
 2316              	.LASF18:
 2317 0279 6D73675F 		.ascii	"msg_t\000"
 2317      7400
 2318              	.LASF52:
ARM GAS  /tmp/ccPodowx.s 			page 44


 2319 027f 444D415F 		.ascii	"DMA_PeripheralInc\000"
 2319      50657269 
 2319      70686572 
 2319      616C496E 
 2319      6300
 2320              	.LASF85:
 2321 0291 5243435F 		.ascii	"RCC_ADCCLKConfig\000"
 2321      41444343 
 2321      4C4B436F 
 2321      6E666967 
 2321      00
 2322              	.LASF43:
 2323 02a2 4144435F 		.ascii	"ADC_ExternalTrigConvEdge\000"
 2323      45787465 
 2323      726E616C 
 2323      54726967 
 2323      436F6E76 
 2324              	.LASF41:
 2325 02bb 4144435F 		.ascii	"ADC_Resolution\000"
 2325      5265736F 
 2325      6C757469 
 2325      6F6E00
 2326              	.LASF64:
 2327 02ca 696E7463 		.ascii	"intctx_t\000"
 2327      74785F74 
 2327      00
 2328              	.LASF40:
 2329 02d3 444D415F 		.ascii	"DMA_Channel_TypeDef\000"
 2329      4368616E 
 2329      6E656C5F 
 2329      54797065 
 2329      44656600 
 2330              	.LASF92:
 2331 02e7 4144435F 		.ascii	"ADC_StructInit\000"
 2331      53747275 
 2331      6374496E 
 2331      697400
 2332              	.LASF3:
 2333 02f6 65706D61 		.ascii	"epmask\000"
 2333      736B00
 2334              	.LASF28:
 2335 02fd 43464752 		.ascii	"CFGR1\000"
 2335      3100
 2336              	.LASF29:
 2337 0303 43464752 		.ascii	"CFGR2\000"
 2337      3200
 2338              	.LASF46:
 2339 0309 4144435F 		.ascii	"ADC_ScanDirection\000"
 2339      5363616E 
 2339      44697265 
 2339      6374696F 
 2339      6E00
 2340              	.LASF72:
 2341 031b 73797374 		.ascii	"systime\000"
 2341      696D6500 
 2342              	.LASF54:
 2343 0323 444D415F 		.ascii	"DMA_PeripheralDataSize\000"
ARM GAS  /tmp/ccPodowx.s 			page 45


 2343      50657269 
 2343      70686572 
 2343      616C4461 
 2343      74615369 
 2344              	.LASF98:
 2345 033a 4144435F 		.ascii	"ADC_GetFlagStatus\000"
 2345      47657446 
 2345      6C616753 
 2345      74617475 
 2345      7300
 2346              	.LASF9:
 2347 034c 75696E74 		.ascii	"uint16_t\000"
 2347      31365F74 
 2347      00
 2348              	.LASF55:
 2349 0355 444D415F 		.ascii	"DMA_MemoryDataSize\000"
 2349      4D656D6F 
 2349      72794461 
 2349      74615369 
 2349      7A6500
 2350              	.LASF91:
 2351 0368 4144435F 		.ascii	"ADC_DMACmd\000"
 2351      444D4143 
 2351      6D6400
 2352              	.LASF84:
 2353 0373 6164635F 		.ascii	"adc_samples\000"
 2353      73616D70 
 2353      6C657300 
 2354              	.LASF31:
 2355 037f 52455345 		.ascii	"RESERVED1\000"
 2355      52564544 
 2355      3100
 2356              	.LASF32:
 2357 0389 52455345 		.ascii	"RESERVED2\000"
 2357      52564544 
 2357      3200
 2358              	.LASF33:
 2359 0393 52455345 		.ascii	"RESERVED3\000"
 2359      52564544 
 2359      3300
 2360              	.LASF35:
 2361 039d 52455345 		.ascii	"RESERVED4\000"
 2361      52564544 
 2361      3400
 2362              	.LASF7:
 2363 03a7 73686F72 		.ascii	"short int\000"
 2363      7420696E 
 2363      7400
 2364              	.LASF0:
 2365 03b1 63747870 		.ascii	"ctxp\000"
 2365      00
 2366              	.LASF59:
 2367 03b6 444D415F 		.ascii	"DMA_InitTypeDef\000"
 2367      496E6974 
 2367      54797065 
 2367      44656600 
 2368              	.LASF12:
ARM GAS  /tmp/ccPodowx.s 			page 46


 2369 03c6 6C6F6E67 		.ascii	"long int\000"
 2369      20696E74 
 2369      00
 2370              	.LASF63:
 2371 03cf 706F7274 		.ascii	"port_intctx\000"
 2371      5F696E74 
 2371      63747800 
 2372              	.LASF45:
 2373 03db 4144435F 		.ascii	"ADC_DataAlign\000"
 2373      44617461 
 2373      416C6967 
 2373      6E00
 2374              	.LASF77:
 2375 03e9 73746174 		.ascii	"status\000"
 2375      757300
 2376              	.LASF97:
 2377 03f0 4144435F 		.ascii	"ADC_GetCalibrationFactor\000"
 2377      47657443 
 2377      616C6962 
 2377      72617469 
 2377      6F6E4661 
 2378              	.LASF22:
 2379 0409 52455345 		.ascii	"RESET\000"
 2379      5400
 2380              	.LASF74:
 2381 040f 6E696C5F 		.ascii	"nil_system_t\000"
 2381      73797374 
 2381      656D5F74 
 2381      00
 2382              	.LASF51:
 2383 041c 444D415F 		.ascii	"DMA_BufferSize\000"
 2383      42756666 
 2383      65725369 
 2383      7A6500
 2384              	.LASF26:
 2385 042b 454E4142 		.ascii	"ENABLE\000"
 2385      4C4500
 2386              	.LASF21:
 2387 0432 73697A65 		.ascii	"sizetype\000"
 2387      74797065 
 2387      00
 2388              	.LASF14:
 2389 043b 6C6F6E67 		.ascii	"long unsigned int\000"
 2389      20756E73 
 2389      69676E65 
 2389      6420696E 
 2389      7400
 2390              	.LASF83:
 2391 044d 6164635F 		.ascii	"adc_status\000"
 2391      73746174 
 2391      757300
 2392              	.LASF73:
 2393 0458 74687265 		.ascii	"threads\000"
 2393      61647300 
 2394              	.LASF11:
 2395 0460 696E7433 		.ascii	"int32_t\000"
 2395      325F7400 
ARM GAS  /tmp/ccPodowx.s 			page 47


 2396              	.LASF6:
 2397 0468 756E7369 		.ascii	"unsigned char\000"
 2397      676E6564 
 2397      20636861 
 2397      7200
 2398              	.LASF2:
 2399 0476 74696D65 		.ascii	"timeout\000"
 2399      6F757400 
 2400              	.LASF87:
 2401 047e 444D415F 		.ascii	"DMA_DeInit\000"
 2401      4465496E 
 2401      697400
 2402              	.LASF65:
 2403 0489 73656D61 		.ascii	"semaphore_t\000"
 2403      70686F72 
 2403      655F7400 
 2404              	.LASF78:
 2405 0495 6164635F 		.ascii	"adc_status_t\000"
 2405      73746174 
 2405      75735F74 
 2405      00
 2406              	.LASF1:
 2407 04a2 73746174 		.ascii	"state\000"
 2407      6500
 2408              	.LASF69:
 2409 04a8 65776D61 		.ascii	"ewmask\000"
 2409      736B00
 2410              	.LASF101:
 2411 04af 444D415F 		.ascii	"DMA_GetITStatus\000"
 2411      47657449 
 2411      54537461 
 2411      74757300 
 2412              	.LASF103:
 2413 04bf 7372632F 		.ascii	"src/adc_start.c\000"
 2413      6164635F 
 2413      73746172 
 2413      742E6300 
 2414              	.LASF62:
 2415 04cf 6E696C5F 		.ascii	"nil_thread\000"
 2415      74687265 
 2415      616400
 2416              	.LASF5:
 2417 04da 7369676E 		.ascii	"signed char\000"
 2417      65642063 
 2417      68617200 
 2418              	.LASF10:
 2419 04e6 73686F72 		.ascii	"short unsigned int\000"
 2419      7420756E 
 2419      7369676E 
 2419      65642069 
 2419      6E7400
 2420              	.LASF102:
 2421 04f9 474E5520 		.ascii	"GNU C 4.7.3 20130312 (release) [ARM/embedded-4_7-br"
 2421      4320342E 
 2421      372E3320 
 2421      32303133 
 2421      30333132 
ARM GAS  /tmp/ccPodowx.s 			page 48


 2422 052c 616E6368 		.ascii	"anch revision 196615]\000"
 2422      20726576 
 2422      6973696F 
 2422      6E203139 
 2422      36363135 
 2423              	.LASF70:
 2424 0542 63757272 		.ascii	"current\000"
 2424      656E7400 
 2425              	.LASF86:
 2426 054a 5243435F 		.ascii	"RCC_HSI14Cmd\000"
 2426      48534931 
 2426      34436D64 
 2426      00
 2427              		.ident	"GCC: (GNU Tools for ARM Embedded Processors) 4.7.3 20130312 (release) [ARM/embedded-4_7-br
ARM GAS  /tmp/ccPodowx.s 			page 49


DEFINED SYMBOLS
                            *ABS*:00000000 adc_start.c
     /tmp/ccPodowx.s:18     .text.startAdc:00000000 $t
     /tmp/ccPodowx.s:23     .text.startAdc:00000000 startAdc
     /tmp/ccPodowx.s:208    .text.startAdc:000000e0 $d
     /tmp/ccPodowx.s:219    .text.Vector64:00000000 $t
     /tmp/ccPodowx.s:224    .text.Vector64:00000000 Vector64
     /tmp/ccPodowx.s:266    .bss.adc_samples:00000000 adc_samples
     /tmp/ccPodowx.s:259    .bss.adc_status:00000000 adc_status
     /tmp/ccPodowx.s:260    .bss.adc_status:00000000 $d
     /tmp/ccPodowx.s:262    .bss.adc_samples:00000000 $d
                     .debug_frame:00000010 $d

UNDEFINED SYMBOLS
RCC_ADCCLKConfig
RCC_HSI14Cmd
DMA_DeInit
DMA_Init
DMA_Cmd
ADC_DMARequestModeConfig
ADC_DMACmd
ADC_StructInit
ADC_Init
ADC_ChannelConfig
ADC_TempSensorCmd
ADC_GetCalibrationFactor
ADC_Cmd
ADC_GetFlagStatus
ADC_StartOfConversion
serDbg
DMA_GetITStatus
DMA_ClearITPendingBit
