ARM GAS  /tmp/ccymlDr1.s 			page 1


   1              		.cpu cortex-m0
   2              		.fpu softvfp
   3              		.eabi_attribute 20, 1
   4              		.eabi_attribute 21, 1
   5              		.eabi_attribute 23, 3
   6              		.eabi_attribute 24, 1
   7              		.eabi_attribute 25, 1
   8              		.eabi_attribute 26, 1
   9              		.eabi_attribute 30, 4
  10              		.eabi_attribute 34, 0
  11              		.eabi_attribute 18, 4
  12              		.code	16
  13              		.file	"communications.c"
  14              		.text
  15              	.Ltext0:
  16              		.cfi_sections	.debug_frame
  17              		.section	.text.i2cInit,"ax",%progbits
  18              		.align	1
  19              		.global	i2cInit
  20              		.code	16
  21              		.thumb_func
  22              		.type	i2cInit, %function
  23              	i2cInit:
  24              	.LFB77:
  25              		.file 1 "src/communications.c"
  26              		.loc 1 36 0
  27              		.cfi_startproc
  28              	.LVL0:
  29 0000 30B5     		push	{r4, r5, lr}
  30              	.LCFI0:
  31              		.cfi_def_cfa_offset 12
  32              		.cfi_offset 4, -12
  33              		.cfi_offset 5, -8
  34              		.cfi_offset 14, -4
  35              		.loc 1 37 0
  36 0002 0F4B     		ldr	r3, .L2
  37              		.loc 1 36 0
  38 0004 051C     		mov	r5, r0
  39              		.loc 1 38 0
  40 0006 0F48     		ldr	r0, .L2+4
  41              	.LVL1:
  42              		.loc 1 36 0
  43 0008 89B0     		sub	sp, sp, #36
  44              	.LCFI1:
  45              		.cfi_def_cfa_offset 48
  46              		.loc 1 37 0
  47 000a 0124     		mov	r4, #1
  48 000c 1C60     		str	r4, [r3]
  49              		.loc 1 38 0
  50 000e 0460     		str	r4, [r0]
  51              		.loc 1 42 0
  52 0010 01A8     		add	r0, sp, #4
  53 0012 FFF7FEFF 		bl	I2C_StructInit
  54              	.LVL2:
  55              		.loc 1 49 0
  56 0016 0C48     		ldr	r0, .L2+8
  57              		.loc 1 43 0
ARM GAS  /tmp/ccymlDr1.s 			page 2


  58 0018 0021     		mov	r1, #0
  59              		.loc 1 44 0
  60 001a 8022     		mov	r2, #128
  61 001c 5301     		lsl	r3, r2, #5
  62              		.loc 1 43 0
  63 001e 0491     		str	r1, [sp, #16]
  64              		.loc 1 45 0
  65 0020 0391     		str	r1, [sp, #12]
  66              		.loc 1 46 0
  67 0022 0591     		str	r1, [sp, #20]
  68              		.loc 1 47 0
  69 0024 0691     		str	r1, [sp, #24]
  70              		.loc 1 48 0
  71 0026 0791     		str	r1, [sp, #28]
  72              		.loc 1 49 0
  73 0028 0190     		str	r0, [sp, #4]
  74              		.loc 1 50 0
  75 002a 01A9     		add	r1, sp, #4
  76 002c 281C     		mov	r0, r5
  77              		.loc 1 44 0
  78 002e 0293     		str	r3, [sp, #8]
  79              		.loc 1 50 0
  80 0030 FFF7FEFF 		bl	I2C_Init
  81              	.LVL3:
  82              		.loc 1 52 0
  83 0034 281C     		mov	r0, r5
  84 0036 211C     		mov	r1, r4
  85 0038 FFF7FEFF 		bl	I2C_Cmd
  86              	.LVL4:
  87              		.loc 1 53 0
  88 003c 09B0     		add	sp, sp, #36
  89              		@ sp needed for prologue
  90              	.LVL5:
  91 003e 30BD     		pop	{r4, r5, pc}
  92              	.L3:
  93              		.align	2
  94              	.L2:
  95 0040 00000000 		.word	.LANCHOR0
  96 0044 00000000 		.word	.LANCHOR1
  97 0048 FFD87000 		.word	7395583
  98              		.cfi_endproc
  99              	.LFE77:
 100              		.size	i2cInit, .-i2cInit
 101              		.section	.text.i2cSendS,"ax",%progbits
 102              		.align	1
 103              		.global	i2cSendS
 104              		.code	16
 105              		.thumb_func
 106              		.type	i2cSendS, %function
 107              	i2cSendS:
 108              	.LFB78:
 109              		.loc 1 56 0
 110              		.cfi_startproc
 111              	.LVL6:
 112 0000 F0B5     		push	{r4, r5, r6, r7, lr}
 113              	.LCFI2:
 114              		.cfi_def_cfa_offset 20
ARM GAS  /tmp/ccymlDr1.s 			page 3


 115              		.cfi_offset 4, -20
 116              		.cfi_offset 5, -16
 117              		.cfi_offset 6, -12
 118              		.cfi_offset 7, -8
 119              		.cfi_offset 14, -4
 120              		.loc 1 59 0
 121 0002 1E4F     		ldr	r7, .L14
 122              		.loc 1 56 0
 123 0004 0C1C     		mov	r4, r1
 124              		.loc 1 59 0
 125 0006 FA21     		mov	r1, #250
 126              	.LVL7:
 127              		.loc 1 56 0
 128 0008 85B0     		sub	sp, sp, #20
 129              	.LCFI3:
 130              		.cfi_def_cfa_offset 40
 131              		.loc 1 56 0
 132 000a 051C     		mov	r5, r0
 133              		.loc 1 59 0
 134 000c 4900     		lsl	r1, r1, #1
 135 000e 381C     		mov	r0, r7
 136              	.LVL8:
 137              		.loc 1 56 0
 138 0010 0292     		str	r2, [sp, #8]
 139 0012 0393     		str	r3, [sp, #12]
 140              		.loc 1 59 0
 141 0014 FFF7FEFF 		bl	chSemWaitTimeout
 142              	.LVL9:
 143              		.loc 1 61 0
 144 0018 0122     		mov	r2, #1
 145              		.loc 1 59 0
 146 001a 0028     		cmp	r0, #0
 147 001c 2BD1     		bne	.L5
 148              		.loc 1 63 0
 149 001e 8023     		mov	r3, #128
 150 0020 9801     		lsl	r0, r3, #6
 151 0022 8026     		mov	r6, #128
 152 0024 0090     		str	r0, [sp]
 153 0026 211C     		mov	r1, r4
 154 0028 281C     		mov	r0, r5
 155 002a 039A     		ldr	r2, [sp, #12]
 156 002c B304     		lsl	r3, r6, #18
 157 002e FFF7FEFF 		bl	I2C_TransferHandling
 158              	.LVL10:
 159              		.loc 1 65 0
 160 0032 029C     		ldr	r4, [sp, #8]
 161              	.LVL11:
 162              	.L6:
 163              		.loc 1 55 0 discriminator 1
 164 0034 039A     		ldr	r2, [sp, #12]
 165 0036 0299     		ldr	r1, [sp, #8]
 166              		.loc 1 65 0 discriminator 1
 167 0038 E6B2     		uxtb	r6, r4
 168              		.loc 1 55 0 discriminator 1
 169 003a 5318     		add	r3, r2, r1
 170              		.loc 1 65 0 discriminator 1
 171 003c D8B2     		uxtb	r0, r3
ARM GAS  /tmp/ccymlDr1.s 			page 4


 172 003e B042     		cmp	r0, r6
 173 0040 15D0     		beq	.L13
 174              	.L9:
 175              	.LVL12:
 176              		.loc 1 68 0
 177 0042 2178     		ldrb	r1, [r4]
 178              		.loc 1 69 0
 179 0044 6526     		mov	r6, #101
 180              		.loc 1 68 0
 181 0046 A962     		str	r1, [r5, #40]
 182 0048 0134     		add	r4, r4, #1
 183              	.LVL13:
 184              	.L7:
 185              		.loc 1 69 0 discriminator 1
 186 004a 281C     		mov	r0, r5
 187 004c 4021     		mov	r1, #64
 188 004e FFF7FEFF 		bl	I2C_GetFlagStatus
 189              	.LVL14:
 190 0052 0028     		cmp	r0, #0
 191 0054 EED1     		bne	.L6
 192              	.L8:
 193 0056 013E     		sub	r6, r6, #1
 194              		.loc 1 71 0
 195 0058 0120     		mov	r0, #1
 196 005a F6B2     		uxtb	r6, r6
 197 005c FFF7FEFF 		bl	chThdSleep
 198              	.LVL15:
 199              		.loc 1 72 0
 200 0060 002E     		cmp	r6, #0
 201 0062 F2D1     		bne	.L7
 202              		.loc 1 74 0
 203 0064 381C     		mov	r0, r7
 204 0066 FFF7FEFF 		bl	chSemSignal
 205              	.LVL16:
 206              		.loc 1 75 0
 207 006a 0122     		mov	r2, #1
 208 006c 03E0     		b	.L5
 209              	.L13:
 210              		.loc 1 79 0
 211 006e 381C     		mov	r0, r7
 212 0070 FFF7FEFF 		bl	chSemSignal
 213              	.LVL17:
 214              		.loc 1 80 0
 215 0074 0022     		mov	r2, #0
 216              	.LVL18:
 217              	.L5:
 218              		.loc 1 81 0
 219 0076 101C     		mov	r0, r2
 220 0078 05B0     		add	sp, sp, #20
 221              		@ sp needed for prologue
 222              	.LVL19:
 223 007a F0BD     		pop	{r4, r5, r6, r7, pc}
 224              	.L15:
 225              		.align	2
 226              	.L14:
 227 007c 00000000 		.word	.LANCHOR1
 228              		.cfi_endproc
ARM GAS  /tmp/ccymlDr1.s 			page 5


 229              	.LFE78:
 230              		.size	i2cSendS, .-i2cSendS
 231              		.section	.text.i2cReceiveS,"ax",%progbits
 232              		.align	1
 233              		.global	i2cReceiveS
 234              		.code	16
 235              		.thumb_func
 236              		.type	i2cReceiveS, %function
 237              	i2cReceiveS:
 238              	.LFB79:
 239              		.loc 1 84 0
 240              		.cfi_startproc
 241              	.LVL20:
 242 0000 F0B5     		push	{r4, r5, r6, r7, lr}
 243              	.LCFI4:
 244              		.cfi_def_cfa_offset 20
 245              		.cfi_offset 4, -20
 246              		.cfi_offset 5, -16
 247              		.cfi_offset 6, -12
 248              		.cfi_offset 7, -8
 249              		.cfi_offset 14, -4
 250              		.loc 1 87 0
 251 0002 1F4F     		ldr	r7, .L26
 252              		.loc 1 84 0
 253 0004 0C1C     		mov	r4, r1
 254              		.loc 1 87 0
 255 0006 FA21     		mov	r1, #250
 256              	.LVL21:
 257              		.loc 1 84 0
 258 0008 85B0     		sub	sp, sp, #20
 259              	.LCFI5:
 260              		.cfi_def_cfa_offset 40
 261              		.loc 1 84 0
 262 000a 051C     		mov	r5, r0
 263              		.loc 1 87 0
 264 000c 4900     		lsl	r1, r1, #1
 265 000e 381C     		mov	r0, r7
 266              	.LVL22:
 267              		.loc 1 84 0
 268 0010 0292     		str	r2, [sp, #8]
 269 0012 0393     		str	r3, [sp, #12]
 270              		.loc 1 87 0
 271 0014 FFF7FEFF 		bl	chSemWaitTimeout
 272              	.LVL23:
 273              		.loc 1 89 0
 274 0018 0122     		mov	r2, #1
 275              		.loc 1 87 0
 276 001a 0028     		cmp	r0, #0
 277 001c 2CD1     		bne	.L17
 278              		.loc 1 91 0
 279 001e 9023     		mov	r3, #144
 280 0020 9801     		lsl	r0, r3, #6
 281 0022 8026     		mov	r6, #128
 282 0024 0090     		str	r0, [sp]
 283 0026 211C     		mov	r1, r4
 284 0028 281C     		mov	r0, r5
 285 002a 039A     		ldr	r2, [sp, #12]
ARM GAS  /tmp/ccymlDr1.s 			page 6


 286 002c B304     		lsl	r3, r6, #18
 287 002e FFF7FEFF 		bl	I2C_TransferHandling
 288              	.LVL24:
 289              		.loc 1 93 0
 290 0032 029C     		ldr	r4, [sp, #8]
 291              	.LVL25:
 292              	.L18:
 293              		.loc 1 83 0 discriminator 1
 294 0034 039A     		ldr	r2, [sp, #12]
 295 0036 0299     		ldr	r1, [sp, #8]
 296              		.loc 1 93 0 discriminator 1
 297 0038 E6B2     		uxtb	r6, r4
 298              		.loc 1 83 0 discriminator 1
 299 003a 5318     		add	r3, r2, r1
 300              		.loc 1 93 0 discriminator 1
 301 003c D8B2     		uxtb	r0, r3
 302 003e B042     		cmp	r0, r6
 303 0040 16D0     		beq	.L24
 304              	.L22:
 305              		.loc 1 93 0 is_stmt 0
 306 0042 6526     		mov	r6, #101
 307              	.L19:
 308              		.loc 1 96 0 is_stmt 1 discriminator 1
 309 0044 281C     		mov	r0, r5
 310 0046 0421     		mov	r1, #4
 311 0048 FFF7FEFF 		bl	I2C_GetFlagStatus
 312              	.LVL26:
 313 004c 0028     		cmp	r0, #0
 314 004e 0BD1     		bne	.L25
 315              	.L20:
 316 0050 013E     		sub	r6, r6, #1
 317              		.loc 1 98 0
 318 0052 0120     		mov	r0, #1
 319 0054 F6B2     		uxtb	r6, r6
 320 0056 FFF7FEFF 		bl	chThdSleep
 321              	.LVL27:
 322              		.loc 1 99 0
 323 005a 002E     		cmp	r6, #0
 324 005c F2D1     		bne	.L19
 325              		.loc 1 101 0
 326 005e 381C     		mov	r0, r7
 327 0060 FFF7FEFF 		bl	chSemSignal
 328              	.LVL28:
 329              		.loc 1 102 0
 330 0064 0122     		mov	r2, #1
 331 0066 07E0     		b	.L17
 332              	.L25:
 333              		.loc 1 105 0
 334 0068 696A     		ldr	r1, [r5, #36]
 335 006a 2170     		strb	r1, [r4]
 336 006c 0134     		add	r4, r4, #1
 337              	.LVL29:
 338 006e E1E7     		b	.L18
 339              	.L24:
 340              		.loc 1 107 0
 341 0070 381C     		mov	r0, r7
 342 0072 FFF7FEFF 		bl	chSemSignal
ARM GAS  /tmp/ccymlDr1.s 			page 7


 343              	.LVL30:
 344              		.loc 1 108 0
 345 0076 0022     		mov	r2, #0
 346              	.LVL31:
 347              	.L17:
 348              		.loc 1 109 0
 349 0078 101C     		mov	r0, r2
 350 007a 05B0     		add	sp, sp, #20
 351              		@ sp needed for prologue
 352              	.LVL32:
 353 007c F0BD     		pop	{r4, r5, r6, r7, pc}
 354              	.L27:
 355 007e C046     		.align	2
 356              	.L26:
 357 0080 00000000 		.word	.LANCHOR1
 358              		.cfi_endproc
 359              	.LFE79:
 360              		.size	i2cReceiveS, .-i2cReceiveS
 361              		.section	.text.usartInit,"ax",%progbits
 362              		.align	1
 363              		.global	usartInit
 364              		.code	16
 365              		.thumb_func
 366              		.type	usartInit, %function
 367              	usartInit:
 368              	.LFB80:
 369              		.loc 1 112 0
 370              		.cfi_startproc
 371              	.LVL33:
 372 0000 F0B5     		push	{r4, r5, r6, r7, lr}
 373              	.LCFI6:
 374              		.cfi_def_cfa_offset 20
 375              		.cfi_offset 4, -20
 376              		.cfi_offset 5, -16
 377              		.cfi_offset 6, -12
 378              		.cfi_offset 7, -8
 379              		.cfi_offset 14, -4
 380 0002 061C     		mov	r6, r0
 381              		.loc 1 114 0
 382 0004 8020     		mov	r0, #128
 383              	.LVL34:
 384              		.loc 1 112 0
 385 0006 93B0     		sub	sp, sp, #76
 386              	.LCFI7:
 387              		.cfi_def_cfa_offset 96
 388              		.loc 1 114 0
 389 0008 8000     		lsl	r0, r0, #2
 390 000a 0121     		mov	r1, #1
 391 000c FFF7FEFF 		bl	SYSCFG_DMAChannelRemapConfig
 392              	.LVL35:
 393              		.loc 1 115 0
 394 0010 8021     		mov	r1, #128
 395 0012 C800     		lsl	r0, r1, #3
 396 0014 0121     		mov	r1, #1
 397 0016 FFF7FEFF 		bl	SYSCFG_DMAChannelRemapConfig
 398              	.LVL36:
 399              		.loc 1 118 0
ARM GAS  /tmp/ccymlDr1.s 			page 8


 400 001a 374B     		ldr	r3, .L29
 401              		.loc 1 119 0
 402 001c 374A     		ldr	r2, .L29+4
 403              		.loc 1 118 0
 404 001e 0125     		mov	r5, #1
 405 0020 1D60     		str	r5, [r3]
 406              		.loc 1 121 0
 407 0022 0021     		mov	r1, #0
 408              		.loc 1 119 0
 409 0024 1560     		str	r5, [r2]
 410              		.loc 1 126 0
 411 0026 E124     		mov	r4, #225
 412              		.loc 1 121 0
 413 0028 4022     		mov	r2, #64
 414 002a 3548     		ldr	r0, .L29+8
 415 002c FFF7FEFF 		bl	memset
 416              	.LVL37:
 417              		.loc 1 126 0
 418 0030 6702     		lsl	r7, r4, #9
 419              		.loc 1 122 0
 420 0032 4022     		mov	r2, #64
 421 0034 0021     		mov	r1, #0
 422 0036 3348     		ldr	r0, .L29+12
 423 0038 FFF7FEFF 		bl	memset
 424              	.LVL38:
 425              		.loc 1 126 0
 426 003c 0197     		str	r7, [sp, #4]
 427              		.loc 1 131 0
 428 003e 0C20     		mov	r0, #12
 429              		.loc 1 135 0
 430 0040 314F     		ldr	r7, .L29+16
 431              		.loc 1 127 0
 432 0042 0024     		mov	r4, #0
 433              		.loc 1 132 0
 434 0044 01A9     		add	r1, sp, #4
 435              		.loc 1 131 0
 436 0046 0590     		str	r0, [sp, #20]
 437              		.loc 1 132 0
 438 0048 301C     		mov	r0, r6
 439              		.loc 1 127 0
 440 004a 0294     		str	r4, [sp, #8]
 441              		.loc 1 128 0
 442 004c 0394     		str	r4, [sp, #12]
 443              		.loc 1 129 0
 444 004e 0494     		str	r4, [sp, #16]
 445              		.loc 1 130 0
 446 0050 0694     		str	r4, [sp, #24]
 447              		.loc 1 132 0
 448 0052 FFF7FEFF 		bl	USART_Init
 449              	.LVL39:
 450              		.loc 1 135 0
 451 0056 381C     		mov	r0, r7
 452 0058 FFF7FEFF 		bl	DMA_DeInit
 453              	.LVL40:
 454              		.loc 1 136 0
 455 005c 311C     		mov	r1, r6
 456              		.loc 1 138 0
ARM GAS  /tmp/ccymlDr1.s 			page 9


 457 005e 284B     		ldr	r3, .L29+8
 458              		.loc 1 136 0
 459 0060 2831     		add	r1, r1, #40
 460              		.loc 1 140 0
 461 0062 8020     		mov	r0, #128
 462              		.loc 1 136 0
 463 0064 0791     		str	r1, [sp, #28]
 464              		.loc 1 140 0
 465 0066 4101     		lsl	r1, r0, #5
 466              		.loc 1 138 0
 467 0068 0893     		str	r3, [sp, #32]
 468              		.loc 1 139 0
 469 006a 1022     		mov	r2, #16
 470              		.loc 1 143 0
 471 006c 8023     		mov	r3, #128
 472              		.loc 1 140 0
 473 006e 1091     		str	r1, [sp, #64]
 474              		.loc 1 146 0
 475 0070 381C     		mov	r0, r7
 476 0072 07A9     		add	r1, sp, #28
 477              		.loc 1 152 0
 478 0074 254F     		ldr	r7, .L29+20
 479              		.loc 1 143 0
 480 0076 0C93     		str	r3, [sp, #48]
 481              		.loc 1 137 0
 482 0078 0A94     		str	r4, [sp, #40]
 483              		.loc 1 139 0
 484 007a 0992     		str	r2, [sp, #36]
 485              		.loc 1 141 0
 486 007c 0B94     		str	r4, [sp, #44]
 487              		.loc 1 142 0
 488 007e 0D94     		str	r4, [sp, #52]
 489              		.loc 1 144 0
 490 0080 0E94     		str	r4, [sp, #56]
 491              		.loc 1 145 0
 492 0082 1194     		str	r4, [sp, #68]
 493              		.loc 1 146 0
 494 0084 FFF7FEFF 		bl	DMA_Init
 495              	.LVL41:
 496              		.loc 1 149 0
 497 0088 2A1C     		mov	r2, r5
 498 008a 301C     		mov	r0, r6
 499 008c 8021     		mov	r1, #128
 500 008e FFF7FEFF 		bl	USART_DMACmd
 501              	.LVL42:
 502              		.loc 1 152 0
 503 0092 381C     		mov	r0, r7
 504 0094 FFF7FEFF 		bl	DMA_DeInit
 505              	.LVL43:
 506              		.loc 1 155 0
 507 0098 1A49     		ldr	r1, .L29+12
 508              		.loc 1 153 0
 509 009a 321C     		mov	r2, r6
 510              		.loc 1 154 0
 511 009c 4020     		mov	r0, #64
 512              		.loc 1 157 0
 513 009e 8023     		mov	r3, #128
ARM GAS  /tmp/ccymlDr1.s 			page 10


 514              		.loc 1 154 0
 515 00a0 0A90     		str	r0, [sp, #40]
 516              		.loc 1 153 0
 517 00a2 2432     		add	r2, r2, #36
 518              		.loc 1 160 0
 519 00a4 8020     		mov	r0, #128
 520              		.loc 1 153 0
 521 00a6 0792     		str	r2, [sp, #28]
 522              		.loc 1 155 0
 523 00a8 0891     		str	r1, [sp, #32]
 524              		.loc 1 157 0
 525 00aa 5A01     		lsl	r2, r3, #5
 526              		.loc 1 156 0
 527 00ac 0994     		str	r4, [sp, #36]
 528              		.loc 1 158 0
 529 00ae 0B94     		str	r4, [sp, #44]
 530              		.loc 1 159 0
 531 00b0 0D94     		str	r4, [sp, #52]
 532              		.loc 1 160 0
 533 00b2 0C90     		str	r0, [sp, #48]
 534              		.loc 1 161 0
 535 00b4 0E94     		str	r4, [sp, #56]
 536              		.loc 1 162 0
 537 00b6 1194     		str	r4, [sp, #68]
 538              		.loc 1 164 0
 539 00b8 381C     		mov	r0, r7
 540 00ba 07A9     		add	r1, sp, #28
 541              		.loc 1 163 0
 542 00bc 2024     		mov	r4, #32
 543              		.loc 1 157 0
 544 00be 1092     		str	r2, [sp, #64]
 545              		.loc 1 163 0
 546 00c0 0F94     		str	r4, [sp, #60]
 547              		.loc 1 164 0
 548 00c2 FFF7FEFF 		bl	DMA_Init
 549              	.LVL44:
 550              		.loc 1 167 0
 551 00c6 301C     		mov	r0, r6
 552 00c8 2A1C     		mov	r2, r5
 553 00ca 4021     		mov	r1, #64
 554 00cc FFF7FEFF 		bl	USART_DMACmd
 555              	.LVL45:
 556              		.loc 1 168 0
 557 00d0 381C     		mov	r0, r7
 558 00d2 2A1C     		mov	r2, r5
 559 00d4 0221     		mov	r1, #2
 560 00d6 FFF7FEFF 		bl	DMA_ITConfig
 561              	.LVL46:
 562              	.LBB4:
 563              	.LBB5:
 564              		.file 2 "./os/ext/CMSIS/include/core_cm0.h"
 565              		.loc 2 517 0
 566 00da 0D4B     		ldr	r3, .L29+24
 567 00dc 8021     		mov	r1, #128
 568 00de 0A01     		lsl	r2, r1, #4
 569 00e0 1A60     		str	r2, [r3]
 570              	.LBE5:
ARM GAS  /tmp/ccymlDr1.s 			page 11


 571              	.LBE4:
 572              		.loc 1 172 0
 573 00e2 381C     		mov	r0, r7
 574 00e4 291C     		mov	r1, r5
 575 00e6 FFF7FEFF 		bl	DMA_Cmd
 576              	.LVL47:
 577              		.loc 1 174 0
 578 00ea 301C     		mov	r0, r6
 579 00ec 291C     		mov	r1, r5
 580 00ee FFF7FEFF 		bl	USART_Cmd
 581              	.LVL48:
 582              		.loc 1 175 0
 583 00f2 13B0     		add	sp, sp, #76
 584              		@ sp needed for prologue
 585              	.LVL49:
 586 00f4 F0BD     		pop	{r4, r5, r6, r7, pc}
 587              	.L30:
 588 00f6 C046     		.align	2
 589              	.L29:
 590 00f8 00000000 		.word	.LANCHOR2
 591 00fc 00000000 		.word	.LANCHOR3
 592 0100 00000000 		.word	.LANCHOR4
 593 0104 00000000 		.word	.LANCHOR5
 594 0108 44000240 		.word	1073872964
 595 010c 58000240 		.word	1073872984
 596 0110 00E100E0 		.word	-536813312
 597              		.cfi_endproc
 598              	.LFE80:
 599              		.size	usartInit, .-usartInit
 600              		.section	.text.usartSendI,"ax",%progbits
 601              		.align	1
 602              		.global	usartSendI
 603              		.code	16
 604              		.thumb_func
 605              		.type	usartSendI, %function
 606              	usartSendI:
 607              	.LFB81:
 608              		.loc 1 178 0
 609              		.cfi_startproc
 610              	.LVL50:
 611 0000 F8B5     		push	{r3, r4, r5, r6, r7, lr}
 612              	.LCFI8:
 613              		.cfi_def_cfa_offset 24
 614              		.cfi_offset 3, -24
 615              		.cfi_offset 4, -20
 616              		.cfi_offset 5, -16
 617              		.cfi_offset 6, -12
 618              		.cfi_offset 7, -8
 619              		.cfi_offset 14, -4
 620              		.loc 1 180 0
 621 0002 164B     		ldr	r3, .L36
 622              		.loc 1 178 0
 623 0004 0F1C     		mov	r7, r1
 624 0006 151C     		mov	r5, r2
 625              		.loc 1 180 0
 626 0008 9842     		cmp	r0, r3
 627 000a 24D1     		bne	.L33
ARM GAS  /tmp/ccymlDr1.s 			page 12


 628              		.loc 1 182 0
 629 000c 144E     		ldr	r6, .L36+4
 630 000e 1549     		ldr	r1, .L36+8
 631              	.LVL51:
 632 0010 301C     		mov	r0, r6
 633              	.LVL52:
 634 0012 FFF7FEFF 		bl	chSemWaitTimeout
 635              	.LVL53:
 636 0016 0028     		cmp	r0, #0
 637 0018 1DD1     		bne	.L33
 638              	.LVL54:
 639              		.loc 1 192 0
 640 001a 2C1C     		add	r4, r5, #0
 641 001c 402D     		cmp	r5, #64
 642 001e 00D9     		bls	.L35
 643 0020 4024     		mov	r4, #64
 644              	.L35:
 645 0022 114D     		ldr	r5, .L36+12
 646              	.LVL55:
 647 0024 A4B2     		uxth	r4, r4
 648 0026 391C     		mov	r1, r7
 649 0028 221C     		mov	r2, r4
 650 002a 281C     		mov	r0, r5
 651 002c FFF7FEFF 		bl	memcpy
 652              	.LVL56:
 653              		.loc 1 198 0
 654 0030 0E4B     		ldr	r3, .L36+16
 655 0032 0122     		mov	r2, #1
 656 0034 1968     		ldr	r1, [r3]
 657              		.loc 1 199 0
 658 0036 8020     		mov	r0, #128
 659              		.loc 1 198 0
 660 0038 9143     		bic	r1, r2
 661 003a 1960     		str	r1, [r3]
 662              		.loc 1 199 0
 663 003c 0C49     		ldr	r1, .L36+20
 664 003e 8001     		lsl	r0, r0, #6
 665 0040 4F68     		ldr	r7, [r1, #4]
 666              	.LVL57:
 667 0042 3843     		orr	r0, r7
 668 0044 4860     		str	r0, [r1, #4]
 669              		.loc 1 200 0
 670 0046 DD60     		str	r5, [r3, #12]
 671              		.loc 1 201 0
 672 0048 5C60     		str	r4, [r3, #4]
 673              		.loc 1 204 0
 674 004a 1C68     		ldr	r4, [r3]
 675              		.loc 1 206 0
 676 004c 301C     		mov	r0, r6
 677              		.loc 1 204 0
 678 004e 2243     		orr	r2, r4
 679 0050 1A60     		str	r2, [r3]
 680              		.loc 1 206 0
 681 0052 FFF7FEFF 		bl	chSemSignal
 682              	.LVL58:
 683              	.L33:
 684              		.loc 1 209 0
ARM GAS  /tmp/ccymlDr1.s 			page 13


 685 0056 0120     		mov	r0, #1
 686              		@ sp needed for prologue
 687 0058 F8BD     		pop	{r3, r4, r5, r6, r7, pc}
 688              	.L37:
 689 005a C046     		.align	2
 690              	.L36:
 691 005c 00380140 		.word	1073821696
 692 0060 00000000 		.word	.LANCHOR2
 693 0064 FFFF0000 		.word	65535
 694 0068 00000000 		.word	.LANCHOR4
 695 006c 44000240 		.word	1073872964
 696 0070 00000240 		.word	1073872896
 697              		.cfi_endproc
 698              	.LFE81:
 699              		.size	usartSendI, .-usartSendI
 700              		.section	.text.usartSendS,"ax",%progbits
 701              		.align	1
 702              		.global	usartSendS
 703              		.code	16
 704              		.thumb_func
 705              		.type	usartSendS, %function
 706              	usartSendS:
 707              	.LFB82:
 708              		.loc 1 212 0
 709              		.cfi_startproc
 710              	.LVL59:
 711 0000 F8B5     		push	{r3, r4, r5, r6, r7, lr}
 712              	.LCFI9:
 713              		.cfi_def_cfa_offset 24
 714              		.cfi_offset 3, -24
 715              		.cfi_offset 4, -20
 716              		.cfi_offset 5, -16
 717              		.cfi_offset 6, -12
 718              		.cfi_offset 7, -8
 719              		.cfi_offset 14, -4
 720              		.loc 1 214 0
 721 0002 0F4E     		ldr	r6, .L52
 722              		.loc 1 212 0
 723 0004 0D1C     		mov	r5, r1
 724 0006 141C     		mov	r4, r2
 725              		.loc 1 214 0
 726 0008 B042     		cmp	r0, r6
 727 000a 16D1     		bne	.L40
 728              		.loc 1 216 0
 729 000c 0D4F     		ldr	r7, .L52+4
 730 000e FA21     		mov	r1, #250
 731              	.LVL60:
 732 0010 381C     		mov	r0, r7
 733              	.LVL61:
 734 0012 4900     		lsl	r1, r1, #1
 735 0014 FFF7FEFF 		bl	chSemWaitTimeout
 736              	.LVL62:
 737 0018 0028     		cmp	r0, #0
 738 001a 0ED1     		bne	.L40
 739              	.LVL63:
 740              	.L50:
 741              		.loc 1 234 0 discriminator 1
ARM GAS  /tmp/ccymlDr1.s 			page 14


 742 001c 013C     		sub	r4, r4, #1
 743              	.LVL64:
 744 001e 0A4B     		ldr	r3, .L52+8
 745 0020 A4B2     		uxth	r4, r4
 746              	.LVL65:
 747 0022 9C42     		cmp	r4, r3
 748 0024 06D0     		beq	.L51
 749              	.L45:
 750              		.loc 1 235 0
 751 0026 2878     		ldrb	r0, [r5]
 752 0028 0135     		add	r5, r5, #1
 753              	.LVL66:
 754 002a 3085     		strh	r0, [r6, #40]
 755              	.L43:
 756              		.loc 1 236 0 discriminator 1
 757 002c F269     		ldr	r2, [r6, #28]
 758 002e 1206     		lsl	r2, r2, #24
 759 0030 FCD5     		bpl	.L43
 760 0032 F3E7     		b	.L50
 761              	.L51:
 762              		.loc 1 238 0
 763 0034 381C     		mov	r0, r7
 764 0036 FFF7FEFF 		bl	chSemSignal
 765              	.LVL67:
 766              	.L40:
 767              		.loc 1 241 0
 768 003a 0120     		mov	r0, #1
 769              		@ sp needed for prologue
 770              	.LVL68:
 771 003c F8BD     		pop	{r3, r4, r5, r6, r7, pc}
 772              	.L53:
 773 003e C046     		.align	2
 774              	.L52:
 775 0040 00380140 		.word	1073821696
 776 0044 00000000 		.word	.LANCHOR3
 777 0048 FFFF0000 		.word	65535
 778              		.cfi_endproc
 779              	.LFE82:
 780              		.size	usartSendS, .-usartSendS
 781              		.section	.text.usartPrintString,"ax",%progbits
 782              		.align	1
 783              		.global	usartPrintString
 784              		.code	16
 785              		.thumb_func
 786              		.type	usartPrintString, %function
 787              	usartPrintString:
 788              	.LFB83:
 789              		.loc 1 244 0
 790              		.cfi_startproc
 791              	.LVL69:
 792 0000 38B5     		push	{r3, r4, r5, lr}
 793              	.LCFI10:
 794              		.cfi_def_cfa_offset 16
 795              		.cfi_offset 3, -16
 796              		.cfi_offset 4, -12
 797              		.cfi_offset 5, -8
 798              		.cfi_offset 14, -4
ARM GAS  /tmp/ccymlDr1.s 			page 15


 799              		.loc 1 244 0
 800 0002 051C     		mov	r5, r0
 801              		.loc 1 245 0
 802 0004 081C     		mov	r0, r1
 803              	.LVL70:
 804              		.loc 1 244 0
 805 0006 0C1C     		mov	r4, r1
 806              		.loc 1 245 0
 807 0008 FFF7FEFF 		bl	strlen
 808              	.LVL71:
 809 000c 211C     		mov	r1, r4
 810 000e 82B2     		uxth	r2, r0
 811 0010 281C     		mov	r0, r5
 812 0012 FFF7FEFF 		bl	usartSendS
 813              	.LVL72:
 814              		.loc 1 246 0
 815              		@ sp needed for prologue
 816              	.LVL73:
 817              	.LVL74:
 818 0016 38BD     		pop	{r3, r4, r5, pc}
 819              		.cfi_endproc
 820              	.LFE83:
 821              		.size	usartPrintString, .-usartPrintString
 822              		.section	.text.serDbg,"ax",%progbits
 823              		.align	1
 824              		.global	serDbg
 825              		.code	16
 826              		.thumb_func
 827              		.type	serDbg, %function
 828              	serDbg:
 829              	.LFB84:
 830              		.loc 1 249 0
 831              		.cfi_startproc
 832              	.LVL75:
 833 0000 08B5     		push	{r3, lr}
 834              	.LCFI11:
 835              		.cfi_def_cfa_offset 8
 836              		.cfi_offset 3, -8
 837              		.cfi_offset 14, -4
 838              		.loc 1 250 0
 839 0002 044B     		ldr	r3, .L60
 840              		.loc 1 249 0
 841 0004 011C     		mov	r1, r0
 842              		.loc 1 250 0
 843 0006 1878     		ldrb	r0, [r3]
 844              	.LVL76:
 845 0008 0028     		cmp	r0, #0
 846 000a 02D0     		beq	.L55
 847              		.loc 1 251 0
 848 000c 0248     		ldr	r0, .L60+4
 849 000e FFF7FEFF 		bl	usartPrintString
 850              	.LVL77:
 851              	.L55:
 852              		.loc 1 252 0
 853              		@ sp needed for prologue
 854 0012 08BD     		pop	{r3, pc}
 855              	.L61:
ARM GAS  /tmp/ccymlDr1.s 			page 16


 856              		.align	2
 857              	.L60:
 858 0014 00000000 		.word	.LANCHOR6
 859 0018 00380140 		.word	1073821696
 860              		.cfi_endproc
 861              	.LFE84:
 862              		.size	serDbg, .-serDbg
 863              		.section	.text.spiInit,"ax",%progbits
 864              		.align	1
 865              		.global	spiInit
 866              		.code	16
 867              		.thumb_func
 868              		.type	spiInit, %function
 869              	spiInit:
 870              	.LFB85:
 871              		.loc 1 255 0
 872              		.cfi_startproc
 873              	.LVL78:
 874 0000 70B5     		push	{r4, r5, r6, lr}
 875              	.LCFI12:
 876              		.cfi_def_cfa_offset 16
 877              		.cfi_offset 4, -16
 878              		.cfi_offset 5, -12
 879              		.cfi_offset 6, -8
 880              		.cfi_offset 14, -4
 881              		.loc 1 260 0
 882 0002 234B     		ldr	r3, .L65
 883              		.loc 1 255 0
 884 0004 90B0     		sub	sp, sp, #64
 885              	.LCFI13:
 886              		.cfi_def_cfa_offset 80
 887              		.loc 1 255 0
 888 0006 051E     		sub	r5, r0, #0
 889              		.loc 1 260 0
 890 0008 9D42     		cmp	r5, r3
 891 000a 3ED1     		bne	.L62
 892              		.loc 1 262 0
 893 000c 2148     		ldr	r0, .L65+4
 894              	.LVL79:
 895              		.loc 1 263 0
 896 000e 2249     		ldr	r1, .L65+8
 897              		.loc 1 262 0
 898 0010 0126     		mov	r6, #1
 899 0012 0660     		str	r6, [r0]
 900              		.loc 1 263 0
 901 0014 0E60     		str	r6, [r1]
 902              	.LVL80:
 903              		.loc 1 271 0
 904 0016 281C     		mov	r0, r5
 905 0018 0021     		mov	r1, #0
 906 001a FFF7FEFF 		bl	SPI_Cmd
 907              	.LVL81:
 908              		.loc 1 274 0
 909 001e 1F4C     		ldr	r4, .L65+12
 910              		.loc 1 276 0
 911 0020 E020     		mov	r0, #224
 912              		.loc 1 275 0
ARM GAS  /tmp/ccymlDr1.s 			page 17


 913 0022 8223     		mov	r3, #130
 914              		.loc 1 274 0
 915 0024 6A46     		mov	r2, sp
 916              		.loc 1 276 0
 917 0026 C100     		lsl	r1, r0, #3
 918              		.loc 1 275 0
 919 0028 B340     		lsl	r3, r3, r6
 920              		.loc 1 280 0
 921 002a 0820     		mov	r0, #8
 922              		.loc 1 274 0
 923 002c 1480     		strh	r4, [r2]
 924              		.loc 1 275 0
 925 002e 5380     		strh	r3, [r2, #2]
 926              		.loc 1 277 0
 927 0030 0024     		mov	r4, #0
 928              		.loc 1 276 0
 929 0032 9180     		strh	r1, [r2, #4]
 930              		.loc 1 280 0
 931 0034 9081     		strh	r0, [r2, #12]
 932              		.loc 1 282 0
 933 0036 0723     		mov	r3, #7
 934              		.loc 1 283 0
 935 0038 281C     		mov	r0, r5
 936 003a 6946     		mov	r1, sp
 937              		.loc 1 277 0
 938 003c D480     		strh	r4, [r2, #6]
 939              		.loc 1 278 0
 940 003e 1481     		strh	r4, [r2, #8]
 941              		.loc 1 279 0
 942 0040 5481     		strh	r4, [r2, #10]
 943              		.loc 1 281 0
 944 0042 D481     		strh	r4, [r2, #14]
 945              		.loc 1 282 0
 946 0044 1382     		strh	r3, [r2, #16]
 947              		.loc 1 283 0
 948 0046 FFF7FEFF 		bl	SPI_Init
 949              	.LVL82:
 950              		.loc 1 284 0
 951 004a 311C     		mov	r1, r6
 952 004c 281C     		mov	r0, r5
 953 004e FFF7FEFF 		bl	SPI_Cmd
 954              	.LVL83:
 955              		.loc 1 287 0
 956 0052 05A8     		add	r0, sp, #20
 957 0054 FFF7FEFF 		bl	DMA_StructInit
 958              	.LVL84:
 959              		.loc 1 288 0
 960 0058 0994     		str	r4, [sp, #36]
 961              		.loc 1 289 0
 962 005a 0B94     		str	r4, [sp, #44]
 963              		.loc 1 291 0
 964 005c 0C94     		str	r4, [sp, #48]
 965              		.loc 1 292 0
 966 005e 0D94     		str	r4, [sp, #52]
 967              		.loc 1 293 0
 968 0060 0F94     		str	r4, [sp, #60]
 969              		.loc 1 294 0
ARM GAS  /tmp/ccymlDr1.s 			page 18


 970 0062 0F48     		ldr	r0, .L65+16
 971              		.loc 1 295 0
 972 0064 0694     		str	r4, [sp, #24]
 973              		.loc 1 296 0
 974 0066 0894     		str	r4, [sp, #32]
 975              		.loc 1 298 0
 976 0068 8024     		mov	r4, #128
 977 006a 6101     		lsl	r1, r4, #5
 978              		.loc 1 290 0
 979 006c 8022     		mov	r2, #128
 980              		.loc 1 294 0
 981 006e 0590     		str	r0, [sp, #20]
 982              		.loc 1 298 0
 983 0070 0E91     		str	r1, [sp, #56]
 984              		.loc 1 299 0
 985 0072 1023     		mov	r3, #16
 986              		.loc 1 300 0
 987 0074 0B48     		ldr	r0, .L65+20
 988 0076 05A9     		add	r1, sp, #20
 989              		.loc 1 290 0
 990 0078 0A92     		str	r2, [sp, #40]
 991              		.loc 1 299 0
 992 007a 0793     		str	r3, [sp, #28]
 993              		.loc 1 300 0
 994 007c FFF7FEFF 		bl	DMA_Init
 995              	.LVL85:
 996              		.loc 1 303 0
 997 0080 281C     		mov	r0, r5
 998 0082 0221     		mov	r1, #2
 999 0084 321C     		mov	r2, r6
 1000 0086 FFF7FEFF 		bl	SPI_I2S_DMACmd
 1001              	.LVL86:
 1002              	.L62:
 1003              		.loc 1 304 0
 1004 008a 10B0     		add	sp, sp, #64
 1005              		@ sp needed for prologue
 1006              	.LVL87:
 1007 008c 70BD     		pop	{r4, r5, r6, pc}
 1008              	.L66:
 1009 008e C046     		.align	2
 1010              	.L65:
 1011 0090 00300140 		.word	1073819648
 1012 0094 00000000 		.word	.LANCHOR7
 1013 0098 00000000 		.word	.LANCHOR8
 1014 009c 00C0FFFF 		.word	-16384
 1015 00a0 0C300140 		.word	1073819660
 1016 00a4 30000240 		.word	1073872944
 1017              		.cfi_endproc
 1018              	.LFE85:
 1019              		.size	spiInit, .-spiInit
 1020              		.section	.text.spiSendI,"ax",%progbits
 1021              		.align	1
 1022              		.global	spiSendI
 1023              		.code	16
 1024              		.thumb_func
 1025              		.type	spiSendI, %function
 1026              	spiSendI:
ARM GAS  /tmp/ccymlDr1.s 			page 19


 1027              	.LFB86:
 1028              		.loc 1 307 0
 1029              		.cfi_startproc
 1030              	.LVL88:
 1031 0000 F7B5     		push	{r0, r1, r2, r4, r5, r6, r7, lr}
 1032              	.LCFI14:
 1033              		.cfi_def_cfa_offset 32
 1034              		.cfi_offset 0, -32
 1035              		.cfi_offset 1, -28
 1036              		.cfi_offset 2, -24
 1037              		.cfi_offset 4, -20
 1038              		.cfi_offset 5, -16
 1039              		.cfi_offset 6, -12
 1040              		.cfi_offset 7, -8
 1041              		.cfi_offset 14, -4
 1042              		.loc 1 308 0
 1043 0002 134B     		ldr	r3, .L71
 1044              		.loc 1 307 0
 1045 0004 0F1C     		mov	r7, r1
 1046 0006 0092     		str	r2, [sp]
 1047              		.loc 1 308 0
 1048 0008 9842     		cmp	r0, r3
 1049 000a 01D0     		beq	.L68
 1050              	.LVL89:
 1051              	.L70:
 1052              		.loc 1 331 0
 1053 000c 0120     		mov	r0, #1
 1054 000e 1DE0     		b	.L69
 1055              	.LVL90:
 1056              	.L68:
 1057              		.loc 1 310 0
 1058 0010 104D     		ldr	r5, .L71+4
 1059 0012 1149     		ldr	r1, .L71+8
 1060              	.LVL91:
 1061 0014 281C     		mov	r0, r5
 1062              	.LVL92:
 1063 0016 FFF7FEFF 		bl	chSemWaitTimeout
 1064              	.LVL93:
 1065 001a 041E     		sub	r4, r0, #0
 1066 001c F6D1     		bne	.L70
 1067              		.loc 1 318 0
 1068 001e 0F4B     		ldr	r3, .L71+12
 1069 0020 0122     		mov	r2, #1
 1070 0022 1968     		ldr	r1, [r3]
 1071              		.loc 1 319 0
 1072 0024 8026     		mov	r6, #128
 1073              		.loc 1 318 0
 1074 0026 9143     		bic	r1, r2
 1075 0028 1960     		str	r1, [r3]
 1076              		.loc 1 319 0
 1077 002a 0D49     		ldr	r1, .L71+16
 1078 002c 4868     		ldr	r0, [r1, #4]
 1079 002e 0190     		str	r0, [sp, #4]
 1080 0030 B000     		lsl	r0, r6, #2
 1081 0032 019E     		ldr	r6, [sp, #4]
 1082 0034 0643     		orr	r6, r0
 1083 0036 4E60     		str	r6, [r1, #4]
ARM GAS  /tmp/ccymlDr1.s 			page 20


 1084              		.loc 1 320 0
 1085 0038 DF60     		str	r7, [r3, #12]
 1086              		.loc 1 321 0
 1087 003a 009F     		ldr	r7, [sp]
 1088              	.LVL94:
 1089              		.loc 1 325 0
 1090 003c 281C     		mov	r0, r5
 1091              		.loc 1 321 0
 1092 003e 5F60     		str	r7, [r3, #4]
 1093              		.loc 1 324 0
 1094 0040 1968     		ldr	r1, [r3]
 1095 0042 0A43     		orr	r2, r1
 1096 0044 1A60     		str	r2, [r3]
 1097              		.loc 1 325 0
 1098 0046 FFF7FEFF 		bl	chSemSignal
 1099              	.LVL95:
 1100              		.loc 1 327 0
 1101 004a 201C     		mov	r0, r4
 1102              	.L69:
 1103              		.loc 1 333 0
 1104              		@ sp needed for prologue
 1105 004c FEBD     		pop	{r1, r2, r3, r4, r5, r6, r7, pc}
 1106              	.L72:
 1107 004e C046     		.align	2
 1108              	.L71:
 1109 0050 00300140 		.word	1073819648
 1110 0054 00000000 		.word	.LANCHOR7
 1111 0058 FFFF0000 		.word	65535
 1112 005c 30000240 		.word	1073872944
 1113 0060 00000240 		.word	1073872896
 1114              		.cfi_endproc
 1115              	.LFE86:
 1116              		.size	spiSendI, .-spiSendI
 1117              		.section	.text.spiSendS,"ax",%progbits
 1118              		.align	1
 1119              		.global	spiSendS
 1120              		.code	16
 1121              		.thumb_func
 1122              		.type	spiSendS, %function
 1123              	spiSendS:
 1124              	.LFB87:
 1125              		.loc 1 336 0
 1126              		.cfi_startproc
 1127              	.LVL96:
 1128 0000 F8B5     		push	{r3, r4, r5, r6, r7, lr}
 1129              	.LCFI15:
 1130              		.cfi_def_cfa_offset 24
 1131              		.cfi_offset 3, -24
 1132              		.cfi_offset 4, -20
 1133              		.cfi_offset 5, -16
 1134              		.cfi_offset 6, -12
 1135              		.cfi_offset 7, -8
 1136              		.cfi_offset 14, -4
 1137              		.loc 1 338 0
 1138 0002 184B     		ldr	r3, .L81
 1139              		.loc 1 336 0
 1140 0004 0F1C     		mov	r7, r1
ARM GAS  /tmp/ccymlDr1.s 			page 21


 1141 0006 151C     		mov	r5, r2
 1142              		.loc 1 338 0
 1143 0008 9842     		cmp	r0, r3
 1144 000a 01D0     		beq	.L74
 1145              	.LVL97:
 1146              	.L76:
 1147              		.loc 1 337 0
 1148 000c 0125     		mov	r5, #1
 1149 000e 26E0     		b	.L75
 1150              	.LVL98:
 1151              	.L74:
 1152              		.loc 1 340 0
 1153 0010 154E     		ldr	r6, .L81+4
 1154 0012 FA21     		mov	r1, #250
 1155              	.LVL99:
 1156 0014 301C     		mov	r0, r6
 1157              	.LVL100:
 1158 0016 4900     		lsl	r1, r1, #1
 1159 0018 FFF7FEFF 		bl	chSemWaitTimeout
 1160              	.LVL101:
 1161 001c 0028     		cmp	r0, #0
 1162 001e F5D1     		bne	.L76
 1163              		.loc 1 345 0
 1164 0020 124C     		ldr	r4, .L81+8
 1165 0022 8020     		mov	r0, #128
 1166 0024 2268     		ldr	r2, [r4]
 1167 0026 8300     		lsl	r3, r0, #2
 1168 0028 1A42     		tst	r2, r3
 1169 002a 02D1     		bne	.L77
 1170              		.loc 1 347 0
 1171 002c 6168     		ldr	r1, [r4, #4]
 1172 002e 0B43     		orr	r3, r1
 1173 0030 6360     		str	r3, [r4, #4]
 1174              	.L77:
 1175              		.loc 1 349 0
 1176 0032 2A1C     		mov	r2, r5
 1177 0034 0B48     		ldr	r0, .L81
 1178 0036 391C     		mov	r1, r7
 1179 0038 FFF7FEFF 		bl	spiSendI
 1180              	.LVL102:
 1181 003c 051C     		mov	r5, r0
 1182              	.LVL103:
 1183              	.L78:
 1184              		.loc 1 352 0 discriminator 1
 1185 003e 8022     		mov	r2, #128
 1186 0040 2068     		ldr	r0, [r4]
 1187 0042 9300     		lsl	r3, r2, #2
 1188 0044 094F     		ldr	r7, .L81+8
 1189 0046 1842     		tst	r0, r3
 1190 0048 03D1     		bne	.L80
 1191              	.L79:
 1192              		.loc 1 352 0 is_stmt 0 discriminator 2
 1193 004a 3220     		mov	r0, #50
 1194 004c FFF7FEFF 		bl	chThdSleep
 1195              	.LVL104:
 1196 0050 F5E7     		b	.L78
 1197              	.L80:
ARM GAS  /tmp/ccymlDr1.s 			page 22


 1198              		.loc 1 353 0 is_stmt 1
 1199 0052 7C68     		ldr	r4, [r7, #4]
 1200              		.loc 1 354 0
 1201 0054 301C     		mov	r0, r6
 1202              		.loc 1 353 0
 1203 0056 2343     		orr	r3, r4
 1204 0058 7B60     		str	r3, [r7, #4]
 1205              		.loc 1 354 0
 1206 005a FFF7FEFF 		bl	chSemSignal
 1207              	.LVL105:
 1208              	.L75:
 1209              		.loc 1 357 0
 1210 005e 281C     		mov	r0, r5
 1211              		@ sp needed for prologue
 1212 0060 F8BD     		pop	{r3, r4, r5, r6, r7, pc}
 1213              	.L82:
 1214 0062 C046     		.align	2
 1215              	.L81:
 1216 0064 00300140 		.word	1073819648
 1217 0068 00000000 		.word	.LANCHOR8
 1218 006c 00000240 		.word	1073872896
 1219              		.cfi_endproc
 1220              	.LFE87:
 1221              		.size	spiSendS, .-spiSendS
 1222              		.section	.text.reverse,"ax",%progbits
 1223              		.align	1
 1224              		.global	reverse
 1225              		.code	16
 1226              		.thumb_func
 1227              		.type	reverse, %function
 1228              	reverse:
 1229              	.LFB88:
 1230              		.loc 1 360 0
 1231              		.cfi_startproc
 1232              	.LVL106:
 1233 0000 10B5     		push	{r4, lr}
 1234              	.LCFI16:
 1235              		.cfi_def_cfa_offset 8
 1236              		.cfi_offset 4, -8
 1237              		.cfi_offset 14, -4
 1238              		.loc 1 360 0
 1239 0002 041C     		mov	r4, r0
 1240              		.loc 1 364 0
 1241 0004 FFF7FEFF 		bl	strlen
 1242              	.LVL107:
 1243 0008 231C     		mov	r3, r4
 1244 000a 0138     		sub	r0, r0, #1
 1245              	.LVL108:
 1246              	.L84:
 1247              		.loc 1 359 0 discriminator 1
 1248 000c 1A1B     		sub	r2, r3, r4
 1249              	.LVL109:
 1250              		.loc 1 364 0 discriminator 1
 1251 000e 8242     		cmp	r2, r0
 1252 0010 06DA     		bge	.L86
 1253              	.L85:
 1254              		.loc 1 365 0 discriminator 2
ARM GAS  /tmp/ccymlDr1.s 			page 23


 1255 0012 1A78     		ldrb	r2, [r3]
 1256              	.LVL110:
 1257              		.loc 1 366 0 discriminator 2
 1258 0014 215C     		ldrb	r1, [r4, r0]
 1259 0016 1970     		strb	r1, [r3]
 1260              		.loc 1 367 0 discriminator 2
 1261 0018 2254     		strb	r2, [r4, r0]
 1262              	.LVL111:
 1263 001a 0133     		add	r3, r3, #1
 1264              	.LVL112:
 1265              		.loc 1 364 0 discriminator 2
 1266 001c 0138     		sub	r0, r0, #1
 1267              	.LVL113:
 1268 001e F5E7     		b	.L84
 1269              	.LVL114:
 1270              	.L86:
 1271              		.loc 1 369 0
 1272              		@ sp needed for prologue
 1273              	.LVL115:
 1274 0020 10BD     		pop	{r4, pc}
 1275              		.cfi_endproc
 1276              	.LFE88:
 1277              		.size	reverse, .-reverse
 1278              		.global	__aeabi_idivmod
 1279              		.global	__aeabi_idiv
 1280              		.section	.text.itoa,"ax",%progbits
 1281              		.align	1
 1282              		.global	itoa
 1283              		.code	16
 1284              		.thumb_func
 1285              		.type	itoa, %function
 1286              	itoa:
 1287              	.LFB89:
 1288              		.loc 1 372 0
 1289              		.cfi_startproc
 1290              	.LVL116:
 1291 0000 F7B5     		push	{r0, r1, r2, r4, r5, r6, r7, lr}
 1292              	.LCFI17:
 1293              		.cfi_def_cfa_offset 32
 1294              		.cfi_offset 0, -32
 1295              		.cfi_offset 1, -28
 1296              		.cfi_offset 2, -24
 1297              		.cfi_offset 4, -20
 1298              		.cfi_offset 5, -16
 1299              		.cfi_offset 6, -12
 1300              		.cfi_offset 7, -8
 1301              		.cfi_offset 14, -4
 1302              	.LVL117:
 1303 0002 C217     		asr	r2, r0, #31
 1304 0004 8718     		add	r7, r0, r2
 1305              		.loc 1 372 0
 1306 0006 0190     		str	r0, [sp, #4]
 1307 0008 0C1C     		mov	r4, r1
 1308 000a 5740     		eor	r7, r2
 1309 000c 0026     		mov	r6, #0
 1310              	.LVL118:
 1311              	.L88:
ARM GAS  /tmp/ccymlDr1.s 			page 24


 1312              		.loc 1 379 0 discriminator 1
 1313 000e 381C     		mov	r0, r7
 1314 0010 0A21     		mov	r1, #10
 1315 0012 FFF7FEFF 		bl	__aeabi_idivmod
 1316              	.LVL119:
 1317 0016 3031     		add	r1, r1, #48
 1318 0018 A155     		strb	r1, [r4, r6]
 1319              		.loc 1 380 0 discriminator 1
 1320 001a 381C     		mov	r0, r7
 1321 001c 0A21     		mov	r1, #10
 1322 001e FFF7FEFF 		bl	__aeabi_idiv
 1323              	.LVL120:
 1324              		.loc 1 379 0 discriminator 1
 1325 0022 751C     		add	r5, r6, #1
 1326              	.LVL121:
 1327              		.loc 1 380 0 discriminator 1
 1328 0024 071E     		sub	r7, r0, #0
 1329              	.LVL122:
 1330 0026 01DD     		ble	.L91
 1331              	.L90:
 1332              		.loc 1 379 0
 1333 0028 2E1C     		mov	r6, r5
 1334 002a F0E7     		b	.L88
 1335              	.L91:
 1336              		.loc 1 381 0
 1337 002c 019B     		ldr	r3, [sp, #4]
 1338 002e 002B     		cmp	r3, #0
 1339 0030 02DA     		bge	.L89
 1340              		.loc 1 382 0
 1341 0032 2D20     		mov	r0, #45
 1342              	.LVL123:
 1343 0034 6055     		strb	r0, [r4, r5]
 1344 0036 B51C     		add	r5, r6, #2
 1345              	.LVL124:
 1346              	.L89:
 1347              		.loc 1 383 0
 1348 0038 0021     		mov	r1, #0
 1349 003a 6155     		strb	r1, [r4, r5]
 1350              		.loc 1 384 0
 1351 003c 201C     		mov	r0, r4
 1352 003e FFF7FEFF 		bl	reverse
 1353              	.LVL125:
 1354              		.loc 1 385 0
 1355              		@ sp needed for prologue
 1356              	.LVL126:
 1357              	.LVL127:
 1358              	.LVL128:
 1359 0042 F7BD     		pop	{r0, r1, r2, r4, r5, r6, r7, pc}
 1360              		.cfi_endproc
 1361              	.LFE89:
 1362              		.size	itoa, .-itoa
 1363              		.global	serial_dbg
 1364              		.global	usart_rxbuf
 1365              		.global	usart_txbuf
 1366              		.global	i2c1_semS
 1367              		.global	i2c1_semI
 1368              		.global	spi1_semS
ARM GAS  /tmp/ccymlDr1.s 			page 25


 1369              		.global	spi1_semI
 1370              		.global	usart1_semS
 1371              		.global	usart1_semI
 1372              		.section	.bss.usart1_semS,"aw",%nobits
 1373              		.align	2
 1374              		.set	.LANCHOR3,. + 0
 1375              		.type	usart1_semS, %object
 1376              		.size	usart1_semS, 4
 1377              	usart1_semS:
 1378 0000 00000000 		.space	4
 1379              		.section	.bss.spi1_semS,"aw",%nobits
 1380              		.align	2
 1381              		.set	.LANCHOR8,. + 0
 1382              		.type	spi1_semS, %object
 1383              		.size	spi1_semS, 4
 1384              	spi1_semS:
 1385 0000 00000000 		.space	4
 1386              		.section	.data.serial_dbg,"aw",%progbits
 1387              		.set	.LANCHOR6,. + 0
 1388              		.type	serial_dbg, %object
 1389              		.size	serial_dbg, 1
 1390              	serial_dbg:
 1391 0000 01       		.byte	1
 1392              		.section	.bss.i2c1_semI,"aw",%nobits
 1393              		.align	2
 1394              		.set	.LANCHOR0,. + 0
 1395              		.type	i2c1_semI, %object
 1396              		.size	i2c1_semI, 4
 1397              	i2c1_semI:
 1398 0000 00000000 		.space	4
 1399              		.section	.bss.usart_txbuf,"aw",%nobits
 1400              		.set	.LANCHOR4,. + 0
 1401              		.type	usart_txbuf, %object
 1402              		.size	usart_txbuf, 64
 1403              	usart_txbuf:
 1404 0000 00000000 		.space	64
 1404      00000000 
 1404      00000000 
 1404      00000000 
 1404      00000000 
 1405              		.section	.bss.usart_rxbuf,"aw",%nobits
 1406              		.set	.LANCHOR5,. + 0
 1407              		.type	usart_rxbuf, %object
 1408              		.size	usart_rxbuf, 64
 1409              	usart_rxbuf:
 1410 0000 00000000 		.space	64
 1410      00000000 
 1410      00000000 
 1410      00000000 
 1410      00000000 
 1411              		.section	.bss.i2c1_semS,"aw",%nobits
 1412              		.align	2
 1413              		.set	.LANCHOR1,. + 0
 1414              		.type	i2c1_semS, %object
 1415              		.size	i2c1_semS, 4
 1416              	i2c1_semS:
 1417 0000 00000000 		.space	4
ARM GAS  /tmp/ccymlDr1.s 			page 26


 1418              		.section	.bss.usart1_semI,"aw",%nobits
 1419              		.align	2
 1420              		.set	.LANCHOR2,. + 0
 1421              		.type	usart1_semI, %object
 1422              		.size	usart1_semI, 4
 1423              	usart1_semI:
 1424 0000 00000000 		.space	4
 1425              		.section	.bss.spi1_semI,"aw",%nobits
 1426              		.align	2
 1427              		.set	.LANCHOR7,. + 0
 1428              		.type	spi1_semI, %object
 1429              		.size	spi1_semI, 4
 1430              	spi1_semI:
 1431 0000 00000000 		.space	4
 1432              		.text
 1433              	.Letext0:
 1434              		.file 3 "/media/data/src/x-tools/gcc-arm-none-eabi-4_7-2013q1/bin/../lib/gcc/arm-none-eabi/4.7.3/i
 1435              		.file 4 "/media/data/src/x-tools/gcc-arm-none-eabi-4_7-2013q1/bin/../lib/gcc/arm-none-eabi/4.7.3/.
 1436              		.file 5 "./os/nil/include/nil.h"
 1437              		.file 6 "./os/nil/ports/ARMCMx/compilers/GCC/niltypes.h"
 1438              		.file 7 "./os/ext/CMSIS/ST/stm32f0xx.h"
 1439              		.file 8 "lib/STM32F0xx_StdPeriph_Driver/inc/stm32f0xx_dma.h"
 1440              		.file 9 "lib/STM32F0xx_StdPeriph_Driver/inc/stm32f0xx_i2c.h"
 1441              		.file 10 "lib/STM32F0xx_StdPeriph_Driver/inc/stm32f0xx_spi.h"
 1442              		.file 11 "lib/STM32F0xx_StdPeriph_Driver/inc/stm32f0xx_usart.h"
 1443              		.file 12 "./os/nil/ports/ARMCMx/nilcore.h"
 1444              		.file 13 "./os/nil/ports/ARMCMx/nilcore_v6m.h"
 1445              		.file 14 "lib/STM32F0xx_StdPeriph_Driver/inc/stm32f0xx_syscfg.h"
 1446              		.file 15 "/media/data/src/x-tools/gcc-arm-none-eabi-4_7-2013q1/bin/../lib/gcc/arm-none-eabi/4.7.3/