ARM GAS  /tmp/ccUwvvew.s 			page 1


   1              		.cpu cortex-m0
   2              		.fpu softvfp
   3              		.eabi_attribute 20, 1
   4              		.eabi_attribute 21, 1
   5              		.eabi_attribute 23, 3
   6              		.eabi_attribute 24, 1
   7              		.eabi_attribute 25, 1
   8              		.eabi_attribute 26, 1
   9              		.eabi_attribute 30, 4
  10              		.eabi_attribute 34, 0
  11              		.eabi_attribute 18, 4
  12              		.code	16
  13              		.file	"display.c"
  14              		.text
  15              	.Ltext0:
  16              		.cfi_sections	.debug_frame
  17              		.section	.text.toggleTC,"ax",%progbits
  18              		.align	1
  19              		.global	toggleTC
  20              		.code	16
  21              		.thumb_func
  22              		.type	toggleTC, %function
  23              	toggleTC:
  24              	.LFB86:
  25              		.file 1 "src/display.c"
  26              		.loc 1 302 0
  27              		.cfi_startproc
  28 0000 73B5     		push	{r0, r1, r4, r5, r6, lr}
  29              	.LCFI0:
  30              		.cfi_def_cfa_offset 24
  31              		.cfi_offset 0, -24
  32              		.cfi_offset 1, -20
  33              		.cfi_offset 4, -16
  34              		.cfi_offset 5, -12
  35              		.cfi_offset 6, -8
  36              		.cfi_offset 14, -4
  37              		.loc 1 303 0
  38 0002 114C     		ldr	r4, .L6
  39 0004 0A20     		mov	r0, #10
  40 0006 6668     		ldr	r6, [r4, #4]
  41 0008 2368     		ldr	r3, [r4]
  42 000a 0021     		mov	r1, #0
  43 000c 0096     		str	r6, [sp]
  44 000e 0F4A     		ldr	r2, .L6+4
  45 0010 FFF7FEFF 		bl	ssd1306DrawString
  46              	.LVL0:
  47              		.loc 1 304 0
  48 0014 0E4D     		ldr	r5, .L6+8
  49 0016 0123     		mov	r3, #1
  50 0018 2978     		ldrb	r1, [r5]
  51              		.loc 1 306 0
  52 001a 1920     		mov	r0, #25
  53              		.loc 1 304 0
  54 001c 1940     		and	r1, r3
  55              		.loc 1 306 0
  56 001e 0096     		str	r6, [sp]
  57 0020 2368     		ldr	r3, [r4]
ARM GAS  /tmp/ccUwvvew.s 			page 2


  58              		.loc 1 304 0
  59 0022 02D0     		beq	.L2
  60              		.loc 1 306 0
  61 0024 0021     		mov	r1, #0
  62 0026 0B4A     		ldr	r2, .L6+12
  63 0028 00E0     		b	.L4
  64              	.L2:
  65              		.loc 1 310 0
  66 002a 0B4A     		ldr	r2, .L6+16
  67              	.L4:
  68 002c FFF7FEFF 		bl	ssd1306DrawString
  69              	.LVL1:
  70              		.loc 1 312 0
  71 0030 2878     		ldrb	r0, [r5]
  72 0032 0122     		mov	r2, #1
  73 0034 5040     		eor	r0, r2
  74 0036 2870     		strb	r0, [r5]
  75              		.loc 1 313 0
  76 0038 281C     		mov	r0, r5
  77 003a FFF7FEFF 		bl	writeSettings
  78              	.LVL2:
  79              		.loc 1 314 0
  80 003e 0748     		ldr	r0, .L6+20
  81 0040 FFF7FEFF 		bl	chThdSleep
  82              	.LVL3:
  83              		.loc 1 315 0
  84              		@ sp needed for prologue
  85 0044 73BD     		pop	{r0, r1, r4, r5, r6, pc}
  86              	.L7:
  87 0046 C046     		.align	2
  88              	.L6:
  89 0048 00000000 		.word	Font_System5x8
  90 004c 00000000 		.word	.LC0
  91 0050 00000000 		.word	settings
  92 0054 00000000 		.word	.LANCHOR0
  93 0058 00000000 		.word	.LANCHOR1
  94 005c 10270000 		.word	10000
  95              		.cfi_endproc
  96              	.LFE86:
  97              		.size	toggleTC, .-toggleTC
  98              		.section	.text.toggleShifter,"ax",%progbits
  99              		.align	1
 100              		.global	toggleShifter
 101              		.code	16
 102              		.thumb_func
 103              		.type	toggleShifter, %function
 104              	toggleShifter:
 105              	.LFB85:
 106              		.loc 1 286 0
 107              		.cfi_startproc
 108 0000 73B5     		push	{r0, r1, r4, r5, r6, lr}
 109              	.LCFI1:
 110              		.cfi_def_cfa_offset 24
 111              		.cfi_offset 0, -24
 112              		.cfi_offset 1, -20
 113              		.cfi_offset 4, -16
 114              		.cfi_offset 5, -12
ARM GAS  /tmp/ccUwvvew.s 			page 3


 115              		.cfi_offset 6, -8
 116              		.cfi_offset 14, -4
 117              		.loc 1 287 0
 118 0002 114C     		ldr	r4, .L12
 119 0004 0A20     		mov	r0, #10
 120 0006 6668     		ldr	r6, [r4, #4]
 121 0008 2368     		ldr	r3, [r4]
 122 000a 0021     		mov	r1, #0
 123 000c 0096     		str	r6, [sp]
 124 000e 0F4A     		ldr	r2, .L12+4
 125 0010 FFF7FEFF 		bl	ssd1306DrawString
 126              	.LVL4:
 127              		.loc 1 288 0
 128 0014 0E4D     		ldr	r5, .L12+8
 129 0016 0223     		mov	r3, #2
 130 0018 2978     		ldrb	r1, [r5]
 131              		.loc 1 290 0
 132 001a 1920     		mov	r0, #25
 133              		.loc 1 288 0
 134 001c 1940     		and	r1, r3
 135              		.loc 1 290 0
 136 001e 0096     		str	r6, [sp]
 137 0020 2368     		ldr	r3, [r4]
 138              		.loc 1 288 0
 139 0022 02D0     		beq	.L9
 140              		.loc 1 290 0
 141 0024 0021     		mov	r1, #0
 142 0026 0B4A     		ldr	r2, .L12+12
 143 0028 00E0     		b	.L11
 144              	.L9:
 145              		.loc 1 294 0
 146 002a 0B4A     		ldr	r2, .L12+16
 147              	.L11:
 148 002c FFF7FEFF 		bl	ssd1306DrawString
 149              	.LVL5:
 150              		.loc 1 296 0
 151 0030 2878     		ldrb	r0, [r5]
 152 0032 0222     		mov	r2, #2
 153 0034 5040     		eor	r0, r2
 154 0036 2870     		strb	r0, [r5]
 155              		.loc 1 297 0
 156 0038 281C     		mov	r0, r5
 157 003a FFF7FEFF 		bl	writeSettings
 158              	.LVL6:
 159              		.loc 1 298 0
 160 003e 0748     		ldr	r0, .L12+20
 161 0040 FFF7FEFF 		bl	chThdSleep
 162              	.LVL7:
 163              		.loc 1 299 0
 164              		@ sp needed for prologue
 165 0044 73BD     		pop	{r0, r1, r4, r5, r6, pc}
 166              	.L13:
 167 0046 C046     		.align	2
 168              	.L12:
 169 0048 00000000 		.word	Font_System5x8
 170 004c 11000000 		.word	.LC6
 171 0050 00000000 		.word	settings
ARM GAS  /tmp/ccUwvvew.s 			page 4


 172 0054 00000000 		.word	.LANCHOR0
 173 0058 00000000 		.word	.LANCHOR1
 174 005c 10270000 		.word	10000
 175              		.cfi_endproc
 176              	.LFE85:
 177              		.size	toggleShifter, .-toggleShifter
 178              		.section	.text.toggleLED,"ax",%progbits
 179              		.align	1
 180              		.global	toggleLED
 181              		.code	16
 182              		.thumb_func
 183              		.type	toggleLED, %function
 184              	toggleLED:
 185              	.LFB84:
 186              		.loc 1 270 0
 187              		.cfi_startproc
 188 0000 73B5     		push	{r0, r1, r4, r5, r6, lr}
 189              	.LCFI2:
 190              		.cfi_def_cfa_offset 24
 191              		.cfi_offset 0, -24
 192              		.cfi_offset 1, -20
 193              		.cfi_offset 4, -16
 194              		.cfi_offset 5, -12
 195              		.cfi_offset 6, -8
 196              		.cfi_offset 14, -4
 197              		.loc 1 271 0
 198 0002 114C     		ldr	r4, .L18
 199 0004 0A20     		mov	r0, #10
 200 0006 6668     		ldr	r6, [r4, #4]
 201 0008 2368     		ldr	r3, [r4]
 202 000a 0021     		mov	r1, #0
 203 000c 0096     		str	r6, [sp]
 204 000e 0F4A     		ldr	r2, .L18+4
 205 0010 FFF7FEFF 		bl	ssd1306DrawString
 206              	.LVL8:
 207              		.loc 1 272 0
 208 0014 0E4D     		ldr	r5, .L18+8
 209 0016 0423     		mov	r3, #4
 210 0018 2978     		ldrb	r1, [r5]
 211              		.loc 1 274 0
 212 001a 1920     		mov	r0, #25
 213              		.loc 1 272 0
 214 001c 1940     		and	r1, r3
 215              		.loc 1 274 0
 216 001e 0096     		str	r6, [sp]
 217 0020 2368     		ldr	r3, [r4]
 218              		.loc 1 272 0
 219 0022 02D0     		beq	.L15
 220              		.loc 1 274 0
 221 0024 0021     		mov	r1, #0
 222 0026 0B4A     		ldr	r2, .L18+12
 223 0028 00E0     		b	.L17
 224              	.L15:
 225              		.loc 1 278 0
 226 002a 0B4A     		ldr	r2, .L18+16
 227              	.L17:
 228 002c FFF7FEFF 		bl	ssd1306DrawString
ARM GAS  /tmp/ccUwvvew.s 			page 5


 229              	.LVL9:
 230              		.loc 1 280 0
 231 0030 2878     		ldrb	r0, [r5]
 232 0032 0422     		mov	r2, #4
 233 0034 5040     		eor	r0, r2
 234 0036 2870     		strb	r0, [r5]
 235              		.loc 1 281 0
 236 0038 281C     		mov	r0, r5
 237 003a FFF7FEFF 		bl	writeSettings
 238              	.LVL10:
 239              		.loc 1 282 0
 240 003e 0748     		ldr	r0, .L18+20
 241 0040 FFF7FEFF 		bl	chThdSleep
 242              	.LVL11:
 243              		.loc 1 283 0
 244              		@ sp needed for prologue
 245 0044 73BD     		pop	{r0, r1, r4, r5, r6, pc}
 246              	.L19:
 247 0046 C046     		.align	2
 248              	.L18:
 249 0048 00000000 		.word	Font_System5x8
 250 004c 19000000 		.word	.LC12
 251 0050 00000000 		.word	settings
 252 0054 00000000 		.word	.LANCHOR0
 253 0058 00000000 		.word	.LANCHOR1
 254 005c 10270000 		.word	10000
 255              		.cfi_endproc
 256              	.LFE84:
 257              		.size	toggleLED, .-toggleLED
 258              		.section	.text.startDisplay,"ax",%progbits
 259              		.align	1
 260              		.global	startDisplay
 261              		.code	16
 262              		.thumb_func
 263              		.type	startDisplay, %function
 264              	startDisplay:
 265              	.LFB77:
 266              		.loc 1 46 0
 267              		.cfi_startproc
 268 0000 7FB5     		push	{r0, r1, r2, r3, r4, r5, r6, lr}
 269              	.LCFI3:
 270              		.cfi_def_cfa_offset 32
 271              		.cfi_offset 0, -32
 272              		.cfi_offset 1, -28
 273              		.cfi_offset 2, -24
 274              		.cfi_offset 3, -20
 275              		.cfi_offset 4, -16
 276              		.cfi_offset 5, -12
 277              		.cfi_offset 6, -8
 278              		.cfi_offset 14, -4
 279              		.loc 1 49 0
 280 0002 0220     		mov	r0, #2
 281 0004 FFF7FEFF 		bl	ssd1306Init
 282              	.LVL12:
 283              		.loc 1 50 0
 284 0008 FFF7FEFF 		bl	ssd1306TurnOn
 285              	.LVL13:
ARM GAS  /tmp/ccUwvvew.s 			page 6


 286              		.loc 1 54 0
 287 000c 1C48     		ldr	r0, .L25
 288              		.loc 1 51 0
 289 000e 0123     		mov	r3, #1
 290              		.loc 1 54 0
 291 0010 4168     		ldr	r1, [r0, #4]
 292              		.loc 1 51 0
 293 0012 1C4D     		ldr	r5, .L25+4
 294              		.loc 1 52 0
 295 0014 1C4C     		ldr	r4, .L25+8
 296 0016 8026     		mov	r6, #128
 297 0018 9E40     		lsl	r6, r6, r3
 298              		.loc 1 51 0
 299 001a 2B70     		strb	r3, [r5]
 300              		.loc 1 54 0
 301 001c 1B4A     		ldr	r2, .L25+12
 302 001e 0368     		ldr	r3, [r0]
 303              		.loc 1 52 0
 304 0020 2683     		strh	r6, [r4, #24]
 305              		.loc 1 54 0
 306 0022 2820     		mov	r0, #40
 307 0024 0091     		str	r1, [sp]
 308 0026 1421     		mov	r1, #20
 309 0028 FFF7FEFF 		bl	ssd1306DrawString
 310              	.LVL14:
 311              		.loc 1 55 0
 312 002c FA22     		mov	r2, #250
 313 002e 5000     		lsl	r0, r2, #1
 314 0030 FFF7FEFF 		bl	chThdSleep
 315              	.LVL15:
 316              		.loc 1 56 0
 317 0034 6683     		strh	r6, [r4, #26]
 318              		.loc 1 58 0
 319 0036 1648     		ldr	r0, .L25+16
 320 0038 FFF7FEFF 		bl	serDbg
 321              	.LVL16:
 322              	.L23:
 323              		.loc 1 62 0
 324 003c 1548     		ldr	r0, .L25+20
 325 003e FFF7FEFF 		bl	serDbg
 326              	.LVL17:
 327              		.loc 1 63 0
 328 0042 FFF7FEFF 		bl	ssd1306TurnOff
 329              	.LVL18:
 330              		.loc 1 64 0
 331 0046 0023     		mov	r3, #0
 332 0048 2B70     		strb	r3, [r5]
 333              	.L21:
 334              		.loc 1 66 0 discriminator 1
 335 004a 2069     		ldr	r0, [r4, #16]
 336 004c 0E4E     		ldr	r6, .L25+8
 337 004e 8104     		lsl	r1, r0, #18
 338 0050 08D5     		bpl	.L24
 339              	.L22:
 340              		.loc 1 68 0
 341 0052 7369     		ldr	r3, [r6, #20]
 342 0054 8022     		mov	r2, #128
ARM GAS  /tmp/ccUwvvew.s 			page 7


 343 0056 5000     		lsl	r0, r2, #1
 344 0058 5840     		eor	r0, r3
 345 005a 7061     		str	r0, [r6, #20]
 346              		.loc 1 69 0
 347 005c 0E48     		ldr	r0, .L25+24
 348 005e FFF7FEFF 		bl	chThdSleep
 349              	.LVL19:
 350 0062 F2E7     		b	.L21
 351              	.L24:
 352              		.loc 1 71 0
 353 0064 0D48     		ldr	r0, .L25+28
 354 0066 FFF7FEFF 		bl	serDbg
 355              	.LVL20:
 356              		.loc 1 72 0
 357 006a FFF7FEFF 		bl	ssd1306ClearScreen
 358              	.LVL21:
 359              		.loc 1 73 0
 360 006e FFF7FEFF 		bl	ssd1306TurnOn
 361              	.LVL22:
 362              		.loc 1 74 0
 363 0072 0121     		mov	r1, #1
 364              		.loc 1 75 0
 365 0074 0A48     		ldr	r0, .L25+32
 366              		.loc 1 74 0
 367 0076 2970     		strb	r1, [r5]
 368              		.loc 1 75 0
 369 0078 FFF7FEFF 		bl	openMenu
 370              	.LVL23:
 371              		.loc 1 76 0
 372 007c DEE7     		b	.L23
 373              	.L26:
 374 007e C046     		.align	2
 375              	.L25:
 376 0080 00000000 		.word	Font_System7x8
 377 0084 00000000 		.word	.LANCHOR2
 378 0088 00080048 		.word	1207961600
 379 008c 25000000 		.word	.LC19
 380 0090 2D000000 		.word	.LC22
 381 0094 45000000 		.word	.LC24
 382 0098 E2040000 		.word	1250
 383 009c 53000000 		.word	.LC26
 384 00a0 00000000 		.word	.LANCHOR3
 385              		.cfi_endproc
 386              	.LFE77:
 387              		.size	startDisplay, .-startDisplay
 388              		.section	.text.drawTitle,"ax",%progbits
 389              		.align	1
 390              		.global	drawTitle
 391              		.code	16
 392              		.thumb_func
 393              		.type	drawTitle, %function
 394              	drawTitle:
 395              	.LFB78:
 396              		.loc 1 80 0
 397              		.cfi_startproc
 398              	.LVL24:
 399 0000 13B5     		push	{r0, r1, r4, lr}
ARM GAS  /tmp/ccUwvvew.s 			page 8


 400              	.LCFI4:
 401              		.cfi_def_cfa_offset 16
 402              		.cfi_offset 0, -16
 403              		.cfi_offset 1, -12
 404              		.cfi_offset 4, -8
 405              		.cfi_offset 14, -4
 406              		.loc 1 80 0
 407 0002 041C     		mov	r4, r0
 408              		.loc 1 81 0
 409 0004 FFF7FEFF 		bl	strlen
 410              	.LVL25:
 411 0008 074B     		ldr	r3, .L28
 412              	.LVL26:
 413              		.loc 1 83 0
 414              		@ sp needed for prologue
 415              		.loc 1 81 0
 416 000a 1A78     		ldrb	r2, [r3]
 417 000c 5043     		mul	r0, r2
 418              	.LVL27:
 419              		.loc 1 82 0
 420 000e C0B2     		uxtb	r0, r0
 421 0010 4108     		lsr	r1, r0, #1
 422 0012 4022     		mov	r2, #64
 423 0014 501A     		sub	r0, r2, r1
 424 0016 5968     		ldr	r1, [r3, #4]
 425 0018 C0B2     		uxtb	r0, r0
 426 001a 0091     		str	r1, [sp]
 427 001c 1B68     		ldr	r3, [r3]
 428 001e 0021     		mov	r1, #0
 429 0020 221C     		mov	r2, r4
 430 0022 FFF7FEFF 		bl	ssd1306DrawString
 431              	.LVL28:
 432              	.LVL29:
 433              		.loc 1 83 0
 434 0026 13BD     		pop	{r0, r1, r4, pc}
 435              	.L29:
 436              		.align	2
 437              	.L28:
 438 0028 00000000 		.word	Font_System7x8
 439              		.cfi_endproc
 440              	.LFE78:
 441              		.size	drawTitle, .-drawTitle
 442              		.global	__aeabi_uidiv
 443              		.section	.text.setGears,"ax",%progbits
 444              		.align	1
 445              		.global	setGears
 446              		.code	16
 447              		.thumb_func
 448              		.type	setGears, %function
 449              	setGears:
 450              	.LFB83:
 451              		.loc 1 232 0
 452              		.cfi_startproc
 453              	.LVL30:
 454 0000 F0B5     		push	{r4, r5, r6, r7, lr}
 455              	.LCFI5:
 456              		.cfi_def_cfa_offset 20
ARM GAS  /tmp/ccUwvvew.s 			page 9


 457              		.cfi_offset 4, -20
 458              		.cfi_offset 5, -16
 459              		.cfi_offset 6, -12
 460              		.cfi_offset 7, -8
 461              		.cfi_offset 14, -4
 462 0002 0024     		mov	r4, #0
 463 0004 87B0     		sub	sp, sp, #28
 464              	.LCFI6:
 465              		.cfi_def_cfa_offset 48
 466              		.loc 1 237 0
 467 0006 0294     		str	r4, [sp, #8]
 468              	.LVL31:
 469              	.L34:
 470              		.loc 1 241 0
 471 0008 FFF7FEFF 		bl	ssd1306ClearScreen
 472              	.LVL32:
 473              		.loc 1 242 0
 474 000c 2148     		ldr	r0, .L38
 475 000e FFF7FEFF 		bl	drawTitle
 476              	.LVL33:
 477              		.loc 1 243 0
 478 0012 201C     		mov	r0, r4
 479 0014 05A9     		add	r1, sp, #20
 480 0016 FFF7FEFF 		bl	itoa
 481              	.LVL34:
 482              		.loc 1 244 0
 483 001a 1F4D     		ldr	r5, .L38+4
 484 001c 0F20     		mov	r0, #15
 485 001e 6E68     		ldr	r6, [r5, #4]
 486 0020 2B68     		ldr	r3, [r5]
 487 0022 0096     		str	r6, [sp]
 488 0024 3221     		mov	r1, #50
 489 0026 1D4A     		ldr	r2, .L38+8
 490 0028 FFF7FEFF 		bl	ssd1306DrawString
 491              	.LVL35:
 492              		.loc 1 245 0
 493 002c 0096     		str	r6, [sp]
 494 002e 2B68     		ldr	r3, [r5]
 495 0030 1920     		mov	r0, #25
 496 0032 3C21     		mov	r1, #60
 497 0034 05AA     		add	r2, sp, #20
 498 0036 FFF7FEFF 		bl	ssd1306DrawString
 499              	.LVL36:
 500 003a 2826     		mov	r6, #40
 501              	.LVL37:
 502              	.L33:
 503              		.loc 1 249 0
 504 003c 184B     		ldr	r3, .L38+12
 505 003e 6427     		mov	r7, #100
 506 0040 5888     		ldrh	r0, [r3, #2]
 507              		.loc 1 250 0
 508 0042 1988     		ldrh	r1, [r3]
 509              		.loc 1 249 0
 510 0044 7843     		mul	r0, r7
 511              		.loc 1 250 0
 512 0046 80B2     		uxth	r0, r0
 513 0048 FFF7FEFF 		bl	__aeabi_uidiv
ARM GAS  /tmp/ccUwvvew.s 			page 10


 514              	.LVL38:
 515 004c 85B2     		uxth	r5, r0
 516              	.LVL39:
 517              		.loc 1 253 0
 518 004e 391C     		mov	r1, r7
 519 0050 281C     		mov	r0, r5
 520 0052 FFF7FEFF 		bl	__aeabi_uidiv
 521              	.LVL40:
 522 0056 87B2     		uxth	r7, r0
 523 0058 EA19     		add	r2, r5, r7
 524 005a 0392     		str	r2, [sp, #12]
 525              	.L31:
 526              		.loc 1 253 0 is_stmt 0 discriminator 1
 527 005c 0299     		ldr	r1, [sp, #8]
 528 005e 039B     		ldr	r3, [sp, #12]
 529              		.loc 1 255 0 is_stmt 1 discriminator 1
 530 0060 FA20     		mov	r0, #250
 531              		.loc 1 253 0 discriminator 1
 532 0062 9942     		cmp	r1, r3
 533 0064 02DB     		blt	.L37
 534              	.L32:
 535              		.loc 1 255 0
 536 0066 FFF7FEFF 		bl	chThdSleep
 537              	.LVL41:
 538 006a F7E7     		b	.L31
 539              	.L37:
 540 006c 013E     		sub	r6, r6, #1
 541              		.loc 1 258 0
 542 006e 4000     		lsl	r0, r0, #1
 543 0070 F6B2     		uxtb	r6, r6
 544 0072 FFF7FEFF 		bl	chThdSleep
 545              	.LVL42:
 546              		.loc 1 247 0
 547 0076 002E     		cmp	r6, #0
 548 0078 E0D1     		bne	.L33
 549              		.loc 1 231 0
 550 007a 0A48     		ldr	r0, .L38+16
 551 007c 6200     		lsl	r2, r4, #1
 552 007e 1118     		add	r1, r2, r0
 553              		.loc 1 261 0
 554 0080 EF1B     		sub	r7, r5, r7
 555 0082 0134     		add	r4, r4, #1
 556 0084 8F81     		strh	r7, [r1, #12]
 557              	.LVL43:
 558              		.loc 1 250 0
 559 0086 0295     		str	r5, [sp, #8]
 560              		.loc 1 239 0
 561 0088 062C     		cmp	r4, #6
 562 008a BDD1     		bne	.L34
 563              		.loc 1 265 0
 564 008c FFF7FEFF 		bl	writeSettings
 565              	.LVL44:
 566              		.loc 1 266 0
 567 0090 07B0     		add	sp, sp, #28
 568              		@ sp needed for prologue
 569              	.LVL45:
 570 0092 F0BD     		pop	{r4, r5, r6, r7, pc}
ARM GAS  /tmp/ccUwvvew.s 			page 11


 571              	.L39:
 572              		.align	2
 573              	.L38:
 574 0094 60000000 		.word	.LC32
 575 0098 00000000 		.word	Font_System7x8
 576 009c 6F000000 		.word	.LC34
 577 00a0 00000000 		.word	sensors
 578 00a4 00000000 		.word	settings
 579              		.cfi_endproc
 580              	.LFE83:
 581              		.size	setGears, .-setGears
 582              		.section	.text.setShifter,"ax",%progbits
 583              		.align	1
 584              		.global	setShifter
 585              		.code	16
 586              		.thumb_func
 587              		.type	setShifter, %function
 588              	setShifter:
 589              	.LFB82:
 590              		.loc 1 189 0
 591              		.cfi_startproc
 592 0000 F0B5     		push	{r4, r5, r6, r7, lr}
 593              	.LCFI7:
 594              		.cfi_def_cfa_offset 20
 595              		.cfi_offset 4, -20
 596              		.cfi_offset 5, -16
 597              		.cfi_offset 6, -12
 598              		.cfi_offset 7, -8
 599              		.cfi_offset 14, -4
 600              		.loc 1 190 0
 601 0002 2948     		ldr	r0, .L50
 602              		.loc 1 189 0
 603 0004 85B0     		sub	sp, sp, #20
 604              	.LCFI8:
 605              		.cfi_def_cfa_offset 40
 606              		.loc 1 190 0
 607 0006 FFF7FEFF 		bl	drawTitle
 608              	.LVL46:
 609              		.loc 1 195 0
 610 000a 284F     		ldr	r7, .L50+4
 611 000c 0020     		mov	r0, #0
 612 000e 7C68     		ldr	r4, [r7, #4]
 613 0010 3B68     		ldr	r3, [r7]
 614 0012 0094     		str	r4, [sp]
 615 0014 1921     		mov	r1, #25
 616 0016 264A     		ldr	r2, .L50+8
 617 0018 FFF7FEFF 		bl	ssd1306DrawString
 618              	.LVL47:
 619              		.loc 1 196 0
 620 001c 0A20     		mov	r0, #10
 621 001e 011C     		mov	r1, r0
 622 0020 0094     		str	r4, [sp]
 623 0022 3B68     		ldr	r3, [r7]
 624 0024 234A     		ldr	r2, .L50+12
 625 0026 FFF7FEFF 		bl	ssd1306DrawString
 626              	.LVL48:
 627              		.loc 1 198 0
ARM GAS  /tmp/ccUwvvew.s 			page 12


 628 002a 2348     		ldr	r0, .L50+16
 629 002c FFF7FEFF 		bl	chThdSleep
 630              	.LVL49:
 631 0030 2824     		mov	r4, #40
 632              		.loc 1 200 0
 633 0032 0025     		mov	r5, #0
 634              	.LVL50:
 635              	.L42:
 636              		.loc 1 203 0
 637 0034 214B     		ldr	r3, .L50+20
 638 0036 281C     		add	r0, r5, #0
 639 0038 9A88     		ldrh	r2, [r3, #4]
 640 003a 9542     		cmp	r5, r2
 641 003c 00D2     		bcs	.L41
 642 003e 101C     		add	r0, r2, #0
 643              	.L41:
 644              		.loc 1 206 0
 645 0040 FA21     		mov	r1, #250
 646 0042 013C     		sub	r4, r4, #1
 647 0044 85B2     		uxth	r5, r0
 648              	.LVL51:
 649 0046 E4B2     		uxtb	r4, r4
 650 0048 4800     		lsl	r0, r1, #1
 651              	.LVL52:
 652 004a FFF7FEFF 		bl	chThdSleep
 653              	.LVL53:
 654              		.loc 1 201 0
 655 004e 002C     		cmp	r4, #0
 656 0050 F0D1     		bne	.L42
 657              		.loc 1 209 0
 658 0052 FFF7FEFF 		bl	ssd1306ClearScreen
 659              	.LVL54:
 660              		.loc 1 212 0
 661 0056 2BB2     		sxth	r3, r5
 662 0058 194E     		ldr	r6, .L50+24
 663 005a 002B     		cmp	r3, #0
 664 005c 09DA     		bge	.L43
 665              		.loc 1 214 0
 666 005e 7868     		ldr	r0, [r7, #4]
 667 0060 3B68     		ldr	r3, [r7]
 668 0062 0090     		str	r0, [sp]
 669 0064 0A21     		mov	r1, #10
 670 0066 201C     		mov	r0, r4
 671 0068 164A     		ldr	r2, .L50+28
 672 006a FFF7FEFF 		bl	ssd1306DrawString
 673              	.LVL55:
 674              		.loc 1 215 0
 675 006e F471     		strb	r4, [r6, #7]
 676 0070 09E0     		b	.L44
 677              	.L43:
 678              		.loc 1 219 0
 679 0072 7A68     		ldr	r2, [r7, #4]
 680 0074 3B68     		ldr	r3, [r7]
 681 0076 0092     		str	r2, [sp]
 682 0078 201C     		mov	r0, r4
 683 007a 0521     		mov	r1, #5
 684 007c 124A     		ldr	r2, .L50+32
ARM GAS  /tmp/ccUwvvew.s 			page 13


 685              		.loc 1 220 0
 686 007e 0127     		mov	r7, #1
 687              		.loc 1 219 0
 688 0080 FFF7FEFF 		bl	ssd1306DrawString
 689              	.LVL56:
 690              		.loc 1 220 0
 691 0084 F771     		strb	r7, [r6, #7]
 692              	.L44:
 693              		.loc 1 224 0
 694 0086 301C     		mov	r0, r6
 695              		.loc 1 223 0
 696 0088 7580     		strh	r5, [r6, #2]
 697              		.loc 1 224 0
 698 008a FFF7FEFF 		bl	writeSettings
 699              	.LVL57:
 700              		.loc 1 226 0
 701 008e 0A48     		ldr	r0, .L50+16
 702              	.LVL58:
 703              	.L48:
 704              		.loc 1 228 0 discriminator 2
 705 0090 0E4D     		ldr	r5, .L50+36
 706 0092 FFF7FEFF 		bl	chThdSleep
 707              	.LVL59:
 708 0096 2969     		ldr	r1, [r5, #16]
 709 0098 8A04     		lsl	r2, r1, #18
 710 009a 02D5     		bpl	.L49
 711              	.L46:
 712 009c FA24     		mov	r4, #250
 713 009e 6000     		lsl	r0, r4, #1
 714 00a0 F6E7     		b	.L48
 715              	.L49:
 716              		.loc 1 229 0
 717 00a2 05B0     		add	sp, sp, #20
 718              		@ sp needed for prologue
 719 00a4 F0BD     		pop	{r4, r5, r6, r7, pc}
 720              	.L51:
 721 00a6 C046     		.align	2
 722              	.L50:
 723 00a8 74000000 		.word	.LC39
 724 00ac 00000000 		.word	Font_System5x8
 725 00b0 89000000 		.word	.LC41
 726 00b4 96000000 		.word	.LC44
 727 00b8 10270000 		.word	10000
 728 00bc 00000000 		.word	sensors
 729 00c0 00000000 		.word	settings
 730 00c4 AA000000 		.word	.LC47
 731 00c8 BB000000 		.word	.LC50
 732 00cc 00080048 		.word	1207961600
 733              		.cfi_endproc
 734              	.LFE82:
 735              		.size	setShifter, .-setShifter
 736              		.section	.text.setCutMode,"ax",%progbits
 737              		.align	1
 738              		.global	setCutMode
 739              		.code	16
 740              		.thumb_func
 741              		.type	setCutMode, %function
ARM GAS  /tmp/ccUwvvew.s 			page 14


 742              	setCutMode:
 743              	.LFB81:
 744              		.loc 1 170 0
 745              		.cfi_startproc
 746 0000 73B5     		push	{r0, r1, r4, r5, r6, lr}
 747              	.LCFI9:
 748              		.cfi_def_cfa_offset 24
 749              		.cfi_offset 0, -24
 750              		.cfi_offset 1, -20
 751              		.cfi_offset 4, -16
 752              		.cfi_offset 5, -12
 753              		.cfi_offset 6, -8
 754              		.cfi_offset 14, -4
 755              		.loc 1 171 0
 756 0002 1448     		ldr	r0, .L56
 757 0004 FFF7FEFF 		bl	drawTitle
 758              	.LVL60:
 759              		.loc 1 173 0
 760 0008 134C     		ldr	r4, .L56+4
 761 000a 0A20     		mov	r0, #10
 762 000c 6668     		ldr	r6, [r4, #4]
 763 000e 2368     		ldr	r3, [r4]
 764 0010 0096     		str	r6, [sp]
 765 0012 0021     		mov	r1, #0
 766 0014 114A     		ldr	r2, .L56+8
 767 0016 FFF7FEFF 		bl	ssd1306DrawString
 768              	.LVL61:
 769              		.loc 1 174 0
 770 001a 114D     		ldr	r5, .L56+12
 771 001c 2B78     		ldrb	r3, [r5]
 772              		.loc 1 176 0
 773 001e 0096     		str	r6, [sp]
 774              		.loc 1 174 0
 775 0020 012B     		cmp	r3, #1
 776 0022 07D1     		bne	.L53
 777              		.loc 1 176 0
 778 0024 1920     		mov	r0, #25
 779 0026 2368     		ldr	r3, [r4]
 780 0028 0021     		mov	r1, #0
 781 002a 0E4A     		ldr	r2, .L56+16
 782 002c FFF7FEFF 		bl	ssd1306DrawString
 783              	.LVL62:
 784              		.loc 1 177 0
 785 0030 0220     		mov	r0, #2
 786 0032 06E0     		b	.L55
 787              	.L53:
 788              		.loc 1 181 0
 789 0034 1920     		mov	r0, #25
 790 0036 2368     		ldr	r3, [r4]
 791 0038 0021     		mov	r1, #0
 792 003a 0B4A     		ldr	r2, .L56+20
 793 003c FFF7FEFF 		bl	ssd1306DrawString
 794              	.LVL63:
 795              		.loc 1 182 0
 796 0040 0120     		mov	r0, #1
 797              	.L55:
 798 0042 2870     		strb	r0, [r5]
ARM GAS  /tmp/ccUwvvew.s 			page 15


 799              		.loc 1 184 0
 800 0044 281C     		mov	r0, r5
 801 0046 FFF7FEFF 		bl	writeSettings
 802              	.LVL64:
 803              		.loc 1 185 0
 804 004a 0848     		ldr	r0, .L56+24
 805 004c FFF7FEFF 		bl	chThdSleep
 806              	.LVL65:
 807              		.loc 1 186 0
 808              		@ sp needed for prologue
 809 0050 73BD     		pop	{r0, r1, r4, r5, r6, pc}
 810              	.L57:
 811 0052 C046     		.align	2
 812              	.L56:
 813 0054 CD000000 		.word	.LC54
 814 0058 00000000 		.word	Font_System5x8
 815 005c 19000000 		.word	.LC12
 816 0060 00000000 		.word	settings
 817 0064 D6000000 		.word	.LC59
 818 0068 E2000000 		.word	.LC61
 819 006c 10270000 		.word	10000
 820              		.cfi_endproc
 821              	.LFE81:
 822              		.size	setCutMode, .-setCutMode
 823              		.section	.text.showInfo,"ax",%progbits
 824              		.align	1
 825              		.global	showInfo
 826              		.code	16
 827              		.thumb_func
 828              		.type	showInfo, %function
 829              	showInfo:
 830              	.LFB80:
 831              		.loc 1 118 0
 832              		.cfi_startproc
 833 0000 73B5     		push	{r0, r1, r4, r5, r6, lr}
 834              	.LCFI10:
 835              		.cfi_def_cfa_offset 24
 836              		.cfi_offset 0, -24
 837              		.cfi_offset 1, -20
 838              		.cfi_offset 4, -16
 839              		.cfi_offset 5, -12
 840              		.cfi_offset 6, -8
 841              		.cfi_offset 14, -4
 842              		.loc 1 119 0
 843 0002 3C48     		ldr	r0, .L76
 844 0004 FFF7FEFF 		bl	drawTitle
 845              	.LVL66:
 846              		.loc 1 120 0
 847 0008 3B4C     		ldr	r4, .L76+4
 848 000a 0020     		mov	r0, #0
 849 000c 6568     		ldr	r5, [r4, #4]
 850 000e 2368     		ldr	r3, [r4]
 851 0010 0A21     		mov	r1, #10
 852 0012 3A4A     		ldr	r2, .L76+8
 853 0014 0095     		str	r5, [sp]
 854 0016 FFF7FEFF 		bl	ssd1306DrawString
 855              	.LVL67:
ARM GAS  /tmp/ccUwvvew.s 			page 16


 856              		.loc 1 122 0
 857 001a 2368     		ldr	r3, [r4]
 858 001c 0095     		str	r5, [sp]
 859 001e 0020     		mov	r0, #0
 860 0020 1421     		mov	r1, #20
 861 0022 374A     		ldr	r2, .L76+12
 862 0024 FFF7FEFF 		bl	ssd1306DrawString
 863              	.LVL68:
 864              		.loc 1 123 0
 865 0028 364E     		ldr	r6, .L76+16
 866 002a 3378     		ldrb	r3, [r6]
 867              		.loc 1 125 0
 868 002c 0095     		str	r5, [sp]
 869              		.loc 1 123 0
 870 002e 022B     		cmp	r3, #2
 871 0030 04D1     		bne	.L59
 872              		.loc 1 125 0
 873 0032 2368     		ldr	r3, [r4]
 874 0034 1920     		mov	r0, #25
 875 0036 1421     		mov	r1, #20
 876 0038 334A     		ldr	r2, .L76+20
 877 003a 0AE0     		b	.L71
 878              	.L59:
 879              		.loc 1 127 0
 880 003c 012B     		cmp	r3, #1
 881 003e 04D1     		bne	.L61
 882              		.loc 1 129 0
 883 0040 2368     		ldr	r3, [r4]
 884 0042 1920     		mov	r0, #25
 885 0044 1421     		mov	r1, #20
 886 0046 314A     		ldr	r2, .L76+24
 887 0048 03E0     		b	.L71
 888              	.L61:
 889              		.loc 1 133 0
 890 004a 2368     		ldr	r3, [r4]
 891 004c 304A     		ldr	r2, .L76+28
 892 004e 1920     		mov	r0, #25
 893 0050 1421     		mov	r1, #20
 894              	.L71:
 895 0052 FFF7FEFF 		bl	ssd1306DrawString
 896              	.LVL69:
 897              		.loc 1 136 0
 898 0056 6568     		ldr	r5, [r4, #4]
 899 0058 0020     		mov	r0, #0
 900 005a 0095     		str	r5, [sp]
 901 005c 2368     		ldr	r3, [r4]
 902 005e 1E21     		mov	r1, #30
 903 0060 2C4A     		ldr	r2, .L76+32
 904 0062 FFF7FEFF 		bl	ssd1306DrawString
 905              	.LVL70:
 906              		.loc 1 137 0
 907 0066 3078     		ldrb	r0, [r6]
 908              		.loc 1 139 0
 909 0068 0095     		str	r5, [sp]
 910              		.loc 1 137 0
 911 006a 8207     		lsl	r2, r0, #30
 912 006c 04D5     		bpl	.L62
ARM GAS  /tmp/ccUwvvew.s 			page 17


 913              		.loc 1 139 0
 914 006e 2368     		ldr	r3, [r4]
 915 0070 2320     		mov	r0, #35
 916 0072 1E21     		mov	r1, #30
 917 0074 264A     		ldr	r2, .L76+28
 918 0076 03E0     		b	.L72
 919              	.L62:
 920              		.loc 1 143 0
 921 0078 2368     		ldr	r3, [r4]
 922 007a 274A     		ldr	r2, .L76+36
 923 007c 2320     		mov	r0, #35
 924 007e 1E21     		mov	r1, #30
 925              	.L72:
 926 0080 FFF7FEFF 		bl	ssd1306DrawString
 927              	.LVL71:
 928              		.loc 1 146 0
 929 0084 6568     		ldr	r5, [r4, #4]
 930 0086 2821     		mov	r1, #40
 931 0088 0095     		str	r5, [sp]
 932 008a 2368     		ldr	r3, [r4]
 933 008c 0020     		mov	r0, #0
 934 008e 234A     		ldr	r2, .L76+40
 935 0090 FFF7FEFF 		bl	ssd1306DrawString
 936              	.LVL72:
 937              		.loc 1 147 0
 938 0094 3178     		ldrb	r1, [r6]
 939              		.loc 1 149 0
 940 0096 0095     		str	r5, [sp]
 941              		.loc 1 147 0
 942 0098 CA07     		lsl	r2, r1, #31
 943 009a 04D5     		bpl	.L64
 944              		.loc 1 149 0
 945 009c 2368     		ldr	r3, [r4]
 946 009e 1420     		mov	r0, #20
 947 00a0 2821     		mov	r1, #40
 948 00a2 1B4A     		ldr	r2, .L76+28
 949 00a4 03E0     		b	.L73
 950              	.L64:
 951              		.loc 1 153 0
 952 00a6 2368     		ldr	r3, [r4]
 953 00a8 1B4A     		ldr	r2, .L76+36
 954 00aa 1420     		mov	r0, #20
 955 00ac 2821     		mov	r1, #40
 956              	.L73:
 957 00ae FFF7FEFF 		bl	ssd1306DrawString
 958              	.LVL73:
 959              		.loc 1 156 0
 960 00b2 6568     		ldr	r5, [r4, #4]
 961 00b4 1A4A     		ldr	r2, .L76+44
 962 00b6 0095     		str	r5, [sp]
 963 00b8 2368     		ldr	r3, [r4]
 964 00ba 0020     		mov	r0, #0
 965 00bc 3221     		mov	r1, #50
 966 00be FFF7FEFF 		bl	ssd1306DrawString
 967              	.LVL74:
 968              		.loc 1 157 0
 969 00c2 3278     		ldrb	r2, [r6]
ARM GAS  /tmp/ccUwvvew.s 			page 18


 970              		.loc 1 159 0
 971 00c4 0095     		str	r5, [sp]
 972              		.loc 1 157 0
 973 00c6 5207     		lsl	r2, r2, #29
 974 00c8 04D5     		bpl	.L66
 975              		.loc 1 159 0
 976 00ca 3220     		mov	r0, #50
 977 00cc 2368     		ldr	r3, [r4]
 978 00ce 011C     		mov	r1, r0
 979 00d0 0F4A     		ldr	r2, .L76+28
 980 00d2 03E0     		b	.L74
 981              	.L66:
 982              		.loc 1 163 0
 983 00d4 3220     		mov	r0, #50
 984 00d6 2368     		ldr	r3, [r4]
 985 00d8 0F4A     		ldr	r2, .L76+36
 986 00da 011C     		mov	r1, r0
 987              	.L74:
 988 00dc FFF7FEFF 		bl	ssd1306DrawString
 989              	.LVL75:
 990              	.L70:
 991              		.loc 1 166 0 discriminator 1
 992 00e0 104C     		ldr	r4, .L76+48
 993 00e2 2669     		ldr	r6, [r4, #16]
 994 00e4 B204     		lsl	r2, r6, #18
 995 00e6 04D5     		bpl	.L75
 996              	.L69:
 997              		.loc 1 166 0 is_stmt 0 discriminator 2
 998 00e8 FA23     		mov	r3, #250
 999 00ea 5800     		lsl	r0, r3, #1
 1000 00ec FFF7FEFF 		bl	chThdSleep
 1001              	.LVL76:
 1002 00f0 F6E7     		b	.L70
 1003              	.L75:
 1004              		.loc 1 167 0 is_stmt 1
 1005              		@ sp needed for prologue
 1006 00f2 73BD     		pop	{r0, r1, r4, r5, r6, pc}
 1007              	.L77:
 1008              		.align	2
 1009              	.L76:
 1010 00f4 E9000000 		.word	.LC63
 1011 00f8 00000000 		.word	Font_System5x8
 1012 00fc 00000000 		.word	.LANCHOR4
 1013 0100 F1000000 		.word	.LC67
 1014 0104 00000000 		.word	settings
 1015 0108 D6000000 		.word	.LC59
 1016 010c E2000000 		.word	.LC61
 1017 0110 00000000 		.word	.LANCHOR0
 1018 0114 FB000000 		.word	.LC73
 1019 0118 00000000 		.word	.LANCHOR1
 1020 011c 04010000 		.word	.LC76
 1021 0120 08010000 		.word	.LC78
 1022 0124 00080048 		.word	1207961600
 1023              		.cfi_endproc
 1024              	.LFE80:
 1025              		.size	showInfo, .-showInfo
 1026              		.section	.text.showDiag,"ax",%progbits
ARM GAS  /tmp/ccUwvvew.s 			page 19


 1027              		.align	1
 1028              		.global	showDiag
 1029              		.code	16
 1030              		.thumb_func
 1031              		.type	showDiag, %function
 1032              	showDiag:
 1033              	.LFB79:
 1034              		.loc 1 86 0
 1035              		.cfi_startproc
 1036 0000 F0B5     		push	{r4, r5, r6, r7, lr}
 1037              	.LCFI11:
 1038              		.cfi_def_cfa_offset 20
 1039              		.cfi_offset 4, -20
 1040              		.cfi_offset 5, -16
 1041              		.cfi_offset 6, -12
 1042              		.cfi_offset 7, -8
 1043              		.cfi_offset 14, -4
 1044 0002 87B0     		sub	sp, sp, #28
 1045              	.LCFI12:
 1046              		.cfi_def_cfa_offset 48
 1047              		.loc 1 87 0
 1048 0004 0023     		mov	r3, #0
 1049 0006 03AC     		add	r4, sp, #12
 1050 0008 0393     		str	r3, [sp, #12]
 1051 000a 6360     		str	r3, [r4, #4]
 1052 000c 2381     		strh	r3, [r4, #8]
 1053              	.L79:
 1054              		.loc 1 89 0 discriminator 1
 1055 000e 3548     		ldr	r0, .L82
 1056 0010 0169     		ldr	r1, [r0, #16]
 1057 0012 8A04     		lsl	r2, r1, #18
 1058 0014 64D5     		bpl	.L81
 1059              	.L80:
 1060              		.loc 1 91 0
 1061 0016 3448     		ldr	r0, .L82+4
 1062 0018 FFF7FEFF 		bl	drawTitle
 1063              	.LVL77:
 1064              		.loc 1 93 0
 1065 001c 334D     		ldr	r5, .L82+8
 1066 001e 344A     		ldr	r2, .L82+12
 1067 0020 6E68     		ldr	r6, [r5, #4]
 1068 0022 2B68     		ldr	r3, [r5]
 1069 0024 0096     		str	r6, [sp]
 1070 0026 0020     		mov	r0, #0
 1071 0028 0A21     		mov	r1, #10
 1072 002a FFF7FEFF 		bl	ssd1306DrawString
 1073              	.LVL78:
 1074              		.loc 1 94 0
 1075 002e 314F     		ldr	r7, .L82+16
 1076 0030 211C     		mov	r1, r4
 1077 0032 3888     		ldrh	r0, [r7]
 1078 0034 FFF7FEFF 		bl	itoa
 1079              	.LVL79:
 1080              		.loc 1 95 0
 1081 0038 2B68     		ldr	r3, [r5]
 1082 003a 221C     		mov	r2, r4
 1083 003c 0096     		str	r6, [sp]
ARM GAS  /tmp/ccUwvvew.s 			page 20


 1084 003e 1920     		mov	r0, #25
 1085 0040 0A21     		mov	r1, #10
 1086 0042 FFF7FEFF 		bl	ssd1306DrawString
 1087              	.LVL80:
 1088              		.loc 1 97 0
 1089 0046 2B68     		ldr	r3, [r5]
 1090 0048 2B4A     		ldr	r2, .L82+20
 1091 004a 0096     		str	r6, [sp]
 1092 004c 0020     		mov	r0, #0
 1093 004e 1421     		mov	r1, #20
 1094 0050 FFF7FEFF 		bl	ssd1306DrawString
 1095              	.LVL81:
 1096              		.loc 1 98 0
 1097 0054 7888     		ldrh	r0, [r7, #2]
 1098 0056 211C     		mov	r1, r4
 1099 0058 FFF7FEFF 		bl	itoa
 1100              	.LVL82:
 1101              		.loc 1 99 0
 1102 005c 2B68     		ldr	r3, [r5]
 1103 005e 221C     		mov	r2, r4
 1104 0060 0096     		str	r6, [sp]
 1105 0062 2320     		mov	r0, #35
 1106 0064 1421     		mov	r1, #20
 1107 0066 FFF7FEFF 		bl	ssd1306DrawString
 1108              	.LVL83:
 1109              		.loc 1 101 0
 1110 006a 2B68     		ldr	r3, [r5]
 1111 006c 234A     		ldr	r2, .L82+24
 1112 006e 0096     		str	r6, [sp]
 1113 0070 0020     		mov	r0, #0
 1114 0072 1E21     		mov	r1, #30
 1115 0074 FFF7FEFF 		bl	ssd1306DrawString
 1116              	.LVL84:
 1117              		.loc 1 102 0
 1118 0078 B888     		ldrh	r0, [r7, #4]
 1119 007a 211C     		mov	r1, r4
 1120 007c FFF7FEFF 		bl	itoa
 1121              	.LVL85:
 1122              		.loc 1 103 0
 1123 0080 2B68     		ldr	r3, [r5]
 1124 0082 221C     		mov	r2, r4
 1125 0084 0096     		str	r6, [sp]
 1126 0086 2D20     		mov	r0, #45
 1127 0088 1E21     		mov	r1, #30
 1128 008a FFF7FEFF 		bl	ssd1306DrawString
 1129              	.LVL86:
 1130              		.loc 1 105 0
 1131 008e 2B68     		ldr	r3, [r5]
 1132 0090 1B4A     		ldr	r2, .L82+28
 1133 0092 0096     		str	r6, [sp]
 1134 0094 0020     		mov	r0, #0
 1135 0096 2821     		mov	r1, #40
 1136 0098 FFF7FEFF 		bl	ssd1306DrawString
 1137              	.LVL87:
 1138              		.loc 1 106 0
 1139 009c F888     		ldrh	r0, [r7, #6]
 1140 009e 211C     		mov	r1, r4
ARM GAS  /tmp/ccUwvvew.s 			page 21


 1141 00a0 FFF7FEFF 		bl	itoa
 1142              	.LVL88:
 1143              		.loc 1 107 0
 1144 00a4 2B68     		ldr	r3, [r5]
 1145 00a6 221C     		mov	r2, r4
 1146 00a8 0096     		str	r6, [sp]
 1147 00aa 3720     		mov	r0, #55
 1148 00ac 2821     		mov	r1, #40
 1149 00ae FFF7FEFF 		bl	ssd1306DrawString
 1150              	.LVL89:
 1151              		.loc 1 109 0
 1152 00b2 2B68     		ldr	r3, [r5]
 1153 00b4 134A     		ldr	r2, .L82+32
 1154 00b6 0096     		str	r6, [sp]
 1155 00b8 0020     		mov	r0, #0
 1156 00ba 3221     		mov	r1, #50
 1157 00bc FFF7FEFF 		bl	ssd1306DrawString
 1158              	.LVL90:
 1159              		.loc 1 110 0
 1160 00c0 F888     		ldrh	r0, [r7, #6]
 1161 00c2 211C     		mov	r1, r4
 1162 00c4 FFF7FEFF 		bl	itoa
 1163              	.LVL91:
 1164              		.loc 1 111 0
 1165 00c8 221C     		mov	r2, r4
 1166 00ca 0096     		str	r6, [sp]
 1167 00cc 2B68     		ldr	r3, [r5]
 1168 00ce 1E20     		mov	r0, #30
 1169 00d0 3221     		mov	r1, #50
 1170 00d2 FFF7FEFF 		bl	ssd1306DrawString
 1171              	.LVL92:
 1172              		.loc 1 113 0
 1173 00d6 FA22     		mov	r2, #250
 1174 00d8 5000     		lsl	r0, r2, #1
 1175 00da FFF7FEFF 		bl	chThdSleep
 1176              	.LVL93:
 1177 00de 96E7     		b	.L79
 1178              	.L81:
 1179              		.loc 1 115 0
 1180 00e0 07B0     		add	sp, sp, #28
 1181              		@ sp needed for prologue
 1182 00e2 F0BD     		pop	{r4, r5, r6, r7, pc}
 1183              	.L83:
 1184              		.align	2
 1185              	.L82:
 1186 00e4 00080048 		.word	1207961600
 1187 00e8 15010000 		.word	.LC80
 1188 00ec 00000000 		.word	Font_System5x8
 1189 00f0 21010000 		.word	.LC82
 1190 00f4 00000000 		.word	sensors
 1191 00f8 26010000 		.word	.LC86
 1192 00fc FB000000 		.word	.LC73
 1193 0100 2D010000 		.word	.LC89
 1194 0104 38010000 		.word	.LC91
 1195              		.cfi_endproc
 1196              	.LFE79:
 1197              		.size	showDiag, .-showDiag
ARM GAS  /tmp/ccUwvvew.s 			page 22


 1198              		.global	mainMenu
 1199              		.global	mainMenuItemList
 1200              		.global	settingsMenu
 1201              		.global	settingsMenuList
 1202              		.global	functionsMenu
 1203              		.global	functionsMenuList
 1204              		.global	disabled
 1205              		.global	enabled
 1206              		.global	version
 1207              		.global	display
 1208              		.section	.rodata.functionsMenuList,"a",%progbits
 1209              		.align	2
 1210              		.type	functionsMenuList, %object
 1211              		.size	functionsMenuList, 36
 1212              	functionsMenuList:
 1213 0000 B1010000 		.word	.LC102
 1214 0004 00000000 		.word	toggleLED
 1215 0008 00000000 		.word	0
 1216 000c BD010000 		.word	.LC103
 1217 0010 00000000 		.word	toggleTC
 1218 0014 00000000 		.word	0
 1219 0018 11000000 		.word	.LC6
 1220 001c 00000000 		.word	toggleShifter
 1221 0020 00000000 		.word	0
 1222              		.section	.rodata.settingsMenu,"a",%progbits
 1223              		.align	2
 1224              		.type	settingsMenu, %object
 1225              		.size	settingsMenu, 12
 1226              	settingsMenu:
 1227 0000 5E010000 		.word	.LC96
 1228 0004 0400     		.short	4
 1229 0006 0000     		.space	2
 1230 0008 00000000 		.word	settingsMenuList
 1231              		.section	.rodata.functionsMenu,"a",%progbits
 1232              		.align	2
 1233              		.type	functionsMenu, %object
 1234              		.size	functionsMenu, 12
 1235              	functionsMenu:
 1236 0000 A0010000 		.word	.LC101
 1237 0004 0300     		.short	3
 1238 0006 0000     		.space	2
 1239 0008 00000000 		.word	functionsMenuList
 1240              		.section	.rodata.mainMenuItemList,"a",%progbits
 1241              		.align	2
 1242              		.type	mainMenuItemList, %object
 1243              		.size	mainMenuItemList, 36
 1244              	mainMenuItemList:
 1245 0000 48010000 		.word	.LC94
 1246 0004 00000000 		.word	0
 1247 0008 00000000 		.word	settingsMenu
 1248 000c 15010000 		.word	.LC80
 1249 0010 00000000 		.word	showDiag
 1250 0014 00000000 		.word	0
 1251 0018 51010000 		.word	.LC95
 1252 001c 00000000 		.word	showInfo
 1253 0020 00000000 		.word	0
 1254              		.section	.rodata.settingsMenuList,"a",%progbits
ARM GAS  /tmp/ccUwvvew.s 			page 23


 1255              		.align	2
 1256              		.type	settingsMenuList, %object
 1257              		.size	settingsMenuList, 48
 1258              	settingsMenuList:
 1259 0000 6C010000 		.word	.LC97
 1260 0004 00000000 		.word	0
 1261 0008 00000000 		.word	functionsMenu
 1262 000c 76010000 		.word	.LC98
 1263 0010 00000000 		.word	setCutMode
 1264 0014 00000000 		.word	0
 1265 0018 7F010000 		.word	.LC99
 1266 001c 00000000 		.word	setShifter
 1267 0020 00000000 		.word	0
 1268 0024 94010000 		.word	.LC100
 1269 0028 00000000 		.word	setGears
 1270 002c 00000000 		.word	0
 1271              		.section	.rodata.str1.1,"aMS",%progbits,1
 1272              	.LC0:
 1273 0000 54726163 		.ascii	"Traction control\000"
 1273      74696F6E 
 1273      20636F6E 
 1273      74726F6C 
 1273      00
 1274              	.LC6:
 1275 0011 53686966 		.ascii	"Shifter\000"
 1275      74657200 
 1276              	.LC12:
 1277 0019 53686966 		.ascii	"Shift Light\000"
 1277      74204C69 
 1277      67687400 
 1278              	.LC19:
 1279 0025 4F70656E 		.ascii	"OpenTCS\000"
 1279      54435300 
 1280              	.LC22:
 1281 002d 73746172 		.ascii	"startDisplay Complete\015\012\000"
 1281      74446973 
 1281      706C6179 
 1281      20436F6D 
 1281      706C6574 
 1282              	.LC24:
 1283 0045 44697370 		.ascii	"Display OFF\015\012\000"
 1283      6C617920 
 1283      4F46460D 
 1283      0A00
 1284              	.LC26:
 1285 0053 44697370 		.ascii	"Display ON\015\012\000"
 1285      6C617920 
 1285      4F4E0D0A 
 1285      00
 1286              	.LC32:
 1287 0060 47656172 		.ascii	"Gears Learning\000"
 1287      73204C65 
 1287      61726E69 
 1287      6E6700
 1288              	.LC34:
 1289 006f 47656172 		.ascii	"Gear\000"
 1289      00
ARM GAS  /tmp/ccUwvvew.s 			page 24


 1290              	.LC39:
 1291 0074 53686966 		.ascii	"Shifter Sensor Setup\000"
 1291      74657220 
 1291      53656E73 
 1291      6F722053 
 1291      65747570 
 1292              	.LC41:
 1293 0089 53686966 		.ascii	"Shift a gear\000"
 1293      74206120 
 1293      67656172 
 1293      00
 1294              	.LC44:
 1295 0096 746F2064 		.ascii	"to detect direction\000"
 1295      65746563 
 1295      74206469 
 1295      72656374 
 1295      696F6E00 
 1296              	.LC47:
 1297 00aa 4E6F726D 		.ascii	"Normal direction\000"
 1297      616C2064 
 1297      69726563 
 1297      74696F6E 
 1297      00
 1298              	.LC50:
 1299 00bb 52657665 		.ascii	"Reverse direction\000"
 1299      72736520 
 1299      64697265 
 1299      6374696F 
 1299      6E00
 1300              	.LC54:
 1301 00cd 43757420 		.ascii	"Cut Mode\000"
 1301      4D6F6465 
 1301      00
 1302              	.LC59:
 1303 00d6 50726F67 		.ascii	"Progressive\000"
 1303      72657373 
 1303      69766500 
 1304              	.LC61:
 1305 00e2 4E6F726D 		.ascii	"Normal\000"
 1305      616C00
 1306              	.LC63:
 1307 00e9 56657273 		.ascii	"Version\000"
 1307      696F6E00 
 1308              	.LC67:
 1309 00f1 43757420 		.ascii	"Cut mode:\000"
 1309      6D6F6465 
 1309      3A00
 1310              	.LC73:
 1311 00fb 53686966 		.ascii	"Shifter:\000"
 1311      7465723A 
 1311      00
 1312              	.LC76:
 1313 0104 54433A00 		.ascii	"TC:\000"
 1314              	.LC78:
 1315 0108 53686966 		.ascii	"Shift Light:\000"
 1315      74204C69 
 1315      6768743A 
ARM GAS  /tmp/ccUwvvew.s 			page 25


 1315      00
 1316              	.LC80:
 1317 0115 44696167 		.ascii	"Diagnostics\000"
 1317      6E6F7374 
 1317      69637300 
 1318              	.LC82:
 1319 0121 52504D3A 		.ascii	"RPM:\000"
 1319      00
 1320              	.LC86:
 1321 0126 53706565 		.ascii	"Speed:\000"
 1321      643A00
 1322              	.LC89:
 1323 012d 54432053 		.ascii	"TC Switch:\000"
 1323      77697463 
 1323      683A00
 1324              	.LC91:
 1325 0138 56424154 		.ascii	"VBAT:\000"
 1325      3A00
 1326              	.LC93:
 1327 013e 4D61696E 		.ascii	"Main Menu\000"
 1327      204D656E 
 1327      7500
 1328              	.LC94:
 1329 0148 53657474 		.ascii	"Settings\000"
 1329      696E6773 
 1329      00
 1330              	.LC95:
 1331 0151 496E666F 		.ascii	"Informations\000"
 1331      726D6174 
 1331      696F6E73 
 1331      00
 1332              	.LC96:
 1333 015e 53657474 		.ascii	"Settings Menu\000"
 1333      696E6773 
 1333      204D656E 
 1333      7500
 1334              	.LC97:
 1335 016c 46756E63 		.ascii	"Functions\000"
 1335      74696F6E 
 1335      7300
 1336              	.LC98:
 1337 0176 43757420 		.ascii	"Cut mode\000"
 1337      6D6F6465 
 1337      00
 1338              	.LC99:
 1339 017f 53686966 		.ascii	"Shifter sensor setup\000"
 1339      74657220 
 1339      73656E73 
 1339      6F722073 
 1339      65747570 
 1340              	.LC100:
 1341 0194 47656172 		.ascii	"Gears learn\000"
 1341      73206C65 
 1341      61726E00 
 1342              	.LC101:
 1343 01a0 546F6767 		.ascii	"Toggle Functions\000"
 1343      6C652046 
ARM GAS  /tmp/ccUwvvew.s 			page 26


 1343      756E6374 
 1343      696F6E73 
 1343      00
 1344              	.LC102:
 1345 01b1 53686966 		.ascii	"Shift light\000"
 1345      74206C69 
 1345      67687400 
 1346              	.LC103:
 1347 01bd 54726163 		.ascii	"Traction Control\000"
 1347      74696F6E 
 1347      20436F6E 
 1347      74726F6C 
 1347      00
 1348              		.section	.bss.display,"aw",%nobits
 1349              		.set	.LANCHOR2,. + 0
 1350              		.type	display, %object
 1351              		.size	display, 1
 1352              	display:
 1353 0000 00       		.space	1
 1354              		.section	.rodata.enabled,"a",%progbits
 1355              		.set	.LANCHOR1,. + 0
 1356              		.type	enabled, %object
 1357              		.size	enabled, 8
 1358              	enabled:
 1359 0000 456E6162 		.ascii	"Enabled\000"
 1359      6C656400 
 1360              		.section	.rodata.disabled,"a",%progbits
 1361              		.set	.LANCHOR0,. + 0
 1362              		.type	disabled, %object
 1363              		.size	disabled, 9
 1364              	disabled:
 1365 0000 44697361 		.ascii	"Disabled\000"
 1365      626C6564 
 1365      00
 1366              		.section	.rodata.mainMenu,"a",%progbits
 1367              		.align	2
 1368              		.set	.LANCHOR3,. + 0
 1369              		.type	mainMenu, %object
 1370              		.size	mainMenu, 12
 1371              	mainMenu:
 1372 0000 3E010000 		.word	.LC93
 1373 0004 0300     		.short	3
 1374 0006 0000     		.space	2
 1375 0008 00000000 		.word	mainMenuItemList
 1376              		.section	.rodata.version,"a",%progbits
 1377              		.set	.LANCHOR4,. + 0
 1378              		.type	version, %object
 1379              		.size	version, 4
 1380              	version:
 1381 0000 302E3100 		.ascii	"0.1\000"
 1382              		.text
 1383              	.Letext0:
 1384              		.file 2 "/media/data/src/x-tools/gcc-arm-none-eabi-4_7-2013q1/bin/../lib/gcc/arm-none-eabi/4.7.3/i
 1385              		.file 3 "/media/data/src/x-tools/gcc-arm-none-eabi-4_7-2013q1/bin/../lib/gcc/arm-none-eabi/4.7.3/.
 1386              		.file 4 "./os/nil/include/nil.h"
 1387              		.file 5 "./os/nil/ports/ARMCMx/compilers/GCC/niltypes.h"
 1388              		.file 6 "./os/nil/ports/ARMCMx/nilcore.h"
ARM GAS  /tmp/ccUwvvew.s 			page 27


 1389              		.file 7 "./os/nil/ports/ARMCMx/nilcore_v6m.h"
 1390              		.file 8 "./os/hal/ports/STM32/GPIOv2/pal_lld.h"
 1391              		.file 9 "inc/threads.h"
 1392              		.file 10 "inc/smallfonts.h"
 1393              		.file 11 "inc/menu.h"
 1394              		.file 12 "inc/ssd1306.h"
 1395              		.file 13 "/media/data/src/x-tools/gcc-arm-none-eabi-4_7-2013q1/bin/../lib/gcc/arm-none-eabi/4.7.3/