ARM GAS  /tmp/ccUwvvew.s 			page 1


   1              		.cpu cortex-m0
   2              		.fpu softvfp
   3              		.eabi_attribute 20, 1
   4              		.eabi_attribute 21, 1
   5              		.eabi_attribute 23, 3
   6              		.eabi_attribute 24, 1
   7              		.eabi_attribute 25, 1
   8              		.eabi_attribute 26, 1
   9              		.eabi_attribute 30, 4
  10              		.eabi_attribute 34, 0
  11              		.eabi_attribute 18, 4
  12              		.code	16
  13              		.file	"display.c"
  14              		.text
  15              	.Ltext0:
  16              		.cfi_sections	.debug_frame
  17              		.section	.text.toggleTC,"ax",%progbits
  18              		.align	1
  19              		.global	toggleTC
  20              		.code	16
  21              		.thumb_func
  22              		.type	toggleTC, %function
  23              	toggleTC:
  24              	.LFB86:
  25              		.file 1 "src/display.c"
  26              		.loc 1 302 0
  27              		.cfi_startproc
  28 0000 73B5     		push	{r0, r1, r4, r5, r6, lr}
  29              	.LCFI0:
  30              		.cfi_def_cfa_offset 24
  31              		.cfi_offset 0, -24
  32              		.cfi_offset 1, -20
  33              		.cfi_offset 4, -16
  34              		.cfi_offset 5, -12
  35              		.cfi_offset 6, -8
  36              		.cfi_offset 14, -4
  37              		.loc 1 303 0
  38 0002 114C     		ldr	r4, .L6
  39 0004 0A20     		mov	r0, #10
  40 0006 6668     		ldr	r6, [r4, #4]
  41 0008 2368     		ldr	r3, [r4]
  42 000a 0021     		mov	r1, #0
  43 000c 0096     		str	r6, [sp]
  44 000e 0F4A     		ldr	r2, .L6+4
  45 0010 FFF7FEFF 		bl	ssd1306DrawString
  46              	.LVL0:
  47              		.loc 1 304 0
  48 0014 0E4D     		ldr	r5, .L6+8
  49 0016 0123     		mov	r3, #1
  50 0018 2978     		ldrb	r1, [r5]
  51              		.loc 1 306 0
  52 001a 1920     		mov	r0, #25
  53              		.loc 1 304 0
  54 001c 1940     		and	r1, r3
  55              		.loc 1 306 0
  56 001e 0096     		str	r6, [sp]
  57 0020 2368     		ldr	r3, [r4]
ARM GAS  /tmp/ccUwvvew.s 			page 2


  58              		.loc 1 304 0
  59 0022 02D0     		beq	.L2
  60              		.loc 1 306 0
  61 0024 0021     		mov	r1, #0
  62 0026 0B4A     		ldr	r2, .L6+12
  63 0028 00E0     		b	.L4
  64              	.L2:
  65              		.loc 1 310 0
  66 002a 0B4A     		ldr	r2, .L6+16
  67              	.L4:
  68 002c FFF7FEFF 		bl	ssd1306DrawString
  69              	.LVL1:
  70              		.loc 1 312 0
  71 0030 2878     		ldrb	r0, [r5]
  72 0032 0122     		mov	r2, #1
  73 0034 5040     		eor	r0, r2
  74 0036 2870     		strb	r0, [r5]
  75              		.loc 1 313 0
  76 0038 281C     		mov	r0, r5
  77 003a FFF7FEFF 		bl	writeSettings
  78              	.LVL2:
  79              		.loc 1 314 0
  80 003e 0748     		ldr	r0, .L6+20
  81 0040 FFF7FEFF 		bl	chThdSleep
  82              	.LVL3:
  83              		.loc 1 315 0
  84              		@ sp needed for prologue
  85 0044 73BD     		pop	{r0, r1, r4, r5, r6, pc}
  86              	.L7:
  87 0046 C046     		.align	2
  88              	.L6:
  89 0048 00000000 		.word	Font_System5x8
  90 004c 00000000 		.word	.LC0
  91 0050 00000000 		.word	settings
  92 0054 00000000 		.word	.LANCHOR0
  93 0058 00000000 		.word	.LANCHOR1
  94 005c 10270000 		.word	10000
  95              		.cfi_endproc
  96              	.LFE86:
  97              		.size	toggleTC, .-toggleTC
  98              		.section	.text.toggleShifter,"ax",%progbits
  99              		.align	1
 100              		.global	toggleShifter
 101              		.code	16
 102              		.thumb_func
 103              		.type	toggleShifter, %function
 104              	toggleShifter:
 105              	.LFB85:
 106              		.loc 1 286 0
 107              		.cfi_startproc
 108 0000 73B5     		push	{r0, r1, r4, r5, r6, lr}
 109              	.LCFI1:
 110              		.cfi_def_cfa_offset 24
 111              		.cfi_offset 0, -24
 112              		.cfi_offset 1, -20
 113              		.cfi_offset 4, -16
 114              		.cfi_offset 5, -12
ARM GAS  /tmp/ccUwvvew.s 			page 3


 115              		.cfi_offset 6, -8
 116              		.cfi_offset 14, -4
 117              		.loc 1 287 0
 118 0002 114C     		ldr	r4, .L12
 119 0004 0A20     		mov	r0, #10
 120 0006 6668     		ldr	r6, [r4, #4]
 121 0008 2368     		ldr	r3, [r4]
 122 000a 0021     		mov	r1, #0
 123 000c 0096     		str	r6, [sp]
 124 000e 0F4A     		ldr	r2, .L12+4
 125 0010 FFF7FEFF 		bl	ssd1306DrawString
 126              	.LVL4:
 127              		.loc 1 288 0
 128 0014 0E4D     		ldr	r5, .L12+8
 129 0016 0223     		mov	r3, #2
 130 0018 2978     		ldrb	r1, [r5]
 131              		.loc 1 290 0
 132 001a 1920     		mov	r0, #25
 133              		.loc 1 288 0
 134 001c 1940     		and	r1, r3
 135              		.loc 1 290 0
 136 001e 0096     		str	r6, [sp]
 137 0020 2368     		ldr	r3, [r4]
 138              		.loc 1 288 0
 139 0022 02D0     		beq	.L9
 140              		.loc 1 290 0
 141 0024 0021     		mov	r1, #0
 142 0026 0B4A     		ldr	r2, .L12+12
 143 0028 00E0     		b	.L11
 144              	.L9:
 145              		.loc 1 294 0
 146 002a 0B4A     		ldr	r2, .L12+16
 147              	.L11:
 148 002c FFF7FEFF 		bl	ssd1306DrawString
 149              	.LVL5:
 150              		.loc 1 296 0
 151 0030 2878     		ldrb	r0, [r5]
 152 0032 0222     		mov	r2, #2
 153 0034 5040     		eor	r0, r2
 154 0036 2870     		strb	r0, [r5]
 155              		.loc 1 297 0
 156 0038 281C     		mov	r0, r5
 157 003a FFF7FEFF 		bl	writeSettings
 158              	.LVL6:
 159              		.loc 1 298 0
 160 003e 0748     		ldr	r0, .L12+20
 161 0040 FFF7FEFF 		bl	chThdSleep
 162              	.LVL7:
 163              		.loc 1 299 0
 164              		@ sp needed for prologue
 165 0044 73BD     		pop	{r0, r1, r4, r5, r6, pc}
 166              	.L13:
 167 0046 C046     		.align	2
 168              	.L12:
 169 0048 00000000 		.word	Font_System5x8
 170 004c 11000000 		.word	.LC6
 171 0050 00000000 		.word	settings
ARM GAS  /tmp/ccUwvvew.s 			page 4


 172 0054 00000000 		.word	.LANCHOR0
 173 0058 00000000 		.word	.LANCHOR1
 174 005c 10270000 		.word	10000
 175              		.cfi_endproc
 176              	.LFE85:
 177              		.size	toggleShifter, .-toggleShifter
 178              		.section	.text.toggleLED,"ax",%progbits
 179              		.align	1
 180              		.global	toggleLED
 181              		.code	16
 182              		.thumb_func
 183              		.type	toggleLED, %function
 184              	toggleLED:
 185              	.LFB84:
 186              		.loc 1 270 0
 187              		.cfi_startproc
 188 0000 73B5     		push	{r0, r1, r4, r5, r6, lr}
 189              	.LCFI2:
 190              		.cfi_def_cfa_offset 24
 191              		.cfi_offset 0, -24
 192              		.cfi_offset 1, -20
 193              		.cfi_offset 4, -16
 194              		.cfi_offset 5, -12
 195              		.cfi_offset 6, -8
 196              		.cfi_offset 14, -4
 197              		.loc 1 271 0
 198 0002 114C     		ldr	r4, .L18
 199 0004 0A20     		mov	r0, #10
 200 0006 6668     		ldr	r6, [r4, #4]
 201 0008 2368     		ldr	r3, [r4]
 202 000a 0021     		mov	r1, #0
 203 000c 0096     		str	r6, [sp]
 204 000e 0F4A     		ldr	r2, .L18+4
 205 0010 FFF7FEFF 		bl	ssd1306DrawString
 206              	.LVL8:
 207              		.loc 1 272 0
 208 0014 0E4D     		ldr	r5, .L18+8
 209 0016 0423     		mov	r3, #4
 210 0018 2978     		ldrb	r1, [r5]
 211              		.loc 1 274 0
 212 001a 1920     		mov	r0, #25
 213              		.loc 1 272 0
 214 001c 1940     		and	r1, r3
 215              		.loc 1 274 0
 216 001e 0096     		str	r6, [sp]
 217 0020 2368     		ldr	r3, [r4]
 218              		.loc 1 272 0
 219 0022 02D0     		beq	.L15
 220              		.loc 1 274 0
 221 0024 0021     		mov	r1, #0
 222 0026 0B4A     		ldr	r2, .L18+12
 223 0028 00E0     		b	.L17
 224              	.L15:
 225              		.loc 1 278 0
 226 002a 0B4A     		ldr	r2, .L18+16
 227              	.L17:
 228 002c FFF7FEFF 		bl	ssd1306DrawString
ARM GAS  /tmp/ccUwvvew.s 			page 5


 229              	.LVL9:
 230              		.loc 1 280 0
 231 0030 2878     		ldrb	r0, [r5]
 232 0032 0422     		mov	r2, #4
 233 0034 5040     		eor	r0, r2
 234 0036 2870     		strb	r0, [r5]
 235              		.loc 1 281 0
 236 0038 281C     		mov	r0, r5
 237 003a FFF7FEFF 		bl	writeSettings
 238              	.LVL10:
 239              		.loc 1 282 0
 240 003e 0748     		ldr	r0, .L18+20
 241 0040 FFF7FEFF 		bl	chThdSleep
 242              	.LVL11:
 243              		.loc 1 283 0
 244              		@ sp needed for prologue
 245 0044 73BD     		pop	{r0, r1, r4, r5, r6, pc}
 246              	.L19:
 247 0046 C046     		.align	2
 248              	.L18:
 249 0048 00000000 		.word	Font_System5x8
 250 004c 19000000 		.word	.LC12
 251 0050 00000000 		.word	settings
 252 0054 00000000 		.word	.LANCHOR0
 253 0058 00000000 		.word	.LANCHOR1
 254 005c 10270000 		.word	10000
 255              		.cfi_endproc
 256              	.LFE84:
 257              		.size	toggleLED, .-toggleLED
 258              		.section	.text.startDisplay,"ax",%progbits
 259              		.align	1
 260              		.global	startDisplay
 261              		.code	16
 262              		.thumb_func
 263              		.type	startDisplay, %function
 264              	startDisplay:
 265              	.LFB77:
 266              		.loc 1 46 0
 267              		.cfi_startproc
 268 0000 7FB5     		push	{r0, r1, r2, r3, r4, r5, r6, lr}
 269              	.LCFI3:
 270              		.cfi_def_cfa_offset 32
 271              		.cfi_offset 0, -32
 272              		.cfi_offset 1, -28
 273              		.cfi_offset 2, -24
 274              		.cfi_offset 3, -20
 275              		.cfi_offset 4, -16
 276              		.cfi_offset 5, -12
 277              		.cfi_offset 6, -8
 278              		.cfi_offset 14, -4
 279              		.loc 1 49 0
 280 0002 0220     		mov	r0, #2
 281 0004 FFF7FEFF 		bl	ssd1306Init
 282              	.LVL12:
 283              		.loc 1 50 0
 284 0008 FFF7FEFF 		bl	ssd1306TurnOn
 285              	.LVL13:
ARM GAS  /tmp/ccUwvvew.s 			page 6


 286              		.loc 1 54 0
 287 000c 1C48     		ldr	r0, .L25
 288              		.loc 1 51 0
 289 000e 0123     		mov	r3, #1
 290              		.loc 1 54 0
 291 0010 4168     		ldr	r1, [r0, #4]
 292              		.loc 1 51 0
 293 0012 1C4D     		ldr	r5, .L25+4
 294              		.loc 1 52 0
 295 0014 1C4C     		ldr	r4, .L25+8
 296 0016 8026     		mov	r6, #128
 297 0018 9E40     		lsl	r6, r6, r3
 298              		.loc 1 51 0
 299 001a 2B70     		strb	r3, [r5]
 300              		.loc 1 54 0
 301 001c 1B4A     		ldr	r2, .L25+12
 302 001e 0368     		ldr	r3, [r0]
 303              		.loc 1 52 0
 304 0020 2683     		strh	r6, [r4, #24]
 305              		.loc 1 54 0
 306 0022 2820     		mov	r0, #40
 307 0024 0091     		str	r1, [sp]
 308 0026 1421     		mov	r1, #20
 309 0028 FFF7FEFF 		bl	ssd1306DrawString
 310              	.LVL14:
 311              		.loc 1 55 0
 312 002c FA22     		mov	r2, #250
 313 002e 5000     		lsl	r0, r2, #1
 314 0030 FFF7FEFF 		bl	chThdSleep
 315              	.LVL15:
 316              		.loc 1 56 0
 317 0034 6683     		strh	r6, [r4, #26]
 318              		.loc 1 58 0
 319 0036 1648     		ldr	r0, .L25+16
 320 0038 FFF7FEFF 		bl	serDbg
 321              	.LVL16:
 322              	.L23:
 323              		.loc 1 62 0
 324 003c 1548     		ldr	r0, .L25+20
 325 003e FFF7FEFF 		bl	serDbg
 326              	.LVL17:
 327              		.loc 1 63 0
 328 0042 FFF7FEFF 		bl	ssd1306TurnOff
 329              	.LVL18:
 330              		.loc 1 64 0
 331 0046 0023     		mov	r3, #0
 332 0048 2B70     		strb	r3, [r5]
 333              	.L21:
 334              		.loc 1 66 0 discriminator 1
 335 004a 2069     		ldr	r0, [r4, #16]
 336 004c 0E4E     		ldr	r6, .L25+8
 337 004e 8104     		lsl	r1, r0, #18
 338 0050 08D5     		bpl	.L24
 339              	.L22:
 340              		.loc 1 68 0
 341 0052 7369     		ldr	r3, [r6, #20]
 342 0054 8022     		mov	r2, #128
ARM GAS  /tmp/ccUwvvew.s 			page 7


 343 0056 5000     		lsl	r0, r2, #1
 344 0058 5840     		eor	r0, r3
 345 005a 7061     		str	r0, [r6, #20]
 346              		.loc 1 69 0
 347 005c 0E48     		ldr	r0, .L25+24
 348 005e FFF7FEFF 		bl	chThdSleep
 349              	.LVL19:
 350 0062 F2E7     		b	.L21
 351              	.L24:
 352              		.loc 1 71 0
 353 0064 0D48     		ldr	r0, .L25+28
 354 0066 FFF7FEFF 		bl	serDbg
 355              	.LVL20:
 356              		.loc 1 72 0
 357 006a FFF7FEFF 		bl	ssd1306ClearScreen
 358              	.LVL21:
 359              		.loc 1 73 0
 360 006e FFF7FEFF 		bl	ssd1306TurnOn
 361              	.LVL22:
 362              		.loc 1 74 0
 363 0072 0121     		mov	r1, #1
 364              		.loc 1 75 0
 365 0074 0A48     		ldr	r0, .L25+32
 366              		.loc 1 74 0
 367 0076 2970     		strb	r1, [r5]
 368              		.loc 1 75 0
 369 0078 FFF7FEFF 		bl	openMenu
 370              	.LVL23:
 371              		.loc 1 76 0
 372 007c DEE7     		b	.L23
 373              	.L26:
 374 007e C046     		.align	2
 375              	.L25:
 376 0080 00000000 		.word	Font_System7x8
 377 0084 00000000 		.word	.LANCHOR2
 378 0088 00080048 		.word	1207961600
 379 008c 25000000 		.word	.LC19
 380 0090 2D000000 		.word	.LC22
 381 0094 45000000 		.word	.LC24
 382 0098 E2040000 		.word	1250
 383 009c 53000000 		.word	.LC26
 384 00a0 00000000 		.word	.LANCHOR3
 385              		.cfi_endproc
 386              	.LFE77:
 387              		.size	startDisplay, .-startDisplay
 388              		.section	.text.drawTitle,"ax",%progbits
 389              		.align	1
 390              		.global	drawTitle
 391              		.code	16
 392              		.thumb_func
 393              		.type	drawTitle, %function
 394              	drawTitle:
 395              	.LFB78:
 396              		.loc 1 80 0
 397              		.cfi_startproc
 398              	.LVL24:
 399 0000 13B5     		push	{r0, r1, r4, lr}
ARM GAS  /tmp/ccUwvvew.s 			page 8


 400              	.LCFI4:
 401              		.cfi_def_cfa_offset 16
 402              		.cfi_offset 0, -16
 403              		.cfi_offset 1, -12
 404              		.cfi_offset 4, -8
 405              		.cfi_offset 14, -4
 406              		.loc 1 80 0
 407 0002 041C     		mov	r4, r0
 408              		.loc 1 81 0
 409 0004 FFF7FEFF 		bl	strlen
 410              	.LVL25:
 411 0008 074B     		ldr	r3, .L28
 412              	.LVL26:
 413              		.loc 1 83 0
 414              		@ sp needed for prologue
 415              		.loc 1 81 0
 416 000a 1A78     		ldrb	r2, [r3]
 417 000c 5043     		mul	r0, r2
 418              	.LVL27:
 419              		.loc 1 82 0
 420 000e C0B2     		uxtb	r0, r0
 421 0010 4108     		lsr	r1, r0, #1
 422 0012 4022     		mov	r2, #64
 423 0014 501A     		sub	r0, r2, r1
 424 0016 5968     		ldr	r1, [r3, #4]
 425 0018 C0B2     		uxtb	r0, r0
 426 001a 0091     		str	r1, [sp]
 427 001c 1B68     		ldr	r3, [r3]
 428 001e 0021     		mov	r1, #0
 429 0020 221C     		mov	r2, r4
 430 0022 FFF7FEFF 		bl	ssd1306DrawString
 431              	.LVL28:
 432              	.LVL29:
 433              		.loc 1 83 0
 434 0026 13BD     		pop	{r0, r1, r4, pc}
 435              	.L29:
 436              		.align	2
 437              	.L28:
 438 0028 00000000 		.word	Font_System7x8
 439              		.cfi_endproc
 440              	.LFE78:
 441              		.size	drawTitle, .-drawTitle
 442              		.global	__aeabi_uidiv
 443              		.section	.text.setGears,"ax",%progbits
 444              		.align	1
 445              		.global	setGears
 446              		.code	16
 447              		.thumb_func
 448              		.type	setGears, %function
 449              	setGears:
 450              	.LFB83:
 451              		.loc 1 232 0
 452              		.cfi_startproc
 453              	.LVL30:
 454 0000 F0B5     		push	{r4, r5, r6, r7, lr}
 455              	.LCFI5:
 456              		.cfi_def_cfa_offset 20
ARM GAS  /tmp/ccUwvvew.s 			page 9


 457              		.cfi_offset 4, -20
 458              		.cfi_offset 5, -16
 459              		.cfi_offset 6, -12
 460              		.cfi_offset 7, -8
 461              		.cfi_offset 14, -4
 462 0002 0024     		mov	r4, #0
 463 0004 87B0     		sub	sp, sp, #28
 464              	.LCFI6:
 465              		.cfi_def_cfa_offset 48
 466              		.loc 1 237 0
 467 0006 0294     		str	r4, [sp, #8]
 468              	.LVL31:
 469              	.L34:
 470              		.loc 1 241 0
 471 0008 FFF7FEFF 		bl	ssd1306ClearScreen
 472              	.LVL32:
 473              		.loc 1 242 0
 474 000c 2148     		ldr	r0, .L38
 475 000e FFF7FEFF 		bl	drawTitle
 476              	.LVL33:
 477              		.loc 1 243 0
 478 0012 201C     		mov	r0, r4
 479 0014 05A9     		add	r1, sp, #20
 480 0016 FFF7FEFF 		bl	itoa
 481              	.LVL34:
 482              		.loc 1 244 0
 483 001a 1F4D     		ldr	r5, .L38+4
 484 001c 0F20     		mov	r0, #15
 485 001e 6E68     		ldr	r6, [r5, #4]
 486 0020 2B68     		ldr	r3, [r5]
 487 0022 0096     		str	r6, [sp]
 488 0024 3221     		mov	r1, #50
 489 0026 1D4A     		ldr	r2, .L38+8
 490 0028 FFF7FEFF 		bl	ssd1306DrawString
 491              	.LVL35:
 492              		.loc 1 245 0
 493 002c 0096     		str	r6, [sp]
 494 002e 2B68     		ldr	r3, [r5]
 495 0030 1920     		mov	r0, #25
 496 0032 3C21     		mov	r1, #60
 497 0034 05AA     		add	r2, sp, #20
 498 0036 FFF7FEFF 		bl	ssd1306DrawString
 499              	.LVL36:
 500 003a 2826     		mov	r6, #40
 501              	.LVL37:
 502              	.L33:
 503              		.loc 1 249 0
 504 003c 184B     		ldr	r3, .L38+12
 505 003e 6427     		mov	r7, #100
 506 0040 5888     		ldrh	r0, [r3, #2]
 507              		.loc 1 250 0
 508 0042 1988     		ldrh	r1, [r3]
 509              		.loc 1 249 0
 510 0044 7843     		mul	r0, r7
 511              		.loc 1 250 0
 512 0046 80B2     		uxth	r0, r0
 513 0048 FFF7FEFF 		bl	__aeabi_uidiv
ARM GAS  /tmp/ccUwvvew.s 			page 10


 514              	.LVL38:
 515 004c 85B2     		uxth	r5, r0
 516              	.LVL39:
 517              		.loc 1 253 0
 518 004e 391C     		mov	r1, r7
 519 0050 281C     		mov	r0, r5
 520 0052 FFF7FEFF 		bl	__aeabi_uidiv
 521              	.LVL40:
 522 0056 87B2     		uxth	r7, r0
 523 0058 EA19     		add	r2, r5, r7
 524 005a 0392     		str	r2, [sp, #12]
 525              	.L31:
 526              		.loc 1 253 0 is_stmt 0 discriminator 1
 527 005c 0299     		ldr	r1, [sp, #8]
 528 005e 039B     		ldr	r3, [sp, #12]
 529              		.loc 1 255 0 is_stmt 1 discriminator 1
 530 0060 FA20     		mov	r0, #250
 531              		.loc 1 253 0 discriminator 1
 532 0062 9942     		cmp	r1, r3
 533 0064 02DB     		blt	.L37
 534              	.L32:
 535              		.loc 1 255 0
 536 0066 FFF7FEFF 		bl	chThdSleep
 537              	.LVL41:
 538 006a F7E7     		b	.L31
 539              	.L37:
 540 006c 013E     		sub	r6, r6, #1
 541              		.loc 1 258 0
 542 006e 4000     		lsl	r0, r0, #1
 543 0070 F6B2     		uxtb	r6, r6
 544 0072 FFF7FEFF 		bl	chThdSleep
 545              	.LVL42:
 546              		.loc 1 247 0
 547 0076 002E     		cmp	r6, #0
 548 0078 E0D1     		bne	.L33
 549              		.loc 1 231 0
 550 007a 0A48     		ldr	r0, .L38+16
 551 007c 6200     		lsl	r2, r4, #1
 552 007e 1118     		add	r1, r2, r0
 553              		.loc 1 261 0
 554 0080 EF1B     		sub	r7, r5, r7
 555 0082 0134     		add	r4, r4, #1
 556 0084 8F81     		strh	r7, [r1, #12]
 557              	.LVL43:
 558              		.loc 1 250 0
 559 0086 0295     		str	r5, [sp, #8]
 560              		.loc 1 239 0
 561 0088 062C     		cmp	r4, #6
 562 008a BDD1     		bne	.L34
 563              		.loc 1 265 0
 564 008c FFF7FEFF 		bl	writeSettings
 565              	.LVL44:
 566              		.loc 1 266 0
 567 0090 07B0     		add	sp, sp, #28
 568              		@ sp needed for prologue
 569              	.LVL45:
 570 0092 F0BD     		pop	{r4, r5, r6, r7, pc}
ARM GAS  /tmp/ccUwvvew.s 			page 11


 571              	.L39:
 572              		.align	2
 573              	.L38:
 574 0094 60000000 		.word	.LC32
 575 0098 00000000 		.word	Font_System7x8
 576 009c 6F000000 		.word	.LC34
 577 00a0 00000000 		.word	sensors
 578 00a4 00000000 		.word	settings
 579              		.cfi_endproc
 580              	.LFE83:
 581              		.size	setGears, .-setGears
 582              		.section	.text.setShifter,"ax",%progbits
 583              		.align	1
 584              		.global	setShifter
 585              		.code	16
 586              		.thumb_func
 587              		.type	setShifter, %function
 588              	setShifter:
 589              	.LFB82:
 590              		.loc 1 189 0
 591              		.cfi_startproc
 592 0000 F0B5     		push	{r4, r5, r6, r7, lr}
 593              	.LCFI7:
 594              		.cfi_def_cfa_offset 20
 595              		.cfi_offset 4, -20
 596              		.cfi_offset 5, -16
 597              		.cfi_offset 6, -12
 598              		.cfi_offset 7, -8
 599              		.cfi_offset 14, -4
 600              		.loc 1 190 0
 601 0002 2948     		ldr	r0, .L50
 602              		.loc 1 189 0
 603 0004 85B0     		sub	sp, sp, #20
 604              	.LCFI8:
 605              		.cfi_def_cfa_offset 40
 606              		.loc 1 190 0
 607 0006 FFF7FEFF 		bl	drawTitle
 608              	.LVL46:
 609              		.loc 1 195 0
 610 000a 284F     		ldr	r7, .L50+4
 611 000c 0020     		mov	r0, #0
 612 000e 7C68     		ldr	r4, [r7, #4]
 613 0010 3B68     		ldr	r3, [r7]
 614 0012 0094     		str	r4, [sp]
 615 0014 1921     		mov	r1, #25
 616 0016 264A     		ldr	r2, .L50+8
 617 0018 FFF7FEFF 		bl	ssd1306DrawString
 618              	.LVL47:
 619              		.loc 1 196 0
 620 001c 0A20     		mov	r0, #10
 621 001e 011C     		mov	r1, r0
 622 0020 0094     		str	r4, [sp]
 623 0022 3B68     		ldr	r3, [r7]
 624 0024 234A     		ldr	r2, .L50+12
 625 0026 FFF7FEFF 		bl	ssd1306DrawString
 626              	.LVL48:
 627              		.loc 1 198 0
ARM GAS  /tmp/ccUwvvew.s 			page 12


 628 002a 2348     		ldr	r0, .L50+16
 629 002c FFF7FEFF 		bl	chThdSleep
 630              	.LVL49:
 631 0030 2824     		mov	r4, #40
 632              		.loc 1 200 0
 633 0032 0025     		mov	r5, #0
 634              	.LVL50:
 635              	.L42:
 636              		.loc 1 203 0
 637 0034 214B     		ldr	r3, .L50+20
 638 0036 281C     		add	r0, r5, #0
 639 0038 9A88     		ldrh	r2, [r3, #4]
 640 003a 9542     		cmp	r5, r2
 641 003c 00D2     		bcs	.L41
 642 003e 101C     		add	r0, r2, #0
 643              	.L41:
 644              		.loc 1 206 0
 645 0040 FA21     		mov	r1, #250
 646 0042 013C     		sub	r4, r4, #1
 647 0044 85B2     		uxth	r5, r0
 648              	.LVL51:
 649 0046 E4B2     		uxtb	r4, r4
 650 0048 4800     		lsl	r0, r1, #1
 651              	.LVL52:
 652 004a FFF7FEFF 		bl	chThdSleep
 653              	.LVL53:
 654              		.loc 1 201 0
 655 004e 002C     		cmp	r4, #0
 656 0050 F0D1     		bne	.L42
 657              		.loc 1 209 0
 658 0052 FFF7FEFF 		bl	ssd1306ClearScreen
 659              	.LVL54:
 660              		.loc 1 212 0
 661 0056 2BB2     		sxth	r3, r5
 662 0058 194E     		ldr	r6, .L50+24
 663 005a 002B     		cmp	r3, #0
 664 005c 09DA     		bge	.L43
 665              		.loc 1 214 0
 666 005e 7868     		ldr	r0, [r7, #4]
 667 0060 3B68     		ldr	r3, [r7]
 668 0062 0090     		str	r0, [sp]
 669 0064 0A21     		mov	r1, #10
 670 0066 201C     		mov	r0, r4
 671 0068 164A     		ldr	r2, .L50+28
 672 006a FFF7FEFF 		bl	ssd1306DrawString
 673              	.LVL55:
 674              		.loc 1 215 0
 675 006e F471     		strb	r4, [r6, #7]
 676 0070 09E0     		b	.L44
 677              	.L43:
 678              		.loc 1 219 0
 679 0072 7A68     		ldr	r2, [r7, #4]
 680 0074 3B68     		ldr	r3, [r7]
 681 0076 0092     		str	r2, [sp]
 682 0078 201C     		mov	r0, r4
 683 007a 0521     		mov	r1, #5
 684 007c 124A     		ldr	r2, .L50+32
ARM GAS  /tmp/ccUwvvew.s 			page 13


 685              		.loc 1 220 0
 686 007e 0127     		mov	r7, #1
 687              		.loc 1 219 0
 688 0080 FFF7FEFF 		bl	ssd1306DrawString
 689              	.LVL56:
 690              		.loc 1 220 0
 691 0084 F771     		strb	r7, [r6, #7]
 692              	.L44:
 693              		.loc 1 224 0
 694 0086 301C     		mov	r0, r6
 695              		.loc 1 223 0
 696 0088 7580     		strh	r5, [r6, #2]
 697              		.loc 1 224 0
 698 008a FFF7FEFF 		bl	writeSettings
 699              	.LVL57:
 700              		.loc 1 226 0
 701 008e 0A48     		ldr	r0, .L50+16
 702              	.LVL58:
 703              	.L48:
 704              		.loc 1 228 0 discriminator 2
 705 0090 0E4D     		ldr	r5, .L50+36
 706 0092 FFF7FEFF 		bl	chThdSleep
 707              	.LVL59:
 708 0096 2969     		ldr	r1, [r5, #16]
 709 0098 8A04     		lsl	r2, r1, #18
 710 009a 02D5     		bpl	.L49
 711              	.L46:
 712 009c FA24     		mov	r4, #250
 713 009e 6000     		lsl	r0, r4, #1
 714 00a0 F6E7     		b	.L48
 715              	.L49:
 716              		.loc 1 229 0
 717 00a2 05B0     		add	sp, sp, #20
 718              		@ sp needed for prologue
 719 00a4 F0BD     		pop	{r4, r5, r6, r7, pc}
 720              	.L51:
 721 00a6 C046     		.align	2
 722              	.L50:
 723 00a8 74000000 		.word	.LC39
 724 00ac 00000000 		.word	Font_System5x8
 725 00b0 89000000 		.word	.LC41
 726 00b4 96000000 		.word	.LC44
 727 00b8 10270000 		.word	10000
 728 00bc 00000000 		.word	sensors
 729 00c0 00000000 		.word	settings
 730 00c4 AA000000 		.word	.LC47
 731 00c8 BB000000 		.word	.LC50
 732 00cc 00080048 		.word	1207961600
 733              		.cfi_endproc
 734              	.LFE82:
 735              		.size	setShifter, .-setShifter
 736              		.section	.text.setCutMode,"ax",%progbits
 737              		.align	1
 738              		.global	setCutMode
 739              		.code	16
 740              		.thumb_func
 741              		.type	setCutMode, %function
ARM GAS  /tmp/ccUwvvew.s 			page 14


 742              	setCutMode:
 743              	.LFB81:
 744              		.loc 1 170 0
 745              		.cfi_startproc
 746 0000 73B5     		push	{r0, r1, r4, r5, r6, lr}
 747              	.LCFI9:
 748              		.cfi_def_cfa_offset 24
 749              		.cfi_offset 0, -24
 750              		.cfi_offset 1, -20
 751              		.cfi_offset 4, -16
 752              		.cfi_offset 5, -12
 753              		.cfi_offset 6, -8
 754              		.cfi_offset 14, -4
 755              		.loc 1 171 0
 756 0002 1448     		ldr	r0, .L56
 757 0004 FFF7FEFF 		bl	drawTitle
 758              	.LVL60:
 759              		.loc 1 173 0
 760 0008 134C     		ldr	r4, .L56+4
 761 000a 0A20     		mov	r0, #10
 762 000c 6668     		ldr	r6, [r4, #4]
 763 000e 2368     		ldr	r3, [r4]
 764 0010 0096     		str	r6, [sp]
 765 0012 0021     		mov	r1, #0
 766 0014 114A     		ldr	r2, .L56+8
 767 0016 FFF7FEFF 		bl	ssd1306DrawString
 768              	.LVL61:
 769              		.loc 1 174 0
 770 001a 114D     		ldr	r5, .L56+12
 771 001c 2B78     		ldrb	r3, [r5]
 772              		.loc 1 176 0
 773 001e 0096     		str	r6, [sp]
 774              		.loc 1 174 0
 775 0020 012B     		cmp	r3, #1
 776 0022 07D1     		bne	.L53
 777              		.loc 1 176 0
 778 0024 1920     		mov	r0, #25
 779 0026 2368     		ldr	r3, [r4]
 780 0028 0021     		mov	r1, #0
 781 002a 0E4A     		ldr	r2, .L56+16
 782 002c FFF7FEFF 		bl	ssd1306DrawString
 783              	.LVL62:
 784              		.loc 1 177 0
 785 0030 0220     		mov	r0, #2
 786 0032 06E0     		b	.L55
 787              	.L53:
 788              		.loc 1 181 0
 789 0034 1920     		mov	r0, #25
 790 0036 2368     		ldr	r3, [r4]
 791 0038 0021     		mov	r1, #0
 792 003a 0B4A     		ldr	r2, .L56+20
 793 003c FFF7FEFF 		bl	ssd1306DrawString
 794              	.LVL63:
 795              		.loc 1 182 0
 796 0040 0120     		mov	r0, #1
 797              	.L55:
 798 0042 2870     		strb	r0, [r5]
ARM GAS  /tmp/ccUwvvew.s 			page 15


 799              		.loc 1 184 0
 800 0044 281C     		mov	r0, r5
 801 0046 FFF7FEFF 		bl	writeSettings
 802              	.LVL64:
 803              		.loc 1 185 0
 804 004a 0848     		ldr	r0, .L56+24
 805 004c FFF7FEFF 		bl	chThdSleep
 806              	.LVL65:
 807              		.loc 1 186 0
 808              		@ sp needed for prologue
 809 0050 73BD     		pop	{r0, r1, r4, r5, r6, pc}
 810              	.L57:
 811 0052 C046     		.align	2
 812              	.L56:
 813 0054 CD000000 		.word	.LC54
 814 0058 00000000 		.word	Font_System5x8
 815 005c 19000000 		.word	.LC12
 816 0060 00000000 		.word	settings
 817 0064 D6000000 		.word	.LC59
 818 0068 E2000000 		.word	.LC61
 819 006c 10270000 		.word	10000
 820              		.cfi_endproc
 821              	.LFE81:
 822              		.size	setCutMode, .-setCutMode
 823              		.section	.text.showInfo,"ax",%progbits
 824              		.align	1
 825              		.global	showInfo
 826              		.code	16
 827              		.thumb_func
 828              		.type	showInfo, %function
 829              	showInfo:
 830              	.LFB80:
 831              		.loc 1 118 0
 832              		.cfi_startproc
 833 0000 73B5     		push	{r0, r1, r4, r5, r6, lr}
 834              	.LCFI10:
 835              		.cfi_def_cfa_offset 24
 836              		.cfi_offset 0, -24
 837              		.cfi_offset 1, -20
 838              		.cfi_offset 4, -16
 839              		.cfi_offset 5, -12
 840              		.cfi_offset 6, -8
 841              		.cfi_offset 14, -4
 842              		.loc 1 119 0
 843 0002 3C48     		ldr	r0, .L76
 844 0004 FFF7FEFF 		bl	drawTitle
 845              	.LVL66:
 846              		.loc 1 120 0
 847 0008 3B4C     		ldr	r4, .L76+4
 848 000a 0020     		mov	r0, #0
 849 000c 6568     		ldr	r5, [r4, #4]
 850 000e 2368     		ldr	r3, [r4]
 851 0010 0A21     		mov	r1, #10
 852 0012 3A4A     		ldr	r2, .L76+8
 853 0014 0095     		str	r5, [sp]
 854 0016 FFF7FEFF 		bl	ssd1306DrawString
 855              	.LVL67:
ARM GAS  /tmp/ccUwvvew.s 			page 16


 856              		.loc 1 122 0
 857 001a 2368     		ldr	r3, [r4]
 858 001c 0095     		str	r5, [sp]
 859 001e 0020     		mov	r0, #0
 860 0020 1421     		mov	r1, #20
 861 0022 374A     		ldr	r2, .L76+12
 862 0024 FFF7FEFF 		bl	ssd1306DrawString
 863              	.LVL68:
 864              		.loc 1 123 0
 865 0028 364E     		ldr	r6, .L76+16
 866 002a 3378     		ldrb	r3, [r6]
 867              		.loc 1 125 0
 868 002c 0095     		str	r5, [sp]
 869              		.loc 1 123 0
 870 002e 022B     		cmp	r3, #2
 871 0030 04D1     		bne	.L59
 872              		.loc 1 125 0
 873 0032 2368     		ldr	r3, [r4]
 874 0034 1920     		mov	r0, #25
 875 0036 1421     		mov	r1, #20
 876 0038 334A     		ldr	r2, .L76+20
 877 003a 0AE0     		b	.L71
 878              	.L59:
 879              		.loc 1 127 0
 880 003c 012B     		cmp	r3, #1
 881 003e 04D1     		bne	.L61
 882              		.loc 1 129 0
 883 0040 2368     		ldr	r3, [r4]
 884 0042 1920     		mov	r0, #25
 885 0044 1421     		mov	r1, #20
 886 0046 314A     		ldr	r2, .L76+24
 887 0048 03E0     		b	.L71
 888              	.L61:
 889              		.loc 1 133 0
 890 004a 2368     		ldr	r3, [r4]
 891 004c 304A     		ldr	r2, .L76+28
 892 004e 1920     		mov	r0, #25
 893 0050 1421     		mov	r1, #20
 894              	.L71:
 895 0052 FFF7FEFF 		bl	ssd1306DrawString
 896              	.LVL69:
 897              		.loc 1 136 0
 898 0056 6568     		ldr	r5, [r4, #4]
 899 0058 0020     		mov	r0, #0
 900 005a 0095     		str	r5, [sp]
 901 005c 2368     		ldr	r3, [r4]
 902 005e 1E21     		mov	r1, #30
 903 0060 2C4A     		ldr	r2, .L76+32
 904 0062 FFF7FEFF 		bl	ssd1306DrawString
 905              	.LVL70:
 906              		.loc 1 137 0
 907 0066 3078     		ldrb	r0, [r6]
 908              		.loc 1 139 0
 909 0068 0095     		str	r5, [sp]
 910              		.loc 1 137 0
 911 006a 8207     		lsl	r2, r0, #30
 912 006c 04D5     		bpl	.L62
ARM GAS  /tmp/ccUwvvew.s 			page 17


 913              		.loc 1 139 0
 914 006e 2368     		ldr	r3, [r4]
 915 0070 2320     		mov	r0, #35
 916 0072 1E21     		mov	r1, #30
 917 0074 264A     		ldr	r2, .L76+28
 918 0076 03E0     		b	.L72
 919              	.L62:
 920              		.loc 1 143 0
 921 0078 2368     		ldr	r3, [r4]
 922 007a 274A     		ldr	r2, .L76+36
 923 007c 2320     		mov	r0, #35
 924 007e 1E21     		mov	r1, #30
 925              	.L72:
 926 0080 FFF7FEFF 		bl	ssd1306DrawString
 927              	.LVL71:
 928              		.loc 1 146 0
 929 0084 6568     		ldr	r5, [r4, #4]
 930 0086 2821     		mov	r1, #40
 931 0088 0095     		str	r5, [sp]
 932 008a 2368     		ldr	r3, [r4]
 933 008c 0020     		mov	r0, #0
 934 008e 234A     		ldr	r2, .L76+40
 935 0090 FFF7FEFF 		bl	ssd1306DrawString
 936              	.LVL72:
 937              		.loc 1 147 0
 938 0094 3178     		ldrb	r1, [r6]
 939              		.loc 1 149 0
 940 0096 0095     		str	r5, [sp]
 941              		.loc 1 147 0
 942 0098 CA07     		lsl	r2, r1, #31
 943 009a 04D5     		bpl	.L64
 944              		.loc 1 149 0
 945 009c 2368     		ldr	r3, [r4]
 946 009e 1420     		mov	r0, #20
 947 00a0 2821     		mov	r1, #40
 948 00a2 1B4A     		ldr	r2, .L76+28
 949 00a4 03E0     		b	.L73
 950              	.L64:
 951              		.loc 1 153 0
 952 00a6 2368     		ldr	r3, [r4]
 953 00a8 1B4A     		ldr	r2, .L76+36
 954 00aa 1420     		mov	r0, #20
 955 00ac 2821     		mov	r1, #40
 956              	.L73:
 957 00ae FFF7FEFF 		bl	ssd1306DrawString
 958              	.LVL73:
 959              		.loc 1 156 0
 960 00b2 6568     		ldr	r5, [r4, #4]
 961 00b4 1A4A     		ldr	r2, .L76+44
 962 00b6 0095     		str	r5, [sp]
 963 00b8 2368     		ldr	r3, [r4]
 964 00ba 0020     		mov	r0, #0
 965 00bc 3221     		mov	r1, #50
 966 00be FFF7FEFF 		bl	ssd1306DrawString
 967              	.LVL74:
 968              		.loc 1 157 0
 969 00c2 3278     		ldrb	r2, [r6]
ARM GAS  /tmp/ccUwvvew.s 			page 18


 970              		.loc 1 159 0
 971 00c4 0095     		str	r5, [sp]
 972              		.loc 1 157 0
 973 00c6 5207     		lsl	r2, r2, #29
 974 00c8 04D5     		bpl	.L66
 975              		.loc 1 159 0
 976 00ca 3220     		mov	r0, #50
 977 00cc 2368     		ldr	r3, [r4]
 978 00ce 011C     		mov	r1, r0
 979 00d0 0F4A     		ldr	r2, .L76+28
 980 00d2 03E0     		b	.L74
 981              	.L66:
 982              		.loc 1 163 0
 983 00d4 3220     		mov	r0, #50
 984 00d6 2368     		ldr	r3, [r4]
 985 00d8 0F4A     		ldr	r2, .L76+36
 986 00da 011C     		mov	r1, r0
 987              	.L74:
 988 00dc FFF7FEFF 		bl	ssd1306DrawString
 989              	.LVL75:
 990              	.L70:
 991              		.loc 1 166 0 discriminator 1
 992 00e0 104C     		ldr	r4, .L76+48
 993 00e2 2669     		ldr	r6, [r4, #16]
 994 00e4 B204     		lsl	r2, r6, #18
 995 00e6 04D5     		bpl	.L75
 996              	.L69:
 997              		.loc 1 166 0 is_stmt 0 discriminator 2
 998 00e8 FA23     		mov	r3, #250
 999 00ea 5800     		lsl	r0, r3, #1
 1000 00ec FFF7FEFF 		bl	chThdSleep
 1001              	.LVL76:
 1002 00f0 F6E7     		b	.L70
 1003              	.L75:
 1004              		.loc 1 167 0 is_stmt 1
 1005              		@ sp needed for prologue
 1006 00f2 73BD     		pop	{r0, r1, r4, r5, r6, pc}
 1007              	.L77:
 1008              		.align	2
 1009              	.L76:
 1010 00f4 E9000000 		.word	.LC63
 1011 00f8 00000000 		.word	Font_System5x8
 1012 00fc 00000000 		.word	.LANCHOR4
 1013 0100 F1000000 		.word	.LC67
 1014 0104 00000000 		.word	settings
 1015 0108 D6000000 		.word	.LC59
 1016 010c E2000000 		.word	.LC61
 1017 0110 00000000 		.word	.LANCHOR0
 1018 0114 FB000000 		.word	.LC73
 1019 0118 00000000 		.word	.LANCHOR1
 1020 011c 04010000 		.word	.LC76
 1021 0120 08010000 		.word	.LC78
 1022 0124 00080048 		.word	1207961600
 1023              		.cfi_endproc
 1024              	.LFE80:
 1025              		.size	showInfo, .-showInfo
 1026              		.section	.text.showDiag,"ax",%progbits
ARM GAS  /tmp/ccUwvvew.s 			page 19


 1027              		.align	1
 1028              		.global	showDiag
 1029              		.code	16
 1030              		.thumb_func
 1031              		.type	showDiag, %function
 1032              	showDiag:
 1033              	.LFB79:
 1034              		.loc 1 86 0
 1035              		.cfi_startproc
 1036 0000 F0B5     		push	{r4, r5, r6, r7, lr}
 1037              	.LCFI11:
 1038              		.cfi_def_cfa_offset 20
 1039              		.cfi_offset 4, -20
 1040              		.cfi_offset 5, -16
 1041              		.cfi_offset 6, -12
 1042              		.cfi_offset 7, -8
 1043              		.cfi_offset 14, -4
 1044 0002 87B0     		sub	sp, sp, #28
 1045              	.LCFI12:
 1046              		.cfi_def_cfa_offset 48
 1047              		.loc 1 87 0
 1048 0004 0023     		mov	r3, #0
 1049 0006 03AC     		add	r4, sp, #12
 1050 0008 0393     		str	r3, [sp, #12]
 1051 000a 6360     		str	r3, [r4, #4]
 1052 000c 2381     		strh	r3, [r4, #8]
 1053              	.L79:
 1054              		.loc 1 89 0 discriminator 1
 1055 000e 3548     		ldr	r0, .L82
 1056 0010 0169     		ldr	r1, [r0, #16]
 1057 0012 8A04     		lsl	r2, r1, #18
 1058 0014 64D5     		bpl	.L81
 1059              	.L80:
 1060              		.loc 1 91 0
 1061 0016 3448     		ldr	r0, .L82+4
 1062 0018 FFF7FEFF 		bl	drawTitle
 1063              	.LVL77:
 1064              		.loc 1 93 0
 1065 001c 334D     		ldr	r5, .L82+8
 1066 001e 344A     		ldr	r2, .L82+12
 1067 0020 6E68     		ldr	r6, [r5, #4]
 1068 0022 2B68     		ldr	r3, [r5]
 1069 0024 0096     		str	r6, [sp]
 1070 0026 0020     		mov	r0, #0
 1071 0028 0A21     		mov	r1, #10
 1072 002a FFF7FEFF 		bl	ssd1306DrawString
 1073              	.LVL78:
 1074              		.loc 1 94 0
 1075 002e 314F     		ldr	r7, .L82+16
 1076 0030 211C     		mov	r1, r4
 1077 0032 3888     		ldrh	r0, [r7]
 1078 0034 FFF7FEFF 		bl	itoa
 1079              	.LVL79:
 1080              		.loc 1 95 0
 1081 0038 2B68     		ldr	r3, [r5]
 1082 003a 221C     		mov	r2, r4
 1083 003c 0096     		str	r6, [sp]
ARM GAS  /tmp/ccUwvvew.s 			page 20


 1084 003e 1920     		mov	r0, #25
 1085 0040 0A21     		mov	r1, #10
 1086 0042 FFF7FEFF 		bl	ssd1306DrawString
 1087              	.LVL80:
 1088              		.loc 1 97 0
 1089 0046 2B68     		ldr	r3, [r5]
 1090 0048 2B4A     		ldr	r2, .L82+20
 1091 004a 0096     		str	r6, [sp]
 1092 004c 0020     		mov	r0, #0
 1093 004e 1421     		mov	r1, #20
 1094 0050 FFF7FEFF 		bl	ssd1306DrawString
 1095              	.LVL81:
 1096              		.loc 1 98 0
 1097 0054 7888     		ldrh	r0, [r7, #2]
 1098 0056 211C     		mov	r1, r4
 1099 0058 FFF7FEFF 		bl	itoa
 1100              	.LVL82:
 1101              		.loc 1 99 0
 1102 005c 2B68     		ldr	r3, [r5]
 1103 005e 221C     		mov	r2, r4
 1104 0060 0096     		str	r6, [sp]
 1105 0062 2320     		mov	r0, #35
 1106 0064 1421     		mov	r1, #20
 1107 0066 FFF7FEFF 		bl	ssd1306DrawString
 1108              	.LVL83:
 1109              		.loc 1 101 0
 1110 006a 2B68     		ldr	r3, [r5]
 1111 006c 234A     		ldr	r2, .L82+24
 1112 006e 0096     		str	r6, [sp]
 1113 0070 0020     		mov	r0, #0
 1114 0072 1E21     		mov	r1, #30
 1115 0074 FFF7FEFF 		bl	ssd1306DrawString
 1116              	.LVL84:
 1117              		.loc 1 102 0
 1118 0078 B888     		ldrh	r0, [r7, #4]
 1119 007a 211C     		mov	r1, r4
 1120 007c FFF7FEFF 		bl	itoa
 1121              	.LVL85:
 1122              		.loc 1 103 0
 1123 0080 2B68     		ldr	r3, [r5]
 1124 0082 221C     		mov	r2, r4
 1125 0084 0096     		str	r6, [sp]
 1126 0086 2D20     		mov	r0, #45
 1127 0088 1E21     		mov	r1, #30
 1128 008a FFF7FEFF 		bl	ssd1306DrawString
 1129              	.LVL86:
 1130              		.loc 1 105 0
 1131 008e 2B68     		ldr	r3, [r5]
 1132 0090 1B4A     		ldr	r2, .L82+28
 1133 0092 0096     		str	r6, [sp]
 1134 0094 0020     		mov	r0, #0
 1135 0096 2821     		mov	r1, #40
 1136 0098 FFF7FEFF 		bl	ssd1306DrawString
 1137              	.LVL87:
 1138              		.loc 1 106 0
 1139 009c F888     		ldrh	r0, [r7, #6]
 1140 009e 211C     		mov	r1, r4
ARM GAS  /tmp/ccUwvvew.s 			page 21


 1141 00a0 FFF7FEFF 		bl	itoa
 1142              	.LVL88:
 1143              		.loc 1 107 0
 1144 00a4 2B68     		ldr	r3, [r5]
 1145 00a6 221C     		mov	r2, r4
 1146 00a8 0096     		str	r6, [sp]
 1147 00aa 3720     		mov	r0, #55
 1148 00ac 2821     		mov	r1, #40
 1149 00ae FFF7FEFF 		bl	ssd1306DrawString
 1150              	.LVL89:
 1151              		.loc 1 109 0
 1152 00b2 2B68     		ldr	r3, [r5]
 1153 00b4 134A     		ldr	r2, .L82+32
 1154 00b6 0096     		str	r6, [sp]
 1155 00b8 0020     		mov	r0, #0
 1156 00ba 3221     		mov	r1, #50
 1157 00bc FFF7FEFF 		bl	ssd1306DrawString
 1158              	.LVL90:
 1159              		.loc 1 110 0
 1160 00c0 F888     		ldrh	r0, [r7, #6]
 1161 00c2 211C     		mov	r1, r4
 1162 00c4 FFF7FEFF 		bl	itoa
 1163              	.LVL91:
 1164              		.loc 1 111 0
 1165 00c8 221C     		mov	r2, r4
 1166 00ca 0096     		str	r6, [sp]
 1167 00cc 2B68     		ldr	r3, [r5]
 1168 00ce 1E20     		mov	r0, #30
 1169 00d0 3221     		mov	r1, #50
 1170 00d2 FFF7FEFF 		bl	ssd1306DrawString
 1171              	.LVL92:
 1172              		.loc 1 113 0
 1173 00d6 FA22     		mov	r2, #250
 1174 00d8 5000     		lsl	r0, r2, #1
 1175 00da FFF7FEFF 		bl	chThdSleep
 1176              	.LVL93:
 1177 00de 96E7     		b	.L79
 1178              	.L81:
 1179              		.loc 1 115 0
 1180 00e0 07B0     		add	sp, sp, #28
 1181              		@ sp needed for prologue
 1182 00e2 F0BD     		pop	{r4, r5, r6, r7, pc}
 1183              	.L83:
 1184              		.align	2
 1185              	.L82:
 1186 00e4 00080048 		.word	1207961600
 1187 00e8 15010000 		.word	.LC80
 1188 00ec 00000000 		.word	Font_System5x8
 1189 00f0 21010000 		.word	.LC82
 1190 00f4 00000000 		.word	sensors
 1191 00f8 26010000 		.word	.LC86
 1192 00fc FB000000 		.word	.LC73
 1193 0100 2D010000 		.word	.LC89
 1194 0104 38010000 		.word	.LC91
 1195              		.cfi_endproc
 1196              	.LFE79:
 1197              		.size	showDiag, .-showDiag
ARM GAS  /tmp/ccUwvvew.s 			page 22


 1198              		.global	mainMenu
 1199              		.global	mainMenuItemList
 1200              		.global	settingsMenu
 1201              		.global	settingsMenuList
 1202              		.global	functionsMenu
 1203              		.global	functionsMenuList
 1204              		.global	disabled
 1205              		.global	enabled
 1206              		.global	version
 1207              		.global	display
 1208              		.section	.rodata.functionsMenuList,"a",%progbits
 1209              		.align	2
 1210              		.type	functionsMenuList, %object
 1211              		.size	functionsMenuList, 36
 1212              	functionsMenuList:
 1213 0000 B1010000 		.word	.LC102
 1214 0004 00000000 		.word	toggleLED
 1215 0008 00000000 		.word	0
 1216 000c BD010000 		.word	.LC103
 1217 0010 00000000 		.word	toggleTC
 1218 0014 00000000 		.word	0
 1219 0018 11000000 		.word	.LC6
 1220 001c 00000000 		.word	toggleShifter
 1221 0020 00000000 		.word	0
 1222              		.section	.rodata.settingsMenu,"a",%progbits
 1223              		.align	2
 1224              		.type	settingsMenu, %object
 1225              		.size	settingsMenu, 12
 1226              	settingsMenu:
 1227 0000 5E010000 		.word	.LC96
 1228 0004 0400     		.short	4
 1229 0006 0000     		.space	2
 1230 0008 00000000 		.word	settingsMenuList
 1231              		.section	.rodata.functionsMenu,"a",%progbits
 1232              		.align	2
 1233              		.type	functionsMenu, %object
 1234              		.size	functionsMenu, 12
 1235              	functionsMenu:
 1236 0000 A0010000 		.word	.LC101
 1237 0004 0300     		.short	3
 1238 0006 0000     		.space	2
 1239 0008 00000000 		.word	functionsMenuList
 1240              		.section	.rodata.mainMenuItemList,"a",%progbits
 1241              		.align	2
 1242              		.type	mainMenuItemList, %object
 1243              		.size	mainMenuItemList, 36
 1244              	mainMenuItemList:
 1245 0000 48010000 		.word	.LC94
 1246 0004 00000000 		.word	0
 1247 0008 00000000 		.word	settingsMenu
 1248 000c 15010000 		.word	.LC80
 1249 0010 00000000 		.word	showDiag
 1250 0014 00000000 		.word	0
 1251 0018 51010000 		.word	.LC95
 1252 001c 00000000 		.word	showInfo
 1253 0020 00000000 		.word	0
 1254              		.section	.rodata.settingsMenuList,"a",%progbits
ARM GAS  /tmp/ccUwvvew.s 			page 23


 1255              		.align	2
 1256              		.type	settingsMenuList, %object
 1257              		.size	settingsMenuList, 48
 1258              	settingsMenuList:
 1259 0000 6C010000 		.word	.LC97
 1260 0004 00000000 		.word	0
 1261 0008 00000000 		.word	functionsMenu
 1262 000c 76010000 		.word	.LC98
 1263 0010 00000000 		.word	setCutMode
 1264 0014 00000000 		.word	0
 1265 0018 7F010000 		.word	.LC99
 1266 001c 00000000 		.word	setShifter
 1267 0020 00000000 		.word	0
 1268 0024 94010000 		.word	.LC100
 1269 0028 00000000 		.word	setGears
 1270 002c 00000000 		.word	0
 1271              		.section	.rodata.str1.1,"aMS",%progbits,1
 1272              	.LC0:
 1273 0000 54726163 		.ascii	"Traction control\000"
 1273      74696F6E 
 1273      20636F6E 
 1273      74726F6C 
 1273      00
 1274              	.LC6:
 1275 0011 53686966 		.ascii	"Shifter\000"
 1275      74657200 
 1276              	.LC12:
 1277 0019 53686966 		.ascii	"Shift Light\000"
 1277      74204C69 
 1277      67687400 
 1278              	.LC19:
 1279 0025 4F70656E 		.ascii	"OpenTCS\000"
 1279      54435300 
 1280              	.LC22:
 1281 002d 73746172 		.ascii	"startDisplay Complete\015\012\000"
 1281      74446973 
 1281      706C6179 
 1281      20436F6D 
 1281      706C6574 
 1282              	.LC24:
 1283 0045 44697370 		.ascii	"Display OFF\015\012\000"
 1283      6C617920 
 1283      4F46460D 
 1283      0A00
 1284              	.LC26:
 1285 0053 44697370 		.ascii	"Display ON\015\012\000"
 1285      6C617920 
 1285      4F4E0D0A 
 1285      00
 1286              	.LC32:
 1287 0060 47656172 		.ascii	"Gears Learning\000"
 1287      73204C65 
 1287      61726E69 
 1287      6E6700
 1288              	.LC34:
 1289 006f 47656172 		.ascii	"Gear\000"
 1289      00
ARM GAS  /tmp/ccUwvvew.s 			page 24


 1290              	.LC39:
 1291 0074 53686966 		.ascii	"Shifter Sensor Setup\000"
 1291      74657220 
 1291      53656E73 
 1291      6F722053 
 1291      65747570 
 1292              	.LC41:
 1293 0089 53686966 		.ascii	"Shift a gear\000"
 1293      74206120 
 1293      67656172 
 1293      00
 1294              	.LC44:
 1295 0096 746F2064 		.ascii	"to detect direction\000"
 1295      65746563 
 1295      74206469 
 1295      72656374 
 1295      696F6E00 
 1296              	.LC47:
 1297 00aa 4E6F726D 		.ascii	"Normal direction\000"
 1297      616C2064 
 1297      69726563 
 1297      74696F6E 
 1297      00
 1298              	.LC50:
 1299 00bb 52657665 		.ascii	"Reverse direction\000"
 1299      72736520 
 1299      64697265 
 1299      6374696F 
 1299      6E00
 1300              	.LC54:
 1301 00cd 43757420 		.ascii	"Cut Mode\000"
 1301      4D6F6465 
 1301      00
 1302              	.LC59:
 1303 00d6 50726F67 		.ascii	"Progressive\000"
 1303      72657373 
 1303      69766500 
 1304              	.LC61:
 1305 00e2 4E6F726D 		.ascii	"Normal\000"
 1305      616C00
 1306              	.LC63:
 1307 00e9 56657273 		.ascii	"Version\000"
 1307      696F6E00 
 1308              	.LC67:
 1309 00f1 43757420 		.ascii	"Cut mode:\000"
 1309      6D6F6465 
 1309      3A00
 1310              	.LC73:
 1311 00fb 53686966 		.ascii	"Shifter:\000"
 1311      7465723A 
 1311      00
 1312              	.LC76:
 1313 0104 54433A00 		.ascii	"TC:\000"
 1314              	.LC78:
 1315 0108 53686966 		.ascii	"Shift Light:\000"
 1315      74204C69 
 1315      6768743A 
ARM GAS  /tmp/ccUwvvew.s 			page 25


 1315      00
 1316              	.LC80:
 1317 0115 44696167 		.ascii	"Diagnostics\000"
 1317      6E6F7374 
 1317      69637300 
 1318              	.LC82:
 1319 0121 52504D3A 		.ascii	"RPM:\000"
 1319      00
 1320              	.LC86:
 1321 0126 53706565 		.ascii	"Speed:\000"
 1321      643A00
 1322              	.LC89:
 1323 012d 54432053 		.ascii	"TC Switch:\000"
 1323      77697463 
 1323      683A00
 1324              	.LC91:
 1325 0138 56424154 		.ascii	"VBAT:\000"
 1325      3A00
 1326              	.LC93:
 1327 013e 4D61696E 		.ascii	"Main Menu\000"
 1327      204D656E 
 1327      7500
 1328              	.LC94:
 1329 0148 53657474 		.ascii	"Settings\000"
 1329      696E6773 
 1329      00
 1330              	.LC95:
 1331 0151 496E666F 		.ascii	"Informations\000"
 1331      726D6174 
 1331      696F6E73 
 1331      00
 1332              	.LC96:
 1333 015e 53657474 		.ascii	"Settings Menu\000"
 1333      696E6773 
 1333      204D656E 
 1333      7500
 1334              	.LC97:
 1335 016c 46756E63 		.ascii	"Functions\000"
 1335      74696F6E 
 1335      7300
 1336              	.LC98:
 1337 0176 43757420 		.ascii	"Cut mode\000"
 1337      6D6F6465 
 1337      00
 1338              	.LC99:
 1339 017f 53686966 		.ascii	"Shifter sensor setup\000"
 1339      74657220 
 1339      73656E73 
 1339      6F722073 
 1339      65747570 
 1340              	.LC100:
 1341 0194 47656172 		.ascii	"Gears learn\000"
 1341      73206C65 
 1341      61726E00 
 1342              	.LC101:
 1343 01a0 546F6767 		.ascii	"Toggle Functions\000"
 1343      6C652046 
ARM GAS  /tmp/ccUwvvew.s 			page 26


 1343      756E6374 
 1343      696F6E73 
 1343      00
 1344              	.LC102:
 1345 01b1 53686966 		.ascii	"Shift light\000"
 1345      74206C69 
 1345      67687400 
 1346              	.LC103:
 1347 01bd 54726163 		.ascii	"Traction Control\000"
 1347      74696F6E 
 1347      20436F6E 
 1347      74726F6C 
 1347      00
 1348              		.section	.bss.display,"aw",%nobits
 1349              		.set	.LANCHOR2,. + 0
 1350              		.type	display, %object
 1351              		.size	display, 1
 1352              	display:
 1353 0000 00       		.space	1
 1354              		.section	.rodata.enabled,"a",%progbits
 1355              		.set	.LANCHOR1,. + 0
 1356              		.type	enabled, %object
 1357              		.size	enabled, 8
 1358              	enabled:
 1359 0000 456E6162 		.ascii	"Enabled\000"
 1359      6C656400 
 1360              		.section	.rodata.disabled,"a",%progbits
 1361              		.set	.LANCHOR0,. + 0
 1362              		.type	disabled, %object
 1363              		.size	disabled, 9
 1364              	disabled:
 1365 0000 44697361 		.ascii	"Disabled\000"
 1365      626C6564 
 1365      00
 1366              		.section	.rodata.mainMenu,"a",%progbits
 1367              		.align	2
 1368              		.set	.LANCHOR3,. + 0
 1369              		.type	mainMenu, %object
 1370              		.size	mainMenu, 12
 1371              	mainMenu:
 1372 0000 3E010000 		.word	.LC93
 1373 0004 0300     		.short	3
 1374 0006 0000     		.space	2
 1375 0008 00000000 		.word	mainMenuItemList
 1376              		.section	.rodata.version,"a",%progbits
 1377              		.set	.LANCHOR4,. + 0
 1378              		.type	version, %object
 1379              		.size	version, 4
 1380              	version:
 1381 0000 302E3100 		.ascii	"0.1\000"
 1382              		.text
 1383              	.Letext0:
 1384              		.file 2 "/media/data/src/x-tools/gcc-arm-none-eabi-4_7-2013q1/bin/../lib/gcc/arm-none-eabi/4.7.3/i
 1385              		.file 3 "/media/data/src/x-tools/gcc-arm-none-eabi-4_7-2013q1/bin/../lib/gcc/arm-none-eabi/4.7.3/.
 1386              		.file 4 "./os/nil/include/nil.h"
 1387              		.file 5 "./os/nil/ports/ARMCMx/compilers/GCC/niltypes.h"
 1388              		.file 6 "./os/nil/ports/ARMCMx/nilcore.h"
ARM GAS  /tmp/ccUwvvew.s 			page 27


 1389              		.file 7 "./os/nil/ports/ARMCMx/nilcore_v6m.h"
 1390              		.file 8 "./os/hal/ports/STM32/GPIOv2/pal_lld.h"
 1391              		.file 9 "inc/threads.h"
 1392              		.file 10 "inc/smallfonts.h"
 1393              		.file 11 "inc/menu.h"
 1394              		.file 12 "inc/ssd1306.h"
 1395              		.file 13 "/media/data/src/x-tools/gcc-arm-none-eabi-4_7-2013q1/bin/../lib/gcc/arm-none-eabi/4.7.3/
 1396              		.section	.debug_info,"",%progbits
 1397              	.Ldebug_info0:
 1398 0000 73110000 		.4byte	0x1173
 1399 0004 0200     		.2byte	0x2
 1400 0006 00000000 		.4byte	.Ldebug_abbrev0
 1401 000a 04       		.byte	0x4
 1402 000b 01       		.uleb128 0x1
 1403 000c 49030000 		.4byte	.LASF126
 1404 0010 01       		.byte	0x1
 1405 0011 1E000000 		.4byte	.LASF127
 1406 0015 1A050000 		.4byte	.LASF128
 1407 0019 00000000 		.4byte	.Ldebug_ranges0+0
 1408 001d 00000000 		.4byte	0
 1409 0021 00000000 		.4byte	0
 1410 0025 00000000 		.4byte	.Ldebug_line0
 1411 0029 02       		.uleb128 0x2
 1412 002a 04       		.byte	0x4
 1413 002b 05       		.byte	0x5
 1414 002c 696E7400 		.ascii	"int\000"
 1415 0030 03       		.uleb128 0x3
 1416 0031 17000000 		.4byte	.LASF2
 1417 0035 02       		.byte	0x2
 1418 0036 D5       		.byte	0xd5
 1419 0037 3B000000 		.4byte	0x3b
 1420 003b 04       		.uleb128 0x4
 1421 003c 04       		.byte	0x4
 1422 003d 07       		.byte	0x7
 1423 003e 99010000 		.4byte	.LASF0
 1424 0042 04       		.uleb128 0x4
 1425 0043 01       		.byte	0x1
 1426 0044 06       		.byte	0x6
 1427 0045 B2000000 		.4byte	.LASF1
 1428 0049 03       		.uleb128 0x3
 1429 004a F0040000 		.4byte	.LASF3
 1430 004e 03       		.byte	0x3
 1431 004f 2A       		.byte	0x2a
 1432 0050 54000000 		.4byte	0x54
 1433 0054 04       		.uleb128 0x4
 1434 0055 01       		.byte	0x1
 1435 0056 08       		.byte	0x8
 1436 0057 AD030000 		.4byte	.LASF4
 1437 005b 04       		.uleb128 0x4
 1438 005c 02       		.byte	0x2
 1439 005d 05       		.byte	0x5
 1440 005e 52020000 		.4byte	.LASF5
 1441 0062 03       		.uleb128 0x3
 1442 0063 1D010000 		.4byte	.LASF6
 1443 0067 03       		.byte	0x3
 1444 0068 36       		.byte	0x36
 1445 0069 6D000000 		.4byte	0x6d
ARM GAS  /tmp/ccUwvvew.s 			page 28


 1446 006d 04       		.uleb128 0x4
 1447 006e 02       		.byte	0x2
 1448 006f 07       		.byte	0x7
 1449 0070 0A020000 		.4byte	.LASF7
 1450 0074 03       		.uleb128 0x3
 1451 0075 A5030000 		.4byte	.LASF8
 1452 0079 03       		.byte	0x3
 1453 007a 4F       		.byte	0x4f
 1454 007b 7F000000 		.4byte	0x7f
 1455 007f 04       		.uleb128 0x4
 1456 0080 04       		.byte	0x4
 1457 0081 05       		.byte	0x5
 1458 0082 EF000000 		.4byte	.LASF9
 1459 0086 03       		.uleb128 0x3
 1460 0087 3C040000 		.4byte	.LASF10
 1461 008b 03       		.byte	0x3
 1462 008c 50       		.byte	0x50
 1463 008d 91000000 		.4byte	0x91
 1464 0091 04       		.uleb128 0x4
 1465 0092 04       		.byte	0x4
 1466 0093 07       		.byte	0x7
 1467 0094 CD010000 		.4byte	.LASF11
 1468 0098 04       		.uleb128 0x4
 1469 0099 08       		.byte	0x8
 1470 009a 05       		.byte	0x5
 1471 009b A4000000 		.4byte	.LASF12
 1472 009f 04       		.uleb128 0x4
 1473 00a0 08       		.byte	0x8
 1474 00a1 07       		.byte	0x7
 1475 00a2 67000000 		.4byte	.LASF13
 1476 00a6 05       		.uleb128 0x5
 1477 00a7 EC010000 		.4byte	.LASF25
 1478 00ab 14       		.byte	0x14
 1479 00ac 04       		.byte	0x4
 1480 00ad 1E01     		.2byte	0x11e
 1481 00af FE000000 		.4byte	0xfe
 1482 00b3 06       		.uleb128 0x6
 1483 00b4 EB040000 		.4byte	.LASF14
 1484 00b8 04       		.byte	0x4
 1485 00b9 1F01     		.2byte	0x11f
 1486 00bb 78020000 		.4byte	0x278
 1487 00bf 02       		.byte	0x2
 1488 00c0 23       		.byte	0x23
 1489 00c1 00       		.uleb128 0
 1490 00c2 06       		.uleb128 0x6
 1491 00c3 E9000000 		.4byte	.LASF15
 1492 00c7 04       		.byte	0x4
 1493 00c8 2001     		.2byte	0x120
 1494 00ca FE000000 		.4byte	0xfe
 1495 00ce 02       		.byte	0x2
 1496 00cf 23       		.byte	0x23
 1497 00d0 04       		.uleb128 0x4
 1498 00d1 07       		.uleb128 0x7
 1499 00d2 753100   		.ascii	"u1\000"
 1500 00d5 04       		.byte	0x4
 1501 00d6 2B01     		.2byte	0x12b
 1502 00d8 28020000 		.4byte	0x228
ARM GAS  /tmp/ccUwvvew.s 			page 29


 1503 00dc 02       		.byte	0x2
 1504 00dd 23       		.byte	0x23
 1505 00de 08       		.uleb128 0x8
 1506 00df 06       		.uleb128 0x6
 1507 00e0 DF010000 		.4byte	.LASF16
 1508 00e4 04       		.byte	0x4
 1509 00e5 2C01     		.2byte	0x12c
 1510 00e7 7E020000 		.4byte	0x27e
 1511 00eb 02       		.byte	0x2
 1512 00ec 23       		.byte	0x23
 1513 00ed 0C       		.uleb128 0xc
 1514 00ee 06       		.uleb128 0x6
 1515 00ef 02050000 		.4byte	.LASF17
 1516 00f3 04       		.byte	0x4
 1517 00f4 2F01     		.2byte	0x12f
 1518 00f6 14010000 		.4byte	0x114
 1519 00fa 02       		.byte	0x2
 1520 00fb 23       		.byte	0x23
 1521 00fc 10       		.uleb128 0x10
 1522 00fd 00       		.byte	0
 1523 00fe 03       		.uleb128 0x3
 1524 00ff F8000000 		.4byte	.LASF18
 1525 0103 05       		.byte	0x5
 1526 0104 37       		.byte	0x37
 1527 0105 49000000 		.4byte	0x49
 1528 0109 03       		.uleb128 0x3
 1529 010a 28020000 		.4byte	.LASF19
 1530 010e 05       		.byte	0x5
 1531 010f 38       		.byte	0x38
 1532 0110 74000000 		.4byte	0x74
 1533 0114 03       		.uleb128 0x3
 1534 0115 46020000 		.4byte	.LASF20
 1535 0119 05       		.byte	0x5
 1536 011a 39       		.byte	0x39
 1537 011b 86000000 		.4byte	0x86
 1538 011f 03       		.uleb128 0x3
 1539 0120 93010000 		.4byte	.LASF21
 1540 0124 05       		.byte	0x5
 1541 0125 3A       		.byte	0x3a
 1542 0126 74000000 		.4byte	0x74
 1543 012a 04       		.uleb128 0x4
 1544 012b 04       		.byte	0x4
 1545 012c 07       		.byte	0x7
 1546 012d BA020000 		.4byte	.LASF22
 1547 0131 08       		.uleb128 0x8
 1548 0132 86000000 		.4byte	0x86
 1549 0136 03       		.uleb128 0x3
 1550 0137 89040000 		.4byte	.LASF23
 1551 013b 06       		.byte	0x6
 1552 013c 77       		.byte	0x77
 1553 013d 62000000 		.4byte	0x62
 1554 0141 03       		.uleb128 0x3
 1555 0142 5E010000 		.4byte	.LASF24
 1556 0146 06       		.byte	0x6
 1557 0147 7D       		.byte	0x7d
 1558 0148 4C010000 		.4byte	0x14c
 1559 014c 09       		.uleb128 0x9
ARM GAS  /tmp/ccUwvvew.s 			page 30


 1560 014d 04       		.byte	0x4
 1561 014e 0A       		.uleb128 0xa
 1562 014f 33000000 		.4byte	.LASF26
 1563 0153 24       		.byte	0x24
 1564 0154 07       		.byte	0x7
 1565 0155 A4       		.byte	0xa4
 1566 0156 D2010000 		.4byte	0x1d2
 1567 015a 0B       		.uleb128 0xb
 1568 015b 723800   		.ascii	"r8\000"
 1569 015e 07       		.byte	0x7
 1570 015f A5       		.byte	0xa5
 1571 0160 41010000 		.4byte	0x141
 1572 0164 02       		.byte	0x2
 1573 0165 23       		.byte	0x23
 1574 0166 00       		.uleb128 0
 1575 0167 0B       		.uleb128 0xb
 1576 0168 723900   		.ascii	"r9\000"
 1577 016b 07       		.byte	0x7
 1578 016c A6       		.byte	0xa6
 1579 016d 41010000 		.4byte	0x141
 1580 0171 02       		.byte	0x2
 1581 0172 23       		.byte	0x23
 1582 0173 04       		.uleb128 0x4
 1583 0174 0B       		.uleb128 0xb
 1584 0175 72313000 		.ascii	"r10\000"
 1585 0179 07       		.byte	0x7
 1586 017a A7       		.byte	0xa7
 1587 017b 41010000 		.4byte	0x141
 1588 017f 02       		.byte	0x2
 1589 0180 23       		.byte	0x23
 1590 0181 08       		.uleb128 0x8
 1591 0182 0B       		.uleb128 0xb
 1592 0183 72313100 		.ascii	"r11\000"
 1593 0187 07       		.byte	0x7
 1594 0188 A8       		.byte	0xa8
 1595 0189 41010000 		.4byte	0x141
 1596 018d 02       		.byte	0x2
 1597 018e 23       		.byte	0x23
 1598 018f 0C       		.uleb128 0xc
 1599 0190 0B       		.uleb128 0xb
 1600 0191 723400   		.ascii	"r4\000"
 1601 0194 07       		.byte	0x7
 1602 0195 A9       		.byte	0xa9
 1603 0196 41010000 		.4byte	0x141
 1604 019a 02       		.byte	0x2
 1605 019b 23       		.byte	0x23
 1606 019c 10       		.uleb128 0x10
 1607 019d 0B       		.uleb128 0xb
 1608 019e 723500   		.ascii	"r5\000"
 1609 01a1 07       		.byte	0x7
 1610 01a2 AA       		.byte	0xaa
 1611 01a3 41010000 		.4byte	0x141
 1612 01a7 02       		.byte	0x2
 1613 01a8 23       		.byte	0x23
 1614 01a9 14       		.uleb128 0x14
 1615 01aa 0B       		.uleb128 0xb
 1616 01ab 723600   		.ascii	"r6\000"
ARM GAS  /tmp/ccUwvvew.s 			page 31


 1617 01ae 07       		.byte	0x7
 1618 01af AB       		.byte	0xab
 1619 01b0 41010000 		.4byte	0x141
 1620 01b4 02       		.byte	0x2
 1621 01b5 23       		.byte	0x23
 1622 01b6 18       		.uleb128 0x18
 1623 01b7 0B       		.uleb128 0xb
 1624 01b8 723700   		.ascii	"r7\000"
 1625 01bb 07       		.byte	0x7
 1626 01bc AC       		.byte	0xac
 1627 01bd 41010000 		.4byte	0x141
 1628 01c1 02       		.byte	0x2
 1629 01c2 23       		.byte	0x23
 1630 01c3 1C       		.uleb128 0x1c
 1631 01c4 0B       		.uleb128 0xb
 1632 01c5 6C7200   		.ascii	"lr\000"
 1633 01c8 07       		.byte	0x7
 1634 01c9 AD       		.byte	0xad
 1635 01ca 41010000 		.4byte	0x141
 1636 01ce 02       		.byte	0x2
 1637 01cf 23       		.byte	0x23
 1638 01d0 20       		.uleb128 0x20
 1639 01d1 00       		.byte	0
 1640 01d2 03       		.uleb128 0x3
 1641 01d3 CD000000 		.4byte	.LASF27
 1642 01d7 04       		.byte	0x4
 1643 01d8 F3       		.byte	0xf3
 1644 01d9 4E010000 		.4byte	0x14e
 1645 01dd 0C       		.uleb128 0xc
 1646 01de 04       		.byte	0x4
 1647 01df 04       		.byte	0x4
 1648 01e0 F8       		.byte	0xf8
 1649 01e1 F4010000 		.4byte	0x1f4
 1650 01e5 0B       		.uleb128 0xb
 1651 01e6 636E7400 		.ascii	"cnt\000"
 1652 01ea 04       		.byte	0x4
 1653 01eb F9       		.byte	0xf9
 1654 01ec F4010000 		.4byte	0x1f4
 1655 01f0 02       		.byte	0x2
 1656 01f1 23       		.byte	0x23
 1657 01f2 00       		.uleb128 0
 1658 01f3 00       		.byte	0
 1659 01f4 08       		.uleb128 0x8
 1660 01f5 1F010000 		.4byte	0x11f
 1661 01f9 03       		.uleb128 0x3
 1662 01fa 21040000 		.4byte	.LASF28
 1663 01fe 04       		.byte	0x4
 1664 01ff FA       		.byte	0xfa
 1665 0200 DD010000 		.4byte	0x1dd
 1666 0204 0D       		.uleb128 0xd
 1667 0205 04       		.byte	0x4
 1668 0206 0A020000 		.4byte	0x20a
 1669 020a 0E       		.uleb128 0xe
 1670 020b 0F020000 		.4byte	0x20f
 1671 020f 04       		.uleb128 0x4
 1672 0210 01       		.byte	0x1
 1673 0211 08       		.byte	0x8
ARM GAS  /tmp/ccUwvvew.s 			page 32


 1674 0212 67040000 		.4byte	.LASF29
 1675 0216 0F       		.uleb128 0xf
 1676 0217 C3020000 		.4byte	.LASF30
 1677 021b 04       		.byte	0x4
 1678 021c 1901     		.2byte	0x119
 1679 021e 22020000 		.4byte	0x222
 1680 0222 0D       		.uleb128 0xd
 1681 0223 04       		.byte	0x4
 1682 0224 A6000000 		.4byte	0xa6
 1683 0228 10       		.uleb128 0x10
 1684 0229 04       		.byte	0x4
 1685 022a 04       		.byte	0x4
 1686 022b 2301     		.2byte	0x123
 1687 022d 6C020000 		.4byte	0x26c
 1688 0231 11       		.uleb128 0x11
 1689 0232 6D736700 		.ascii	"msg\000"
 1690 0236 04       		.byte	0x4
 1691 0237 2401     		.2byte	0x124
 1692 0239 09010000 		.4byte	0x109
 1693 023d 11       		.uleb128 0x11
 1694 023e 7000     		.ascii	"p\000"
 1695 0240 04       		.byte	0x4
 1696 0241 2501     		.2byte	0x125
 1697 0243 4C010000 		.4byte	0x14c
 1698 0247 11       		.uleb128 0x11
 1699 0248 74727000 		.ascii	"trp\000"
 1700 024c 04       		.byte	0x4
 1701 024d 2601     		.2byte	0x126
 1702 024f 6C020000 		.4byte	0x26c
 1703 0253 12       		.uleb128 0x12
 1704 0254 2E020000 		.4byte	.LASF31
 1705 0258 04       		.byte	0x4
 1706 0259 2701     		.2byte	0x127
 1707 025b 72020000 		.4byte	0x272
 1708 025f 12       		.uleb128 0x12
 1709 0260 FD030000 		.4byte	.LASF32
 1710 0264 04       		.byte	0x4
 1711 0265 2901     		.2byte	0x129
 1712 0267 14010000 		.4byte	0x114
 1713 026b 00       		.byte	0
 1714 026c 0D       		.uleb128 0xd
 1715 026d 04       		.byte	0x4
 1716 026e 16020000 		.4byte	0x216
 1717 0272 0D       		.uleb128 0xd
 1718 0273 04       		.byte	0x4
 1719 0274 F9010000 		.4byte	0x1f9
 1720 0278 0D       		.uleb128 0xd
 1721 0279 04       		.byte	0x4
 1722 027a D2010000 		.4byte	0x1d2
 1723 027e 08       		.uleb128 0x8
 1724 027f 36010000 		.4byte	0x136
 1725 0283 13       		.uleb128 0x13
 1726 0284 98       		.byte	0x98
 1727 0285 04       		.byte	0x4
 1728 0286 3D01     		.2byte	0x13d
 1729 0288 C9020000 		.4byte	0x2c9
 1730 028c 06       		.uleb128 0x6
ARM GAS  /tmp/ccUwvvew.s 			page 33


 1731 028d 2D040000 		.4byte	.LASF33
 1732 0291 04       		.byte	0x4
 1733 0292 4101     		.2byte	0x141
 1734 0294 22020000 		.4byte	0x222
 1735 0298 02       		.byte	0x2
 1736 0299 23       		.byte	0x23
 1737 029a 00       		.uleb128 0
 1738 029b 06       		.uleb128 0x6
 1739 029c 97000000 		.4byte	.LASF34
 1740 02a0 04       		.byte	0x4
 1741 02a1 4701     		.2byte	0x147
 1742 02a3 22020000 		.4byte	0x222
 1743 02a7 02       		.byte	0x2
 1744 02a8 23       		.byte	0x23
 1745 02a9 04       		.uleb128 0x4
 1746 02aa 06       		.uleb128 0x6
 1747 02ab 3E020000 		.4byte	.LASF35
 1748 02af 04       		.byte	0x4
 1749 02b0 4C01     		.2byte	0x14c
 1750 02b2 36010000 		.4byte	0x136
 1751 02b6 02       		.byte	0x2
 1752 02b7 23       		.byte	0x23
 1753 02b8 08       		.uleb128 0x8
 1754 02b9 06       		.uleb128 0x6
 1755 02ba EB030000 		.4byte	.LASF36
 1756 02be 04       		.byte	0x4
 1757 02bf 5B01     		.2byte	0x15b
 1758 02c1 C9020000 		.4byte	0x2c9
 1759 02c5 02       		.byte	0x2
 1760 02c6 23       		.byte	0x23
 1761 02c7 0C       		.uleb128 0xc
 1762 02c8 00       		.byte	0
 1763 02c9 14       		.uleb128 0x14
 1764 02ca A6000000 		.4byte	0xa6
 1765 02ce D9020000 		.4byte	0x2d9
 1766 02d2 15       		.uleb128 0x15
 1767 02d3 2A010000 		.4byte	0x12a
 1768 02d7 06       		.byte	0x6
 1769 02d8 00       		.byte	0
 1770 02d9 0F       		.uleb128 0xf
 1771 02da 92030000 		.4byte	.LASF37
 1772 02de 04       		.byte	0x4
 1773 02df 6401     		.2byte	0x164
 1774 02e1 83020000 		.4byte	0x283
 1775 02e5 0D       		.uleb128 0xd
 1776 02e6 04       		.byte	0x4
 1777 02e7 EB020000 		.4byte	0x2eb
 1778 02eb 0E       		.uleb128 0xe
 1779 02ec 49000000 		.4byte	0x49
 1780 02f0 04       		.uleb128 0x4
 1781 02f1 01       		.byte	0x1
 1782 02f2 02       		.byte	0x2
 1783 02f3 9F030000 		.4byte	.LASF38
 1784 02f7 0C       		.uleb128 0xc
 1785 02f8 04       		.byte	0x4
 1786 02f9 08       		.byte	0x8
 1787 02fa A5       		.byte	0xa5
ARM GAS  /tmp/ccUwvvew.s 			page 34


 1788 02fb 1C030000 		.4byte	0x31c
 1789 02ff 0B       		.uleb128 0xb
 1790 0300 73657400 		.ascii	"set\000"
 1791 0304 08       		.byte	0x8
 1792 0305 A6       		.byte	0xa6
 1793 0306 62000000 		.4byte	0x62
 1794 030a 02       		.byte	0x2
 1795 030b 23       		.byte	0x23
 1796 030c 00       		.uleb128 0
 1797 030d 16       		.uleb128 0x16
 1798 030e D6020000 		.4byte	.LASF39
 1799 0312 08       		.byte	0x8
 1800 0313 A7       		.byte	0xa7
 1801 0314 62000000 		.4byte	0x62
 1802 0318 02       		.byte	0x2
 1803 0319 23       		.byte	0x23
 1804 031a 02       		.uleb128 0x2
 1805 031b 00       		.byte	0
 1806 031c 17       		.uleb128 0x17
 1807 031d 04       		.byte	0x4
 1808 031e 08       		.byte	0x8
 1809 031f A3       		.byte	0xa3
 1810 0320 37030000 		.4byte	0x337
 1811 0324 18       		.uleb128 0x18
 1812 0325 5700     		.ascii	"W\000"
 1813 0327 08       		.byte	0x8
 1814 0328 A4       		.byte	0xa4
 1815 0329 86000000 		.4byte	0x86
 1816 032d 18       		.uleb128 0x18
 1817 032e 4800     		.ascii	"H\000"
 1818 0330 08       		.byte	0x8
 1819 0331 A8       		.byte	0xa8
 1820 0332 F7020000 		.4byte	0x2f7
 1821 0336 00       		.byte	0
 1822 0337 0C       		.uleb128 0xc
 1823 0338 2C       		.byte	0x2c
 1824 0339 08       		.byte	0x8
 1825 033a 9B       		.byte	0x9b
 1826 033b DA030000 		.4byte	0x3da
 1827 033f 16       		.uleb128 0x16
 1828 0340 A6010000 		.4byte	.LASF40
 1829 0344 08       		.byte	0x8
 1830 0345 9D       		.byte	0x9d
 1831 0346 31010000 		.4byte	0x131
 1832 034a 02       		.byte	0x2
 1833 034b 23       		.byte	0x23
 1834 034c 00       		.uleb128 0
 1835 034d 16       		.uleb128 0x16
 1836 034e 2C000000 		.4byte	.LASF41
 1837 0352 08       		.byte	0x8
 1838 0353 9E       		.byte	0x9e
 1839 0354 31010000 		.4byte	0x131
 1840 0358 02       		.byte	0x2
 1841 0359 23       		.byte	0x23
 1842 035a 04       		.uleb128 0x4
 1843 035b 16       		.uleb128 0x16
 1844 035c 56010000 		.4byte	.LASF42
ARM GAS  /tmp/ccUwvvew.s 			page 35


 1845 0360 08       		.byte	0x8
 1846 0361 9F       		.byte	0x9f
 1847 0362 31010000 		.4byte	0x131
 1848 0366 02       		.byte	0x2
 1849 0367 23       		.byte	0x23
 1850 0368 08       		.uleb128 0x8
 1851 0369 16       		.uleb128 0x16
 1852 036a 7E000000 		.4byte	.LASF43
 1853 036e 08       		.byte	0x8
 1854 036f A0       		.byte	0xa0
 1855 0370 31010000 		.4byte	0x131
 1856 0374 02       		.byte	0x2
 1857 0375 23       		.byte	0x23
 1858 0376 0C       		.uleb128 0xc
 1859 0377 0B       		.uleb128 0xb
 1860 0378 49445200 		.ascii	"IDR\000"
 1861 037c 08       		.byte	0x8
 1862 037d A1       		.byte	0xa1
 1863 037e 31010000 		.4byte	0x131
 1864 0382 02       		.byte	0x2
 1865 0383 23       		.byte	0x23
 1866 0384 10       		.uleb128 0x10
 1867 0385 0B       		.uleb128 0xb
 1868 0386 4F445200 		.ascii	"ODR\000"
 1869 038a 08       		.byte	0x8
 1870 038b A2       		.byte	0xa2
 1871 038c 31010000 		.4byte	0x131
 1872 0390 02       		.byte	0x2
 1873 0391 23       		.byte	0x23
 1874 0392 14       		.uleb128 0x14
 1875 0393 16       		.uleb128 0x16
 1876 0394 BE000000 		.4byte	.LASF44
 1877 0398 08       		.byte	0x8
 1878 0399 A9       		.byte	0xa9
 1879 039a DA030000 		.4byte	0x3da
 1880 039e 02       		.byte	0x2
 1881 039f 23       		.byte	0x23
 1882 03a0 18       		.uleb128 0x18
 1883 03a1 16       		.uleb128 0x16
 1884 03a2 E7010000 		.4byte	.LASF45
 1885 03a6 08       		.byte	0x8
 1886 03a7 AA       		.byte	0xaa
 1887 03a8 31010000 		.4byte	0x131
 1888 03ac 02       		.byte	0x2
 1889 03ad 23       		.byte	0x23
 1890 03ae 1C       		.uleb128 0x1c
 1891 03af 16       		.uleb128 0x16
 1892 03b0 2D030000 		.4byte	.LASF46
 1893 03b4 08       		.byte	0x8
 1894 03b5 AB       		.byte	0xab
 1895 03b6 31010000 		.4byte	0x131
 1896 03ba 02       		.byte	0x2
 1897 03bb 23       		.byte	0x23
 1898 03bc 20       		.uleb128 0x20
 1899 03bd 16       		.uleb128 0x16
 1900 03be 63050000 		.4byte	.LASF47
 1901 03c2 08       		.byte	0x8
ARM GAS  /tmp/ccUwvvew.s 			page 36


 1902 03c3 AC       		.byte	0xac
 1903 03c4 31010000 		.4byte	0x131
 1904 03c8 02       		.byte	0x2
 1905 03c9 23       		.byte	0x23
 1906 03ca 24       		.uleb128 0x24
 1907 03cb 0B       		.uleb128 0xb
 1908 03cc 42525200 		.ascii	"BRR\000"
 1909 03d0 08       		.byte	0x8
 1910 03d1 AD       		.byte	0xad
 1911 03d2 31010000 		.4byte	0x131
 1912 03d6 02       		.byte	0x2
 1913 03d7 23       		.byte	0x23
 1914 03d8 28       		.uleb128 0x28
 1915 03d9 00       		.byte	0
 1916 03da 08       		.uleb128 0x8
 1917 03db 1C030000 		.4byte	0x31c
 1918 03df 03       		.uleb128 0x3
 1919 03e0 67010000 		.4byte	.LASF48
 1920 03e4 08       		.byte	0x8
 1921 03e5 AE       		.byte	0xae
 1922 03e6 37030000 		.4byte	0x337
 1923 03ea 03       		.uleb128 0x3
 1924 03eb F1020000 		.4byte	.LASF49
 1925 03ef 08       		.byte	0x8
 1926 03f0 F8       		.byte	0xf8
 1927 03f1 86000000 		.4byte	0x86
 1928 03f5 0C       		.uleb128 0xc
 1929 03f6 24       		.byte	0x24
 1930 03f7 09       		.byte	0x9
 1931 03f8 65       		.byte	0x65
 1932 03f9 98040000 		.4byte	0x498
 1933 03fd 16       		.uleb128 0x16
 1934 03fe 8D000000 		.4byte	.LASF50
 1935 0402 09       		.byte	0x9
 1936 0403 66       		.byte	0x66
 1937 0404 49000000 		.4byte	0x49
 1938 0408 02       		.byte	0x2
 1939 0409 23       		.byte	0x23
 1940 040a 00       		.uleb128 0
 1941 040b 16       		.uleb128 0x16
 1942 040c 84000000 		.4byte	.LASF51
 1943 0410 09       		.byte	0x9
 1944 0411 67       		.byte	0x67
 1945 0412 49000000 		.4byte	0x49
 1946 0416 02       		.byte	0x2
 1947 0417 23       		.byte	0x23
 1948 0418 01       		.uleb128 0x1
 1949 0419 16       		.uleb128 0x16
 1950 041a 09050000 		.4byte	.LASF52
 1951 041e 09       		.byte	0x9
 1952 041f 68       		.byte	0x68
 1953 0420 62000000 		.4byte	0x62
 1954 0424 02       		.byte	0x2
 1955 0425 23       		.byte	0x23
 1956 0426 02       		.uleb128 0x2
 1957 0427 16       		.uleb128 0x16
 1958 0428 12040000 		.4byte	.LASF53
ARM GAS  /tmp/ccUwvvew.s 			page 37


 1959 042c 09       		.byte	0x9
 1960 042d 69       		.byte	0x69
 1961 042e 62000000 		.4byte	0x62
 1962 0432 02       		.byte	0x2
 1963 0433 23       		.byte	0x23
 1964 0434 04       		.uleb128 0x4
 1965 0435 16       		.uleb128 0x16
 1966 0436 93040000 		.4byte	.LASF54
 1967 043a 09       		.byte	0x9
 1968 043b 6A       		.byte	0x6a
 1969 043c 49000000 		.4byte	0x49
 1970 0440 02       		.byte	0x2
 1971 0441 23       		.byte	0x23
 1972 0442 06       		.uleb128 0x6
 1973 0443 16       		.uleb128 0x16
 1974 0444 B3010000 		.4byte	.LASF55
 1975 0448 09       		.byte	0x9
 1976 0449 6B       		.byte	0x6b
 1977 044a 49000000 		.4byte	0x49
 1978 044e 02       		.byte	0x2
 1979 044f 23       		.byte	0x23
 1980 0450 07       		.uleb128 0x7
 1981 0451 16       		.uleb128 0x16
 1982 0452 FE020000 		.4byte	.LASF56
 1983 0456 09       		.byte	0x9
 1984 0457 6C       		.byte	0x6c
 1985 0458 62000000 		.4byte	0x62
 1986 045c 02       		.byte	0x2
 1987 045d 23       		.byte	0x23
 1988 045e 08       		.uleb128 0x8
 1989 045f 16       		.uleb128 0x16
 1990 0460 BB040000 		.4byte	.LASF57
 1991 0464 09       		.byte	0x9
 1992 0465 6D       		.byte	0x6d
 1993 0466 62000000 		.4byte	0x62
 1994 046a 02       		.byte	0x2
 1995 046b 23       		.byte	0x23
 1996 046c 0A       		.uleb128 0xa
 1997 046d 16       		.uleb128 0x16
 1998 046e 79050000 		.4byte	.LASF58
 1999 0472 09       		.byte	0x9
 2000 0473 6E       		.byte	0x6e
 2001 0474 98040000 		.4byte	0x498
 2002 0478 02       		.byte	0x2
 2003 0479 23       		.byte	0x23
 2004 047a 0C       		.uleb128 0xc
 2005 047b 16       		.uleb128 0x16
 2006 047c 7A040000 		.4byte	.LASF59
 2007 0480 09       		.byte	0x9
 2008 0481 6F       		.byte	0x6f
 2009 0482 A8040000 		.4byte	0x4a8
 2010 0486 02       		.byte	0x2
 2011 0487 23       		.byte	0x23
 2012 0488 18       		.uleb128 0x18
 2013 0489 16       		.uleb128 0x16
 2014 048a 44000000 		.4byte	.LASF60
 2015 048e 09       		.byte	0x9
ARM GAS  /tmp/ccUwvvew.s 			page 38


 2016 048f 70       		.byte	0x70
 2017 0490 B8040000 		.4byte	0x4b8
 2018 0494 02       		.byte	0x2
 2019 0495 23       		.byte	0x23
 2020 0496 1D       		.uleb128 0x1d
 2021 0497 00       		.byte	0
 2022 0498 14       		.uleb128 0x14
 2023 0499 62000000 		.4byte	0x62
 2024 049d A8040000 		.4byte	0x4a8
 2025 04a1 15       		.uleb128 0x15
 2026 04a2 2A010000 		.4byte	0x12a
 2027 04a6 05       		.byte	0x5
 2028 04a7 00       		.byte	0
 2029 04a8 14       		.uleb128 0x14
 2030 04a9 49000000 		.4byte	0x49
 2031 04ad B8040000 		.4byte	0x4b8
 2032 04b1 15       		.uleb128 0x15
 2033 04b2 2A010000 		.4byte	0x12a
 2034 04b6 04       		.byte	0x4
 2035 04b7 00       		.byte	0
 2036 04b8 14       		.uleb128 0x14
 2037 04b9 49000000 		.4byte	0x49
 2038 04bd C8040000 		.4byte	0x4c8
 2039 04c1 15       		.uleb128 0x15
 2040 04c2 2A010000 		.4byte	0x12a
 2041 04c6 05       		.byte	0x5
 2042 04c7 00       		.byte	0
 2043 04c8 0A       		.uleb128 0xa
 2044 04c9 33020000 		.4byte	.LASF61
 2045 04cd 28       		.byte	0x28
 2046 04ce 09       		.byte	0x9
 2047 04cf 63       		.byte	0x63
 2048 04d0 F1040000 		.4byte	0x4f1
 2049 04d4 16       		.uleb128 0x16
 2050 04d5 05020000 		.4byte	.LASF62
 2051 04d9 09       		.byte	0x9
 2052 04da 71       		.byte	0x71
 2053 04db F5030000 		.4byte	0x3f5
 2054 04df 02       		.byte	0x2
 2055 04e0 23       		.byte	0x23
 2056 04e1 00       		.uleb128 0
 2057 04e2 16       		.uleb128 0x16
 2058 04e3 E2040000 		.4byte	.LASF63
 2059 04e7 09       		.byte	0x9
 2060 04e8 72       		.byte	0x72
 2061 04e9 86000000 		.4byte	0x86
 2062 04ed 02       		.byte	0x2
 2063 04ee 23       		.byte	0x23
 2064 04ef 24       		.uleb128 0x24
 2065 04f0 00       		.byte	0
 2066 04f1 03       		.uleb128 0x3
 2067 04f2 73020000 		.4byte	.LASF64
 2068 04f6 09       		.byte	0x9
 2069 04f7 74       		.byte	0x74
 2070 04f8 C8040000 		.4byte	0x4c8
 2071 04fc 0A       		.uleb128 0xa
 2072 04fd 69020000 		.4byte	.LASF65
ARM GAS  /tmp/ccUwvvew.s 			page 39


 2073 0501 01       		.byte	0x1
 2074 0502 09       		.byte	0x9
 2075 0503 BB       		.byte	0xbb
 2076 0504 17050000 		.4byte	0x517
 2077 0508 16       		.uleb128 0x16
 2078 0509 E9000000 		.4byte	.LASF15
 2079 050d 09       		.byte	0x9
 2080 050e BC       		.byte	0xbc
 2081 050f 49000000 		.4byte	0x49
 2082 0513 02       		.byte	0x2
 2083 0514 23       		.byte	0x23
 2084 0515 00       		.uleb128 0
 2085 0516 00       		.byte	0
 2086 0517 03       		.uleb128 0x3
 2087 0518 23030000 		.4byte	.LASF66
 2088 051c 09       		.byte	0x9
 2089 051d BE       		.byte	0xbe
 2090 051e FC040000 		.4byte	0x4fc
 2091 0522 0A       		.uleb128 0xa
 2092 0523 F8040000 		.4byte	.LASF67
 2093 0527 0A       		.byte	0xa
 2094 0528 09       		.byte	0x9
 2095 0529 C9       		.byte	0xc9
 2096 052a 75050000 		.4byte	0x575
 2097 052e 0B       		.uleb128 0xb
 2098 052f 72706D00 		.ascii	"rpm\000"
 2099 0533 09       		.byte	0x9
 2100 0534 CA       		.byte	0xca
 2101 0535 62000000 		.4byte	0x62
 2102 0539 02       		.byte	0x2
 2103 053a 23       		.byte	0x23
 2104 053b 00       		.uleb128 0
 2105 053c 16       		.uleb128 0x16
 2106 053d 54050000 		.4byte	.LASF68
 2107 0541 09       		.byte	0x9
 2108 0542 CB       		.byte	0xcb
 2109 0543 62000000 		.4byte	0x62
 2110 0547 02       		.byte	0x2
 2111 0548 23       		.byte	0x23
 2112 0549 02       		.uleb128 0x2
 2113 054a 16       		.uleb128 0x16
 2114 054b D5030000 		.4byte	.LASF69
 2115 054f 09       		.byte	0x9
 2116 0550 CC       		.byte	0xcc
 2117 0551 62000000 		.4byte	0x62
 2118 0555 02       		.byte	0x2
 2119 0556 23       		.byte	0x23
 2120 0557 04       		.uleb128 0x4
 2121 0558 16       		.uleb128 0x16
 2122 0559 00000000 		.4byte	.LASF70
 2123 055d 09       		.byte	0x9
 2124 055e CD       		.byte	0xcd
 2125 055f 62000000 		.4byte	0x62
 2126 0563 02       		.byte	0x2
 2127 0564 23       		.byte	0x23
 2128 0565 06       		.uleb128 0x6
 2129 0566 16       		.uleb128 0x16
ARM GAS  /tmp/ccUwvvew.s 			page 40


 2130 0567 3F000000 		.4byte	.LASF71
 2131 056b 09       		.byte	0x9
 2132 056c CE       		.byte	0xce
 2133 056d 62000000 		.4byte	0x62
 2134 0571 02       		.byte	0x2
 2135 0572 23       		.byte	0x23
 2136 0573 08       		.uleb128 0x8
 2137 0574 00       		.byte	0
 2138 0575 03       		.uleb128 0x3
 2139 0576 34010000 		.4byte	.LASF72
 2140 057a 09       		.byte	0x9
 2141 057b D0       		.byte	0xd0
 2142 057c 22050000 		.4byte	0x522
 2143 0580 0A       		.uleb128 0xa
 2144 0581 51000000 		.4byte	.LASF73
 2145 0585 08       		.byte	0x8
 2146 0586 0A       		.byte	0xa
 2147 0587 2F       		.byte	0x2f
 2148 0588 D3050000 		.4byte	0x5d3
 2149 058c 16       		.uleb128 0x16
 2150 058d CD030000 		.4byte	.LASF74
 2151 0591 0A       		.byte	0xa
 2152 0592 31       		.byte	0x31
 2153 0593 49000000 		.4byte	0x49
 2154 0597 02       		.byte	0x2
 2155 0598 23       		.byte	0x23
 2156 0599 00       		.uleb128 0
 2157 059a 16       		.uleb128 0x16
 2158 059b C4030000 		.4byte	.LASF75
 2159 059f 0A       		.byte	0xa
 2160 05a0 32       		.byte	0x32
 2161 05a1 49000000 		.4byte	0x49
 2162 05a5 02       		.byte	0x2
 2163 05a6 23       		.byte	0x23
 2164 05a7 01       		.uleb128 0x1
 2165 05a8 16       		.uleb128 0x16
 2166 05a9 7C010000 		.4byte	.LASF76
 2167 05ad 0A       		.byte	0xa
 2168 05ae 33       		.byte	0x33
 2169 05af 49000000 		.4byte	0x49
 2170 05b3 02       		.byte	0x2
 2171 05b4 23       		.byte	0x23
 2172 05b5 02       		.uleb128 0x2
 2173 05b6 16       		.uleb128 0x16
 2174 05b7 01010000 		.4byte	.LASF77
 2175 05bb 0A       		.byte	0xa
 2176 05bc 34       		.byte	0x34
 2177 05bd 49000000 		.4byte	0x49
 2178 05c1 02       		.byte	0x2
 2179 05c2 23       		.byte	0x23
 2180 05c3 03       		.uleb128 0x3
 2181 05c4 16       		.uleb128 0x16
 2182 05c5 0A000000 		.4byte	.LASF78
 2183 05c9 0A       		.byte	0xa
 2184 05ca 35       		.byte	0x35
 2185 05cb E5020000 		.4byte	0x2e5
 2186 05cf 02       		.byte	0x2
ARM GAS  /tmp/ccUwvvew.s 			page 41


 2187 05d0 23       		.byte	0x23
 2188 05d1 04       		.uleb128 0x4
 2189 05d2 00       		.byte	0
 2190 05d3 03       		.uleb128 0x3
 2191 05d4 AE040000 		.4byte	.LASF79
 2192 05d8 0B       		.byte	0xb
 2193 05d9 05       		.byte	0x5
 2194 05da DE050000 		.4byte	0x5de
 2195 05de 0E       		.uleb128 0xe
 2196 05df E3050000 		.4byte	0x5e3
 2197 05e3 0A       		.uleb128 0xa
 2198 05e4 5C020000 		.4byte	.LASF80
 2199 05e8 0C       		.byte	0xc
 2200 05e9 0B       		.byte	0xb
 2201 05ea 11       		.byte	0x11
 2202 05eb 1A060000 		.4byte	0x61a
 2203 05ef 16       		.uleb128 0x16
 2204 05f0 87020000 		.4byte	.LASF81
 2205 05f4 0B       		.byte	0xb
 2206 05f5 13       		.byte	0x13
 2207 05f6 51060000 		.4byte	0x651
 2208 05fa 02       		.byte	0x2
 2209 05fb 23       		.byte	0x23
 2210 05fc 00       		.uleb128 0
 2211 05fd 16       		.uleb128 0x16
 2212 05fe DC020000 		.4byte	.LASF82
 2213 0602 0B       		.byte	0xb
 2214 0603 14       		.byte	0x14
 2215 0604 6D000000 		.4byte	0x6d
 2216 0608 02       		.byte	0x2
 2217 0609 23       		.byte	0x23
 2218 060a 04       		.uleb128 0x4
 2219 060b 16       		.uleb128 0x16
 2220 060c 68050000 		.4byte	.LASF83
 2221 0610 0B       		.byte	0xb
 2222 0611 15       		.byte	0x15
 2223 0612 75060000 		.4byte	0x675
 2224 0616 02       		.byte	0x2
 2225 0617 23       		.byte	0x23
 2226 0618 08       		.uleb128 0x8
 2227 0619 00       		.byte	0
 2228 061a 0A       		.uleb128 0xa
 2229 061b 1D020000 		.4byte	.LASF84
 2230 061f 0C       		.byte	0xc
 2231 0620 0B       		.byte	0xb
 2232 0621 08       		.byte	0x8
 2233 0622 51060000 		.4byte	0x651
 2234 0626 16       		.uleb128 0x16
 2235 0627 E2030000 		.4byte	.LASF85
 2236 062b 0B       		.byte	0xb
 2237 062c 0A       		.byte	0xa
 2238 062d 51060000 		.4byte	0x651
 2239 0631 02       		.byte	0x2
 2240 0632 23       		.byte	0x23
 2241 0633 00       		.uleb128 0
 2242 0634 16       		.uleb128 0x16
 2243 0635 90020000 		.4byte	.LASF86
ARM GAS  /tmp/ccUwvvew.s 			page 42


 2244 0639 0B       		.byte	0xb
 2245 063a 0B       		.byte	0xb
 2246 063b 59060000 		.4byte	0x659
 2247 063f 02       		.byte	0x2
 2248 0640 23       		.byte	0x23
 2249 0641 04       		.uleb128 0x4
 2250 0642 16       		.uleb128 0x16
 2251 0643 9C000000 		.4byte	.LASF87
 2252 0647 0B       		.byte	0xb
 2253 0648 0C       		.byte	0xc
 2254 0649 5F060000 		.4byte	0x65f
 2255 064d 02       		.byte	0x2
 2256 064e 23       		.byte	0x23
 2257 064f 08       		.uleb128 0x8
 2258 0650 00       		.byte	0
 2259 0651 0D       		.uleb128 0xd
 2260 0652 04       		.byte	0x4
 2261 0653 0F020000 		.4byte	0x20f
 2262 0657 19       		.uleb128 0x19
 2263 0658 01       		.byte	0x1
 2264 0659 0D       		.uleb128 0xd
 2265 065a 04       		.byte	0x4
 2266 065b 57060000 		.4byte	0x657
 2267 065f 0D       		.uleb128 0xd
 2268 0660 04       		.byte	0x4
 2269 0661 D3050000 		.4byte	0x5d3
 2270 0665 03       		.uleb128 0x3
 2271 0666 37050000 		.4byte	.LASF88
 2272 066a 0B       		.byte	0xb
 2273 066b 0E       		.byte	0xe
 2274 066c 70060000 		.4byte	0x670
 2275 0670 0E       		.uleb128 0xe
 2276 0671 1A060000 		.4byte	0x61a
 2277 0675 0D       		.uleb128 0xd
 2278 0676 04       		.byte	0x4
 2279 0677 65060000 		.4byte	0x665
 2280 067b 14       		.uleb128 0x14
 2281 067c 0F020000 		.4byte	0x20f
 2282 0680 8B060000 		.4byte	0x68b
 2283 0684 15       		.uleb128 0x15
 2284 0685 2A010000 		.4byte	0x12a
 2285 0689 07       		.byte	0x7
 2286 068a 00       		.byte	0
 2287 068b 1A       		.uleb128 0x1a
 2288 068c 01       		.byte	0x1
 2289 068d 7E020000 		.4byte	.LASF89
 2290 0691 01       		.byte	0x1
 2291 0692 2D01     		.2byte	0x12d
 2292 0694 01       		.byte	0x1
 2293 0695 00000000 		.4byte	.LFB86
 2294 0699 60000000 		.4byte	.LFE86
 2295 069d 00000000 		.4byte	.LLST0
 2296 06a1 01       		.byte	0x1
 2297 06a2 F6060000 		.4byte	0x6f6
 2298 06a6 1B       		.uleb128 0x1b
 2299 06a7 14000000 		.4byte	.LVL0
 2300 06ab 99100000 		.4byte	0x1099
ARM GAS  /tmp/ccUwvvew.s 			page 43


 2301 06af C7060000 		.4byte	0x6c7
 2302 06b3 1C       		.uleb128 0x1c
 2303 06b4 01       		.byte	0x1
 2304 06b5 52       		.byte	0x52
 2305 06b6 05       		.byte	0x5
 2306 06b7 03       		.byte	0x3
 2307 06b8 00000000 		.4byte	.LC0
 2308 06bc 1C       		.uleb128 0x1c
 2309 06bd 01       		.byte	0x1
 2310 06be 51       		.byte	0x51
 2311 06bf 01       		.byte	0x1
 2312 06c0 30       		.byte	0x30
 2313 06c1 1C       		.uleb128 0x1c
 2314 06c2 01       		.byte	0x1
 2315 06c3 50       		.byte	0x50
 2316 06c4 01       		.byte	0x1
 2317 06c5 3A       		.byte	0x3a
 2318 06c6 00       		.byte	0
 2319 06c7 1D       		.uleb128 0x1d
 2320 06c8 30000000 		.4byte	.LVL1
 2321 06cc 99100000 		.4byte	0x1099
 2322 06d0 1B       		.uleb128 0x1b
 2323 06d1 3E000000 		.4byte	.LVL2
 2324 06d5 BC100000 		.4byte	0x10bc
 2325 06d9 E4060000 		.4byte	0x6e4
 2326 06dd 1C       		.uleb128 0x1c
 2327 06de 01       		.byte	0x1
 2328 06df 50       		.byte	0x50
 2329 06e0 02       		.byte	0x2
 2330 06e1 75       		.byte	0x75
 2331 06e2 00       		.sleb128 0
 2332 06e3 00       		.byte	0
 2333 06e4 1E       		.uleb128 0x1e
 2334 06e5 44000000 		.4byte	.LVL3
 2335 06e9 DA100000 		.4byte	0x10da
 2336 06ed 1C       		.uleb128 0x1c
 2337 06ee 01       		.byte	0x1
 2338 06ef 50       		.byte	0x50
 2339 06f0 03       		.byte	0x3
 2340 06f1 0A       		.byte	0xa
 2341 06f2 1027     		.2byte	0x2710
 2342 06f4 00       		.byte	0
 2343 06f5 00       		.byte	0
 2344 06f6 1A       		.uleb128 0x1a
 2345 06f7 01       		.byte	0x1
 2346 06f8 6C040000 		.4byte	.LASF90
 2347 06fc 01       		.byte	0x1
 2348 06fd 1D01     		.2byte	0x11d
 2349 06ff 01       		.byte	0x1
 2350 0700 00000000 		.4byte	.LFB85
 2351 0704 60000000 		.4byte	.LFE85
 2352 0708 20000000 		.4byte	.LLST1
 2353 070c 01       		.byte	0x1
 2354 070d 61070000 		.4byte	0x761
 2355 0711 1B       		.uleb128 0x1b
 2356 0712 14000000 		.4byte	.LVL4
 2357 0716 99100000 		.4byte	0x1099
ARM GAS  /tmp/ccUwvvew.s 			page 44


 2358 071a 32070000 		.4byte	0x732
 2359 071e 1C       		.uleb128 0x1c
 2360 071f 01       		.byte	0x1
 2361 0720 52       		.byte	0x52
 2362 0721 05       		.byte	0x5
 2363 0722 03       		.byte	0x3
 2364 0723 11000000 		.4byte	.LC6
 2365 0727 1C       		.uleb128 0x1c
 2366 0728 01       		.byte	0x1
 2367 0729 51       		.byte	0x51
 2368 072a 01       		.byte	0x1
 2369 072b 30       		.byte	0x30
 2370 072c 1C       		.uleb128 0x1c
 2371 072d 01       		.byte	0x1
 2372 072e 50       		.byte	0x50
 2373 072f 01       		.byte	0x1
 2374 0730 3A       		.byte	0x3a
 2375 0731 00       		.byte	0
 2376 0732 1D       		.uleb128 0x1d
 2377 0733 30000000 		.4byte	.LVL5
 2378 0737 99100000 		.4byte	0x1099
 2379 073b 1B       		.uleb128 0x1b
 2380 073c 3E000000 		.4byte	.LVL6
 2381 0740 BC100000 		.4byte	0x10bc
 2382 0744 4F070000 		.4byte	0x74f
 2383 0748 1C       		.uleb128 0x1c
 2384 0749 01       		.byte	0x1
 2385 074a 50       		.byte	0x50
 2386 074b 02       		.byte	0x2
 2387 074c 75       		.byte	0x75
 2388 074d 00       		.sleb128 0
 2389 074e 00       		.byte	0
 2390 074f 1E       		.uleb128 0x1e
 2391 0750 44000000 		.4byte	.LVL7
 2392 0754 DA100000 		.4byte	0x10da
 2393 0758 1C       		.uleb128 0x1c
 2394 0759 01       		.byte	0x1
 2395 075a 50       		.byte	0x50
 2396 075b 03       		.byte	0x3
 2397 075c 0A       		.byte	0xa
 2398 075d 1027     		.2byte	0x2710
 2399 075f 00       		.byte	0
 2400 0760 00       		.byte	0
 2401 0761 1A       		.uleb128 0x1a
 2402 0762 01       		.byte	0x1
 2403 0763 C3000000 		.4byte	.LASF91
 2404 0767 01       		.byte	0x1
 2405 0768 0D01     		.2byte	0x10d
 2406 076a 01       		.byte	0x1
 2407 076b 00000000 		.4byte	.LFB84
 2408 076f 60000000 		.4byte	.LFE84
 2409 0773 40000000 		.4byte	.LLST2
 2410 0777 01       		.byte	0x1
 2411 0778 CC070000 		.4byte	0x7cc
 2412 077c 1B       		.uleb128 0x1b
 2413 077d 14000000 		.4byte	.LVL8
 2414 0781 99100000 		.4byte	0x1099
ARM GAS  /tmp/ccUwvvew.s 			page 45


 2415 0785 9D070000 		.4byte	0x79d
 2416 0789 1C       		.uleb128 0x1c
 2417 078a 01       		.byte	0x1
 2418 078b 52       		.byte	0x52
 2419 078c 05       		.byte	0x5
 2420 078d 03       		.byte	0x3
 2421 078e 19000000 		.4byte	.LC12
 2422 0792 1C       		.uleb128 0x1c
 2423 0793 01       		.byte	0x1
 2424 0794 51       		.byte	0x51
 2425 0795 01       		.byte	0x1
 2426 0796 30       		.byte	0x30
 2427 0797 1C       		.uleb128 0x1c
 2428 0798 01       		.byte	0x1
 2429 0799 50       		.byte	0x50
 2430 079a 01       		.byte	0x1
 2431 079b 3A       		.byte	0x3a
 2432 079c 00       		.byte	0
 2433 079d 1D       		.uleb128 0x1d
 2434 079e 30000000 		.4byte	.LVL9
 2435 07a2 99100000 		.4byte	0x1099
 2436 07a6 1B       		.uleb128 0x1b
 2437 07a7 3E000000 		.4byte	.LVL10
 2438 07ab BC100000 		.4byte	0x10bc
 2439 07af BA070000 		.4byte	0x7ba
 2440 07b3 1C       		.uleb128 0x1c
 2441 07b4 01       		.byte	0x1
 2442 07b5 50       		.byte	0x50
 2443 07b6 02       		.byte	0x2
 2444 07b7 75       		.byte	0x75
 2445 07b8 00       		.sleb128 0
 2446 07b9 00       		.byte	0
 2447 07ba 1E       		.uleb128 0x1e
 2448 07bb 44000000 		.4byte	.LVL11
 2449 07bf DA100000 		.4byte	0x10da
 2450 07c3 1C       		.uleb128 0x1c
 2451 07c4 01       		.byte	0x1
 2452 07c5 50       		.byte	0x50
 2453 07c6 03       		.byte	0x3
 2454 07c7 0A       		.byte	0xa
 2455 07c8 1027     		.2byte	0x2710
 2456 07ca 00       		.byte	0
 2457 07cb 00       		.byte	0
 2458 07cc 1F       		.uleb128 0x1f
 2459 07cd 01       		.byte	0x1
 2460 07ce 5A000000 		.4byte	.LASF92
 2461 07d2 01       		.byte	0x1
 2462 07d3 2E       		.byte	0x2e
 2463 07d4 01       		.byte	0x1
 2464 07d5 00000000 		.4byte	.LFB77
 2465 07d9 A4000000 		.4byte	.LFE77
 2466 07dd 60000000 		.4byte	.LLST3
 2467 07e1 01       		.byte	0x1
 2468 07e2 C2080000 		.4byte	0x8c2
 2469 07e6 1B       		.uleb128 0x1b
 2470 07e7 08000000 		.4byte	.LVL12
 2471 07eb EF100000 		.4byte	0x10ef
ARM GAS  /tmp/ccUwvvew.s 			page 46


 2472 07ef F9070000 		.4byte	0x7f9
 2473 07f3 1C       		.uleb128 0x1c
 2474 07f4 01       		.byte	0x1
 2475 07f5 50       		.byte	0x50
 2476 07f6 01       		.byte	0x1
 2477 07f7 32       		.byte	0x32
 2478 07f8 00       		.byte	0
 2479 07f9 1D       		.uleb128 0x1d
 2480 07fa 0C000000 		.4byte	.LVL13
 2481 07fe 03110000 		.4byte	0x1103
 2482 0802 1B       		.uleb128 0x1b
 2483 0803 2C000000 		.4byte	.LVL14
 2484 0807 99100000 		.4byte	0x1099
 2485 080b 24080000 		.4byte	0x824
 2486 080f 1C       		.uleb128 0x1c
 2487 0810 01       		.byte	0x1
 2488 0811 52       		.byte	0x52
 2489 0812 05       		.byte	0x5
 2490 0813 03       		.byte	0x3
 2491 0814 25000000 		.4byte	.LC19
 2492 0818 1C       		.uleb128 0x1c
 2493 0819 01       		.byte	0x1
 2494 081a 51       		.byte	0x51
 2495 081b 01       		.byte	0x1
 2496 081c 44       		.byte	0x44
 2497 081d 1C       		.uleb128 0x1c
 2498 081e 01       		.byte	0x1
 2499 081f 50       		.byte	0x50
 2500 0820 02       		.byte	0x2
 2501 0821 08       		.byte	0x8
 2502 0822 28       		.byte	0x28
 2503 0823 00       		.byte	0
 2504 0824 1B       		.uleb128 0x1b
 2505 0825 34000000 		.4byte	.LVL15
 2506 0829 DA100000 		.4byte	0x10da
 2507 082d 39080000 		.4byte	0x839
 2508 0831 1C       		.uleb128 0x1c
 2509 0832 01       		.byte	0x1
 2510 0833 50       		.byte	0x50
 2511 0834 03       		.byte	0x3
 2512 0835 0A       		.byte	0xa
 2513 0836 F401     		.2byte	0x1f4
 2514 0838 00       		.byte	0
 2515 0839 1B       		.uleb128 0x1b
 2516 083a 3C000000 		.4byte	.LVL16
 2517 083e 0D110000 		.4byte	0x110d
 2518 0842 50080000 		.4byte	0x850
 2519 0846 1C       		.uleb128 0x1c
 2520 0847 01       		.byte	0x1
 2521 0848 50       		.byte	0x50
 2522 0849 05       		.byte	0x5
 2523 084a 03       		.byte	0x3
 2524 084b 2D000000 		.4byte	.LC22
 2525 084f 00       		.byte	0
 2526 0850 1B       		.uleb128 0x1b
 2527 0851 42000000 		.4byte	.LVL17
 2528 0855 0D110000 		.4byte	0x110d
ARM GAS  /tmp/ccUwvvew.s 			page 47


 2529 0859 67080000 		.4byte	0x867
 2530 085d 1C       		.uleb128 0x1c
 2531 085e 01       		.byte	0x1
 2532 085f 50       		.byte	0x50
 2533 0860 05       		.byte	0x5
 2534 0861 03       		.byte	0x3
 2535 0862 45000000 		.4byte	.LC24
 2536 0866 00       		.byte	0
 2537 0867 1D       		.uleb128 0x1d
 2538 0868 46000000 		.4byte	.LVL18
 2539 086c 21110000 		.4byte	0x1121
 2540 0870 1B       		.uleb128 0x1b
 2541 0871 62000000 		.4byte	.LVL19
 2542 0875 DA100000 		.4byte	0x10da
 2543 0879 85080000 		.4byte	0x885
 2544 087d 1C       		.uleb128 0x1c
 2545 087e 01       		.byte	0x1
 2546 087f 50       		.byte	0x50
 2547 0880 03       		.byte	0x3
 2548 0881 0A       		.byte	0xa
 2549 0882 E204     		.2byte	0x4e2
 2550 0884 00       		.byte	0
 2551 0885 1B       		.uleb128 0x1b
 2552 0886 6A000000 		.4byte	.LVL20
 2553 088a 0D110000 		.4byte	0x110d
 2554 088e 9C080000 		.4byte	0x89c
 2555 0892 1C       		.uleb128 0x1c
 2556 0893 01       		.byte	0x1
 2557 0894 50       		.byte	0x50
 2558 0895 05       		.byte	0x5
 2559 0896 03       		.byte	0x3
 2560 0897 53000000 		.4byte	.LC26
 2561 089b 00       		.byte	0
 2562 089c 1D       		.uleb128 0x1d
 2563 089d 6E000000 		.4byte	.LVL21
 2564 08a1 2B110000 		.4byte	0x112b
 2565 08a5 1D       		.uleb128 0x1d
 2566 08a6 72000000 		.4byte	.LVL22
 2567 08aa 03110000 		.4byte	0x1103
 2568 08ae 1E       		.uleb128 0x1e
 2569 08af 7C000000 		.4byte	.LVL23
 2570 08b3 35110000 		.4byte	0x1135
 2571 08b7 1C       		.uleb128 0x1c
 2572 08b8 01       		.byte	0x1
 2573 08b9 50       		.byte	0x50
 2574 08ba 05       		.byte	0x5
 2575 08bb 03       		.byte	0x3
 2576 08bc 00000000 		.4byte	.LANCHOR3
 2577 08c0 00       		.byte	0
 2578 08c1 00       		.byte	0
 2579 08c2 1F       		.uleb128 0x1f
 2580 08c3 01       		.byte	0x1
 2581 08c4 F3030000 		.4byte	.LASF93
 2582 08c8 01       		.byte	0x1
 2583 08c9 4F       		.byte	0x4f
 2584 08ca 01       		.byte	0x1
 2585 08cb 00000000 		.4byte	.LFB78
ARM GAS  /tmp/ccUwvvew.s 			page 48


 2586 08cf 2C000000 		.4byte	.LFE78
 2587 08d3 80000000 		.4byte	.LLST4
 2588 08d7 01       		.byte	0x1
 2589 08d8 24090000 		.4byte	0x924
 2590 08dc 20       		.uleb128 0x20
 2591 08dd 73747200 		.ascii	"str\000"
 2592 08e1 01       		.byte	0x1
 2593 08e2 4F       		.byte	0x4f
 2594 08e3 51060000 		.4byte	0x651
 2595 08e7 A0000000 		.4byte	.LLST5
 2596 08eb 21       		.uleb128 0x21
 2597 08ec 6C656E00 		.ascii	"len\000"
 2598 08f0 01       		.byte	0x1
 2599 08f1 51       		.byte	0x51
 2600 08f2 EB020000 		.4byte	0x2eb
 2601 08f6 CC000000 		.4byte	.LLST6
 2602 08fa 1B       		.uleb128 0x1b
 2603 08fb 08000000 		.4byte	.LVL25
 2604 08ff 49110000 		.4byte	0x1149
 2605 0903 0E090000 		.4byte	0x90e
 2606 0907 1C       		.uleb128 0x1c
 2607 0908 01       		.byte	0x1
 2608 0909 50       		.byte	0x50
 2609 090a 02       		.byte	0x2
 2610 090b 74       		.byte	0x74
 2611 090c 00       		.sleb128 0
 2612 090d 00       		.byte	0
 2613 090e 1E       		.uleb128 0x1e
 2614 090f 26000000 		.4byte	.LVL28
 2615 0913 99100000 		.4byte	0x1099
 2616 0917 1C       		.uleb128 0x1c
 2617 0918 01       		.byte	0x1
 2618 0919 52       		.byte	0x52
 2619 091a 02       		.byte	0x2
 2620 091b 74       		.byte	0x74
 2621 091c 00       		.sleb128 0
 2622 091d 1C       		.uleb128 0x1c
 2623 091e 01       		.byte	0x1
 2624 091f 51       		.byte	0x51
 2625 0920 01       		.byte	0x1
 2626 0921 30       		.byte	0x30
 2627 0922 00       		.byte	0
 2628 0923 00       		.byte	0
 2629 0924 22       		.uleb128 0x22
 2630 0925 01       		.byte	0x1
 2631 0926 E8020000 		.4byte	.LASF94
 2632 092a 01       		.byte	0x1
 2633 092b E7       		.byte	0xe7
 2634 092c 01       		.byte	0x1
 2635 092d 00000000 		.4byte	.LFB83
 2636 0931 A8000000 		.4byte	.LFE83
 2637 0935 E6000000 		.4byte	.LLST7
 2638 0939 01       		.byte	0x1
 2639 093a 3D0A0000 		.4byte	0xa3d
 2640 093e 21       		.uleb128 0x21
 2641 093f 6900     		.ascii	"i\000"
 2642 0941 01       		.byte	0x1
ARM GAS  /tmp/ccUwvvew.s 			page 49


 2643 0942 E9       		.byte	0xe9
 2644 0943 49000000 		.4byte	0x49
 2645 0947 12010000 		.4byte	.LLST8
 2646 094b 21       		.uleb128 0x21
 2647 094c 6A00     		.ascii	"j\000"
 2648 094e 01       		.byte	0x1
 2649 094f E9       		.byte	0xe9
 2650 0950 49000000 		.4byte	0x49
 2651 0954 26010000 		.4byte	.LLST9
 2652 0958 23       		.uleb128 0x23
 2653 0959 32030000 		.4byte	.LASF95
 2654 095d 01       		.byte	0x1
 2655 095e EA       		.byte	0xea
 2656 095f 62000000 		.4byte	0x62
 2657 0963 3A010000 		.4byte	.LLST10
 2658 0967 23       		.uleb128 0x23
 2659 0968 85050000 		.4byte	.LASF96
 2660 096c 01       		.byte	0x1
 2661 096d EA       		.byte	0xea
 2662 096e 62000000 		.4byte	0x62
 2663 0972 65010000 		.4byte	.LLST11
 2664 0976 24       		.uleb128 0x24
 2665 0977 54050000 		.4byte	.LASF68
 2666 097b 01       		.byte	0x1
 2667 097c EA       		.byte	0xea
 2668 097d 62000000 		.4byte	0x62
 2669 0981 25       		.uleb128 0x25
 2670 0982 73747200 		.ascii	"str\000"
 2671 0986 01       		.byte	0x1
 2672 0987 EB       		.byte	0xeb
 2673 0988 3D0A0000 		.4byte	0xa3d
 2674 098c 02       		.byte	0x2
 2675 098d 91       		.byte	0x91
 2676 098e 64       		.sleb128 -28
 2677 098f 1D       		.uleb128 0x1d
 2678 0990 0C000000 		.4byte	.LVL32
 2679 0994 2B110000 		.4byte	0x112b
 2680 0998 1B       		.uleb128 0x1b
 2681 0999 12000000 		.4byte	.LVL33
 2682 099d C2080000 		.4byte	0x8c2
 2683 09a1 AF090000 		.4byte	0x9af
 2684 09a5 1C       		.uleb128 0x1c
 2685 09a6 01       		.byte	0x1
 2686 09a7 50       		.byte	0x50
 2687 09a8 05       		.byte	0x5
 2688 09a9 03       		.byte	0x3
 2689 09aa 60000000 		.4byte	.LC32
 2690 09ae 00       		.byte	0
 2691 09af 1B       		.uleb128 0x1b
 2692 09b0 1A000000 		.4byte	.LVL34
 2693 09b4 61110000 		.4byte	0x1161
 2694 09b8 C9090000 		.4byte	0x9c9
 2695 09bc 1C       		.uleb128 0x1c
 2696 09bd 01       		.byte	0x1
 2697 09be 51       		.byte	0x51
 2698 09bf 02       		.byte	0x2
 2699 09c0 91       		.byte	0x91
ARM GAS  /tmp/ccUwvvew.s 			page 50


 2700 09c1 64       		.sleb128 -28
 2701 09c2 1C       		.uleb128 0x1c
 2702 09c3 01       		.byte	0x1
 2703 09c4 50       		.byte	0x50
 2704 09c5 02       		.byte	0x2
 2705 09c6 74       		.byte	0x74
 2706 09c7 00       		.sleb128 0
 2707 09c8 00       		.byte	0
 2708 09c9 1B       		.uleb128 0x1b
 2709 09ca 2C000000 		.4byte	.LVL35
 2710 09ce 99100000 		.4byte	0x1099
 2711 09d2 EB090000 		.4byte	0x9eb
 2712 09d6 1C       		.uleb128 0x1c
 2713 09d7 01       		.byte	0x1
 2714 09d8 52       		.byte	0x52
 2715 09d9 05       		.byte	0x5
 2716 09da 03       		.byte	0x3
 2717 09db 6F000000 		.4byte	.LC34
 2718 09df 1C       		.uleb128 0x1c
 2719 09e0 01       		.byte	0x1
 2720 09e1 51       		.byte	0x51
 2721 09e2 02       		.byte	0x2
 2722 09e3 08       		.byte	0x8
 2723 09e4 32       		.byte	0x32
 2724 09e5 1C       		.uleb128 0x1c
 2725 09e6 01       		.byte	0x1
 2726 09e7 50       		.byte	0x50
 2727 09e8 01       		.byte	0x1
 2728 09e9 3F       		.byte	0x3f
 2729 09ea 00       		.byte	0
 2730 09eb 1B       		.uleb128 0x1b
 2731 09ec 3A000000 		.4byte	.LVL36
 2732 09f0 99100000 		.4byte	0x1099
 2733 09f4 0A0A0000 		.4byte	0xa0a
 2734 09f8 1C       		.uleb128 0x1c
 2735 09f9 01       		.byte	0x1
 2736 09fa 52       		.byte	0x52
 2737 09fb 02       		.byte	0x2
 2738 09fc 91       		.byte	0x91
 2739 09fd 64       		.sleb128 -28
 2740 09fe 1C       		.uleb128 0x1c
 2741 09ff 01       		.byte	0x1
 2742 0a00 51       		.byte	0x51
 2743 0a01 02       		.byte	0x2
 2744 0a02 08       		.byte	0x8
 2745 0a03 3C       		.byte	0x3c
 2746 0a04 1C       		.uleb128 0x1c
 2747 0a05 01       		.byte	0x1
 2748 0a06 50       		.byte	0x50
 2749 0a07 01       		.byte	0x1
 2750 0a08 49       		.byte	0x49
 2751 0a09 00       		.byte	0
 2752 0a0a 1B       		.uleb128 0x1b
 2753 0a0b 6A000000 		.4byte	.LVL41
 2754 0a0f DA100000 		.4byte	0x10da
 2755 0a13 1E0A0000 		.4byte	0xa1e
 2756 0a17 1C       		.uleb128 0x1c
ARM GAS  /tmp/ccUwvvew.s 			page 51


 2757 0a18 01       		.byte	0x1
 2758 0a19 50       		.byte	0x50
 2759 0a1a 02       		.byte	0x2
 2760 0a1b 08       		.byte	0x8
 2761 0a1c FA       		.byte	0xfa
 2762 0a1d 00       		.byte	0
 2763 0a1e 1B       		.uleb128 0x1b
 2764 0a1f 76000000 		.4byte	.LVL42
 2765 0a23 DA100000 		.4byte	0x10da
 2766 0a27 330A0000 		.4byte	0xa33
 2767 0a2b 1C       		.uleb128 0x1c
 2768 0a2c 01       		.byte	0x1
 2769 0a2d 50       		.byte	0x50
 2770 0a2e 03       		.byte	0x3
 2771 0a2f 0A       		.byte	0xa
 2772 0a30 F401     		.2byte	0x1f4
 2773 0a32 00       		.byte	0
 2774 0a33 1D       		.uleb128 0x1d
 2775 0a34 90000000 		.4byte	.LVL44
 2776 0a38 BC100000 		.4byte	0x10bc
 2777 0a3c 00       		.byte	0
 2778 0a3d 14       		.uleb128 0x14
 2779 0a3e 0F020000 		.4byte	0x20f
 2780 0a42 4D0A0000 		.4byte	0xa4d
 2781 0a46 15       		.uleb128 0x15
 2782 0a47 2A010000 		.4byte	0x12a
 2783 0a4b 01       		.byte	0x1
 2784 0a4c 00       		.byte	0
 2785 0a4d 1F       		.uleb128 0x1f
 2786 0a4e 01       		.byte	0x1
 2787 0a4f 88010000 		.4byte	.LASF97
 2788 0a53 01       		.byte	0x1
 2789 0a54 BC       		.byte	0xbc
 2790 0a55 01       		.byte	0x1
 2791 0a56 00000000 		.4byte	.LFB82
 2792 0a5a D0000000 		.4byte	.LFE82
 2793 0a5e B2010000 		.4byte	.LLST12
 2794 0a62 01       		.byte	0x1
 2795 0a63 710B0000 		.4byte	0xb71
 2796 0a67 21       		.uleb128 0x21
 2797 0a68 6900     		.ascii	"i\000"
 2798 0a6a 01       		.byte	0x1
 2799 0a6b C0       		.byte	0xc0
 2800 0a6c 49000000 		.4byte	0x49
 2801 0a70 DE010000 		.4byte	.LLST13
 2802 0a74 23       		.uleb128 0x23
 2803 0a75 C3040000 		.4byte	.LASF98
 2804 0a79 01       		.byte	0x1
 2805 0a7a C1       		.byte	0xc1
 2806 0a7b 62000000 		.4byte	0x62
 2807 0a7f F2010000 		.4byte	.LLST14
 2808 0a83 1B       		.uleb128 0x1b
 2809 0a84 0A000000 		.4byte	.LVL46
 2810 0a88 C2080000 		.4byte	0x8c2
 2811 0a8c 9A0A0000 		.4byte	0xa9a
 2812 0a90 1C       		.uleb128 0x1c
 2813 0a91 01       		.byte	0x1
ARM GAS  /tmp/ccUwvvew.s 			page 52


 2814 0a92 50       		.byte	0x50
 2815 0a93 05       		.byte	0x5
 2816 0a94 03       		.byte	0x3
 2817 0a95 74000000 		.4byte	.LC39
 2818 0a99 00       		.byte	0
 2819 0a9a 1B       		.uleb128 0x1b
 2820 0a9b 1C000000 		.4byte	.LVL47
 2821 0a9f 99100000 		.4byte	0x1099
 2822 0aa3 BB0A0000 		.4byte	0xabb
 2823 0aa7 1C       		.uleb128 0x1c
 2824 0aa8 01       		.byte	0x1
 2825 0aa9 52       		.byte	0x52
 2826 0aaa 05       		.byte	0x5
 2827 0aab 03       		.byte	0x3
 2828 0aac 89000000 		.4byte	.LC41
 2829 0ab0 1C       		.uleb128 0x1c
 2830 0ab1 01       		.byte	0x1
 2831 0ab2 51       		.byte	0x51
 2832 0ab3 01       		.byte	0x1
 2833 0ab4 49       		.byte	0x49
 2834 0ab5 1C       		.uleb128 0x1c
 2835 0ab6 01       		.byte	0x1
 2836 0ab7 50       		.byte	0x50
 2837 0ab8 01       		.byte	0x1
 2838 0ab9 30       		.byte	0x30
 2839 0aba 00       		.byte	0
 2840 0abb 1B       		.uleb128 0x1b
 2841 0abc 2A000000 		.4byte	.LVL48
 2842 0ac0 99100000 		.4byte	0x1099
 2843 0ac4 DC0A0000 		.4byte	0xadc
 2844 0ac8 1C       		.uleb128 0x1c
 2845 0ac9 01       		.byte	0x1
 2846 0aca 52       		.byte	0x52
 2847 0acb 05       		.byte	0x5
 2848 0acc 03       		.byte	0x3
 2849 0acd 96000000 		.4byte	.LC44
 2850 0ad1 1C       		.uleb128 0x1c
 2851 0ad2 01       		.byte	0x1
 2852 0ad3 51       		.byte	0x51
 2853 0ad4 01       		.byte	0x1
 2854 0ad5 3A       		.byte	0x3a
 2855 0ad6 1C       		.uleb128 0x1c
 2856 0ad7 01       		.byte	0x1
 2857 0ad8 50       		.byte	0x50
 2858 0ad9 01       		.byte	0x1
 2859 0ada 3A       		.byte	0x3a
 2860 0adb 00       		.byte	0
 2861 0adc 1B       		.uleb128 0x1b
 2862 0add 30000000 		.4byte	.LVL49
 2863 0ae1 DA100000 		.4byte	0x10da
 2864 0ae5 F10A0000 		.4byte	0xaf1
 2865 0ae9 1C       		.uleb128 0x1c
 2866 0aea 01       		.byte	0x1
 2867 0aeb 50       		.byte	0x50
 2868 0aec 03       		.byte	0x3
 2869 0aed 0A       		.byte	0xa
 2870 0aee 1027     		.2byte	0x2710
ARM GAS  /tmp/ccUwvvew.s 			page 53


 2871 0af0 00       		.byte	0
 2872 0af1 1B       		.uleb128 0x1b
 2873 0af2 4E000000 		.4byte	.LVL53
 2874 0af6 DA100000 		.4byte	0x10da
 2875 0afa 060B0000 		.4byte	0xb06
 2876 0afe 1C       		.uleb128 0x1c
 2877 0aff 01       		.byte	0x1
 2878 0b00 50       		.byte	0x50
 2879 0b01 03       		.byte	0x3
 2880 0b02 0A       		.byte	0xa
 2881 0b03 F401     		.2byte	0x1f4
 2882 0b05 00       		.byte	0
 2883 0b06 1D       		.uleb128 0x1d
 2884 0b07 56000000 		.4byte	.LVL54
 2885 0b0b 2B110000 		.4byte	0x112b
 2886 0b0f 1B       		.uleb128 0x1b
 2887 0b10 6E000000 		.4byte	.LVL55
 2888 0b14 99100000 		.4byte	0x1099
 2889 0b18 310B0000 		.4byte	0xb31
 2890 0b1c 1C       		.uleb128 0x1c
 2891 0b1d 01       		.byte	0x1
 2892 0b1e 52       		.byte	0x52
 2893 0b1f 05       		.byte	0x5
 2894 0b20 03       		.byte	0x3
 2895 0b21 AA000000 		.4byte	.LC47
 2896 0b25 1C       		.uleb128 0x1c
 2897 0b26 01       		.byte	0x1
 2898 0b27 51       		.byte	0x51
 2899 0b28 01       		.byte	0x1
 2900 0b29 3A       		.byte	0x3a
 2901 0b2a 1C       		.uleb128 0x1c
 2902 0b2b 01       		.byte	0x1
 2903 0b2c 50       		.byte	0x50
 2904 0b2d 02       		.byte	0x2
 2905 0b2e 74       		.byte	0x74
 2906 0b2f 00       		.sleb128 0
 2907 0b30 00       		.byte	0
 2908 0b31 1B       		.uleb128 0x1b
 2909 0b32 84000000 		.4byte	.LVL56
 2910 0b36 99100000 		.4byte	0x1099
 2911 0b3a 530B0000 		.4byte	0xb53
 2912 0b3e 1C       		.uleb128 0x1c
 2913 0b3f 01       		.byte	0x1
 2914 0b40 52       		.byte	0x52
 2915 0b41 05       		.byte	0x5
 2916 0b42 03       		.byte	0x3
 2917 0b43 BB000000 		.4byte	.LC50
 2918 0b47 1C       		.uleb128 0x1c
 2919 0b48 01       		.byte	0x1
 2920 0b49 51       		.byte	0x51
 2921 0b4a 01       		.byte	0x1
 2922 0b4b 35       		.byte	0x35
 2923 0b4c 1C       		.uleb128 0x1c
 2924 0b4d 01       		.byte	0x1
 2925 0b4e 50       		.byte	0x50
 2926 0b4f 02       		.byte	0x2
 2927 0b50 74       		.byte	0x74
ARM GAS  /tmp/ccUwvvew.s 			page 54


 2928 0b51 00       		.sleb128 0
 2929 0b52 00       		.byte	0
 2930 0b53 1B       		.uleb128 0x1b
 2931 0b54 8E000000 		.4byte	.LVL57
 2932 0b58 BC100000 		.4byte	0x10bc
 2933 0b5c 670B0000 		.4byte	0xb67
 2934 0b60 1C       		.uleb128 0x1c
 2935 0b61 01       		.byte	0x1
 2936 0b62 50       		.byte	0x50
 2937 0b63 02       		.byte	0x2
 2938 0b64 76       		.byte	0x76
 2939 0b65 00       		.sleb128 0
 2940 0b66 00       		.byte	0
 2941 0b67 1D       		.uleb128 0x1d
 2942 0b68 96000000 		.4byte	.LVL59
 2943 0b6c DA100000 		.4byte	0x10da
 2944 0b70 00       		.byte	0
 2945 0b71 1F       		.uleb128 0x1f
 2946 0b72 01       		.byte	0x1
 2947 0b73 6E050000 		.4byte	.LASF99
 2948 0b77 01       		.byte	0x1
 2949 0b78 A9       		.byte	0xa9
 2950 0b79 01       		.byte	0x1
 2951 0b7a 00000000 		.4byte	.LFB81
 2952 0b7e 70000000 		.4byte	.LFE81
 2953 0b82 1C020000 		.4byte	.LLST15
 2954 0b86 01       		.byte	0x1
 2955 0b87 2B0C0000 		.4byte	0xc2b
 2956 0b8b 1B       		.uleb128 0x1b
 2957 0b8c 08000000 		.4byte	.LVL60
 2958 0b90 C2080000 		.4byte	0x8c2
 2959 0b94 A20B0000 		.4byte	0xba2
 2960 0b98 1C       		.uleb128 0x1c
 2961 0b99 01       		.byte	0x1
 2962 0b9a 50       		.byte	0x50
 2963 0b9b 05       		.byte	0x5
 2964 0b9c 03       		.byte	0x3
 2965 0b9d CD000000 		.4byte	.LC54
 2966 0ba1 00       		.byte	0
 2967 0ba2 1B       		.uleb128 0x1b
 2968 0ba3 1A000000 		.4byte	.LVL61
 2969 0ba7 99100000 		.4byte	0x1099
 2970 0bab C30B0000 		.4byte	0xbc3
 2971 0baf 1C       		.uleb128 0x1c
 2972 0bb0 01       		.byte	0x1
 2973 0bb1 52       		.byte	0x52
 2974 0bb2 05       		.byte	0x5
 2975 0bb3 03       		.byte	0x3
 2976 0bb4 19000000 		.4byte	.LC12
 2977 0bb8 1C       		.uleb128 0x1c
 2978 0bb9 01       		.byte	0x1
 2979 0bba 51       		.byte	0x51
 2980 0bbb 01       		.byte	0x1
 2981 0bbc 30       		.byte	0x30
 2982 0bbd 1C       		.uleb128 0x1c
 2983 0bbe 01       		.byte	0x1
 2984 0bbf 50       		.byte	0x50
ARM GAS  /tmp/ccUwvvew.s 			page 55


 2985 0bc0 01       		.byte	0x1
 2986 0bc1 3A       		.byte	0x3a
 2987 0bc2 00       		.byte	0
 2988 0bc3 1B       		.uleb128 0x1b
 2989 0bc4 30000000 		.4byte	.LVL62
 2990 0bc8 99100000 		.4byte	0x1099
 2991 0bcc E40B0000 		.4byte	0xbe4
 2992 0bd0 1C       		.uleb128 0x1c
 2993 0bd1 01       		.byte	0x1
 2994 0bd2 52       		.byte	0x52
 2995 0bd3 05       		.byte	0x5
 2996 0bd4 03       		.byte	0x3
 2997 0bd5 D6000000 		.4byte	.LC59
 2998 0bd9 1C       		.uleb128 0x1c
 2999 0bda 01       		.byte	0x1
 3000 0bdb 51       		.byte	0x51
 3001 0bdc 01       		.byte	0x1
 3002 0bdd 30       		.byte	0x30
 3003 0bde 1C       		.uleb128 0x1c
 3004 0bdf 01       		.byte	0x1
 3005 0be0 50       		.byte	0x50
 3006 0be1 01       		.byte	0x1
 3007 0be2 49       		.byte	0x49
 3008 0be3 00       		.byte	0
 3009 0be4 1B       		.uleb128 0x1b
 3010 0be5 40000000 		.4byte	.LVL63
 3011 0be9 99100000 		.4byte	0x1099
 3012 0bed 050C0000 		.4byte	0xc05
 3013 0bf1 1C       		.uleb128 0x1c
 3014 0bf2 01       		.byte	0x1
 3015 0bf3 52       		.byte	0x52
 3016 0bf4 05       		.byte	0x5
 3017 0bf5 03       		.byte	0x3
 3018 0bf6 E2000000 		.4byte	.LC61
 3019 0bfa 1C       		.uleb128 0x1c
 3020 0bfb 01       		.byte	0x1
 3021 0bfc 51       		.byte	0x51
 3022 0bfd 01       		.byte	0x1
 3023 0bfe 30       		.byte	0x30
 3024 0bff 1C       		.uleb128 0x1c
 3025 0c00 01       		.byte	0x1
 3026 0c01 50       		.byte	0x50
 3027 0c02 01       		.byte	0x1
 3028 0c03 49       		.byte	0x49
 3029 0c04 00       		.byte	0
 3030 0c05 1B       		.uleb128 0x1b
 3031 0c06 4A000000 		.4byte	.LVL64
 3032 0c0a BC100000 		.4byte	0x10bc
 3033 0c0e 190C0000 		.4byte	0xc19
 3034 0c12 1C       		.uleb128 0x1c
 3035 0c13 01       		.byte	0x1
 3036 0c14 50       		.byte	0x50
 3037 0c15 02       		.byte	0x2
 3038 0c16 75       		.byte	0x75
 3039 0c17 00       		.sleb128 0
 3040 0c18 00       		.byte	0
 3041 0c19 1E       		.uleb128 0x1e
ARM GAS  /tmp/ccUwvvew.s 			page 56


 3042 0c1a 50000000 		.4byte	.LVL65
 3043 0c1e DA100000 		.4byte	0x10da
 3044 0c22 1C       		.uleb128 0x1c
 3045 0c23 01       		.byte	0x1
 3046 0c24 50       		.byte	0x50
 3047 0c25 03       		.byte	0x3
 3048 0c26 0A       		.byte	0xa
 3049 0c27 1027     		.2byte	0x2710
 3050 0c29 00       		.byte	0
 3051 0c2a 00       		.byte	0
 3052 0c2b 1F       		.uleb128 0x1f
 3053 0c2c 01       		.byte	0x1
 3054 0c2d 98020000 		.4byte	.LASF100
 3055 0c31 01       		.byte	0x1
 3056 0c32 75       		.byte	0x75
 3057 0c33 01       		.byte	0x1
 3058 0c34 00000000 		.4byte	.LFB80
 3059 0c38 28010000 		.4byte	.LFE80
 3060 0c3c 3C020000 		.4byte	.LLST16
 3061 0c40 01       		.byte	0x1
 3062 0c41 390D0000 		.4byte	0xd39
 3063 0c45 1B       		.uleb128 0x1b
 3064 0c46 08000000 		.4byte	.LVL66
 3065 0c4a C2080000 		.4byte	0x8c2
 3066 0c4e 5C0C0000 		.4byte	0xc5c
 3067 0c52 1C       		.uleb128 0x1c
 3068 0c53 01       		.byte	0x1
 3069 0c54 50       		.byte	0x50
 3070 0c55 05       		.byte	0x5
 3071 0c56 03       		.byte	0x3
 3072 0c57 E9000000 		.4byte	.LC63
 3073 0c5b 00       		.byte	0
 3074 0c5c 1B       		.uleb128 0x1b
 3075 0c5d 1A000000 		.4byte	.LVL67
 3076 0c61 99100000 		.4byte	0x1099
 3077 0c65 7D0C0000 		.4byte	0xc7d
 3078 0c69 1C       		.uleb128 0x1c
 3079 0c6a 01       		.byte	0x1
 3080 0c6b 52       		.byte	0x52
 3081 0c6c 05       		.byte	0x5
 3082 0c6d 03       		.byte	0x3
 3083 0c6e 00000000 		.4byte	.LANCHOR4
 3084 0c72 1C       		.uleb128 0x1c
 3085 0c73 01       		.byte	0x1
 3086 0c74 51       		.byte	0x51
 3087 0c75 01       		.byte	0x1
 3088 0c76 3A       		.byte	0x3a
 3089 0c77 1C       		.uleb128 0x1c
 3090 0c78 01       		.byte	0x1
 3091 0c79 50       		.byte	0x50
 3092 0c7a 01       		.byte	0x1
 3093 0c7b 30       		.byte	0x30
 3094 0c7c 00       		.byte	0
 3095 0c7d 1B       		.uleb128 0x1b
 3096 0c7e 28000000 		.4byte	.LVL68
 3097 0c82 99100000 		.4byte	0x1099
 3098 0c86 9E0C0000 		.4byte	0xc9e
ARM GAS  /tmp/ccUwvvew.s 			page 57


 3099 0c8a 1C       		.uleb128 0x1c
 3100 0c8b 01       		.byte	0x1
 3101 0c8c 52       		.byte	0x52
 3102 0c8d 05       		.byte	0x5
 3103 0c8e 03       		.byte	0x3
 3104 0c8f F1000000 		.4byte	.LC67
 3105 0c93 1C       		.uleb128 0x1c
 3106 0c94 01       		.byte	0x1
 3107 0c95 51       		.byte	0x51
 3108 0c96 01       		.byte	0x1
 3109 0c97 44       		.byte	0x44
 3110 0c98 1C       		.uleb128 0x1c
 3111 0c99 01       		.byte	0x1
 3112 0c9a 50       		.byte	0x50
 3113 0c9b 01       		.byte	0x1
 3114 0c9c 30       		.byte	0x30
 3115 0c9d 00       		.byte	0
 3116 0c9e 1D       		.uleb128 0x1d
 3117 0c9f 56000000 		.4byte	.LVL69
 3118 0ca3 99100000 		.4byte	0x1099
 3119 0ca7 1B       		.uleb128 0x1b
 3120 0ca8 66000000 		.4byte	.LVL70
 3121 0cac 99100000 		.4byte	0x1099
 3122 0cb0 C80C0000 		.4byte	0xcc8
 3123 0cb4 1C       		.uleb128 0x1c
 3124 0cb5 01       		.byte	0x1
 3125 0cb6 52       		.byte	0x52
 3126 0cb7 05       		.byte	0x5
 3127 0cb8 03       		.byte	0x3
 3128 0cb9 FB000000 		.4byte	.LC73
 3129 0cbd 1C       		.uleb128 0x1c
 3130 0cbe 01       		.byte	0x1
 3131 0cbf 51       		.byte	0x51
 3132 0cc0 01       		.byte	0x1
 3133 0cc1 4E       		.byte	0x4e
 3134 0cc2 1C       		.uleb128 0x1c
 3135 0cc3 01       		.byte	0x1
 3136 0cc4 50       		.byte	0x50
 3137 0cc5 01       		.byte	0x1
 3138 0cc6 30       		.byte	0x30
 3139 0cc7 00       		.byte	0
 3140 0cc8 1D       		.uleb128 0x1d
 3141 0cc9 84000000 		.4byte	.LVL71
 3142 0ccd 99100000 		.4byte	0x1099
 3143 0cd1 1B       		.uleb128 0x1b
 3144 0cd2 94000000 		.4byte	.LVL72
 3145 0cd6 99100000 		.4byte	0x1099
 3146 0cda F30C0000 		.4byte	0xcf3
 3147 0cde 1C       		.uleb128 0x1c
 3148 0cdf 01       		.byte	0x1
 3149 0ce0 52       		.byte	0x52
 3150 0ce1 05       		.byte	0x5
 3151 0ce2 03       		.byte	0x3
 3152 0ce3 04010000 		.4byte	.LC76
 3153 0ce7 1C       		.uleb128 0x1c
 3154 0ce8 01       		.byte	0x1
 3155 0ce9 51       		.byte	0x51
ARM GAS  /tmp/ccUwvvew.s 			page 58


 3156 0cea 02       		.byte	0x2
 3157 0ceb 08       		.byte	0x8
 3158 0cec 28       		.byte	0x28
 3159 0ced 1C       		.uleb128 0x1c
 3160 0cee 01       		.byte	0x1
 3161 0cef 50       		.byte	0x50
 3162 0cf0 01       		.byte	0x1
 3163 0cf1 30       		.byte	0x30
 3164 0cf2 00       		.byte	0
 3165 0cf3 1D       		.uleb128 0x1d
 3166 0cf4 B2000000 		.4byte	.LVL73
 3167 0cf8 99100000 		.4byte	0x1099
 3168 0cfc 1B       		.uleb128 0x1b
 3169 0cfd C2000000 		.4byte	.LVL74
 3170 0d01 99100000 		.4byte	0x1099
 3171 0d05 1E0D0000 		.4byte	0xd1e
 3172 0d09 1C       		.uleb128 0x1c
 3173 0d0a 01       		.byte	0x1
 3174 0d0b 52       		.byte	0x52
 3175 0d0c 05       		.byte	0x5
 3176 0d0d 03       		.byte	0x3
 3177 0d0e 08010000 		.4byte	.LC78
 3178 0d12 1C       		.uleb128 0x1c
 3179 0d13 01       		.byte	0x1
 3180 0d14 51       		.byte	0x51
 3181 0d15 02       		.byte	0x2
 3182 0d16 08       		.byte	0x8
 3183 0d17 32       		.byte	0x32
 3184 0d18 1C       		.uleb128 0x1c
 3185 0d19 01       		.byte	0x1
 3186 0d1a 50       		.byte	0x50
 3187 0d1b 01       		.byte	0x1
 3188 0d1c 30       		.byte	0x30
 3189 0d1d 00       		.byte	0
 3190 0d1e 1D       		.uleb128 0x1d
 3191 0d1f E0000000 		.4byte	.LVL75
 3192 0d23 99100000 		.4byte	0x1099
 3193 0d27 1E       		.uleb128 0x1e
 3194 0d28 F0000000 		.4byte	.LVL76
 3195 0d2c DA100000 		.4byte	0x10da
 3196 0d30 1C       		.uleb128 0x1c
 3197 0d31 01       		.byte	0x1
 3198 0d32 50       		.byte	0x50
 3199 0d33 03       		.byte	0x3
 3200 0d34 0A       		.byte	0xa
 3201 0d35 F401     		.2byte	0x1f4
 3202 0d37 00       		.byte	0
 3203 0d38 00       		.byte	0
 3204 0d39 1F       		.uleb128 0x1f
 3205 0d3a 01       		.byte	0x1
 3206 0d3b 4D010000 		.4byte	.LASF101
 3207 0d3f 01       		.byte	0x1
 3208 0d40 55       		.byte	0x55
 3209 0d41 01       		.byte	0x1
 3210 0d42 00000000 		.4byte	.LFB79
 3211 0d46 08010000 		.4byte	.LFE79
 3212 0d4a 5C020000 		.4byte	.LLST17
ARM GAS  /tmp/ccUwvvew.s 			page 59


 3213 0d4e 01       		.byte	0x1
 3214 0d4f 300F0000 		.4byte	0xf30
 3215 0d53 25       		.uleb128 0x25
 3216 0d54 73747200 		.ascii	"str\000"
 3217 0d58 01       		.byte	0x1
 3218 0d59 57       		.byte	0x57
 3219 0d5a 300F0000 		.4byte	0xf30
 3220 0d5e 02       		.byte	0x2
 3221 0d5f 91       		.byte	0x91
 3222 0d60 5C       		.sleb128 -36
 3223 0d61 1B       		.uleb128 0x1b
 3224 0d62 1C000000 		.4byte	.LVL77
 3225 0d66 C2080000 		.4byte	0x8c2
 3226 0d6a 780D0000 		.4byte	0xd78
 3227 0d6e 1C       		.uleb128 0x1c
 3228 0d6f 01       		.byte	0x1
 3229 0d70 50       		.byte	0x50
 3230 0d71 05       		.byte	0x5
 3231 0d72 03       		.byte	0x3
 3232 0d73 15010000 		.4byte	.LC80
 3233 0d77 00       		.byte	0
 3234 0d78 1B       		.uleb128 0x1b
 3235 0d79 2E000000 		.4byte	.LVL78
 3236 0d7d 99100000 		.4byte	0x1099
 3237 0d81 990D0000 		.4byte	0xd99
 3238 0d85 1C       		.uleb128 0x1c
 3239 0d86 01       		.byte	0x1
 3240 0d87 52       		.byte	0x52
 3241 0d88 05       		.byte	0x5
 3242 0d89 03       		.byte	0x3
 3243 0d8a 21010000 		.4byte	.LC82
 3244 0d8e 1C       		.uleb128 0x1c
 3245 0d8f 01       		.byte	0x1
 3246 0d90 51       		.byte	0x51
 3247 0d91 01       		.byte	0x1
 3248 0d92 3A       		.byte	0x3a
 3249 0d93 1C       		.uleb128 0x1c
 3250 0d94 01       		.byte	0x1
 3251 0d95 50       		.byte	0x50
 3252 0d96 01       		.byte	0x1
 3253 0d97 30       		.byte	0x30
 3254 0d98 00       		.byte	0
 3255 0d99 1B       		.uleb128 0x1b
 3256 0d9a 38000000 		.4byte	.LVL79
 3257 0d9e 61110000 		.4byte	0x1161
 3258 0da2 AD0D0000 		.4byte	0xdad
 3259 0da6 1C       		.uleb128 0x1c
 3260 0da7 01       		.byte	0x1
 3261 0da8 51       		.byte	0x51
 3262 0da9 02       		.byte	0x2
 3263 0daa 74       		.byte	0x74
 3264 0dab 00       		.sleb128 0
 3265 0dac 00       		.byte	0
 3266 0dad 1B       		.uleb128 0x1b
 3267 0dae 46000000 		.4byte	.LVL80
 3268 0db2 99100000 		.4byte	0x1099
 3269 0db6 CB0D0000 		.4byte	0xdcb
ARM GAS  /tmp/ccUwvvew.s 			page 60


 3270 0dba 1C       		.uleb128 0x1c
 3271 0dbb 01       		.byte	0x1
 3272 0dbc 52       		.byte	0x52
 3273 0dbd 02       		.byte	0x2
 3274 0dbe 74       		.byte	0x74
 3275 0dbf 00       		.sleb128 0
 3276 0dc0 1C       		.uleb128 0x1c
 3277 0dc1 01       		.byte	0x1
 3278 0dc2 51       		.byte	0x51
 3279 0dc3 01       		.byte	0x1
 3280 0dc4 3A       		.byte	0x3a
 3281 0dc5 1C       		.uleb128 0x1c
 3282 0dc6 01       		.byte	0x1
 3283 0dc7 50       		.byte	0x50
 3284 0dc8 01       		.byte	0x1
 3285 0dc9 49       		.byte	0x49
 3286 0dca 00       		.byte	0
 3287 0dcb 1B       		.uleb128 0x1b
 3288 0dcc 54000000 		.4byte	.LVL81
 3289 0dd0 99100000 		.4byte	0x1099
 3290 0dd4 EC0D0000 		.4byte	0xdec
 3291 0dd8 1C       		.uleb128 0x1c
 3292 0dd9 01       		.byte	0x1
 3293 0dda 52       		.byte	0x52
 3294 0ddb 05       		.byte	0x5
 3295 0ddc 03       		.byte	0x3
 3296 0ddd 26010000 		.4byte	.LC86
 3297 0de1 1C       		.uleb128 0x1c
 3298 0de2 01       		.byte	0x1
 3299 0de3 51       		.byte	0x51
 3300 0de4 01       		.byte	0x1
 3301 0de5 44       		.byte	0x44
 3302 0de6 1C       		.uleb128 0x1c
 3303 0de7 01       		.byte	0x1
 3304 0de8 50       		.byte	0x50
 3305 0de9 01       		.byte	0x1
 3306 0dea 30       		.byte	0x30
 3307 0deb 00       		.byte	0
 3308 0dec 1B       		.uleb128 0x1b
 3309 0ded 5C000000 		.4byte	.LVL82
 3310 0df1 61110000 		.4byte	0x1161
 3311 0df5 000E0000 		.4byte	0xe00
 3312 0df9 1C       		.uleb128 0x1c
 3313 0dfa 01       		.byte	0x1
 3314 0dfb 51       		.byte	0x51
 3315 0dfc 02       		.byte	0x2
 3316 0dfd 74       		.byte	0x74
 3317 0dfe 00       		.sleb128 0
 3318 0dff 00       		.byte	0
 3319 0e00 1B       		.uleb128 0x1b
 3320 0e01 6A000000 		.4byte	.LVL83
 3321 0e05 99100000 		.4byte	0x1099
 3322 0e09 1F0E0000 		.4byte	0xe1f
 3323 0e0d 1C       		.uleb128 0x1c
 3324 0e0e 01       		.byte	0x1
 3325 0e0f 52       		.byte	0x52
 3326 0e10 02       		.byte	0x2
ARM GAS  /tmp/ccUwvvew.s 			page 61


 3327 0e11 74       		.byte	0x74
 3328 0e12 00       		.sleb128 0
 3329 0e13 1C       		.uleb128 0x1c
 3330 0e14 01       		.byte	0x1
 3331 0e15 51       		.byte	0x51
 3332 0e16 01       		.byte	0x1
 3333 0e17 44       		.byte	0x44
 3334 0e18 1C       		.uleb128 0x1c
 3335 0e19 01       		.byte	0x1
 3336 0e1a 50       		.byte	0x50
 3337 0e1b 02       		.byte	0x2
 3338 0e1c 08       		.byte	0x8
 3339 0e1d 23       		.byte	0x23
 3340 0e1e 00       		.byte	0
 3341 0e1f 1B       		.uleb128 0x1b
 3342 0e20 78000000 		.4byte	.LVL84
 3343 0e24 99100000 		.4byte	0x1099
 3344 0e28 400E0000 		.4byte	0xe40
 3345 0e2c 1C       		.uleb128 0x1c
 3346 0e2d 01       		.byte	0x1
 3347 0e2e 52       		.byte	0x52
 3348 0e2f 05       		.byte	0x5
 3349 0e30 03       		.byte	0x3
 3350 0e31 FB000000 		.4byte	.LC73
 3351 0e35 1C       		.uleb128 0x1c
 3352 0e36 01       		.byte	0x1
 3353 0e37 51       		.byte	0x51
 3354 0e38 01       		.byte	0x1
 3355 0e39 4E       		.byte	0x4e
 3356 0e3a 1C       		.uleb128 0x1c
 3357 0e3b 01       		.byte	0x1
 3358 0e3c 50       		.byte	0x50
 3359 0e3d 01       		.byte	0x1
 3360 0e3e 30       		.byte	0x30
 3361 0e3f 00       		.byte	0
 3362 0e40 1B       		.uleb128 0x1b
 3363 0e41 80000000 		.4byte	.LVL85
 3364 0e45 61110000 		.4byte	0x1161
 3365 0e49 540E0000 		.4byte	0xe54
 3366 0e4d 1C       		.uleb128 0x1c
 3367 0e4e 01       		.byte	0x1
 3368 0e4f 51       		.byte	0x51
 3369 0e50 02       		.byte	0x2
 3370 0e51 74       		.byte	0x74
 3371 0e52 00       		.sleb128 0
 3372 0e53 00       		.byte	0
 3373 0e54 1B       		.uleb128 0x1b
 3374 0e55 8E000000 		.4byte	.LVL86
 3375 0e59 99100000 		.4byte	0x1099
 3376 0e5d 730E0000 		.4byte	0xe73
 3377 0e61 1C       		.uleb128 0x1c
 3378 0e62 01       		.byte	0x1
 3379 0e63 52       		.byte	0x52
 3380 0e64 02       		.byte	0x2
 3381 0e65 74       		.byte	0x74
 3382 0e66 00       		.sleb128 0
 3383 0e67 1C       		.uleb128 0x1c
ARM GAS  /tmp/ccUwvvew.s 			page 62


 3384 0e68 01       		.byte	0x1
 3385 0e69 51       		.byte	0x51
 3386 0e6a 01       		.byte	0x1
 3387 0e6b 4E       		.byte	0x4e
 3388 0e6c 1C       		.uleb128 0x1c
 3389 0e6d 01       		.byte	0x1
 3390 0e6e 50       		.byte	0x50
 3391 0e6f 02       		.byte	0x2
 3392 0e70 08       		.byte	0x8
 3393 0e71 2D       		.byte	0x2d
 3394 0e72 00       		.byte	0
 3395 0e73 1B       		.uleb128 0x1b
 3396 0e74 9C000000 		.4byte	.LVL87
 3397 0e78 99100000 		.4byte	0x1099
 3398 0e7c 950E0000 		.4byte	0xe95
 3399 0e80 1C       		.uleb128 0x1c
 3400 0e81 01       		.byte	0x1
 3401 0e82 52       		.byte	0x52
 3402 0e83 05       		.byte	0x5
 3403 0e84 03       		.byte	0x3
 3404 0e85 2D010000 		.4byte	.LC89
 3405 0e89 1C       		.uleb128 0x1c
 3406 0e8a 01       		.byte	0x1
 3407 0e8b 51       		.byte	0x51
 3408 0e8c 02       		.byte	0x2
 3409 0e8d 08       		.byte	0x8
 3410 0e8e 28       		.byte	0x28
 3411 0e8f 1C       		.uleb128 0x1c
 3412 0e90 01       		.byte	0x1
 3413 0e91 50       		.byte	0x50
 3414 0e92 01       		.byte	0x1
 3415 0e93 30       		.byte	0x30
 3416 0e94 00       		.byte	0
 3417 0e95 1B       		.uleb128 0x1b
 3418 0e96 A4000000 		.4byte	.LVL88
 3419 0e9a 61110000 		.4byte	0x1161
 3420 0e9e A90E0000 		.4byte	0xea9
 3421 0ea2 1C       		.uleb128 0x1c
 3422 0ea3 01       		.byte	0x1
 3423 0ea4 51       		.byte	0x51
 3424 0ea5 02       		.byte	0x2
 3425 0ea6 74       		.byte	0x74
 3426 0ea7 00       		.sleb128 0
 3427 0ea8 00       		.byte	0
 3428 0ea9 1B       		.uleb128 0x1b
 3429 0eaa B2000000 		.4byte	.LVL89
 3430 0eae 99100000 		.4byte	0x1099
 3431 0eb2 C90E0000 		.4byte	0xec9
 3432 0eb6 1C       		.uleb128 0x1c
 3433 0eb7 01       		.byte	0x1
 3434 0eb8 52       		.byte	0x52
 3435 0eb9 02       		.byte	0x2
 3436 0eba 74       		.byte	0x74
 3437 0ebb 00       		.sleb128 0
 3438 0ebc 1C       		.uleb128 0x1c
 3439 0ebd 01       		.byte	0x1
 3440 0ebe 51       		.byte	0x51
ARM GAS  /tmp/ccUwvvew.s 			page 63


 3441 0ebf 02       		.byte	0x2
 3442 0ec0 08       		.byte	0x8
 3443 0ec1 28       		.byte	0x28
 3444 0ec2 1C       		.uleb128 0x1c
 3445 0ec3 01       		.byte	0x1
 3446 0ec4 50       		.byte	0x50
 3447 0ec5 02       		.byte	0x2
 3448 0ec6 08       		.byte	0x8
 3449 0ec7 37       		.byte	0x37
 3450 0ec8 00       		.byte	0
 3451 0ec9 1B       		.uleb128 0x1b
 3452 0eca C0000000 		.4byte	.LVL90
 3453 0ece 99100000 		.4byte	0x1099
 3454 0ed2 EB0E0000 		.4byte	0xeeb
 3455 0ed6 1C       		.uleb128 0x1c
 3456 0ed7 01       		.byte	0x1
 3457 0ed8 52       		.byte	0x52
 3458 0ed9 05       		.byte	0x5
 3459 0eda 03       		.byte	0x3
 3460 0edb 38010000 		.4byte	.LC91
 3461 0edf 1C       		.uleb128 0x1c
 3462 0ee0 01       		.byte	0x1
 3463 0ee1 51       		.byte	0x51
 3464 0ee2 02       		.byte	0x2
 3465 0ee3 08       		.byte	0x8
 3466 0ee4 32       		.byte	0x32
 3467 0ee5 1C       		.uleb128 0x1c
 3468 0ee6 01       		.byte	0x1
 3469 0ee7 50       		.byte	0x50
 3470 0ee8 01       		.byte	0x1
 3471 0ee9 30       		.byte	0x30
 3472 0eea 00       		.byte	0
 3473 0eeb 1B       		.uleb128 0x1b
 3474 0eec C8000000 		.4byte	.LVL91
 3475 0ef0 61110000 		.4byte	0x1161
 3476 0ef4 FF0E0000 		.4byte	0xeff
 3477 0ef8 1C       		.uleb128 0x1c
 3478 0ef9 01       		.byte	0x1
 3479 0efa 51       		.byte	0x51
 3480 0efb 02       		.byte	0x2
 3481 0efc 74       		.byte	0x74
 3482 0efd 00       		.sleb128 0
 3483 0efe 00       		.byte	0
 3484 0eff 1B       		.uleb128 0x1b
 3485 0f00 D6000000 		.4byte	.LVL92
 3486 0f04 99100000 		.4byte	0x1099
 3487 0f08 1E0F0000 		.4byte	0xf1e
 3488 0f0c 1C       		.uleb128 0x1c
 3489 0f0d 01       		.byte	0x1
 3490 0f0e 52       		.byte	0x52
 3491 0f0f 02       		.byte	0x2
 3492 0f10 74       		.byte	0x74
 3493 0f11 00       		.sleb128 0
 3494 0f12 1C       		.uleb128 0x1c
 3495 0f13 01       		.byte	0x1
 3496 0f14 51       		.byte	0x51
 3497 0f15 02       		.byte	0x2
ARM GAS  /tmp/ccUwvvew.s 			page 64


 3498 0f16 08       		.byte	0x8
 3499 0f17 32       		.byte	0x32
 3500 0f18 1C       		.uleb128 0x1c
 3501 0f19 01       		.byte	0x1
 3502 0f1a 50       		.byte	0x50
 3503 0f1b 01       		.byte	0x1
 3504 0f1c 4E       		.byte	0x4e
 3505 0f1d 00       		.byte	0
 3506 0f1e 1E       		.uleb128 0x1e
 3507 0f1f DE000000 		.4byte	.LVL93
 3508 0f23 DA100000 		.4byte	0x10da
 3509 0f27 1C       		.uleb128 0x1c
 3510 0f28 01       		.byte	0x1
 3511 0f29 50       		.byte	0x50
 3512 0f2a 03       		.byte	0x3
 3513 0f2b 0A       		.byte	0xa
 3514 0f2c F401     		.2byte	0x1f4
 3515 0f2e 00       		.byte	0
 3516 0f2f 00       		.byte	0
 3517 0f30 14       		.uleb128 0x14
 3518 0f31 0F020000 		.4byte	0x20f
 3519 0f35 400F0000 		.4byte	0xf40
 3520 0f39 15       		.uleb128 0x15
 3521 0f3a 2A010000 		.4byte	0x12a
 3522 0f3e 09       		.byte	0x9
 3523 0f3f 00       		.byte	0
 3524 0f40 26       		.uleb128 0x26
 3525 0f41 6E696C00 		.ascii	"nil\000"
 3526 0f45 04       		.byte	0x4
 3527 0f46 F602     		.2byte	0x2f6
 3528 0f48 D9020000 		.4byte	0x2d9
 3529 0f4c 01       		.byte	0x1
 3530 0f4d 01       		.byte	0x1
 3531 0f4e 27       		.uleb128 0x27
 3532 0f4f 08030000 		.4byte	.LASF102
 3533 0f53 09       		.byte	0x9
 3534 0f54 75       		.byte	0x75
 3535 0f55 F1040000 		.4byte	0x4f1
 3536 0f59 01       		.byte	0x1
 3537 0f5a 01       		.byte	0x1
 3538 0f5b 28       		.uleb128 0x28
 3539 0f5c 74010000 		.4byte	.LASF103
 3540 0f60 01       		.byte	0x1
 3541 0f61 06       		.byte	0x6
 3542 0f62 17050000 		.4byte	0x517
 3543 0f66 01       		.byte	0x1
 3544 0f67 05       		.byte	0x5
 3545 0f68 03       		.byte	0x3
 3546 0f69 00000000 		.4byte	display
 3547 0f6d 27       		.uleb128 0x27
 3548 0f6e 52040000 		.4byte	.LASF104
 3549 0f72 09       		.byte	0x9
 3550 0f73 D1       		.byte	0xd1
 3551 0f74 75050000 		.4byte	0x575
 3552 0f78 01       		.byte	0x1
 3553 0f79 01       		.byte	0x1
 3554 0f7a 27       		.uleb128 0x27
ARM GAS  /tmp/ccUwvvew.s 			page 65


 3555 0f7b 3E010000 		.4byte	.LASF105
 3556 0f7f 0A       		.byte	0xa
 3557 0f80 39       		.byte	0x39
 3558 0f81 870F0000 		.4byte	0xf87
 3559 0f85 01       		.byte	0x1
 3560 0f86 01       		.byte	0x1
 3561 0f87 0E       		.uleb128 0xe
 3562 0f88 80050000 		.4byte	0x580
 3563 0f8c 27       		.uleb128 0x27
 3564 0f8d D3040000 		.4byte	.LASF106
 3565 0f91 0A       		.byte	0xa
 3566 0f92 3A       		.byte	0x3a
 3567 0f93 870F0000 		.4byte	0xf87
 3568 0f97 01       		.byte	0x1
 3569 0f98 01       		.byte	0x1
 3570 0f99 14       		.uleb128 0x14
 3571 0f9a 0F020000 		.4byte	0x20f
 3572 0f9e A90F0000 		.4byte	0xfa9
 3573 0fa2 15       		.uleb128 0x15
 3574 0fa3 2A010000 		.4byte	0x12a
 3575 0fa7 03       		.byte	0x3
 3576 0fa8 00       		.byte	0
 3577 0fa9 28       		.uleb128 0x28
 3578 0faa B2020000 		.4byte	.LASF107
 3579 0fae 01       		.byte	0x1
 3580 0faf 07       		.byte	0x7
 3581 0fb0 BB0F0000 		.4byte	0xfbb
 3582 0fb4 01       		.byte	0x1
 3583 0fb5 05       		.byte	0x5
 3584 0fb6 03       		.byte	0x3
 3585 0fb7 00000000 		.4byte	version
 3586 0fbb 0E       		.uleb128 0xe
 3587 0fbc 990F0000 		.4byte	0xf99
 3588 0fc0 28       		.uleb128 0x28
 3589 0fc1 4A040000 		.4byte	.LASF108
 3590 0fc5 01       		.byte	0x1
 3591 0fc6 08       		.byte	0x8
 3592 0fc7 D20F0000 		.4byte	0xfd2
 3593 0fcb 01       		.byte	0x1
 3594 0fcc 05       		.byte	0x5
 3595 0fcd 03       		.byte	0x3
 3596 0fce 00000000 		.4byte	enabled
 3597 0fd2 0E       		.uleb128 0xe
 3598 0fd3 7B060000 		.4byte	0x67b
 3599 0fd7 14       		.uleb128 0x14
 3600 0fd8 0F020000 		.4byte	0x20f
 3601 0fdc E70F0000 		.4byte	0xfe7
 3602 0fe0 15       		.uleb128 0x15
 3603 0fe1 2A010000 		.4byte	0x12a
 3604 0fe5 08       		.byte	0x8
 3605 0fe6 00       		.byte	0
 3606 0fe7 28       		.uleb128 0x28
 3607 0fe8 C4010000 		.4byte	.LASF109
 3608 0fec 01       		.byte	0x1
 3609 0fed 09       		.byte	0x9
 3610 0fee F90F0000 		.4byte	0xff9
 3611 0ff2 01       		.byte	0x1
ARM GAS  /tmp/ccUwvvew.s 			page 66


 3612 0ff3 05       		.byte	0x5
 3613 0ff4 03       		.byte	0x3
 3614 0ff5 00000000 		.4byte	disabled
 3615 0ff9 0E       		.uleb128 0xe
 3616 0ffa D70F0000 		.4byte	0xfd7
 3617 0ffe 14       		.uleb128 0x14
 3618 0fff 1A060000 		.4byte	0x61a
 3619 1003 0E100000 		.4byte	0x100e
 3620 1007 15       		.uleb128 0x15
 3621 1008 2A010000 		.4byte	0x12a
 3622 100c 02       		.byte	0x2
 3623 100d 00       		.byte	0
 3624 100e 28       		.uleb128 0x28
 3625 100f 42050000 		.4byte	.LASF110
 3626 1013 01       		.byte	0x1
 3627 1014 16       		.byte	0x16
 3628 1015 20100000 		.4byte	0x1020
 3629 1019 01       		.byte	0x1
 3630 101a 05       		.byte	0x5
 3631 101b 03       		.byte	0x3
 3632 101c 00000000 		.4byte	functionsMenuList
 3633 1020 0E       		.uleb128 0xe
 3634 1021 FE0F0000 		.4byte	0xffe
 3635 1025 28       		.uleb128 0x28
 3636 1026 04040000 		.4byte	.LASF111
 3637 102a 01       		.byte	0x1
 3638 102b 1A       		.byte	0x1a
 3639 102c D3050000 		.4byte	0x5d3
 3640 1030 01       		.byte	0x1
 3641 1031 05       		.byte	0x5
 3642 1032 03       		.byte	0x3
 3643 1033 00000000 		.4byte	functionsMenu
 3644 1037 14       		.uleb128 0x14
 3645 1038 1A060000 		.4byte	0x61a
 3646 103c 47100000 		.4byte	0x1047
 3647 1040 15       		.uleb128 0x15
 3648 1041 2A010000 		.4byte	0x12a
 3649 1045 03       		.byte	0x3
 3650 1046 00       		.byte	0
 3651 1047 28       		.uleb128 0x28
 3652 1048 A1020000 		.4byte	.LASF112
 3653 104c 01       		.byte	0x1
 3654 104d 1E       		.byte	0x1e
 3655 104e 59100000 		.4byte	0x1059
 3656 1052 01       		.byte	0x1
 3657 1053 05       		.byte	0x5
 3658 1054 03       		.byte	0x3
 3659 1055 00000000 		.4byte	settingsMenuList
 3660 1059 0E       		.uleb128 0xe
 3661 105a 37100000 		.4byte	0x1037
 3662 105e 28       		.uleb128 0x28
 3663 105f 5A040000 		.4byte	.LASF113
 3664 1063 01       		.byte	0x1
 3665 1064 23       		.byte	0x23
 3666 1065 D3050000 		.4byte	0x5d3
 3667 1069 01       		.byte	0x1
 3668 106a 05       		.byte	0x5
ARM GAS  /tmp/ccUwvvew.s 			page 67


 3669 106b 03       		.byte	0x3
 3670 106c 00000000 		.4byte	settingsMenu
 3671 1070 28       		.uleb128 0x28
 3672 1071 0C010000 		.4byte	.LASF114
 3673 1075 01       		.byte	0x1
 3674 1076 27       		.byte	0x27
 3675 1077 82100000 		.4byte	0x1082
 3676 107b 01       		.byte	0x1
 3677 107c 05       		.byte	0x5
 3678 107d 03       		.byte	0x3
 3679 107e 00000000 		.4byte	mainMenuItemList
 3680 1082 0E       		.uleb128 0xe
 3681 1083 FE0F0000 		.4byte	0xffe
 3682 1087 28       		.uleb128 0x28
 3683 1088 BB030000 		.4byte	.LASF115
 3684 108c 01       		.byte	0x1
 3685 108d 2B       		.byte	0x2b
 3686 108e D3050000 		.4byte	0x5d3
 3687 1092 01       		.byte	0x1
 3688 1093 05       		.byte	0x5
 3689 1094 03       		.byte	0x3
 3690 1095 00000000 		.4byte	mainMenu
 3691 1099 29       		.uleb128 0x29
 3692 109a 01       		.byte	0x1
 3693 109b 11030000 		.4byte	.LASF116
 3694 109f 0C       		.byte	0xc
 3695 10a0 63       		.byte	0x63
 3696 10a1 01       		.byte	0x1
 3697 10a2 01       		.byte	0x1
 3698 10a3 BC100000 		.4byte	0x10bc
 3699 10a7 2A       		.uleb128 0x2a
 3700 10a8 49000000 		.4byte	0x49
 3701 10ac 2A       		.uleb128 0x2a
 3702 10ad 49000000 		.4byte	0x49
 3703 10b1 2A       		.uleb128 0x2a
 3704 10b2 04020000 		.4byte	0x204
 3705 10b6 2A       		.uleb128 0x2a
 3706 10b7 80050000 		.4byte	0x580
 3707 10bb 00       		.byte	0
 3708 10bc 2B       		.uleb128 0x2b
 3709 10bd 01       		.byte	0x1
 3710 10be 26010000 		.4byte	.LASF124
 3711 10c2 09       		.byte	0x9
 3712 10c3 7A       		.byte	0x7a
 3713 10c4 01       		.byte	0x1
 3714 10c5 49000000 		.4byte	0x49
 3715 10c9 01       		.byte	0x1
 3716 10ca D4100000 		.4byte	0x10d4
 3717 10ce 2A       		.uleb128 0x2a
 3718 10cf D4100000 		.4byte	0x10d4
 3719 10d3 00       		.byte	0
 3720 10d4 0D       		.uleb128 0xd
 3721 10d5 04       		.byte	0x4
 3722 10d6 F1040000 		.4byte	0x4f1
 3723 10da 2C       		.uleb128 0x2c
 3724 10db 01       		.byte	0x1
 3725 10dc C8040000 		.4byte	.LASF117
ARM GAS  /tmp/ccUwvvew.s 			page 68


 3726 10e0 04       		.byte	0x4
 3727 10e1 0703     		.2byte	0x307
 3728 10e3 01       		.byte	0x1
 3729 10e4 01       		.byte	0x1
 3730 10e5 EF100000 		.4byte	0x10ef
 3731 10e9 2A       		.uleb128 0x2a
 3732 10ea 36010000 		.4byte	0x136
 3733 10ee 00       		.byte	0
 3734 10ef 29       		.uleb128 0x29
 3735 10f0 01       		.byte	0x1
 3736 10f1 3D030000 		.4byte	.LASF118
 3737 10f5 0C       		.byte	0xc
 3738 10f6 5A       		.byte	0x5a
 3739 10f7 01       		.byte	0x1
 3740 10f8 01       		.byte	0x1
 3741 10f9 03110000 		.4byte	0x1103
 3742 10fd 2A       		.uleb128 0x2a
 3743 10fe 49000000 		.4byte	0x49
 3744 1102 00       		.byte	0
 3745 1103 2D       		.uleb128 0x2d
 3746 1104 01       		.byte	0x1
 3747 1105 F7010000 		.4byte	.LASF120
 3748 1109 0C       		.byte	0xc
 3749 110a 5B       		.byte	0x5b
 3750 110b 01       		.byte	0x1
 3751 110c 01       		.byte	0x1
 3752 110d 29       		.uleb128 0x29
 3753 110e 01       		.byte	0x1
 3754 110f 35040000 		.4byte	.LASF119
 3755 1113 09       		.byte	0x9
 3756 1114 53       		.byte	0x53
 3757 1115 01       		.byte	0x1
 3758 1116 01       		.byte	0x1
 3759 1117 21110000 		.4byte	0x1121
 3760 111b 2A       		.uleb128 0x2a
 3761 111c 04020000 		.4byte	0x204
 3762 1120 00       		.byte	0
 3763 1121 2D       		.uleb128 0x2d
 3764 1122 01       		.byte	0x1
 3765 1123 9F040000 		.4byte	.LASF121
 3766 1127 0C       		.byte	0xc
 3767 1128 5C       		.byte	0x5c
 3768 1129 01       		.byte	0x1
 3769 112a 01       		.byte	0x1
 3770 112b 2D       		.uleb128 0x2d
 3771 112c 01       		.byte	0x1
 3772 112d D6000000 		.4byte	.LASF122
 3773 1131 0C       		.byte	0xc
 3774 1132 60       		.byte	0x60
 3775 1133 01       		.byte	0x1
 3776 1134 01       		.byte	0x1
 3777 1135 29       		.uleb128 0x29
 3778 1136 01       		.byte	0x1
 3779 1137 5A050000 		.4byte	.LASF123
 3780 113b 0B       		.byte	0xb
 3781 113c 18       		.byte	0x18
 3782 113d 01       		.byte	0x1
ARM GAS  /tmp/ccUwvvew.s 			page 69


 3783 113e 01       		.byte	0x1
 3784 113f 49110000 		.4byte	0x1149
 3785 1143 2A       		.uleb128 0x2a
 3786 1144 5F060000 		.4byte	0x65f
 3787 1148 00       		.byte	0
 3788 1149 2B       		.uleb128 0x2b
 3789 114a 01       		.byte	0x1
 3790 114b AC010000 		.4byte	.LASF125
 3791 114f 0D       		.byte	0xd
 3792 1150 22       		.byte	0x22
 3793 1151 01       		.byte	0x1
 3794 1152 30000000 		.4byte	0x30
 3795 1156 01       		.byte	0x1
 3796 1157 61110000 		.4byte	0x1161
 3797 115b 2A       		.uleb128 0x2a
 3798 115c 04020000 		.4byte	0x204
 3799 1160 00       		.byte	0
 3800 1161 2E       		.uleb128 0x2e
 3801 1162 01       		.byte	0x1
 3802 1163 45040000 		.4byte	.LASF129
 3803 1167 09       		.byte	0x9
 3804 1168 38       		.byte	0x38
 3805 1169 01       		.byte	0x1
 3806 116a 01       		.byte	0x1
 3807 116b 2A       		.uleb128 0x2a
 3808 116c 29000000 		.4byte	0x29
 3809 1170 2A       		.uleb128 0x2a
 3810 1171 51060000 		.4byte	0x651
 3811 1175 00       		.byte	0
 3812 1176 00       		.byte	0
 3813              		.section	.debug_abbrev,"",%progbits
 3814              	.Ldebug_abbrev0:
 3815 0000 01       		.uleb128 0x1
 3816 0001 11       		.uleb128 0x11
 3817 0002 01       		.byte	0x1
 3818 0003 25       		.uleb128 0x25
 3819 0004 0E       		.uleb128 0xe
 3820 0005 13       		.uleb128 0x13
 3821 0006 0B       		.uleb128 0xb
 3822 0007 03       		.uleb128 0x3
 3823 0008 0E       		.uleb128 0xe
 3824 0009 1B       		.uleb128 0x1b
 3825 000a 0E       		.uleb128 0xe
 3826 000b 55       		.uleb128 0x55
 3827 000c 06       		.uleb128 0x6
 3828 000d 11       		.uleb128 0x11
 3829 000e 01       		.uleb128 0x1
 3830 000f 52       		.uleb128 0x52
 3831 0010 01       		.uleb128 0x1
 3832 0011 10       		.uleb128 0x10
 3833 0012 06       		.uleb128 0x6
 3834 0013 00       		.byte	0
 3835 0014 00       		.byte	0
 3836 0015 02       		.uleb128 0x2
 3837 0016 24       		.uleb128 0x24
 3838 0017 00       		.byte	0
 3839 0018 0B       		.uleb128 0xb
ARM GAS  /tmp/ccUwvvew.s 			page 70


 3840 0019 0B       		.uleb128 0xb
 3841 001a 3E       		.uleb128 0x3e
 3842 001b 0B       		.uleb128 0xb
 3843 001c 03       		.uleb128 0x3
 3844 001d 08       		.uleb128 0x8
 3845 001e 00       		.byte	0
 3846 001f 00       		.byte	0
 3847 0020 03       		.uleb128 0x3
 3848 0021 16       		.uleb128 0x16
 3849 0022 00       		.byte	0
 3850 0023 03       		.uleb128 0x3
 3851 0024 0E       		.uleb128 0xe
 3852 0025 3A       		.uleb128 0x3a
 3853 0026 0B       		.uleb128 0xb
 3854 0027 3B       		.uleb128 0x3b
 3855 0028 0B       		.uleb128 0xb
 3856 0029 49       		.uleb128 0x49
 3857 002a 13       		.uleb128 0x13
 3858 002b 00       		.byte	0
 3859 002c 00       		.byte	0
 3860 002d 04       		.uleb128 0x4
 3861 002e 24       		.uleb128 0x24
 3862 002f 00       		.byte	0
 3863 0030 0B       		.uleb128 0xb
 3864 0031 0B       		.uleb128 0xb
 3865 0032 3E       		.uleb128 0x3e
 3866 0033 0B       		.uleb128 0xb
 3867 0034 03       		.uleb128 0x3
 3868 0035 0E       		.uleb128 0xe
 3869 0036 00       		.byte	0
 3870 0037 00       		.byte	0
 3871 0038 05       		.uleb128 0x5
 3872 0039 13       		.uleb128 0x13
 3873 003a 01       		.byte	0x1
 3874 003b 03       		.uleb128 0x3
 3875 003c 0E       		.uleb128 0xe
 3876 003d 0B       		.uleb128 0xb
 3877 003e 0B       		.uleb128 0xb
 3878 003f 3A       		.uleb128 0x3a
 3879 0040 0B       		.uleb128 0xb
 3880 0041 3B       		.uleb128 0x3b
 3881 0042 05       		.uleb128 0x5
 3882 0043 01       		.uleb128 0x1
 3883 0044 13       		.uleb128 0x13
 3884 0045 00       		.byte	0
 3885 0046 00       		.byte	0
 3886 0047 06       		.uleb128 0x6
 3887 0048 0D       		.uleb128 0xd
 3888 0049 00       		.byte	0
 3889 004a 03       		.uleb128 0x3
 3890 004b 0E       		.uleb128 0xe
 3891 004c 3A       		.uleb128 0x3a
 3892 004d 0B       		.uleb128 0xb
 3893 004e 3B       		.uleb128 0x3b
 3894 004f 05       		.uleb128 0x5
 3895 0050 49       		.uleb128 0x49
 3896 0051 13       		.uleb128 0x13
ARM GAS  /tmp/ccUwvvew.s 			page 71


 3897 0052 38       		.uleb128 0x38
 3898 0053 0A       		.uleb128 0xa
 3899 0054 00       		.byte	0
 3900 0055 00       		.byte	0
 3901 0056 07       		.uleb128 0x7
 3902 0057 0D       		.uleb128 0xd
 3903 0058 00       		.byte	0
 3904 0059 03       		.uleb128 0x3
 3905 005a 08       		.uleb128 0x8
 3906 005b 3A       		.uleb128 0x3a
 3907 005c 0B       		.uleb128 0xb
 3908 005d 3B       		.uleb128 0x3b
 3909 005e 05       		.uleb128 0x5
 3910 005f 49       		.uleb128 0x49
 3911 0060 13       		.uleb128 0x13
 3912 0061 38       		.uleb128 0x38
 3913 0062 0A       		.uleb128 0xa
 3914 0063 00       		.byte	0
 3915 0064 00       		.byte	0
 3916 0065 08       		.uleb128 0x8
 3917 0066 35       		.uleb128 0x35
 3918 0067 00       		.byte	0
 3919 0068 49       		.uleb128 0x49
 3920 0069 13       		.uleb128 0x13
 3921 006a 00       		.byte	0
 3922 006b 00       		.byte	0
 3923 006c 09       		.uleb128 0x9
 3924 006d 0F       		.uleb128 0xf
 3925 006e 00       		.byte	0
 3926 006f 0B       		.uleb128 0xb
 3927 0070 0B       		.uleb128 0xb
 3928 0071 00       		.byte	0
 3929 0072 00       		.byte	0
 3930 0073 0A       		.uleb128 0xa
 3931 0074 13       		.uleb128 0x13
 3932 0075 01       		.byte	0x1
 3933 0076 03       		.uleb128 0x3
 3934 0077 0E       		.uleb128 0xe
 3935 0078 0B       		.uleb128 0xb
 3936 0079 0B       		.uleb128 0xb
 3937 007a 3A       		.uleb128 0x3a
 3938 007b 0B       		.uleb128 0xb
 3939 007c 3B       		.uleb128 0x3b
 3940 007d 0B       		.uleb128 0xb
 3941 007e 01       		.uleb128 0x1
 3942 007f 13       		.uleb128 0x13
 3943 0080 00       		.byte	0
 3944 0081 00       		.byte	0
 3945 0082 0B       		.uleb128 0xb
 3946 0083 0D       		.uleb128 0xd
 3947 0084 00       		.byte	0
 3948 0085 03       		.uleb128 0x3
 3949 0086 08       		.uleb128 0x8
 3950 0087 3A       		.uleb128 0x3a
 3951 0088 0B       		.uleb128 0xb
 3952 0089 3B       		.uleb128 0x3b
 3953 008a 0B       		.uleb128 0xb
ARM GAS  /tmp/ccUwvvew.s 			page 72


 3954 008b 49       		.uleb128 0x49
 3955 008c 13       		.uleb128 0x13
 3956 008d 38       		.uleb128 0x38
 3957 008e 0A       		.uleb128 0xa
 3958 008f 00       		.byte	0
 3959 0090 00       		.byte	0
 3960 0091 0C       		.uleb128 0xc
 3961 0092 13       		.uleb128 0x13
 3962 0093 01       		.byte	0x1
 3963 0094 0B       		.uleb128 0xb
 3964 0095 0B       		.uleb128 0xb
 3965 0096 3A       		.uleb128 0x3a
 3966 0097 0B       		.uleb128 0xb
 3967 0098 3B       		.uleb128 0x3b
 3968 0099 0B       		.uleb128 0xb
 3969 009a 01       		.uleb128 0x1
 3970 009b 13       		.uleb128 0x13
 3971 009c 00       		.byte	0
 3972 009d 00       		.byte	0
 3973 009e 0D       		.uleb128 0xd
 3974 009f 0F       		.uleb128 0xf
 3975 00a0 00       		.byte	0
 3976 00a1 0B       		.uleb128 0xb
 3977 00a2 0B       		.uleb128 0xb
 3978 00a3 49       		.uleb128 0x49
 3979 00a4 13       		.uleb128 0x13
 3980 00a5 00       		.byte	0
 3981 00a6 00       		.byte	0
 3982 00a7 0E       		.uleb128 0xe
 3983 00a8 26       		.uleb128 0x26
 3984 00a9 00       		.byte	0
 3985 00aa 49       		.uleb128 0x49
 3986 00ab 13       		.uleb128 0x13
 3987 00ac 00       		.byte	0
 3988 00ad 00       		.byte	0
 3989 00ae 0F       		.uleb128 0xf
 3990 00af 16       		.uleb128 0x16
 3991 00b0 00       		.byte	0
 3992 00b1 03       		.uleb128 0x3
 3993 00b2 0E       		.uleb128 0xe
 3994 00b3 3A       		.uleb128 0x3a
 3995 00b4 0B       		.uleb128 0xb
 3996 00b5 3B       		.uleb128 0x3b
 3997 00b6 05       		.uleb128 0x5
 3998 00b7 49       		.uleb128 0x49
 3999 00b8 13       		.uleb128 0x13
 4000 00b9 00       		.byte	0
 4001 00ba 00       		.byte	0
 4002 00bb 10       		.uleb128 0x10
 4003 00bc 17       		.uleb128 0x17
 4004 00bd 01       		.byte	0x1
 4005 00be 0B       		.uleb128 0xb
 4006 00bf 0B       		.uleb128 0xb
 4007 00c0 3A       		.uleb128 0x3a
 4008 00c1 0B       		.uleb128 0xb
 4009 00c2 3B       		.uleb128 0x3b
 4010 00c3 05       		.uleb128 0x5
ARM GAS  /tmp/ccUwvvew.s 			page 73


 4011 00c4 01       		.uleb128 0x1
 4012 00c5 13       		.uleb128 0x13
 4013 00c6 00       		.byte	0
 4014 00c7 00       		.byte	0
 4015 00c8 11       		.uleb128 0x11
 4016 00c9 0D       		.uleb128 0xd
 4017 00ca 00       		.byte	0
 4018 00cb 03       		.uleb128 0x3
 4019 00cc 08       		.uleb128 0x8
 4020 00cd 3A       		.uleb128 0x3a
 4021 00ce 0B       		.uleb128 0xb
 4022 00cf 3B       		.uleb128 0x3b
 4023 00d0 05       		.uleb128 0x5
 4024 00d1 49       		.uleb128 0x49
 4025 00d2 13       		.uleb128 0x13
 4026 00d3 00       		.byte	0
 4027 00d4 00       		.byte	0
 4028 00d5 12       		.uleb128 0x12
 4029 00d6 0D       		.uleb128 0xd
 4030 00d7 00       		.byte	0
 4031 00d8 03       		.uleb128 0x3
 4032 00d9 0E       		.uleb128 0xe
 4033 00da 3A       		.uleb128 0x3a
 4034 00db 0B       		.uleb128 0xb
 4035 00dc 3B       		.uleb128 0x3b
 4036 00dd 05       		.uleb128 0x5
 4037 00de 49       		.uleb128 0x49
 4038 00df 13       		.uleb128 0x13
 4039 00e0 00       		.byte	0
 4040 00e1 00       		.byte	0
 4041 00e2 13       		.uleb128 0x13
 4042 00e3 13       		.uleb128 0x13
 4043 00e4 01       		.byte	0x1
 4044 00e5 0B       		.uleb128 0xb
 4045 00e6 0B       		.uleb128 0xb
 4046 00e7 3A       		.uleb128 0x3a
 4047 00e8 0B       		.uleb128 0xb
 4048 00e9 3B       		.uleb128 0x3b
 4049 00ea 05       		.uleb128 0x5
 4050 00eb 01       		.uleb128 0x1
 4051 00ec 13       		.uleb128 0x13
 4052 00ed 00       		.byte	0
 4053 00ee 00       		.byte	0
 4054 00ef 14       		.uleb128 0x14
 4055 00f0 01       		.uleb128 0x1
 4056 00f1 01       		.byte	0x1
 4057 00f2 49       		.uleb128 0x49
 4058 00f3 13       		.uleb128 0x13
 4059 00f4 01       		.uleb128 0x1
 4060 00f5 13       		.uleb128 0x13
 4061 00f6 00       		.byte	0
 4062 00f7 00       		.byte	0
 4063 00f8 15       		.uleb128 0x15
 4064 00f9 21       		.uleb128 0x21
 4065 00fa 00       		.byte	0
 4066 00fb 49       		.uleb128 0x49
 4067 00fc 13       		.uleb128 0x13
ARM GAS  /tmp/ccUwvvew.s 			page 74


 4068 00fd 2F       		.uleb128 0x2f
 4069 00fe 0B       		.uleb128 0xb
 4070 00ff 00       		.byte	0
 4071 0100 00       		.byte	0
 4072 0101 16       		.uleb128 0x16
 4073 0102 0D       		.uleb128 0xd
 4074 0103 00       		.byte	0
 4075 0104 03       		.uleb128 0x3
 4076 0105 0E       		.uleb128 0xe
 4077 0106 3A       		.uleb128 0x3a
 4078 0107 0B       		.uleb128 0xb
 4079 0108 3B       		.uleb128 0x3b
 4080 0109 0B       		.uleb128 0xb
 4081 010a 49       		.uleb128 0x49
 4082 010b 13       		.uleb128 0x13
 4083 010c 38       		.uleb128 0x38
 4084 010d 0A       		.uleb128 0xa
 4085 010e 00       		.byte	0
 4086 010f 00       		.byte	0
 4087 0110 17       		.uleb128 0x17
 4088 0111 17       		.uleb128 0x17
 4089 0112 01       		.byte	0x1
 4090 0113 0B       		.uleb128 0xb
 4091 0114 0B       		.uleb128 0xb
 4092 0115 3A       		.uleb128 0x3a
 4093 0116 0B       		.uleb128 0xb
 4094 0117 3B       		.uleb128 0x3b
 4095 0118 0B       		.uleb128 0xb
 4096 0119 01       		.uleb128 0x1
 4097 011a 13       		.uleb128 0x13
 4098 011b 00       		.byte	0
 4099 011c 00       		.byte	0
 4100 011d 18       		.uleb128 0x18
 4101 011e 0D       		.uleb128 0xd
 4102 011f 00       		.byte	0
 4103 0120 03       		.uleb128 0x3
 4104 0121 08       		.uleb128 0x8
 4105 0122 3A       		.uleb128 0x3a
 4106 0123 0B       		.uleb128 0xb
 4107 0124 3B       		.uleb128 0x3b
 4108 0125 0B       		.uleb128 0xb
 4109 0126 49       		.uleb128 0x49
 4110 0127 13       		.uleb128 0x13
 4111 0128 00       		.byte	0
 4112 0129 00       		.byte	0
 4113 012a 19       		.uleb128 0x19
 4114 012b 15       		.uleb128 0x15
 4115 012c 00       		.byte	0
 4116 012d 27       		.uleb128 0x27
 4117 012e 0C       		.uleb128 0xc
 4118 012f 00       		.byte	0
 4119 0130 00       		.byte	0
 4120 0131 1A       		.uleb128 0x1a
 4121 0132 2E       		.uleb128 0x2e
 4122 0133 01       		.byte	0x1
 4123 0134 3F       		.uleb128 0x3f
 4124 0135 0C       		.uleb128 0xc
ARM GAS  /tmp/ccUwvvew.s 			page 75


 4125 0136 03       		.uleb128 0x3
 4126 0137 0E       		.uleb128 0xe
 4127 0138 3A       		.uleb128 0x3a
 4128 0139 0B       		.uleb128 0xb
 4129 013a 3B       		.uleb128 0x3b
 4130 013b 05       		.uleb128 0x5
 4131 013c 27       		.uleb128 0x27
 4132 013d 0C       		.uleb128 0xc
 4133 013e 11       		.uleb128 0x11
 4134 013f 01       		.uleb128 0x1
 4135 0140 12       		.uleb128 0x12
 4136 0141 01       		.uleb128 0x1
 4137 0142 40       		.uleb128 0x40
 4138 0143 06       		.uleb128 0x6
 4139 0144 9742     		.uleb128 0x2117
 4140 0146 0C       		.uleb128 0xc
 4141 0147 01       		.uleb128 0x1
 4142 0148 13       		.uleb128 0x13
 4143 0149 00       		.byte	0
 4144 014a 00       		.byte	0
 4145 014b 1B       		.uleb128 0x1b
 4146 014c 898201   		.uleb128 0x4109
 4147 014f 01       		.byte	0x1
 4148 0150 11       		.uleb128 0x11
 4149 0151 01       		.uleb128 0x1
 4150 0152 31       		.uleb128 0x31
 4151 0153 13       		.uleb128 0x13
 4152 0154 01       		.uleb128 0x1
 4153 0155 13       		.uleb128 0x13
 4154 0156 00       		.byte	0
 4155 0157 00       		.byte	0
 4156 0158 1C       		.uleb128 0x1c
 4157 0159 8A8201   		.uleb128 0x410a
 4158 015c 00       		.byte	0
 4159 015d 02       		.uleb128 0x2
 4160 015e 0A       		.uleb128 0xa
 4161 015f 9142     		.uleb128 0x2111
 4162 0161 0A       		.uleb128 0xa
 4163 0162 00       		.byte	0
 4164 0163 00       		.byte	0
 4165 0164 1D       		.uleb128 0x1d
 4166 0165 898201   		.uleb128 0x4109
 4167 0168 00       		.byte	0
 4168 0169 11       		.uleb128 0x11
 4169 016a 01       		.uleb128 0x1
 4170 016b 31       		.uleb128 0x31
 4171 016c 13       		.uleb128 0x13
 4172 016d 00       		.byte	0
 4173 016e 00       		.byte	0
 4174 016f 1E       		.uleb128 0x1e
 4175 0170 898201   		.uleb128 0x4109
 4176 0173 01       		.byte	0x1
 4177 0174 11       		.uleb128 0x11
 4178 0175 01       		.uleb128 0x1
 4179 0176 31       		.uleb128 0x31
 4180 0177 13       		.uleb128 0x13
 4181 0178 00       		.byte	0
ARM GAS  /tmp/ccUwvvew.s 			page 76


 4182 0179 00       		.byte	0
 4183 017a 1F       		.uleb128 0x1f
 4184 017b 2E       		.uleb128 0x2e
 4185 017c 01       		.byte	0x1
 4186 017d 3F       		.uleb128 0x3f
 4187 017e 0C       		.uleb128 0xc
 4188 017f 03       		.uleb128 0x3
 4189 0180 0E       		.uleb128 0xe
 4190 0181 3A       		.uleb128 0x3a
 4191 0182 0B       		.uleb128 0xb
 4192 0183 3B       		.uleb128 0x3b
 4193 0184 0B       		.uleb128 0xb
 4194 0185 27       		.uleb128 0x27
 4195 0186 0C       		.uleb128 0xc
 4196 0187 11       		.uleb128 0x11
 4197 0188 01       		.uleb128 0x1
 4198 0189 12       		.uleb128 0x12
 4199 018a 01       		.uleb128 0x1
 4200 018b 40       		.uleb128 0x40
 4201 018c 06       		.uleb128 0x6
 4202 018d 9742     		.uleb128 0x2117
 4203 018f 0C       		.uleb128 0xc
 4204 0190 01       		.uleb128 0x1
 4205 0191 13       		.uleb128 0x13
 4206 0192 00       		.byte	0
 4207 0193 00       		.byte	0
 4208 0194 20       		.uleb128 0x20
 4209 0195 05       		.uleb128 0x5
 4210 0196 00       		.byte	0
 4211 0197 03       		.uleb128 0x3
 4212 0198 08       		.uleb128 0x8
 4213 0199 3A       		.uleb128 0x3a
 4214 019a 0B       		.uleb128 0xb
 4215 019b 3B       		.uleb128 0x3b
 4216 019c 0B       		.uleb128 0xb
 4217 019d 49       		.uleb128 0x49
 4218 019e 13       		.uleb128 0x13
 4219 019f 02       		.uleb128 0x2
 4220 01a0 06       		.uleb128 0x6
 4221 01a1 00       		.byte	0
 4222 01a2 00       		.byte	0
 4223 01a3 21       		.uleb128 0x21
 4224 01a4 34       		.uleb128 0x34
 4225 01a5 00       		.byte	0
 4226 01a6 03       		.uleb128 0x3
 4227 01a7 08       		.uleb128 0x8
 4228 01a8 3A       		.uleb128 0x3a
 4229 01a9 0B       		.uleb128 0xb
 4230 01aa 3B       		.uleb128 0x3b
 4231 01ab 0B       		.uleb128 0xb
 4232 01ac 49       		.uleb128 0x49
 4233 01ad 13       		.uleb128 0x13
 4234 01ae 02       		.uleb128 0x2
 4235 01af 06       		.uleb128 0x6
 4236 01b0 00       		.byte	0
 4237 01b1 00       		.byte	0
 4238 01b2 22       		.uleb128 0x22
ARM GAS  /tmp/ccUwvvew.s 			page 77


 4239 01b3 2E       		.uleb128 0x2e
 4240 01b4 01       		.byte	0x1
 4241 01b5 3F       		.uleb128 0x3f
 4242 01b6 0C       		.uleb128 0xc
 4243 01b7 03       		.uleb128 0x3
 4244 01b8 0E       		.uleb128 0xe
 4245 01b9 3A       		.uleb128 0x3a
 4246 01ba 0B       		.uleb128 0xb
 4247 01bb 3B       		.uleb128 0x3b
 4248 01bc 0B       		.uleb128 0xb
 4249 01bd 27       		.uleb128 0x27
 4250 01be 0C       		.uleb128 0xc
 4251 01bf 11       		.uleb128 0x11
 4252 01c0 01       		.uleb128 0x1
 4253 01c1 12       		.uleb128 0x12
 4254 01c2 01       		.uleb128 0x1
 4255 01c3 40       		.uleb128 0x40
 4256 01c4 06       		.uleb128 0x6
 4257 01c5 9642     		.uleb128 0x2116
 4258 01c7 0C       		.uleb128 0xc
 4259 01c8 01       		.uleb128 0x1
 4260 01c9 13       		.uleb128 0x13
 4261 01ca 00       		.byte	0
 4262 01cb 00       		.byte	0
 4263 01cc 23       		.uleb128 0x23
 4264 01cd 34       		.uleb128 0x34
 4265 01ce 00       		.byte	0
 4266 01cf 03       		.uleb128 0x3
 4267 01d0 0E       		.uleb128 0xe
 4268 01d1 3A       		.uleb128 0x3a
 4269 01d2 0B       		.uleb128 0xb
 4270 01d3 3B       		.uleb128 0x3b
 4271 01d4 0B       		.uleb128 0xb
 4272 01d5 49       		.uleb128 0x49
 4273 01d6 13       		.uleb128 0x13
 4274 01d7 02       		.uleb128 0x2
 4275 01d8 06       		.uleb128 0x6
 4276 01d9 00       		.byte	0
 4277 01da 00       		.byte	0
 4278 01db 24       		.uleb128 0x24
 4279 01dc 34       		.uleb128 0x34
 4280 01dd 00       		.byte	0
 4281 01de 03       		.uleb128 0x3
 4282 01df 0E       		.uleb128 0xe
 4283 01e0 3A       		.uleb128 0x3a
 4284 01e1 0B       		.uleb128 0xb
 4285 01e2 3B       		.uleb128 0x3b
 4286 01e3 0B       		.uleb128 0xb
 4287 01e4 49       		.uleb128 0x49
 4288 01e5 13       		.uleb128 0x13
 4289 01e6 00       		.byte	0
 4290 01e7 00       		.byte	0
 4291 01e8 25       		.uleb128 0x25
 4292 01e9 34       		.uleb128 0x34
 4293 01ea 00       		.byte	0
 4294 01eb 03       		.uleb128 0x3
 4295 01ec 08       		.uleb128 0x8
ARM GAS  /tmp/ccUwvvew.s 			page 78


 4296 01ed 3A       		.uleb128 0x3a
 4297 01ee 0B       		.uleb128 0xb
 4298 01ef 3B       		.uleb128 0x3b
 4299 01f0 0B       		.uleb128 0xb
 4300 01f1 49       		.uleb128 0x49
 4301 01f2 13       		.uleb128 0x13
 4302 01f3 02       		.uleb128 0x2
 4303 01f4 0A       		.uleb128 0xa
 4304 01f5 00       		.byte	0
 4305 01f6 00       		.byte	0
 4306 01f7 26       		.uleb128 0x26
 4307 01f8 34       		.uleb128 0x34
 4308 01f9 00       		.byte	0
 4309 01fa 03       		.uleb128 0x3
 4310 01fb 08       		.uleb128 0x8
 4311 01fc 3A       		.uleb128 0x3a
 4312 01fd 0B       		.uleb128 0xb
 4313 01fe 3B       		.uleb128 0x3b
 4314 01ff 05       		.uleb128 0x5
 4315 0200 49       		.uleb128 0x49
 4316 0201 13       		.uleb128 0x13
 4317 0202 3F       		.uleb128 0x3f
 4318 0203 0C       		.uleb128 0xc
 4319 0204 3C       		.uleb128 0x3c
 4320 0205 0C       		.uleb128 0xc
 4321 0206 00       		.byte	0
 4322 0207 00       		.byte	0
 4323 0208 27       		.uleb128 0x27
 4324 0209 34       		.uleb128 0x34
 4325 020a 00       		.byte	0
 4326 020b 03       		.uleb128 0x3
 4327 020c 0E       		.uleb128 0xe
 4328 020d 3A       		.uleb128 0x3a
 4329 020e 0B       		.uleb128 0xb
 4330 020f 3B       		.uleb128 0x3b
 4331 0210 0B       		.uleb128 0xb
 4332 0211 49       		.uleb128 0x49
 4333 0212 13       		.uleb128 0x13
 4334 0213 3F       		.uleb128 0x3f
 4335 0214 0C       		.uleb128 0xc
 4336 0215 3C       		.uleb128 0x3c
 4337 0216 0C       		.uleb128 0xc
 4338 0217 00       		.byte	0
 4339 0218 00       		.byte	0
 4340 0219 28       		.uleb128 0x28
 4341 021a 34       		.uleb128 0x34
 4342 021b 00       		.byte	0
 4343 021c 03       		.uleb128 0x3
 4344 021d 0E       		.uleb128 0xe
 4345 021e 3A       		.uleb128 0x3a
 4346 021f 0B       		.uleb128 0xb
 4347 0220 3B       		.uleb128 0x3b
 4348 0221 0B       		.uleb128 0xb
 4349 0222 49       		.uleb128 0x49
 4350 0223 13       		.uleb128 0x13
 4351 0224 3F       		.uleb128 0x3f
 4352 0225 0C       		.uleb128 0xc
ARM GAS  /tmp/ccUwvvew.s 			page 79


 4353 0226 02       		.uleb128 0x2
 4354 0227 0A       		.uleb128 0xa
 4355 0228 00       		.byte	0
 4356 0229 00       		.byte	0
 4357 022a 29       		.uleb128 0x29
 4358 022b 2E       		.uleb128 0x2e
 4359 022c 01       		.byte	0x1
 4360 022d 3F       		.uleb128 0x3f
 4361 022e 0C       		.uleb128 0xc
 4362 022f 03       		.uleb128 0x3
 4363 0230 0E       		.uleb128 0xe
 4364 0231 3A       		.uleb128 0x3a
 4365 0232 0B       		.uleb128 0xb
 4366 0233 3B       		.uleb128 0x3b
 4367 0234 0B       		.uleb128 0xb
 4368 0235 27       		.uleb128 0x27
 4369 0236 0C       		.uleb128 0xc
 4370 0237 3C       		.uleb128 0x3c
 4371 0238 0C       		.uleb128 0xc
 4372 0239 01       		.uleb128 0x1
 4373 023a 13       		.uleb128 0x13
 4374 023b 00       		.byte	0
 4375 023c 00       		.byte	0
 4376 023d 2A       		.uleb128 0x2a
 4377 023e 05       		.uleb128 0x5
 4378 023f 00       		.byte	0
 4379 0240 49       		.uleb128 0x49
 4380 0241 13       		.uleb128 0x13
 4381 0242 00       		.byte	0
 4382 0243 00       		.byte	0
 4383 0244 2B       		.uleb128 0x2b
 4384 0245 2E       		.uleb128 0x2e
 4385 0246 01       		.byte	0x1
 4386 0247 3F       		.uleb128 0x3f
 4387 0248 0C       		.uleb128 0xc
 4388 0249 03       		.uleb128 0x3
 4389 024a 0E       		.uleb128 0xe
 4390 024b 3A       		.uleb128 0x3a
 4391 024c 0B       		.uleb128 0xb
 4392 024d 3B       		.uleb128 0x3b
 4393 024e 0B       		.uleb128 0xb
 4394 024f 27       		.uleb128 0x27
 4395 0250 0C       		.uleb128 0xc
 4396 0251 49       		.uleb128 0x49
 4397 0252 13       		.uleb128 0x13
 4398 0253 3C       		.uleb128 0x3c
 4399 0254 0C       		.uleb128 0xc
 4400 0255 01       		.uleb128 0x1
 4401 0256 13       		.uleb128 0x13
 4402 0257 00       		.byte	0
 4403 0258 00       		.byte	0
 4404 0259 2C       		.uleb128 0x2c
 4405 025a 2E       		.uleb128 0x2e
 4406 025b 01       		.byte	0x1
 4407 025c 3F       		.uleb128 0x3f
 4408 025d 0C       		.uleb128 0xc
 4409 025e 03       		.uleb128 0x3
ARM GAS  /tmp/ccUwvvew.s 			page 80


 4410 025f 0E       		.uleb128 0xe
 4411 0260 3A       		.uleb128 0x3a
 4412 0261 0B       		.uleb128 0xb
 4413 0262 3B       		.uleb128 0x3b
 4414 0263 05       		.uleb128 0x5
 4415 0264 27       		.uleb128 0x27
 4416 0265 0C       		.uleb128 0xc
 4417 0266 3C       		.uleb128 0x3c
 4418 0267 0C       		.uleb128 0xc
 4419 0268 01       		.uleb128 0x1
 4420 0269 13       		.uleb128 0x13
 4421 026a 00       		.byte	0
 4422 026b 00       		.byte	0
 4423 026c 2D       		.uleb128 0x2d
 4424 026d 2E       		.uleb128 0x2e
 4425 026e 00       		.byte	0
 4426 026f 3F       		.uleb128 0x3f
 4427 0270 0C       		.uleb128 0xc
 4428 0271 03       		.uleb128 0x3
 4429 0272 0E       		.uleb128 0xe
 4430 0273 3A       		.uleb128 0x3a
 4431 0274 0B       		.uleb128 0xb
 4432 0275 3B       		.uleb128 0x3b
 4433 0276 0B       		.uleb128 0xb
 4434 0277 27       		.uleb128 0x27
 4435 0278 0C       		.uleb128 0xc
 4436 0279 3C       		.uleb128 0x3c
 4437 027a 0C       		.uleb128 0xc
 4438 027b 00       		.byte	0
 4439 027c 00       		.byte	0
 4440 027d 2E       		.uleb128 0x2e
 4441 027e 2E       		.uleb128 0x2e
 4442 027f 01       		.byte	0x1
 4443 0280 3F       		.uleb128 0x3f
 4444 0281 0C       		.uleb128 0xc
 4445 0282 03       		.uleb128 0x3
 4446 0283 0E       		.uleb128 0xe
 4447 0284 3A       		.uleb128 0x3a
 4448 0285 0B       		.uleb128 0xb
 4449 0286 3B       		.uleb128 0x3b
 4450 0287 0B       		.uleb128 0xb
 4451 0288 27       		.uleb128 0x27
 4452 0289 0C       		.uleb128 0xc
 4453 028a 3C       		.uleb128 0x3c
 4454 028b 0C       		.uleb128 0xc
 4455 028c 00       		.byte	0
 4456 028d 00       		.byte	0
 4457 028e 00       		.byte	0
 4458              		.section	.debug_loc,"",%progbits
 4459              	.Ldebug_loc0:
 4460              	.LLST0:
 4461 0000 00000000 		.4byte	.LFB86
 4462 0004 02000000 		.4byte	.LCFI0
 4463 0008 0200     		.2byte	0x2
 4464 000a 7D       		.byte	0x7d
 4465 000b 00       		.sleb128 0
 4466 000c 02000000 		.4byte	.LCFI0
ARM GAS  /tmp/ccUwvvew.s 			page 81


 4467 0010 60000000 		.4byte	.LFE86
 4468 0014 0200     		.2byte	0x2
 4469 0016 7D       		.byte	0x7d
 4470 0017 18       		.sleb128 24
 4471 0018 00000000 		.4byte	0
 4472 001c 00000000 		.4byte	0
 4473              	.LLST1:
 4474 0020 00000000 		.4byte	.LFB85
 4475 0024 02000000 		.4byte	.LCFI1
 4476 0028 0200     		.2byte	0x2
 4477 002a 7D       		.byte	0x7d
 4478 002b 00       		.sleb128 0
 4479 002c 02000000 		.4byte	.LCFI1
 4480 0030 60000000 		.4byte	.LFE85
 4481 0034 0200     		.2byte	0x2
 4482 0036 7D       		.byte	0x7d
 4483 0037 18       		.sleb128 24
 4484 0038 00000000 		.4byte	0
 4485 003c 00000000 		.4byte	0
 4486              	.LLST2:
 4487 0040 00000000 		.4byte	.LFB84
 4488 0044 02000000 		.4byte	.LCFI2
 4489 0048 0200     		.2byte	0x2
 4490 004a 7D       		.byte	0x7d
 4491 004b 00       		.sleb128 0
 4492 004c 02000000 		.4byte	.LCFI2
 4493 0050 60000000 		.4byte	.LFE84
 4494 0054 0200     		.2byte	0x2
 4495 0056 7D       		.byte	0x7d
 4496 0057 18       		.sleb128 24
 4497 0058 00000000 		.4byte	0
 4498 005c 00000000 		.4byte	0
 4499              	.LLST3:
 4500 0060 00000000 		.4byte	.LFB77
 4501 0064 02000000 		.4byte	.LCFI3
 4502 0068 0200     		.2byte	0x2
 4503 006a 7D       		.byte	0x7d
 4504 006b 00       		.sleb128 0
 4505 006c 02000000 		.4byte	.LCFI3
 4506 0070 A4000000 		.4byte	.LFE77
 4507 0074 0200     		.2byte	0x2
 4508 0076 7D       		.byte	0x7d
 4509 0077 20       		.sleb128 32
 4510 0078 00000000 		.4byte	0
 4511 007c 00000000 		.4byte	0
 4512              	.LLST4:
 4513 0080 00000000 		.4byte	.LFB78
 4514 0084 02000000 		.4byte	.LCFI4
 4515 0088 0200     		.2byte	0x2
 4516 008a 7D       		.byte	0x7d
 4517 008b 00       		.sleb128 0
 4518 008c 02000000 		.4byte	.LCFI4
 4519 0090 2C000000 		.4byte	.LFE78
 4520 0094 0200     		.2byte	0x2
 4521 0096 7D       		.byte	0x7d
 4522 0097 10       		.sleb128 16
 4523 0098 00000000 		.4byte	0
ARM GAS  /tmp/ccUwvvew.s 			page 82


 4524 009c 00000000 		.4byte	0
 4525              	.LLST5:
 4526 00a0 00000000 		.4byte	.LVL24
 4527 00a4 07000000 		.4byte	.LVL25-1
 4528 00a8 0100     		.2byte	0x1
 4529 00aa 50       		.byte	0x50
 4530 00ab 07000000 		.4byte	.LVL25-1
 4531 00af 26000000 		.4byte	.LVL29
 4532 00b3 0100     		.2byte	0x1
 4533 00b5 54       		.byte	0x54
 4534 00b6 26000000 		.4byte	.LVL29
 4535 00ba 2C000000 		.4byte	.LFE78
 4536 00be 0400     		.2byte	0x4
 4537 00c0 F3       		.byte	0xf3
 4538 00c1 01       		.uleb128 0x1
 4539 00c2 50       		.byte	0x50
 4540 00c3 9F       		.byte	0x9f
 4541 00c4 00000000 		.4byte	0
 4542 00c8 00000000 		.4byte	0
 4543              	.LLST6:
 4544 00cc 0A000000 		.4byte	.LVL26
 4545 00d0 0E000000 		.4byte	.LVL27
 4546 00d4 0800     		.2byte	0x8
 4547 00d6 73       		.byte	0x73
 4548 00d7 00       		.sleb128 0
 4549 00d8 94       		.byte	0x94
 4550 00d9 01       		.byte	0x1
 4551 00da 70       		.byte	0x70
 4552 00db 00       		.sleb128 0
 4553 00dc 1E       		.byte	0x1e
 4554 00dd 9F       		.byte	0x9f
 4555 00de 00000000 		.4byte	0
 4556 00e2 00000000 		.4byte	0
 4557              	.LLST7:
 4558 00e6 00000000 		.4byte	.LFB83
 4559 00ea 02000000 		.4byte	.LCFI5
 4560 00ee 0200     		.2byte	0x2
 4561 00f0 7D       		.byte	0x7d
 4562 00f1 00       		.sleb128 0
 4563 00f2 02000000 		.4byte	.LCFI5
 4564 00f6 06000000 		.4byte	.LCFI6
 4565 00fa 0200     		.2byte	0x2
 4566 00fc 7D       		.byte	0x7d
 4567 00fd 14       		.sleb128 20
 4568 00fe 06000000 		.4byte	.LCFI6
 4569 0102 A8000000 		.4byte	.LFE83
 4570 0106 0200     		.2byte	0x2
 4571 0108 7D       		.byte	0x7d
 4572 0109 30       		.sleb128 48
 4573 010a 00000000 		.4byte	0
 4574 010e 00000000 		.4byte	0
 4575              	.LLST8:
 4576 0112 00000000 		.4byte	.LVL30
 4577 0116 08000000 		.4byte	.LVL31
 4578 011a 0200     		.2byte	0x2
 4579 011c 30       		.byte	0x30
 4580 011d 9F       		.byte	0x9f
ARM GAS  /tmp/ccUwvvew.s 			page 83


 4581 011e 00000000 		.4byte	0
 4582 0122 00000000 		.4byte	0
 4583              	.LLST9:
 4584 0126 3A000000 		.4byte	.LVL36
 4585 012a 3C000000 		.4byte	.LVL37
 4586 012e 0200     		.2byte	0x2
 4587 0130 30       		.byte	0x30
 4588 0131 9F       		.byte	0x9f
 4589 0132 00000000 		.4byte	0
 4590 0136 00000000 		.4byte	0
 4591              	.LLST10:
 4592 013a 00000000 		.4byte	.LVL30
 4593 013e 08000000 		.4byte	.LVL31
 4594 0142 0200     		.2byte	0x2
 4595 0144 30       		.byte	0x30
 4596 0145 9F       		.byte	0x9f
 4597 0146 86000000 		.4byte	.LVL43
 4598 014a 92000000 		.4byte	.LVL45
 4599 014e 0100     		.2byte	0x1
 4600 0150 55       		.byte	0x55
 4601 0151 92000000 		.4byte	.LVL45
 4602 0155 A8000000 		.4byte	.LFE83
 4603 0159 0200     		.2byte	0x2
 4604 015b 91       		.byte	0x91
 4605 015c 58       		.sleb128 -40
 4606 015d 00000000 		.4byte	0
 4607 0161 00000000 		.4byte	0
 4608              	.LLST11:
 4609 0165 00000000 		.4byte	.LVL30
 4610 0169 08000000 		.4byte	.LVL31
 4611 016d 0200     		.2byte	0x2
 4612 016f 30       		.byte	0x30
 4613 0170 9F       		.byte	0x9f
 4614 0171 3A000000 		.4byte	.LVL36
 4615 0175 3C000000 		.4byte	.LVL37
 4616 0179 0200     		.2byte	0x2
 4617 017b 91       		.byte	0x91
 4618 017c 58       		.sleb128 -40
 4619 017d 4E000000 		.4byte	.LVL39
 4620 0181 55000000 		.4byte	.LVL40-1
 4621 0185 0100     		.2byte	0x1
 4622 0187 50       		.byte	0x50
 4623 0188 55000000 		.4byte	.LVL40-1
 4624 018c 76000000 		.4byte	.LVL42
 4625 0190 0100     		.2byte	0x1
 4626 0192 55       		.byte	0x55
 4627 0193 86000000 		.4byte	.LVL43
 4628 0197 92000000 		.4byte	.LVL45
 4629 019b 0100     		.2byte	0x1
 4630 019d 55       		.byte	0x55
 4631 019e 92000000 		.4byte	.LVL45
 4632 01a2 A8000000 		.4byte	.LFE83
 4633 01a6 0200     		.2byte	0x2
 4634 01a8 91       		.byte	0x91
 4635 01a9 58       		.sleb128 -40
 4636 01aa 00000000 		.4byte	0
 4637 01ae 00000000 		.4byte	0
ARM GAS  /tmp/ccUwvvew.s 			page 84


 4638              	.LLST12:
 4639 01b2 00000000 		.4byte	.LFB82
 4640 01b6 02000000 		.4byte	.LCFI7
 4641 01ba 0200     		.2byte	0x2
 4642 01bc 7D       		.byte	0x7d
 4643 01bd 00       		.sleb128 0
 4644 01be 02000000 		.4byte	.LCFI7
 4645 01c2 06000000 		.4byte	.LCFI8
 4646 01c6 0200     		.2byte	0x2
 4647 01c8 7D       		.byte	0x7d
 4648 01c9 14       		.sleb128 20
 4649 01ca 06000000 		.4byte	.LCFI8
 4650 01ce D0000000 		.4byte	.LFE82
 4651 01d2 0200     		.2byte	0x2
 4652 01d4 7D       		.byte	0x7d
 4653 01d5 28       		.sleb128 40
 4654 01d6 00000000 		.4byte	0
 4655 01da 00000000 		.4byte	0
 4656              	.LLST13:
 4657 01de 30000000 		.4byte	.LVL49
 4658 01e2 34000000 		.4byte	.LVL50
 4659 01e6 0200     		.2byte	0x2
 4660 01e8 30       		.byte	0x30
 4661 01e9 9F       		.byte	0x9f
 4662 01ea 00000000 		.4byte	0
 4663 01ee 00000000 		.4byte	0
 4664              	.LLST14:
 4665 01f2 30000000 		.4byte	.LVL49
 4666 01f6 34000000 		.4byte	.LVL50
 4667 01fa 0200     		.2byte	0x2
 4668 01fc 30       		.byte	0x30
 4669 01fd 9F       		.byte	0x9f
 4670 01fe 46000000 		.4byte	.LVL51
 4671 0202 4A000000 		.4byte	.LVL52
 4672 0206 0100     		.2byte	0x1
 4673 0208 50       		.byte	0x50
 4674 0209 4A000000 		.4byte	.LVL52
 4675 020d 90000000 		.4byte	.LVL58
 4676 0211 0100     		.2byte	0x1
 4677 0213 55       		.byte	0x55
 4678 0214 00000000 		.4byte	0
 4679 0218 00000000 		.4byte	0
 4680              	.LLST15:
 4681 021c 00000000 		.4byte	.LFB81
 4682 0220 02000000 		.4byte	.LCFI9
 4683 0224 0200     		.2byte	0x2
 4684 0226 7D       		.byte	0x7d
 4685 0227 00       		.sleb128 0
 4686 0228 02000000 		.4byte	.LCFI9
 4687 022c 70000000 		.4byte	.LFE81
 4688 0230 0200     		.2byte	0x2
 4689 0232 7D       		.byte	0x7d
 4690 0233 18       		.sleb128 24
 4691 0234 00000000 		.4byte	0
 4692 0238 00000000 		.4byte	0
 4693              	.LLST16:
 4694 023c 00000000 		.4byte	.LFB80
ARM GAS  /tmp/ccUwvvew.s 			page 85


 4695 0240 02000000 		.4byte	.LCFI10
 4696 0244 0200     		.2byte	0x2
 4697 0246 7D       		.byte	0x7d
 4698 0247 00       		.sleb128 0
 4699 0248 02000000 		.4byte	.LCFI10
 4700 024c 28010000 		.4byte	.LFE80
 4701 0250 0200     		.2byte	0x2
 4702 0252 7D       		.byte	0x7d
 4703 0253 18       		.sleb128 24
 4704 0254 00000000 		.4byte	0
 4705 0258 00000000 		.4byte	0
 4706              	.LLST17:
 4707 025c 00000000 		.4byte	.LFB79
 4708 0260 02000000 		.4byte	.LCFI11
 4709 0264 0200     		.2byte	0x2
 4710 0266 7D       		.byte	0x7d
 4711 0267 00       		.sleb128 0
 4712 0268 02000000 		.4byte	.LCFI11
 4713 026c 04000000 		.4byte	.LCFI12
 4714 0270 0200     		.2byte	0x2
 4715 0272 7D       		.byte	0x7d
 4716 0273 14       		.sleb128 20
 4717 0274 04000000 		.4byte	.LCFI12
 4718 0278 08010000 		.4byte	.LFE79
 4719 027c 0200     		.2byte	0x2
 4720 027e 7D       		.byte	0x7d
 4721 027f 30       		.sleb128 48
 4722 0280 00000000 		.4byte	0
 4723 0284 00000000 		.4byte	0
 4724              		.section	.debug_aranges,"",%progbits
 4725 0000 64000000 		.4byte	0x64
 4726 0004 0200     		.2byte	0x2
 4727 0006 00000000 		.4byte	.Ldebug_info0
 4728 000a 04       		.byte	0x4
 4729 000b 00       		.byte	0
 4730 000c 0000     		.2byte	0
 4731 000e 0000     		.2byte	0
 4732 0010 00000000 		.4byte	.LFB86
 4733 0014 60000000 		.4byte	.LFE86-.LFB86
 4734 0018 00000000 		.4byte	.LFB85
 4735 001c 60000000 		.4byte	.LFE85-.LFB85
 4736 0020 00000000 		.4byte	.LFB84
 4737 0024 60000000 		.4byte	.LFE84-.LFB84
 4738 0028 00000000 		.4byte	.LFB77
 4739 002c A4000000 		.4byte	.LFE77-.LFB77
 4740 0030 00000000 		.4byte	.LFB78
 4741 0034 2C000000 		.4byte	.LFE78-.LFB78
 4742 0038 00000000 		.4byte	.LFB83
 4743 003c A8000000 		.4byte	.LFE83-.LFB83
 4744 0040 00000000 		.4byte	.LFB82
 4745 0044 D0000000 		.4byte	.LFE82-.LFB82
 4746 0048 00000000 		.4byte	.LFB81
 4747 004c 70000000 		.4byte	.LFE81-.LFB81
 4748 0050 00000000 		.4byte	.LFB80
 4749 0054 28010000 		.4byte	.LFE80-.LFB80
 4750 0058 00000000 		.4byte	.LFB79
 4751 005c 08010000 		.4byte	.LFE79-.LFB79
ARM GAS  /tmp/ccUwvvew.s 			page 86


 4752 0060 00000000 		.4byte	0
 4753 0064 00000000 		.4byte	0
 4754              		.section	.debug_ranges,"",%progbits
 4755              	.Ldebug_ranges0:
 4756 0000 00000000 		.4byte	.LFB86
 4757 0004 60000000 		.4byte	.LFE86
 4758 0008 00000000 		.4byte	.LFB85
 4759 000c 60000000 		.4byte	.LFE85
 4760 0010 00000000 		.4byte	.LFB84
 4761 0014 60000000 		.4byte	.LFE84
 4762 0018 00000000 		.4byte	.LFB77
 4763 001c A4000000 		.4byte	.LFE77
 4764 0020 00000000 		.4byte	.LFB78
 4765 0024 2C000000 		.4byte	.LFE78
 4766 0028 00000000 		.4byte	.LFB83
 4767 002c A8000000 		.4byte	.LFE83
 4768 0030 00000000 		.4byte	.LFB82
 4769 0034 D0000000 		.4byte	.LFE82
 4770 0038 00000000 		.4byte	.LFB81
 4771 003c 70000000 		.4byte	.LFE81
 4772 0040 00000000 		.4byte	.LFB80
 4773 0044 28010000 		.4byte	.LFE80
 4774 0048 00000000 		.4byte	.LFB79
 4775 004c 08010000 		.4byte	.LFE79
 4776 0050 00000000 		.4byte	0
 4777 0054 00000000 		.4byte	0
 4778              		.section	.debug_line,"",%progbits
 4779              	.Ldebug_line0:
 4780 0000 8C030000 		.section	.debug_str,"MS",%progbits,1
 4780      02000302 
 4780      00000201 
 4780      FB0E0D00 
 4780      01010101 
 4781              	.LASF70:
 4782 0000 74635F73 		.ascii	"tc_switch\000"
 4782      77697463 
 4782      6800
 4783              	.LASF78:
 4784 000a 61753846 		.ascii	"au8FontTable\000"
 4784      6F6E7454 
 4784      61626C65 
 4784      00
 4785              	.LASF2:
 4786 0017 73697A65 		.ascii	"size_t\000"
 4786      5F7400
 4787              	.LASF127:
 4788 001e 7372632F 		.ascii	"src/display.c\000"
 4788      64697370 
 4788      6C61792E 
 4788      6300
 4789              	.LASF41:
 4790 002c 4F545950 		.ascii	"OTYPER\000"
 4790      455200
 4791              	.LASF26:
 4792 0033 706F7274 		.ascii	"port_intctx\000"
 4792      5F696E74 
 4792      63747800 
ARM GAS  /tmp/ccUwvvew.s 			page 87


 4793              	.LASF71:
 4794 003f 76626174 		.ascii	"vbat\000"
 4794      00
 4795              	.LASF60:
 4796 0044 74635F67 		.ascii	"tc_gear_trim\000"
 4796      6561725F 
 4796      7472696D 
 4796      00
 4797              	.LASF73:
 4798 0051 464F4E54 		.ascii	"FONT_DEF\000"
 4798      5F444546 
 4798      00
 4799              	.LASF92:
 4800 005a 73746172 		.ascii	"startDisplay\000"
 4800      74446973 
 4800      706C6179 
 4800      00
 4801              	.LASF13:
 4802 0067 6C6F6E67 		.ascii	"long long unsigned int\000"
 4802      206C6F6E 
 4802      6720756E 
 4802      7369676E 
 4802      65642069 
 4803              	.LASF43:
 4804 007e 50555044 		.ascii	"PUPDR\000"
 4804      5200
 4805              	.LASF51:
 4806 0084 6375745F 		.ascii	"cut_type\000"
 4806      74797065 
 4806      00
 4807              	.LASF50:
 4808 008d 66756E63 		.ascii	"functions\000"
 4808      74696F6E 
 4808      7300
 4809              	.LASF34:
 4810 0097 6E657874 		.ascii	"next\000"
 4810      00
 4811              	.LASF87:
 4812 009c 7375624D 		.ascii	"subMenu\000"
 4812      656E7500 
 4813              	.LASF12:
 4814 00a4 6C6F6E67 		.ascii	"long long int\000"
 4814      206C6F6E 
 4814      6720696E 
 4814      7400
 4815              	.LASF1:
 4816 00b2 7369676E 		.ascii	"signed char\000"
 4816      65642063 
 4816      68617200 
 4817              	.LASF44:
 4818 00be 42535252 		.ascii	"BSRR\000"
 4818      00
 4819              	.LASF91:
 4820 00c3 746F6767 		.ascii	"toggleLED\000"
 4820      6C654C45 
 4820      4400
 4821              	.LASF27:
ARM GAS  /tmp/ccUwvvew.s 			page 88


 4822 00cd 696E7463 		.ascii	"intctx_t\000"
 4822      74785F74 
 4822      00
 4823              	.LASF122:
 4824 00d6 73736431 		.ascii	"ssd1306ClearScreen\000"
 4824      33303643 
 4824      6C656172 
 4824      53637265 
 4824      656E00
 4825              	.LASF15:
 4826 00e9 73746174 		.ascii	"state\000"
 4826      6500
 4827              	.LASF9:
 4828 00ef 6C6F6E67 		.ascii	"long int\000"
 4828      20696E74 
 4828      00
 4829              	.LASF18:
 4830 00f8 74737461 		.ascii	"tstate_t\000"
 4830      74655F74 
 4830      00
 4831              	.LASF77:
 4832 0101 75384C61 		.ascii	"u8LastChar\000"
 4832      73744368 
 4832      617200
 4833              	.LASF114:
 4834 010c 6D61696E 		.ascii	"mainMenuItemList\000"
 4834      4D656E75 
 4834      4974656D 
 4834      4C697374 
 4834      00
 4835              	.LASF6:
 4836 011d 75696E74 		.ascii	"uint16_t\000"
 4836      31365F74 
 4836      00
 4837              	.LASF124:
 4838 0126 77726974 		.ascii	"writeSettings\000"
 4838      65536574 
 4838      74696E67 
 4838      7300
 4839              	.LASF72:
 4840 0134 73656E73 		.ascii	"sensors_t\000"
 4840      6F72735F 
 4840      7400
 4841              	.LASF105:
 4842 013e 466F6E74 		.ascii	"Font_System5x8\000"
 4842      5F537973 
 4842      74656D35 
 4842      783800
 4843              	.LASF101:
 4844 014d 73686F77 		.ascii	"showDiag\000"
 4844      44696167 
 4844      00
 4845              	.LASF42:
 4846 0156 4F535045 		.ascii	"OSPEEDR\000"
 4846      45445200 
 4847              	.LASF24:
 4848 015e 72656761 		.ascii	"regarm_t\000"
ARM GAS  /tmp/ccUwvvew.s 			page 89


 4848      726D5F74 
 4848      00
 4849              	.LASF48:
 4850 0167 73746D33 		.ascii	"stm32_gpio_t\000"
 4850      325F6770 
 4850      696F5F74 
 4850      00
 4851              	.LASF103:
 4852 0174 64697370 		.ascii	"display\000"
 4852      6C617900 
 4853              	.LASF76:
 4854 017c 75384669 		.ascii	"u8FirstChar\000"
 4854      72737443 
 4854      68617200 
 4855              	.LASF97:
 4856 0188 73657453 		.ascii	"setShifter\000"
 4856      68696674 
 4856      657200
 4857              	.LASF21:
 4858 0193 636E745F 		.ascii	"cnt_t\000"
 4858      7400
 4859              	.LASF0:
 4860 0199 756E7369 		.ascii	"unsigned int\000"
 4860      676E6564 
 4860      20696E74 
 4860      00
 4861              	.LASF40:
 4862 01a6 4D4F4445 		.ascii	"MODER\000"
 4862      5200
 4863              	.LASF125:
 4864 01ac 7374726C 		.ascii	"strlen\000"
 4864      656E00
 4865              	.LASF55:
 4866 01b3 73656E73 		.ascii	"sensor_direction\000"
 4866      6F725F64 
 4866      69726563 
 4866      74696F6E 
 4866      00
 4867              	.LASF109:
 4868 01c4 64697361 		.ascii	"disabled\000"
 4868      626C6564 
 4868      00
 4869              	.LASF11:
 4870 01cd 6C6F6E67 		.ascii	"long unsigned int\000"
 4870      20756E73 
 4870      69676E65 
 4870      6420696E 
 4870      7400
 4871              	.LASF16:
 4872 01df 74696D65 		.ascii	"timeout\000"
 4872      6F757400 
 4873              	.LASF45:
 4874 01e7 4C434B52 		.ascii	"LCKR\000"
 4874      00
 4875              	.LASF25:
 4876 01ec 6E696C5F 		.ascii	"nil_thread\000"
 4876      74687265 
ARM GAS  /tmp/ccUwvvew.s 			page 90


 4876      616400
 4877              	.LASF120:
 4878 01f7 73736431 		.ascii	"ssd1306TurnOn\000"
 4878      33303654 
 4878      75726E4F 
 4878      6E00
 4879              	.LASF62:
 4880 0205 64617461 		.ascii	"data\000"
 4880      00
 4881              	.LASF7:
 4882 020a 73686F72 		.ascii	"short unsigned int\000"
 4882      7420756E 
 4882      7369676E 
 4882      65642069 
 4882      6E7400
 4883              	.LASF84:
 4884 021d 5F5F6D65 		.ascii	"__menuItem\000"
 4884      6E754974 
 4884      656D00
 4885              	.LASF19:
 4886 0228 6D73675F 		.ascii	"msg_t\000"
 4886      7400
 4887              	.LASF31:
 4888 022e 73656D70 		.ascii	"semp\000"
 4888      00
 4889              	.LASF61:
 4890 0233 5F5F7365 		.ascii	"__settings\000"
 4890      7474696E 
 4890      677300
 4891              	.LASF35:
 4892 023e 73797374 		.ascii	"systime\000"
 4892      696D6500 
 4893              	.LASF20:
 4894 0246 6576656E 		.ascii	"eventmask_t\000"
 4894      746D6173 
 4894      6B5F7400 
 4895              	.LASF5:
 4896 0252 73686F72 		.ascii	"short int\000"
 4896      7420696E 
 4896      7400
 4897              	.LASF80:
 4898 025c 5F5F6D65 		.ascii	"__menuStruct\000"
 4898      6E755374 
 4898      72756374 
 4898      00
 4899              	.LASF65:
 4900 0269 5F5F6469 		.ascii	"__display\000"
 4900      73706C61 
 4900      7900
 4901              	.LASF64:
 4902 0273 73657474 		.ascii	"settings_t\000"
 4902      696E6773 
 4902      5F7400
 4903              	.LASF89:
 4904 027e 746F6767 		.ascii	"toggleTC\000"
 4904      6C655443 
 4904      00
ARM GAS  /tmp/ccUwvvew.s 			page 91


 4905              	.LASF81:
 4906 0287 6D656E75 		.ascii	"menuName\000"
 4906      4E616D65 
 4906      00
 4907              	.LASF86:
 4908 0290 68616E64 		.ascii	"handler\000"
 4908      6C657200 
 4909              	.LASF100:
 4910 0298 73686F77 		.ascii	"showInfo\000"
 4910      496E666F 
 4910      00
 4911              	.LASF112:
 4912 02a1 73657474 		.ascii	"settingsMenuList\000"
 4912      696E6773 
 4912      4D656E75 
 4912      4C697374 
 4912      00
 4913              	.LASF107:
 4914 02b2 76657273 		.ascii	"version\000"
 4914      696F6E00 
 4915              	.LASF22:
 4916 02ba 73697A65 		.ascii	"sizetype\000"
 4916      74797065 
 4916      00
 4917              	.LASF30:
 4918 02c3 74687265 		.ascii	"thread_reference_t\000"
 4918      61645F72 
 4918      65666572 
 4918      656E6365 
 4918      5F7400
 4919              	.LASF39:
 4920 02d6 636C6561 		.ascii	"clear\000"
 4920      7200
 4921              	.LASF82:
 4922 02dc 6E756D62 		.ascii	"numberItems\000"
 4922      65724974 
 4922      656D7300 
 4923              	.LASF94:
 4924 02e8 73657447 		.ascii	"setGears\000"
 4924      65617273 
 4924      00
 4925              	.LASF49:
 4926 02f1 696F706F 		.ascii	"ioportmask_t\000"
 4926      72746D61 
 4926      736B5F74 
 4926      00
 4927              	.LASF56:
 4928 02fe 6D696E5F 		.ascii	"min_speed\000"
 4928      73706565 
 4928      6400
 4929              	.LASF102:
 4930 0308 73657474 		.ascii	"settings\000"
 4930      696E6773 
 4930      00
 4931              	.LASF116:
 4932 0311 73736431 		.ascii	"ssd1306DrawString\000"
 4932      33303644 
ARM GAS  /tmp/ccUwvvew.s 			page 92


 4932      72617753 
 4932      7472696E 
 4932      6700
 4933              	.LASF66:
 4934 0323 64697370 		.ascii	"display_t\000"
 4934      6C61795F 
 4934      7400
 4935              	.LASF46:
 4936 032d 4146524C 		.ascii	"AFRL\000"
 4936      00
 4937              	.LASF95:
 4938 0332 6C617374 		.ascii	"last_ratio\000"
 4938      5F726174 
 4938      696F00
 4939              	.LASF118:
 4940 033d 73736431 		.ascii	"ssd1306Init\000"
 4940      33303649 
 4940      6E697400 
 4941              	.LASF126:
 4942 0349 474E5520 		.ascii	"GNU C 4.7.3 20130312 (release) [ARM/embedded-4_7-br"
 4942      4320342E 
 4942      372E3320 
 4942      32303133 
 4942      30333132 
 4943 037c 616E6368 		.ascii	"anch revision 196615]\000"
 4943      20726576 
 4943      6973696F 
 4943      6E203139 
 4943      36363135 
 4944              	.LASF37:
 4945 0392 6E696C5F 		.ascii	"nil_system_t\000"
 4945      73797374 
 4945      656D5F74 
 4945      00
 4946              	.LASF38:
 4947 039f 5F426F6F 		.ascii	"_Bool\000"
 4947      6C00
 4948              	.LASF8:
 4949 03a5 696E7433 		.ascii	"int32_t\000"
 4949      325F7400 
 4950              	.LASF4:
 4951 03ad 756E7369 		.ascii	"unsigned char\000"
 4951      676E6564 
 4951      20636861 
 4951      7200
 4952              	.LASF115:
 4953 03bb 6D61696E 		.ascii	"mainMenu\000"
 4953      4D656E75 
 4953      00
 4954              	.LASF75:
 4955 03c4 75384865 		.ascii	"u8Height\000"
 4955      69676874 
 4955      00
 4956              	.LASF74:
 4957 03cd 75385769 		.ascii	"u8Width\000"
 4957      64746800 
 4958              	.LASF69:
ARM GAS  /tmp/ccUwvvew.s 			page 93


 4959 03d5 73747261 		.ascii	"strain_gauge\000"
 4959      696E5F67 
 4959      61756765 
 4959      00
 4960              	.LASF85:
 4961 03e2 6974656D 		.ascii	"itemName\000"
 4961      4E616D65 
 4961      00
 4962              	.LASF36:
 4963 03eb 74687265 		.ascii	"threads\000"
 4963      61647300 
 4964              	.LASF93:
 4965 03f3 64726177 		.ascii	"drawTitle\000"
 4965      5469746C 
 4965      6500
 4966              	.LASF32:
 4967 03fd 65776D61 		.ascii	"ewmask\000"
 4967      736B00
 4968              	.LASF111:
 4969 0404 66756E63 		.ascii	"functionsMenu\000"
 4969      74696F6E 
 4969      734D656E 
 4969      7500
 4970              	.LASF53:
 4971 0412 736C6970 		.ascii	"slip_threshold\000"
 4971      5F746872 
 4971      6573686F 
 4971      6C6400
 4972              	.LASF28:
 4973 0421 73656D61 		.ascii	"semaphore_t\000"
 4973      70686F72 
 4973      655F7400 
 4974              	.LASF33:
 4975 042d 63757272 		.ascii	"current\000"
 4975      656E7400 
 4976              	.LASF119:
 4977 0435 73657244 		.ascii	"serDbg\000"
 4977      626700
 4978              	.LASF10:
 4979 043c 75696E74 		.ascii	"uint32_t\000"
 4979      33325F74 
 4979      00
 4980              	.LASF129:
 4981 0445 69746F61 		.ascii	"itoa\000"
 4981      00
 4982              	.LASF108:
 4983 044a 656E6162 		.ascii	"enabled\000"
 4983      6C656400 
 4984              	.LASF104:
 4985 0452 73656E73 		.ascii	"sensors\000"
 4985      6F727300 
 4986              	.LASF113:
 4987 045a 73657474 		.ascii	"settingsMenu\000"
 4987      696E6773 
 4987      4D656E75 
 4987      00
 4988              	.LASF29:
ARM GAS  /tmp/ccUwvvew.s 			page 94


 4989 0467 63686172 		.ascii	"char\000"
 4989      00
 4990              	.LASF90:
 4991 046c 746F6767 		.ascii	"toggleShifter\000"
 4991      6C655368 
 4991      69667465 
 4991      7200
 4992              	.LASF59:
 4993 047a 67656172 		.ascii	"gears_cut_time\000"
 4993      735F6375 
 4993      745F7469 
 4993      6D6500
 4994              	.LASF23:
 4995 0489 73797374 		.ascii	"systime_t\000"
 4995      696D655F 
 4995      7400
 4996              	.LASF54:
 4997 0493 73656E73 		.ascii	"sensor_gain\000"
 4997      6F725F67 
 4997      61696E00 
 4998              	.LASF121:
 4999 049f 73736431 		.ascii	"ssd1306TurnOff\000"
 4999      33303654 
 4999      75726E4F 
 4999      666600
 5000              	.LASF79:
 5001 04ae 6D656E75 		.ascii	"menuStruct_t\000"
 5001      53747275 
 5001      63745F74 
 5001      00
 5002              	.LASF57:
 5003 04bb 6D696E5F 		.ascii	"min_rpm\000"
 5003      72706D00 
 5004              	.LASF98:
 5005 04c3 7065616B 		.ascii	"peak\000"
 5005      00
 5006              	.LASF117:
 5007 04c8 63685468 		.ascii	"chThdSleep\000"
 5007      64536C65 
 5007      657000
 5008              	.LASF106:
 5009 04d3 466F6E74 		.ascii	"Font_System7x8\000"
 5009      5F537973 
 5009      74656D37 
 5009      783800
 5010              	.LASF63:
 5011 04e2 43524356 		.ascii	"CRCValue\000"
 5011      616C7565 
 5011      00
 5012              	.LASF14:
 5013 04eb 63747870 		.ascii	"ctxp\000"
 5013      00
 5014              	.LASF3:
 5015 04f0 75696E74 		.ascii	"uint8_t\000"
 5015      385F7400 
 5016              	.LASF67:
 5017 04f8 5F5F7365 		.ascii	"__sensors\000"
ARM GAS  /tmp/ccUwvvew.s 			page 95


 5017      6E736F72 
 5017      7300
 5018              	.LASF17:
 5019 0502 65706D61 		.ascii	"epmask\000"
 5019      736B00
 5020              	.LASF52:
 5021 0509 73656E73 		.ascii	"sensor_threshold\000"
 5021      6F725F74 
 5021      68726573 
 5021      686F6C64 
 5021      00
 5022              	.LASF128:
 5023 051a 2F6D6564 		.ascii	"/media/data/src/OpenTCS/code\000"
 5023      69612F64 
 5023      6174612F 
 5023      7372632F 
 5023      4F70656E 
 5024              	.LASF88:
 5025 0537 6D656E75 		.ascii	"menuItem_t\000"
 5025      4974656D 
 5025      5F7400
 5026              	.LASF110:
 5027 0542 66756E63 		.ascii	"functionsMenuList\000"
 5027      74696F6E 
 5027      734D656E 
 5027      754C6973 
 5027      7400
 5028              	.LASF68:
 5029 0554 73706565 		.ascii	"speed\000"
 5029      6400
 5030              	.LASF123:
 5031 055a 6F70656E 		.ascii	"openMenu\000"
 5031      4D656E75 
 5031      00
 5032              	.LASF47:
 5033 0563 41465248 		.ascii	"AFRH\000"
 5033      00
 5034              	.LASF83:
 5035 0568 6974656D 		.ascii	"items\000"
 5035      7300
 5036              	.LASF99:
 5037 056e 73657443 		.ascii	"setCutMode\000"
 5037      75744D6F 
 5037      646500
 5038              	.LASF58:
 5039 0579 67656172 		.ascii	"gears_ratio\000"
 5039      735F7261 
 5039      74696F00 
 5040              	.LASF96:
 5041 0585 6375725F 		.ascii	"cur_ratio\000"
 5041      72617469 
 5041      6F00
 5042              		.ident	"GCC: (GNU Tools for ARM Embedded Processors) 4.7.3 20130312 (release) [ARM/embedded-4_7-br
ARM GAS  /tmp/ccUwvvew.s 			page 96


DEFINED SYMBOLS
                            *ABS*:00000000 display.c
     /tmp/ccUwvvew.s:18     .text.toggleTC:00000000 $t
     /tmp/ccUwvvew.s:23     .text.toggleTC:00000000 toggleTC
     /tmp/ccUwvvew.s:89     .text.toggleTC:00000048 $d
     /tmp/ccUwvvew.s:99     .text.toggleShifter:00000000 $t
     /tmp/ccUwvvew.s:104    .text.toggleShifter:00000000 toggleShifter
     /tmp/ccUwvvew.s:169    .text.toggleShifter:00000048 $d
     /tmp/ccUwvvew.s:179    .text.toggleLED:00000000 $t
     /tmp/ccUwvvew.s:184    .text.toggleLED:00000000 toggleLED
     /tmp/ccUwvvew.s:249    .text.toggleLED:00000048 $d
     /tmp/ccUwvvew.s:259    .text.startDisplay:00000000 $t
     /tmp/ccUwvvew.s:264    .text.startDisplay:00000000 startDisplay
     /tmp/ccUwvvew.s:376    .text.startDisplay:00000080 $d
     /tmp/ccUwvvew.s:389    .text.drawTitle:00000000 $t
     /tmp/ccUwvvew.s:394    .text.drawTitle:00000000 drawTitle
     /tmp/ccUwvvew.s:438    .text.drawTitle:00000028 $d
     /tmp/ccUwvvew.s:444    .text.setGears:00000000 $t
     /tmp/ccUwvvew.s:449    .text.setGears:00000000 setGears
     /tmp/ccUwvvew.s:574    .text.setGears:00000094 $d
     /tmp/ccUwvvew.s:583    .text.setShifter:00000000 $t
     /tmp/ccUwvvew.s:588    .text.setShifter:00000000 setShifter
     /tmp/ccUwvvew.s:723    .text.setShifter:000000a8 $d
     /tmp/ccUwvvew.s:737    .text.setCutMode:00000000 $t
     /tmp/ccUwvvew.s:742    .text.setCutMode:00000000 setCutMode
     /tmp/ccUwvvew.s:813    .text.setCutMode:00000054 $d
     /tmp/ccUwvvew.s:824    .text.showInfo:00000000 $t
     /tmp/ccUwvvew.s:829    .text.showInfo:00000000 showInfo
     /tmp/ccUwvvew.s:1010   .text.showInfo:000000f4 $d
     /tmp/ccUwvvew.s:1027   .text.showDiag:00000000 $t
     /tmp/ccUwvvew.s:1032   .text.showDiag:00000000 showDiag
     /tmp/ccUwvvew.s:1186   .text.showDiag:000000e4 $d
     /tmp/ccUwvvew.s:1371   .rodata.mainMenu:00000000 mainMenu
     /tmp/ccUwvvew.s:1244   .rodata.mainMenuItemList:00000000 mainMenuItemList
     /tmp/ccUwvvew.s:1226   .rodata.settingsMenu:00000000 settingsMenu
     /tmp/ccUwvvew.s:1258   .rodata.settingsMenuList:00000000 settingsMenuList
     /tmp/ccUwvvew.s:1235   .rodata.functionsMenu:00000000 functionsMenu
     /tmp/ccUwvvew.s:1212   .rodata.functionsMenuList:00000000 functionsMenuList
     /tmp/ccUwvvew.s:1364   .rodata.disabled:00000000 disabled
     /tmp/ccUwvvew.s:1358   .rodata.enabled:00000000 enabled
     /tmp/ccUwvvew.s:1380   .rodata.version:00000000 version
     /tmp/ccUwvvew.s:1352   .bss.display:00000000 display
     /tmp/ccUwvvew.s:1209   .rodata.functionsMenuList:00000000 $d
     /tmp/ccUwvvew.s:1223   .rodata.settingsMenu:00000000 $d
     /tmp/ccUwvvew.s:1232   .rodata.functionsMenu:00000000 $d
     /tmp/ccUwvvew.s:1241   .rodata.mainMenuItemList:00000000 $d
     /tmp/ccUwvvew.s:1255   .rodata.settingsMenuList:00000000 $d
     /tmp/ccUwvvew.s:1353   .bss.display:00000000 $d
     /tmp/ccUwvvew.s:1367   .rodata.mainMenu:00000000 $d
                     .debug_frame:00000010 $d

UNDEFINED SYMBOLS
ssd1306DrawString
writeSettings
chThdSleep
Font_System5x8
settings
ARM GAS  /tmp/ccUwvvew.s 			page 97


ssd1306Init
ssd1306TurnOn
serDbg
ssd1306TurnOff
ssd1306ClearScreen
openMenu
Font_System7x8
strlen
__aeabi_uidiv
itoa
sensors
