ARM GAS  /tmp/ccj8vNu9.s 			page 1


   1              		.cpu cortex-m0
   2              		.fpu softvfp
   3              		.eabi_attribute 20, 1
   4              		.eabi_attribute 21, 1
   5              		.eabi_attribute 23, 3
   6              		.eabi_attribute 24, 1
   7              		.eabi_attribute 25, 1
   8              		.eabi_attribute 26, 1
   9              		.eabi_attribute 30, 4
  10              		.eabi_attribute 34, 0
  11              		.eabi_attribute 18, 4
  12              		.code	16
  13              		.file	"hal.c"
  14              		.text
  15              	.Ltext0:
  16              		.cfi_sections	.debug_frame
  17              		.section	.text.halInit,"ax",%progbits
  18              		.align	1
  19              		.global	halInit
  20              		.code	16
  21              		.thumb_func
  22              		.type	halInit, %function
  23              	halInit:
  24              	.LFB77:
  25              		.file 1 "./os/hal/src/hal.c"
  26              		.loc 1 60 0
  27              		.cfi_startproc
  28 0000 08B5     		push	{r3, lr}
  29              	.LCFI0:
  30              		.cfi_def_cfa_offset 8
  31              		.cfi_offset 3, -8
  32              		.cfi_offset 14, -4
  33              		.loc 1 66 0
  34 0002 FFF7FEFF 		bl	hal_lld_init
  35              	.LVL0:
  36              		.loc 1 72 0
  37 0006 0448     		ldr	r0, .L2
  38 0008 FFF7FEFF 		bl	_pal_lld_init
  39              	.LVL1:
  40              		.loc 1 130 0
  41              		@ sp needed for prologue
  42              		.loc 1 124 0
  43 000c FFF7FEFF 		bl	boardInit
  44              	.LVL2:
  45              		.loc 1 128 0
  46 0010 FFF7FEFF 		bl	stInit
  47              	.LVL3:
  48              		.loc 1 130 0
  49 0014 08BD     		pop	{r3, pc}
  50              	.L3:
  51 0016 C046     		.align	2
  52              	.L2:
  53 0018 00000000 		.word	pal_default_config
  54              		.cfi_endproc
  55              	.LFE77:
  56              		.size	halInit, .-halInit
  57              		.text
ARM GAS  /tmp/ccj8vNu9.s 			page 2


  58              	.Letext0:
  59              		.file 2 "/media/data/src/x-tools/gcc-arm-none-eabi-4_7-2013q1/bin/../lib/gcc/arm-none-eabi/4.7.3/.
  60              		.file 3 "./os/nil/include/nil.h"
  61              		.file 4 "./os/nil/ports/ARMCMx/compilers/GCC/niltypes.h"
  62              		.file 5 "./os/nil/ports/ARMCMx/nilcore.h"
  63              		.file 6 "./os/nil/ports/ARMCMx/nilcore_v6m.h"
  64              		.file 7 "./os/hal/ports/STM32/GPIOv2/pal_lld.h"
  65              		.file 8 "./os/hal/ports/STM32F0xx/hal_lld.h"
  66              		.file 9 "inc/board.h"
  67              		.file 10 "./os/hal/include/st.h"
  68              		.file 11 "./os/nil/osal/osal.h"
  69              		.section	.debug_info,"",%progbits
  70              	.Ldebug_info0:
  71 0000 43040000 		.4byte	0x443
  72 0004 0200     		.2byte	0x2
  73 0006 00000000 		.4byte	.Ldebug_abbrev0
  74 000a 04       		.byte	0x4
  75 000b 01       		.uleb128 0x1
  76 000c 14010000 		.4byte	.LASF55
  77 0010 01       		.byte	0x1
  78 0011 15000000 		.4byte	.LASF56
  79 0015 F7000000 		.4byte	.LASF57
  80 0019 00000000 		.4byte	.Ldebug_ranges0+0
  81 001d 00000000 		.4byte	0
  82 0021 00000000 		.4byte	0
  83 0025 00000000 		.4byte	.Ldebug_line0
  84 0029 02       		.uleb128 0x2
  85 002a 04       		.byte	0x4
  86 002b 05       		.byte	0x5
  87 002c 696E7400 		.ascii	"int\000"
  88 0030 03       		.uleb128 0x3
  89 0031 04       		.byte	0x4
  90 0032 07       		.byte	0x7
  91 0033 9E010000 		.4byte	.LASF0
  92 0037 03       		.uleb128 0x3
  93 0038 01       		.byte	0x1
  94 0039 06       		.byte	0x6
  95 003a 72010000 		.4byte	.LASF1
  96 003e 04       		.uleb128 0x4
  97 003f 8F000000 		.4byte	.LASF4
  98 0043 02       		.byte	0x2
  99 0044 2A       		.byte	0x2a
 100 0045 49000000 		.4byte	0x49
 101 0049 03       		.uleb128 0x3
 102 004a 01       		.byte	0x1
 103 004b 08       		.byte	0x8
 104 004c 5D010000 		.4byte	.LASF2
 105 0050 03       		.uleb128 0x3
 106 0051 02       		.byte	0x2
 107 0052 05       		.byte	0x5
 108 0053 41000000 		.4byte	.LASF3
 109 0057 04       		.uleb128 0x4
 110 0058 AB010000 		.4byte	.LASF5
 111 005c 02       		.byte	0x2
 112 005d 36       		.byte	0x36
 113 005e 62000000 		.4byte	0x62
 114 0062 03       		.uleb128 0x3
ARM GAS  /tmp/ccj8vNu9.s 			page 3


 115 0063 02       		.byte	0x2
 116 0064 07       		.byte	0x7
 117 0065 11020000 		.4byte	.LASF6
 118 0069 04       		.uleb128 0x4
 119 006a EC010000 		.4byte	.LASF7
 120 006e 02       		.byte	0x2
 121 006f 4F       		.byte	0x4f
 122 0070 74000000 		.4byte	0x74
 123 0074 03       		.uleb128 0x3
 124 0075 04       		.byte	0x4
 125 0076 05       		.byte	0x5
 126 0077 D8000000 		.4byte	.LASF8
 127 007b 04       		.uleb128 0x4
 128 007c 95010000 		.4byte	.LASF9
 129 0080 02       		.byte	0x2
 130 0081 50       		.byte	0x50
 131 0082 86000000 		.4byte	0x86
 132 0086 03       		.uleb128 0x3
 133 0087 04       		.byte	0x4
 134 0088 07       		.byte	0x7
 135 0089 2B020000 		.4byte	.LASF10
 136 008d 03       		.uleb128 0x3
 137 008e 08       		.byte	0x8
 138 008f 05       		.byte	0x5
 139 0090 BA000000 		.4byte	.LASF11
 140 0094 03       		.uleb128 0x3
 141 0095 08       		.byte	0x8
 142 0096 07       		.byte	0x7
 143 0097 7E010000 		.4byte	.LASF12
 144 009b 05       		.uleb128 0x5
 145 009c 74000000 		.4byte	.LASF24
 146 00a0 14       		.byte	0x14
 147 00a1 03       		.byte	0x3
 148 00a2 1E01     		.2byte	0x11e
 149 00a4 F3000000 		.4byte	0xf3
 150 00a8 06       		.uleb128 0x6
 151 00a9 E8000000 		.4byte	.LASF13
 152 00ad 03       		.byte	0x3
 153 00ae 1F01     		.2byte	0x11f
 154 00b0 5D020000 		.4byte	0x25d
 155 00b4 02       		.byte	0x2
 156 00b5 23       		.byte	0x23
 157 00b6 00       		.uleb128 0
 158 00b7 06       		.uleb128 0x6
 159 00b8 3B000000 		.4byte	.LASF14
 160 00bc 03       		.byte	0x3
 161 00bd 2001     		.2byte	0x120
 162 00bf F3000000 		.4byte	0xf3
 163 00c3 02       		.byte	0x2
 164 00c4 23       		.byte	0x23
 165 00c5 04       		.uleb128 0x4
 166 00c6 07       		.uleb128 0x7
 167 00c7 753100   		.ascii	"u1\000"
 168 00ca 03       		.byte	0x3
 169 00cb 2B01     		.2byte	0x12b
 170 00cd 0D020000 		.4byte	0x20d
 171 00d1 02       		.byte	0x2
ARM GAS  /tmp/ccj8vNu9.s 			page 4


 172 00d2 23       		.byte	0x23
 173 00d3 08       		.uleb128 0x8
 174 00d4 06       		.uleb128 0x6
 175 00d5 9E020000 		.4byte	.LASF15
 176 00d9 03       		.byte	0x3
 177 00da 2C01     		.2byte	0x12c
 178 00dc 63020000 		.4byte	0x263
 179 00e0 02       		.byte	0x2
 180 00e1 23       		.byte	0x23
 181 00e2 0C       		.uleb128 0xc
 182 00e3 06       		.uleb128 0x6
 183 00e4 24020000 		.4byte	.LASF16
 184 00e8 03       		.byte	0x3
 185 00e9 2F01     		.2byte	0x12f
 186 00eb 09010000 		.4byte	0x109
 187 00ef 02       		.byte	0x2
 188 00f0 23       		.byte	0x23
 189 00f1 10       		.uleb128 0x10
 190 00f2 00       		.byte	0
 191 00f3 04       		.uleb128 0x4
 192 00f4 6C020000 		.4byte	.LASF17
 193 00f8 04       		.byte	0x4
 194 00f9 37       		.byte	0x37
 195 00fa 3E000000 		.4byte	0x3e
 196 00fe 04       		.uleb128 0x4
 197 00ff 98020000 		.4byte	.LASF18
 198 0103 04       		.byte	0x4
 199 0104 38       		.byte	0x38
 200 0105 69000000 		.4byte	0x69
 201 0109 04       		.uleb128 0x4
 202 010a 68000000 		.4byte	.LASF19
 203 010e 04       		.byte	0x4
 204 010f 39       		.byte	0x39
 205 0110 7B000000 		.4byte	0x7b
 206 0114 04       		.uleb128 0x4
 207 0115 F4010000 		.4byte	.LASF20
 208 0119 04       		.byte	0x4
 209 011a 3A       		.byte	0x3a
 210 011b 69000000 		.4byte	0x69
 211 011f 03       		.uleb128 0x3
 212 0120 04       		.byte	0x4
 213 0121 07       		.byte	0x7
 214 0122 4B000000 		.4byte	.LASF21
 215 0126 04       		.uleb128 0x4
 216 0127 DD010000 		.4byte	.LASF22
 217 012b 05       		.byte	0x5
 218 012c 77       		.byte	0x77
 219 012d 57000000 		.4byte	0x57
 220 0131 04       		.uleb128 0x4
 221 0132 7F000000 		.4byte	.LASF23
 222 0136 05       		.byte	0x5
 223 0137 7D       		.byte	0x7d
 224 0138 3C010000 		.4byte	0x13c
 225 013c 08       		.uleb128 0x8
 226 013d 04       		.byte	0x4
 227 013e 09       		.uleb128 0x9
 228 013f 3D020000 		.4byte	.LASF25
ARM GAS  /tmp/ccj8vNu9.s 			page 5


 229 0143 24       		.byte	0x24
 230 0144 06       		.byte	0x6
 231 0145 A4       		.byte	0xa4
 232 0146 C2010000 		.4byte	0x1c2
 233 014a 0A       		.uleb128 0xa
 234 014b 723800   		.ascii	"r8\000"
 235 014e 06       		.byte	0x6
 236 014f A5       		.byte	0xa5
 237 0150 31010000 		.4byte	0x131
 238 0154 02       		.byte	0x2
 239 0155 23       		.byte	0x23
 240 0156 00       		.uleb128 0
 241 0157 0A       		.uleb128 0xa
 242 0158 723900   		.ascii	"r9\000"
 243 015b 06       		.byte	0x6
 244 015c A6       		.byte	0xa6
 245 015d 31010000 		.4byte	0x131
 246 0161 02       		.byte	0x2
 247 0162 23       		.byte	0x23
 248 0163 04       		.uleb128 0x4
 249 0164 0A       		.uleb128 0xa
 250 0165 72313000 		.ascii	"r10\000"
 251 0169 06       		.byte	0x6
 252 016a A7       		.byte	0xa7
 253 016b 31010000 		.4byte	0x131
 254 016f 02       		.byte	0x2
 255 0170 23       		.byte	0x23
 256 0171 08       		.uleb128 0x8
 257 0172 0A       		.uleb128 0xa
 258 0173 72313100 		.ascii	"r11\000"
 259 0177 06       		.byte	0x6
 260 0178 A8       		.byte	0xa8
 261 0179 31010000 		.4byte	0x131
 262 017d 02       		.byte	0x2
 263 017e 23       		.byte	0x23
 264 017f 0C       		.uleb128 0xc
 265 0180 0A       		.uleb128 0xa
 266 0181 723400   		.ascii	"r4\000"
 267 0184 06       		.byte	0x6
 268 0185 A9       		.byte	0xa9
 269 0186 31010000 		.4byte	0x131
 270 018a 02       		.byte	0x2
 271 018b 23       		.byte	0x23
 272 018c 10       		.uleb128 0x10
 273 018d 0A       		.uleb128 0xa
 274 018e 723500   		.ascii	"r5\000"
 275 0191 06       		.byte	0x6
 276 0192 AA       		.byte	0xaa
 277 0193 31010000 		.4byte	0x131
 278 0197 02       		.byte	0x2
 279 0198 23       		.byte	0x23
 280 0199 14       		.uleb128 0x14
 281 019a 0A       		.uleb128 0xa
 282 019b 723600   		.ascii	"r6\000"
 283 019e 06       		.byte	0x6
 284 019f AB       		.byte	0xab
 285 01a0 31010000 		.4byte	0x131
ARM GAS  /tmp/ccj8vNu9.s 			page 6


 286 01a4 02       		.byte	0x2
 287 01a5 23       		.byte	0x23
 288 01a6 18       		.uleb128 0x18
 289 01a7 0A       		.uleb128 0xa
 290 01a8 723700   		.ascii	"r7\000"
 291 01ab 06       		.byte	0x6
 292 01ac AC       		.byte	0xac
 293 01ad 31010000 		.4byte	0x131
 294 01b1 02       		.byte	0x2
 295 01b2 23       		.byte	0x23
 296 01b3 1C       		.uleb128 0x1c
 297 01b4 0A       		.uleb128 0xa
 298 01b5 6C7200   		.ascii	"lr\000"
 299 01b8 06       		.byte	0x6
 300 01b9 AD       		.byte	0xad
 301 01ba 31010000 		.4byte	0x131
 302 01be 02       		.byte	0x2
 303 01bf 23       		.byte	0x23
 304 01c0 20       		.uleb128 0x20
 305 01c1 00       		.byte	0
 306 01c2 04       		.uleb128 0x4
 307 01c3 75020000 		.4byte	.LASF26
 308 01c7 03       		.byte	0x3
 309 01c8 F3       		.byte	0xf3
 310 01c9 3E010000 		.4byte	0x13e
 311 01cd 0B       		.uleb128 0xb
 312 01ce 04       		.byte	0x4
 313 01cf 03       		.byte	0x3
 314 01d0 F8       		.byte	0xf8
 315 01d1 E4010000 		.4byte	0x1e4
 316 01d5 0A       		.uleb128 0xa
 317 01d6 636E7400 		.ascii	"cnt\000"
 318 01da 03       		.byte	0x3
 319 01db F9       		.byte	0xf9
 320 01dc E4010000 		.4byte	0x1e4
 321 01e0 02       		.byte	0x2
 322 01e1 23       		.byte	0x23
 323 01e2 00       		.uleb128 0
 324 01e3 00       		.byte	0
 325 01e4 0C       		.uleb128 0xc
 326 01e5 14010000 		.4byte	0x114
 327 01e9 04       		.uleb128 0x4
 328 01ea 97000000 		.4byte	.LASF27
 329 01ee 03       		.byte	0x3
 330 01ef FA       		.byte	0xfa
 331 01f0 CD010000 		.4byte	0x1cd
 332 01f4 03       		.uleb128 0x3
 333 01f5 01       		.byte	0x1
 334 01f6 08       		.byte	0x8
 335 01f7 E7010000 		.4byte	.LASF28
 336 01fb 0D       		.uleb128 0xd
 337 01fc 54020000 		.4byte	.LASF29
 338 0200 03       		.byte	0x3
 339 0201 1901     		.2byte	0x119
 340 0203 07020000 		.4byte	0x207
 341 0207 0E       		.uleb128 0xe
 342 0208 04       		.byte	0x4
ARM GAS  /tmp/ccj8vNu9.s 			page 7


 343 0209 9B000000 		.4byte	0x9b
 344 020d 0F       		.uleb128 0xf
 345 020e 04       		.byte	0x4
 346 020f 03       		.byte	0x3
 347 0210 2301     		.2byte	0x123
 348 0212 51020000 		.4byte	0x251
 349 0216 10       		.uleb128 0x10
 350 0217 6D736700 		.ascii	"msg\000"
 351 021b 03       		.byte	0x3
 352 021c 2401     		.2byte	0x124
 353 021e FE000000 		.4byte	0xfe
 354 0222 10       		.uleb128 0x10
 355 0223 7000     		.ascii	"p\000"
 356 0225 03       		.byte	0x3
 357 0226 2501     		.2byte	0x125
 358 0228 3C010000 		.4byte	0x13c
 359 022c 10       		.uleb128 0x10
 360 022d 74727000 		.ascii	"trp\000"
 361 0231 03       		.byte	0x3
 362 0232 2601     		.2byte	0x126
 363 0234 51020000 		.4byte	0x251
 364 0238 11       		.uleb128 0x11
 365 0239 4F020000 		.4byte	.LASF30
 366 023d 03       		.byte	0x3
 367 023e 2701     		.2byte	0x127
 368 0240 57020000 		.4byte	0x257
 369 0244 11       		.uleb128 0x11
 370 0245 6B010000 		.4byte	.LASF31
 371 0249 03       		.byte	0x3
 372 024a 2901     		.2byte	0x129
 373 024c 09010000 		.4byte	0x109
 374 0250 00       		.byte	0
 375 0251 0E       		.uleb128 0xe
 376 0252 04       		.byte	0x4
 377 0253 FB010000 		.4byte	0x1fb
 378 0257 0E       		.uleb128 0xe
 379 0258 04       		.byte	0x4
 380 0259 E9010000 		.4byte	0x1e9
 381 025d 0E       		.uleb128 0xe
 382 025e 04       		.byte	0x4
 383 025f C2010000 		.4byte	0x1c2
 384 0263 0C       		.uleb128 0xc
 385 0264 26010000 		.4byte	0x126
 386 0268 12       		.uleb128 0x12
 387 0269 98       		.byte	0x98
 388 026a 03       		.byte	0x3
 389 026b 3D01     		.2byte	0x13d
 390 026d AE020000 		.4byte	0x2ae
 391 0271 06       		.uleb128 0x6
 392 0272 90020000 		.4byte	.LASF32
 393 0276 03       		.byte	0x3
 394 0277 4101     		.2byte	0x141
 395 0279 07020000 		.4byte	0x207
 396 027d 02       		.byte	0x2
 397 027e 23       		.byte	0x23
 398 027f 00       		.uleb128 0
 399 0280 06       		.uleb128 0x6
ARM GAS  /tmp/ccj8vNu9.s 			page 8


 400 0281 A6020000 		.4byte	.LASF33
 401 0285 03       		.byte	0x3
 402 0286 4701     		.2byte	0x147
 403 0288 07020000 		.4byte	0x207
 404 028c 02       		.byte	0x2
 405 028d 23       		.byte	0x23
 406 028e 04       		.uleb128 0x4
 407 028f 06       		.uleb128 0x6
 408 0290 A3000000 		.4byte	.LASF34
 409 0294 03       		.byte	0x3
 410 0295 4C01     		.2byte	0x14c
 411 0297 26010000 		.4byte	0x126
 412 029b 02       		.byte	0x2
 413 029c 23       		.byte	0x23
 414 029d 08       		.uleb128 0x8
 415 029e 06       		.uleb128 0x6
 416 029f AB000000 		.4byte	.LASF35
 417 02a3 03       		.byte	0x3
 418 02a4 5B01     		.2byte	0x15b
 419 02a6 AE020000 		.4byte	0x2ae
 420 02aa 02       		.byte	0x2
 421 02ab 23       		.byte	0x23
 422 02ac 0C       		.uleb128 0xc
 423 02ad 00       		.byte	0
 424 02ae 13       		.uleb128 0x13
 425 02af 9B000000 		.4byte	0x9b
 426 02b3 BE020000 		.4byte	0x2be
 427 02b7 14       		.uleb128 0x14
 428 02b8 1F010000 		.4byte	0x11f
 429 02bc 06       		.byte	0x6
 430 02bd 00       		.byte	0
 431 02be 0D       		.uleb128 0xd
 432 02bf 5B000000 		.4byte	.LASF36
 433 02c3 03       		.byte	0x3
 434 02c4 6401     		.2byte	0x164
 435 02c6 68020000 		.4byte	0x268
 436 02ca 03       		.uleb128 0x3
 437 02cb 01       		.byte	0x1
 438 02cc 02       		.byte	0x2
 439 02cd 0B020000 		.4byte	.LASF37
 440 02d1 0B       		.uleb128 0xb
 441 02d2 1C       		.byte	0x1c
 442 02d3 07       		.byte	0x7
 443 02d4 B3       		.byte	0xb3
 444 02d5 3C030000 		.4byte	0x33c
 445 02d9 15       		.uleb128 0x15
 446 02da 83020000 		.4byte	.LASF38
 447 02de 07       		.byte	0x7
 448 02df B5       		.byte	0xb5
 449 02e0 7B000000 		.4byte	0x7b
 450 02e4 02       		.byte	0x2
 451 02e5 23       		.byte	0x23
 452 02e6 00       		.uleb128 0
 453 02e7 15       		.uleb128 0x15
 454 02e8 88000000 		.4byte	.LASF39
 455 02ec 07       		.byte	0x7
 456 02ed B7       		.byte	0xb7
ARM GAS  /tmp/ccj8vNu9.s 			page 9


 457 02ee 7B000000 		.4byte	0x7b
 458 02f2 02       		.byte	0x2
 459 02f3 23       		.byte	0x23
 460 02f4 04       		.uleb128 0x4
 461 02f5 15       		.uleb128 0x15
 462 02f6 D0000000 		.4byte	.LASF40
 463 02fa 07       		.byte	0x7
 464 02fb B9       		.byte	0xb9
 465 02fc 7B000000 		.4byte	0x7b
 466 0300 02       		.byte	0x2
 467 0301 23       		.byte	0x23
 468 0302 08       		.uleb128 0x8
 469 0303 15       		.uleb128 0x15
 470 0304 49020000 		.4byte	.LASF41
 471 0308 07       		.byte	0x7
 472 0309 BB       		.byte	0xbb
 473 030a 7B000000 		.4byte	0x7b
 474 030e 02       		.byte	0x2
 475 030f 23       		.byte	0x23
 476 0310 0C       		.uleb128 0xc
 477 0311 0A       		.uleb128 0xa
 478 0312 6F647200 		.ascii	"odr\000"
 479 0316 07       		.byte	0x7
 480 0317 BD       		.byte	0xbd
 481 0318 7B000000 		.4byte	0x7b
 482 031c 02       		.byte	0x2
 483 031d 23       		.byte	0x23
 484 031e 10       		.uleb128 0x10
 485 031f 15       		.uleb128 0x15
 486 0320 7E020000 		.4byte	.LASF42
 487 0324 07       		.byte	0x7
 488 0325 BF       		.byte	0xbf
 489 0326 7B000000 		.4byte	0x7b
 490 032a 02       		.byte	0x2
 491 032b 23       		.byte	0x23
 492 032c 14       		.uleb128 0x14
 493 032d 15       		.uleb128 0x15
 494 032e 67020000 		.4byte	.LASF43
 495 0332 07       		.byte	0x7
 496 0333 C1       		.byte	0xc1
 497 0334 7B000000 		.4byte	0x7b
 498 0338 02       		.byte	0x2
 499 0339 23       		.byte	0x23
 500 033a 18       		.uleb128 0x18
 501 033b 00       		.byte	0
 502 033c 04       		.uleb128 0x4
 503 033d B4010000 		.4byte	.LASF44
 504 0341 07       		.byte	0x7
 505 0342 C2       		.byte	0xc2
 506 0343 D1020000 		.4byte	0x2d1
 507 0347 0B       		.uleb128 0xb
 508 0348 8C       		.byte	0x8c
 509 0349 07       		.byte	0x7
 510 034a CB       		.byte	0xcb
 511 034b 96030000 		.4byte	0x396
 512 034f 15       		.uleb128 0x15
 513 0350 B3000000 		.4byte	.LASF45
ARM GAS  /tmp/ccj8vNu9.s 			page 10


 514 0354 07       		.byte	0x7
 515 0355 CD       		.byte	0xcd
 516 0356 3C030000 		.4byte	0x33c
 517 035a 02       		.byte	0x2
 518 035b 23       		.byte	0x23
 519 035c 00       		.uleb128 0
 520 035d 15       		.uleb128 0x15
 521 035e 04020000 		.4byte	.LASF46
 522 0362 07       		.byte	0x7
 523 0363 CF       		.byte	0xcf
 524 0364 3C030000 		.4byte	0x33c
 525 0368 02       		.byte	0x2
 526 0369 23       		.byte	0x23
 527 036a 1C       		.uleb128 0x1c
 528 036b 15       		.uleb128 0x15
 529 036c 00000000 		.4byte	.LASF47
 530 0370 07       		.byte	0x7
 531 0371 D1       		.byte	0xd1
 532 0372 3C030000 		.4byte	0x33c
 533 0376 02       		.byte	0x2
 534 0377 23       		.byte	0x23
 535 0378 38       		.uleb128 0x38
 536 0379 15       		.uleb128 0x15
 537 037a E1000000 		.4byte	.LASF48
 538 037e 07       		.byte	0x7
 539 037f D3       		.byte	0xd3
 540 0380 3C030000 		.4byte	0x33c
 541 0384 02       		.byte	0x2
 542 0385 23       		.byte	0x23
 543 0386 54       		.uleb128 0x54
 544 0387 15       		.uleb128 0x15
 545 0388 54000000 		.4byte	.LASF49
 546 038c 07       		.byte	0x7
 547 038d DA       		.byte	0xda
 548 038e 3C030000 		.4byte	0x33c
 549 0392 02       		.byte	0x2
 550 0393 23       		.byte	0x23
 551 0394 70       		.uleb128 0x70
 552 0395 00       		.byte	0
 553 0396 04       		.uleb128 0x4
 554 0397 FA010000 		.4byte	.LASF50
 555 039b 07       		.byte	0x7
 556 039c E8       		.byte	0xe8
 557 039d 47030000 		.4byte	0x347
 558 03a1 16       		.uleb128 0x16
 559 03a2 D4010000 		.4byte	.LASF58
 560 03a6 0B       		.byte	0xb
 561 03a7 6D01     		.2byte	0x16d
 562 03a9 01       		.byte	0x1
 563 03aa 03       		.byte	0x3
 564 03ab 17       		.uleb128 0x17
 565 03ac 01       		.byte	0x1
 566 03ad C8000000 		.4byte	.LASF59
 567 03b1 01       		.byte	0x1
 568 03b2 3C       		.byte	0x3c
 569 03b3 01       		.byte	0x1
 570 03b4 00000000 		.4byte	.LFB77
ARM GAS  /tmp/ccj8vNu9.s 			page 11


 571 03b8 1C000000 		.4byte	.LFE77
 572 03bc 00000000 		.4byte	.LLST0
 573 03c0 01       		.byte	0x1
 574 03c1 EA030000 		.4byte	0x3ea
 575 03c5 18       		.uleb128 0x18
 576 03c6 06000000 		.4byte	.LVL0
 577 03ca 0B040000 		.4byte	0x40b
 578 03ce 18       		.uleb128 0x18
 579 03cf 0C000000 		.4byte	.LVL1
 580 03d3 16040000 		.4byte	0x416
 581 03d7 18       		.uleb128 0x18
 582 03d8 10000000 		.4byte	.LVL2
 583 03dc 31040000 		.4byte	0x431
 584 03e0 18       		.uleb128 0x18
 585 03e1 14000000 		.4byte	.LVL3
 586 03e5 3C040000 		.4byte	0x43c
 587 03e9 00       		.byte	0
 588 03ea 19       		.uleb128 0x19
 589 03eb 6E696C00 		.ascii	"nil\000"
 590 03ef 03       		.byte	0x3
 591 03f0 F602     		.2byte	0x2f6
 592 03f2 BE020000 		.4byte	0x2be
 593 03f6 01       		.byte	0x1
 594 03f7 01       		.byte	0x1
 595 03f8 1A       		.uleb128 0x1a
 596 03f9 28000000 		.4byte	.LASF51
 597 03fd 07       		.byte	0x7
 598 03fe C401     		.2byte	0x1c4
 599 0400 06040000 		.4byte	0x406
 600 0404 01       		.byte	0x1
 601 0405 01       		.byte	0x1
 602 0406 1B       		.uleb128 0x1b
 603 0407 96030000 		.4byte	0x396
 604 040b 1C       		.uleb128 0x1c
 605 040c 01       		.byte	0x1
 606 040d C7010000 		.4byte	.LASF52
 607 0411 08       		.byte	0x8
 608 0412 0503     		.2byte	0x305
 609 0414 01       		.byte	0x1
 610 0415 01       		.byte	0x1
 611 0416 1D       		.uleb128 0x1d
 612 0417 01       		.byte	0x1
 613 0418 07000000 		.4byte	.LASF60
 614 041c 07       		.byte	0x7
 615 041d C901     		.2byte	0x1c9
 616 041f 01       		.byte	0x1
 617 0420 01       		.byte	0x1
 618 0421 2B040000 		.4byte	0x42b
 619 0425 1E       		.uleb128 0x1e
 620 0426 2B040000 		.4byte	0x42b
 621 042a 00       		.byte	0
 622 042b 0E       		.uleb128 0xe
 623 042c 04       		.byte	0x4
 624 042d 06040000 		.4byte	0x406
 625 0431 1C       		.uleb128 0x1c
 626 0432 01       		.byte	0x1
 627 0433 ED000000 		.4byte	.LASF53
ARM GAS  /tmp/ccj8vNu9.s 			page 12


 628 0437 09       		.byte	0x9
 629 0438 B101     		.2byte	0x1b1
 630 043a 01       		.byte	0x1
 631 043b 01       		.byte	0x1
 632 043c 1F       		.uleb128 0x1f
 633 043d 01       		.byte	0x1
 634 043e 89020000 		.4byte	.LASF54
 635 0442 0A       		.byte	0xa
 636 0443 86       		.byte	0x86
 637 0444 01       		.byte	0x1
 638 0445 01       		.byte	0x1
 639 0446 00       		.byte	0
 640              		.section	.debug_abbrev,"",%progbits
 641              	.Ldebug_abbrev0:
 642 0000 01       		.uleb128 0x1
 643 0001 11       		.uleb128 0x11
 644 0002 01       		.byte	0x1
 645 0003 25       		.uleb128 0x25
 646 0004 0E       		.uleb128 0xe
 647 0005 13       		.uleb128 0x13
 648 0006 0B       		.uleb128 0xb
 649 0007 03       		.uleb128 0x3
 650 0008 0E       		.uleb128 0xe
 651 0009 1B       		.uleb128 0x1b
 652 000a 0E       		.uleb128 0xe
 653 000b 55       		.uleb128 0x55
 654 000c 06       		.uleb128 0x6
 655 000d 11       		.uleb128 0x11
 656 000e 01       		.uleb128 0x1
 657 000f 52       		.uleb128 0x52
 658 0010 01       		.uleb128 0x1
 659 0011 10       		.uleb128 0x10
 660 0012 06       		.uleb128 0x6
 661 0013 00       		.byte	0
 662 0014 00       		.byte	0
 663 0015 02       		.uleb128 0x2
 664 0016 24       		.uleb128 0x24
 665 0017 00       		.byte	0
 666 0018 0B       		.uleb128 0xb
 667 0019 0B       		.uleb128 0xb
 668 001a 3E       		.uleb128 0x3e
 669 001b 0B       		.uleb128 0xb
 670 001c 03       		.uleb128 0x3
 671 001d 08       		.uleb128 0x8
 672 001e 00       		.byte	0
 673 001f 00       		.byte	0
 674 0020 03       		.uleb128 0x3
 675 0021 24       		.uleb128 0x24
 676 0022 00       		.byte	0
 677 0023 0B       		.uleb128 0xb
 678 0024 0B       		.uleb128 0xb
 679 0025 3E       		.uleb128 0x3e
 680 0026 0B       		.uleb128 0xb
 681 0027 03       		.uleb128 0x3
 682 0028 0E       		.uleb128 0xe
 683 0029 00       		.byte	0
 684 002a 00       		.byte	0
ARM GAS  /tmp/ccj8vNu9.s 			page 13


 685 002b 04       		.uleb128 0x4
 686 002c 16       		.uleb128 0x16
 687 002d 00       		.byte	0
 688 002e 03       		.uleb128 0x3
 689 002f 0E       		.uleb128 0xe
 690 0030 3A       		.uleb128 0x3a
 691 0031 0B       		.uleb128 0xb
 692 0032 3B       		.uleb128 0x3b
 693 0033 0B       		.uleb128 0xb
 694 0034 49       		.uleb128 0x49
 695 0035 13       		.uleb128 0x13
 696 0036 00       		.byte	0
 697 0037 00       		.byte	0
 698 0038 05       		.uleb128 0x5
 699 0039 13       		.uleb128 0x13
 700 003a 01       		.byte	0x1
 701 003b 03       		.uleb128 0x3
 702 003c 0E       		.uleb128 0xe
 703 003d 0B       		.uleb128 0xb
 704 003e 0B       		.uleb128 0xb
 705 003f 3A       		.uleb128 0x3a
 706 0040 0B       		.uleb128 0xb
 707 0041 3B       		.uleb128 0x3b
 708 0042 05       		.uleb128 0x5
 709 0043 01       		.uleb128 0x1
 710 0044 13       		.uleb128 0x13
 711 0045 00       		.byte	0
 712 0046 00       		.byte	0
 713 0047 06       		.uleb128 0x6
 714 0048 0D       		.uleb128 0xd
 715 0049 00       		.byte	0
 716 004a 03       		.uleb128 0x3
 717 004b 0E       		.uleb128 0xe
 718 004c 3A       		.uleb128 0x3a
 719 004d 0B       		.uleb128 0xb
 720 004e 3B       		.uleb128 0x3b
 721 004f 05       		.uleb128 0x5
 722 0050 49       		.uleb128 0x49
 723 0051 13       		.uleb128 0x13
 724 0052 38       		.uleb128 0x38
 725 0053 0A       		.uleb128 0xa
 726 0054 00       		.byte	0
 727 0055 00       		.byte	0
 728 0056 07       		.uleb128 0x7
 729 0057 0D       		.uleb128 0xd
 730 0058 00       		.byte	0
 731 0059 03       		.uleb128 0x3
 732 005a 08       		.uleb128 0x8
 733 005b 3A       		.uleb128 0x3a
 734 005c 0B       		.uleb128 0xb
 735 005d 3B       		.uleb128 0x3b
 736 005e 05       		.uleb128 0x5
 737 005f 49       		.uleb128 0x49
 738 0060 13       		.uleb128 0x13
 739 0061 38       		.uleb128 0x38
 740 0062 0A       		.uleb128 0xa
 741 0063 00       		.byte	0
ARM GAS  /tmp/ccj8vNu9.s 			page 14


 742 0064 00       		.byte	0
 743 0065 08       		.uleb128 0x8
 744 0066 0F       		.uleb128 0xf
 745 0067 00       		.byte	0
 746 0068 0B       		.uleb128 0xb
 747 0069 0B       		.uleb128 0xb
 748 006a 00       		.byte	0
 749 006b 00       		.byte	0
 750 006c 09       		.uleb128 0x9
 751 006d 13       		.uleb128 0x13
 752 006e 01       		.byte	0x1
 753 006f 03       		.uleb128 0x3
 754 0070 0E       		.uleb128 0xe
 755 0071 0B       		.uleb128 0xb
 756 0072 0B       		.uleb128 0xb
 757 0073 3A       		.uleb128 0x3a
 758 0074 0B       		.uleb128 0xb
 759 0075 3B       		.uleb128 0x3b
 760 0076 0B       		.uleb128 0xb
 761 0077 01       		.uleb128 0x1
 762 0078 13       		.uleb128 0x13
 763 0079 00       		.byte	0
 764 007a 00       		.byte	0
 765 007b 0A       		.uleb128 0xa
 766 007c 0D       		.uleb128 0xd
 767 007d 00       		.byte	0
 768 007e 03       		.uleb128 0x3
 769 007f 08       		.uleb128 0x8
 770 0080 3A       		.uleb128 0x3a
 771 0081 0B       		.uleb128 0xb
 772 0082 3B       		.uleb128 0x3b
 773 0083 0B       		.uleb128 0xb
 774 0084 49       		.uleb128 0x49
 775 0085 13       		.uleb128 0x13
 776 0086 38       		.uleb128 0x38
 777 0087 0A       		.uleb128 0xa
 778 0088 00       		.byte	0
 779 0089 00       		.byte	0
 780 008a 0B       		.uleb128 0xb
 781 008b 13       		.uleb128 0x13
 782 008c 01       		.byte	0x1
 783 008d 0B       		.uleb128 0xb
 784 008e 0B       		.uleb128 0xb
 785 008f 3A       		.uleb128 0x3a
 786 0090 0B       		.uleb128 0xb
 787 0091 3B       		.uleb128 0x3b
 788 0092 0B       		.uleb128 0xb
 789 0093 01       		.uleb128 0x1
 790 0094 13       		.uleb128 0x13
 791 0095 00       		.byte	0
 792 0096 00       		.byte	0
 793 0097 0C       		.uleb128 0xc
 794 0098 35       		.uleb128 0x35
 795 0099 00       		.byte	0
 796 009a 49       		.uleb128 0x49
 797 009b 13       		.uleb128 0x13
 798 009c 00       		.byte	0
ARM GAS  /tmp/ccj8vNu9.s 			page 15


 799 009d 00       		.byte	0
 800 009e 0D       		.uleb128 0xd
 801 009f 16       		.uleb128 0x16
 802 00a0 00       		.byte	0
 803 00a1 03       		.uleb128 0x3
 804 00a2 0E       		.uleb128 0xe
 805 00a3 3A       		.uleb128 0x3a
 806 00a4 0B       		.uleb128 0xb
 807 00a5 3B       		.uleb128 0x3b
 808 00a6 05       		.uleb128 0x5
 809 00a7 49       		.uleb128 0x49
 810 00a8 13       		.uleb128 0x13
 811 00a9 00       		.byte	0
 812 00aa 00       		.byte	0
 813 00ab 0E       		.uleb128 0xe
 814 00ac 0F       		.uleb128 0xf
 815 00ad 00       		.byte	0
 816 00ae 0B       		.uleb128 0xb
 817 00af 0B       		.uleb128 0xb
 818 00b0 49       		.uleb128 0x49
 819 00b1 13       		.uleb128 0x13
 820 00b2 00       		.byte	0
 821 00b3 00       		.byte	0
 822 00b4 0F       		.uleb128 0xf
 823 00b5 17       		.uleb128 0x17
 824 00b6 01       		.byte	0x1
 825 00b7 0B       		.uleb128 0xb
 826 00b8 0B       		.uleb128 0xb
 827 00b9 3A       		.uleb128 0x3a
 828 00ba 0B       		.uleb128 0xb
 829 00bb 3B       		.uleb128 0x3b
 830 00bc 05       		.uleb128 0x5
 831 00bd 01       		.uleb128 0x1
 832 00be 13       		.uleb128 0x13
 833 00bf 00       		.byte	0
 834 00c0 00       		.byte	0
 835 00c1 10       		.uleb128 0x10
 836 00c2 0D       		.uleb128 0xd
 837 00c3 00       		.byte	0
 838 00c4 03       		.uleb128 0x3
 839 00c5 08       		.uleb128 0x8
 840 00c6 3A       		.uleb128 0x3a
 841 00c7 0B       		.uleb128 0xb
 842 00c8 3B       		.uleb128 0x3b
 843 00c9 05       		.uleb128 0x5
 844 00ca 49       		.uleb128 0x49
 845 00cb 13       		.uleb128 0x13
 846 00cc 00       		.byte	0
 847 00cd 00       		.byte	0
 848 00ce 11       		.uleb128 0x11
 849 00cf 0D       		.uleb128 0xd
 850 00d0 00       		.byte	0
 851 00d1 03       		.uleb128 0x3
 852 00d2 0E       		.uleb128 0xe
 853 00d3 3A       		.uleb128 0x3a
 854 00d4 0B       		.uleb128 0xb
 855 00d5 3B       		.uleb128 0x3b
ARM GAS  /tmp/ccj8vNu9.s 			page 16


 856 00d6 05       		.uleb128 0x5
 857 00d7 49       		.uleb128 0x49
 858 00d8 13       		.uleb128 0x13
 859 00d9 00       		.byte	0
 860 00da 00       		.byte	0
 861 00db 12       		.uleb128 0x12
 862 00dc 13       		.uleb128 0x13
 863 00dd 01       		.byte	0x1
 864 00de 0B       		.uleb128 0xb
 865 00df 0B       		.uleb128 0xb
 866 00e0 3A       		.uleb128 0x3a
 867 00e1 0B       		.uleb128 0xb
 868 00e2 3B       		.uleb128 0x3b
 869 00e3 05       		.uleb128 0x5
 870 00e4 01       		.uleb128 0x1
 871 00e5 13       		.uleb128 0x13
 872 00e6 00       		.byte	0
 873 00e7 00       		.byte	0
 874 00e8 13       		.uleb128 0x13
 875 00e9 01       		.uleb128 0x1
 876 00ea 01       		.byte	0x1
 877 00eb 49       		.uleb128 0x49
 878 00ec 13       		.uleb128 0x13
 879 00ed 01       		.uleb128 0x1
 880 00ee 13       		.uleb128 0x13
 881 00ef 00       		.byte	0
 882 00f0 00       		.byte	0
 883 00f1 14       		.uleb128 0x14
 884 00f2 21       		.uleb128 0x21
 885 00f3 00       		.byte	0
 886 00f4 49       		.uleb128 0x49
 887 00f5 13       		.uleb128 0x13
 888 00f6 2F       		.uleb128 0x2f
 889 00f7 0B       		.uleb128 0xb
 890 00f8 00       		.byte	0
 891 00f9 00       		.byte	0
 892 00fa 15       		.uleb128 0x15
 893 00fb 0D       		.uleb128 0xd
 894 00fc 00       		.byte	0
 895 00fd 03       		.uleb128 0x3
 896 00fe 0E       		.uleb128 0xe
 897 00ff 3A       		.uleb128 0x3a
 898 0100 0B       		.uleb128 0xb
 899 0101 3B       		.uleb128 0x3b
 900 0102 0B       		.uleb128 0xb
 901 0103 49       		.uleb128 0x49
 902 0104 13       		.uleb128 0x13
 903 0105 38       		.uleb128 0x38
 904 0106 0A       		.uleb128 0xa
 905 0107 00       		.byte	0
 906 0108 00       		.byte	0
 907 0109 16       		.uleb128 0x16
 908 010a 2E       		.uleb128 0x2e
 909 010b 00       		.byte	0
 910 010c 03       		.uleb128 0x3
 911 010d 0E       		.uleb128 0xe
 912 010e 3A       		.uleb128 0x3a
ARM GAS  /tmp/ccj8vNu9.s 			page 17


 913 010f 0B       		.uleb128 0xb
 914 0110 3B       		.uleb128 0x3b
 915 0111 05       		.uleb128 0x5
 916 0112 27       		.uleb128 0x27
 917 0113 0C       		.uleb128 0xc
 918 0114 20       		.uleb128 0x20
 919 0115 0B       		.uleb128 0xb
 920 0116 00       		.byte	0
 921 0117 00       		.byte	0
 922 0118 17       		.uleb128 0x17
 923 0119 2E       		.uleb128 0x2e
 924 011a 01       		.byte	0x1
 925 011b 3F       		.uleb128 0x3f
 926 011c 0C       		.uleb128 0xc
 927 011d 03       		.uleb128 0x3
 928 011e 0E       		.uleb128 0xe
 929 011f 3A       		.uleb128 0x3a
 930 0120 0B       		.uleb128 0xb
 931 0121 3B       		.uleb128 0x3b
 932 0122 0B       		.uleb128 0xb
 933 0123 27       		.uleb128 0x27
 934 0124 0C       		.uleb128 0xc
 935 0125 11       		.uleb128 0x11
 936 0126 01       		.uleb128 0x1
 937 0127 12       		.uleb128 0x12
 938 0128 01       		.uleb128 0x1
 939 0129 40       		.uleb128 0x40
 940 012a 06       		.uleb128 0x6
 941 012b 9742     		.uleb128 0x2117
 942 012d 0C       		.uleb128 0xc
 943 012e 01       		.uleb128 0x1
 944 012f 13       		.uleb128 0x13
 945 0130 00       		.byte	0
 946 0131 00       		.byte	0
 947 0132 18       		.uleb128 0x18
 948 0133 898201   		.uleb128 0x4109
 949 0136 00       		.byte	0
 950 0137 11       		.uleb128 0x11
 951 0138 01       		.uleb128 0x1
 952 0139 31       		.uleb128 0x31
 953 013a 13       		.uleb128 0x13
 954 013b 00       		.byte	0
 955 013c 00       		.byte	0
 956 013d 19       		.uleb128 0x19
 957 013e 34       		.uleb128 0x34
 958 013f 00       		.byte	0
 959 0140 03       		.uleb128 0x3
 960 0141 08       		.uleb128 0x8
 961 0142 3A       		.uleb128 0x3a
 962 0143 0B       		.uleb128 0xb
 963 0144 3B       		.uleb128 0x3b
 964 0145 05       		.uleb128 0x5
 965 0146 49       		.uleb128 0x49
 966 0147 13       		.uleb128 0x13
 967 0148 3F       		.uleb128 0x3f
 968 0149 0C       		.uleb128 0xc
 969 014a 3C       		.uleb128 0x3c
ARM GAS  /tmp/ccj8vNu9.s 			page 18


 970 014b 0C       		.uleb128 0xc
 971 014c 00       		.byte	0
 972 014d 00       		.byte	0
 973 014e 1A       		.uleb128 0x1a
 974 014f 34       		.uleb128 0x34
 975 0150 00       		.byte	0
 976 0151 03       		.uleb128 0x3
 977 0152 0E       		.uleb128 0xe
 978 0153 3A       		.uleb128 0x3a
 979 0154 0B       		.uleb128 0xb
 980 0155 3B       		.uleb128 0x3b
 981 0156 05       		.uleb128 0x5
 982 0157 49       		.uleb128 0x49
 983 0158 13       		.uleb128 0x13
 984 0159 3F       		.uleb128 0x3f
 985 015a 0C       		.uleb128 0xc
 986 015b 3C       		.uleb128 0x3c
 987 015c 0C       		.uleb128 0xc
 988 015d 00       		.byte	0
 989 015e 00       		.byte	0
 990 015f 1B       		.uleb128 0x1b
 991 0160 26       		.uleb128 0x26
 992 0161 00       		.byte	0
 993 0162 49       		.uleb128 0x49
 994 0163 13       		.uleb128 0x13
 995 0164 00       		.byte	0
 996 0165 00       		.byte	0
 997 0166 1C       		.uleb128 0x1c
 998 0167 2E       		.uleb128 0x2e
 999 0168 00       		.byte	0
 1000 0169 3F       		.uleb128 0x3f
 1001 016a 0C       		.uleb128 0xc
 1002 016b 03       		.uleb128 0x3
 1003 016c 0E       		.uleb128 0xe
 1004 016d 3A       		.uleb128 0x3a
 1005 016e 0B       		.uleb128 0xb
 1006 016f 3B       		.uleb128 0x3b
 1007 0170 05       		.uleb128 0x5
 1008 0171 27       		.uleb128 0x27
 1009 0172 0C       		.uleb128 0xc
 1010 0173 3C       		.uleb128 0x3c
 1011 0174 0C       		.uleb128 0xc
 1012 0175 00       		.byte	0
 1013 0176 00       		.byte	0
 1014 0177 1D       		.uleb128 0x1d
 1015 0178 2E       		.uleb128 0x2e
 1016 0179 01       		.byte	0x1
 1017 017a 3F       		.uleb128 0x3f
 1018 017b 0C       		.uleb128 0xc
 1019 017c 03       		.uleb128 0x3
 1020 017d 0E       		.uleb128 0xe
 1021 017e 3A       		.uleb128 0x3a
 1022 017f 0B       		.uleb128 0xb
 1023 0180 3B       		.uleb128 0x3b
 1024 0181 05       		.uleb128 0x5
 1025 0182 27       		.uleb128 0x27
 1026 0183 0C       		.uleb128 0xc
ARM GAS  /tmp/ccj8vNu9.s 			page 19


 1027 0184 3C       		.uleb128 0x3c
 1028 0185 0C       		.uleb128 0xc
 1029 0186 01       		.uleb128 0x1
 1030 0187 13       		.uleb128 0x13
 1031 0188 00       		.byte	0
 1032 0189 00       		.byte	0
 1033 018a 1E       		.uleb128 0x1e
 1034 018b 05       		.uleb128 0x5
 1035 018c 00       		.byte	0
 1036 018d 49       		.uleb128 0x49
 1037 018e 13       		.uleb128 0x13
 1038 018f 00       		.byte	0
 1039 0190 00       		.byte	0
 1040 0191 1F       		.uleb128 0x1f
 1041 0192 2E       		.uleb128 0x2e
 1042 0193 00       		.byte	0
 1043 0194 3F       		.uleb128 0x3f
 1044 0195 0C       		.uleb128 0xc
 1045 0196 03       		.uleb128 0x3
 1046 0197 0E       		.uleb128 0xe
 1047 0198 3A       		.uleb128 0x3a
 1048 0199 0B       		.uleb128 0xb
 1049 019a 3B       		.uleb128 0x3b
 1050 019b 0B       		.uleb128 0xb
 1051 019c 27       		.uleb128 0x27
 1052 019d 0C       		.uleb128 0xc
 1053 019e 3C       		.uleb128 0x3c
 1054 019f 0C       		.uleb128 0xc
 1055 01a0 00       		.byte	0
 1056 01a1 00       		.byte	0
 1057 01a2 00       		.byte	0
 1058              		.section	.debug_loc,"",%progbits
 1059              	.Ldebug_loc0:
 1060              	.LLST0:
 1061 0000 00000000 		.4byte	.LFB77
 1062 0004 02000000 		.4byte	.LCFI0
 1063 0008 0200     		.2byte	0x2
 1064 000a 7D       		.byte	0x7d
 1065 000b 00       		.sleb128 0
 1066 000c 02000000 		.4byte	.LCFI0
 1067 0010 1C000000 		.4byte	.LFE77
 1068 0014 0200     		.2byte	0x2
 1069 0016 7D       		.byte	0x7d
 1070 0017 08       		.sleb128 8
 1071 0018 00000000 		.4byte	0
 1072 001c 00000000 		.4byte	0
 1073              		.section	.debug_aranges,"",%progbits
 1074 0000 1C000000 		.4byte	0x1c
 1075 0004 0200     		.2byte	0x2
 1076 0006 00000000 		.4byte	.Ldebug_info0
 1077 000a 04       		.byte	0x4
 1078 000b 00       		.byte	0
 1079 000c 0000     		.2byte	0
 1080 000e 0000     		.2byte	0
 1081 0010 00000000 		.4byte	.LFB77
 1082 0014 1C000000 		.4byte	.LFE77-.LFB77
 1083 0018 00000000 		.4byte	0
ARM GAS  /tmp/ccj8vNu9.s 			page 20


 1084 001c 00000000 		.4byte	0
 1085              		.section	.debug_ranges,"",%progbits
 1086              	.Ldebug_ranges0:
 1087 0000 00000000 		.4byte	.LFB77
 1088 0004 1C000000 		.4byte	.LFE77
 1089 0008 00000000 		.4byte	0
 1090 000c 00000000 		.4byte	0
 1091              		.section	.debug_line,"",%progbits
 1092              	.Ldebug_line0:
 1093 0000 DD010000 		.section	.debug_str,"MS",%progbits,1
 1093      0200BE01 
 1093      00000201 
 1093      FB0E0D00 
 1093      01010101 
 1094              	.LASF47:
 1095 0000 50434461 		.ascii	"PCData\000"
 1095      746100
 1096              	.LASF60:
 1097 0007 5F70616C 		.ascii	"_pal_lld_init\000"
 1097      5F6C6C64 
 1097      5F696E69 
 1097      7400
 1098              	.LASF56:
 1099 0015 2E2F6F73 		.ascii	"./os/hal/src/hal.c\000"
 1099      2F68616C 
 1099      2F737263 
 1099      2F68616C 
 1099      2E6300
 1100              	.LASF51:
 1101 0028 70616C5F 		.ascii	"pal_default_config\000"
 1101      64656661 
 1101      756C745F 
 1101      636F6E66 
 1101      696700
 1102              	.LASF14:
 1103 003b 73746174 		.ascii	"state\000"
 1103      6500
 1104              	.LASF3:
 1105 0041 73686F72 		.ascii	"short int\000"
 1105      7420696E 
 1105      7400
 1106              	.LASF21:
 1107 004b 73697A65 		.ascii	"sizetype\000"
 1107      74797065 
 1107      00
 1108              	.LASF49:
 1109 0054 50464461 		.ascii	"PFData\000"
 1109      746100
 1110              	.LASF36:
 1111 005b 6E696C5F 		.ascii	"nil_system_t\000"
 1111      73797374 
 1111      656D5F74 
 1111      00
 1112              	.LASF19:
 1113 0068 6576656E 		.ascii	"eventmask_t\000"
 1113      746D6173 
 1113      6B5F7400 
ARM GAS  /tmp/ccj8vNu9.s 			page 21


 1114              	.LASF24:
 1115 0074 6E696C5F 		.ascii	"nil_thread\000"
 1115      74687265 
 1115      616400
 1116              	.LASF23:
 1117 007f 72656761 		.ascii	"regarm_t\000"
 1117      726D5F74 
 1117      00
 1118              	.LASF39:
 1119 0088 6F747970 		.ascii	"otyper\000"
 1119      657200
 1120              	.LASF4:
 1121 008f 75696E74 		.ascii	"uint8_t\000"
 1121      385F7400 
 1122              	.LASF27:
 1123 0097 73656D61 		.ascii	"semaphore_t\000"
 1123      70686F72 
 1123      655F7400 
 1124              	.LASF34:
 1125 00a3 73797374 		.ascii	"systime\000"
 1125      696D6500 
 1126              	.LASF35:
 1127 00ab 74687265 		.ascii	"threads\000"
 1127      61647300 
 1128              	.LASF45:
 1129 00b3 50414461 		.ascii	"PAData\000"
 1129      746100
 1130              	.LASF11:
 1131 00ba 6C6F6E67 		.ascii	"long long int\000"
 1131      206C6F6E 
 1131      6720696E 
 1131      7400
 1132              	.LASF59:
 1133 00c8 68616C49 		.ascii	"halInit\000"
 1133      6E697400 
 1134              	.LASF40:
 1135 00d0 6F737065 		.ascii	"ospeedr\000"
 1135      65647200 
 1136              	.LASF8:
 1137 00d8 6C6F6E67 		.ascii	"long int\000"
 1137      20696E74 
 1137      00
 1138              	.LASF48:
 1139 00e1 50444461 		.ascii	"PDData\000"
 1139      746100
 1140              	.LASF13:
 1141 00e8 63747870 		.ascii	"ctxp\000"
 1141      00
 1142              	.LASF53:
 1143 00ed 626F6172 		.ascii	"boardInit\000"
 1143      64496E69 
 1143      7400
 1144              	.LASF57:
 1145 00f7 2F6D6564 		.ascii	"/media/data/src/OpenTCS/code\000"
 1145      69612F64 
 1145      6174612F 
 1145      7372632F 
ARM GAS  /tmp/ccj8vNu9.s 			page 22


 1145      4F70656E 
 1146              	.LASF55:
 1147 0114 474E5520 		.ascii	"GNU C 4.7.3 20130312 (release) [ARM/embedded-4_7-br"
 1147      4320342E 
 1147      372E3320 
 1147      32303133 
 1147      30333132 
 1148 0147 616E6368 		.ascii	"anch revision 196615]\000"
 1148      20726576 
 1148      6973696F 
 1148      6E203139 
 1148      36363135 
 1149              	.LASF2:
 1150 015d 756E7369 		.ascii	"unsigned char\000"
 1150      676E6564 
 1150      20636861 
 1150      7200
 1151              	.LASF31:
 1152 016b 65776D61 		.ascii	"ewmask\000"
 1152      736B00
 1153              	.LASF1:
 1154 0172 7369676E 		.ascii	"signed char\000"
 1154      65642063 
 1154      68617200 
 1155              	.LASF12:
 1156 017e 6C6F6E67 		.ascii	"long long unsigned int\000"
 1156      206C6F6E 
 1156      6720756E 
 1156      7369676E 
 1156      65642069 
 1157              	.LASF9:
 1158 0195 75696E74 		.ascii	"uint32_t\000"
 1158      33325F74 
 1158      00
 1159              	.LASF0:
 1160 019e 756E7369 		.ascii	"unsigned int\000"
 1160      676E6564 
 1160      20696E74 
 1160      00
 1161              	.LASF5:
 1162 01ab 75696E74 		.ascii	"uint16_t\000"
 1162      31365F74 
 1162      00
 1163              	.LASF44:
 1164 01b4 73746D33 		.ascii	"stm32_gpio_setup_t\000"
 1164      325F6770 
 1164      696F5F73 
 1164      65747570 
 1164      5F7400
 1165              	.LASF52:
 1166 01c7 68616C5F 		.ascii	"hal_lld_init\000"
 1166      6C6C645F 
 1166      696E6974 
 1166      00
 1167              	.LASF58:
 1168 01d4 6F73616C 		.ascii	"osalInit\000"
 1168      496E6974 
ARM GAS  /tmp/ccj8vNu9.s 			page 23


 1168      00
 1169              	.LASF22:
 1170 01dd 73797374 		.ascii	"systime_t\000"
 1170      696D655F 
 1170      7400
 1171              	.LASF28:
 1172 01e7 63686172 		.ascii	"char\000"
 1172      00
 1173              	.LASF7:
 1174 01ec 696E7433 		.ascii	"int32_t\000"
 1174      325F7400 
 1175              	.LASF20:
 1176 01f4 636E745F 		.ascii	"cnt_t\000"
 1176      7400
 1177              	.LASF50:
 1178 01fa 50414C43 		.ascii	"PALConfig\000"
 1178      6F6E6669 
 1178      6700
 1179              	.LASF46:
 1180 0204 50424461 		.ascii	"PBData\000"
 1180      746100
 1181              	.LASF37:
 1182 020b 5F426F6F 		.ascii	"_Bool\000"
 1182      6C00
 1183              	.LASF6:
 1184 0211 73686F72 		.ascii	"short unsigned int\000"
 1184      7420756E 
 1184      7369676E 
 1184      65642069 
 1184      6E7400
 1185              	.LASF16:
 1186 0224 65706D61 		.ascii	"epmask\000"
 1186      736B00
 1187              	.LASF10:
 1188 022b 6C6F6E67 		.ascii	"long unsigned int\000"
 1188      20756E73 
 1188      69676E65 
 1188      6420696E 
 1188      7400
 1189              	.LASF25:
 1190 023d 706F7274 		.ascii	"port_intctx\000"
 1190      5F696E74 
 1190      63747800 
 1191              	.LASF41:
 1192 0249 70757064 		.ascii	"pupdr\000"
 1192      7200
 1193              	.LASF30:
 1194 024f 73656D70 		.ascii	"semp\000"
 1194      00
 1195              	.LASF29:
 1196 0254 74687265 		.ascii	"thread_reference_t\000"
 1196      61645F72 
 1196      65666572 
 1196      656E6365 
 1196      5F7400
 1197              	.LASF43:
 1198 0267 61667268 		.ascii	"afrh\000"
ARM GAS  /tmp/ccj8vNu9.s 			page 24


 1198      00
 1199              	.LASF17:
 1200 026c 74737461 		.ascii	"tstate_t\000"
 1200      74655F74 
 1200      00
 1201              	.LASF26:
 1202 0275 696E7463 		.ascii	"intctx_t\000"
 1202      74785F74 
 1202      00
 1203              	.LASF42:
 1204 027e 6166726C 		.ascii	"afrl\000"
 1204      00
 1205              	.LASF38:
 1206 0283 6D6F6465 		.ascii	"moder\000"
 1206      7200
 1207              	.LASF54:
 1208 0289 7374496E 		.ascii	"stInit\000"
 1208      697400
 1209              	.LASF32:
 1210 0290 63757272 		.ascii	"current\000"
 1210      656E7400 
 1211              	.LASF18:
 1212 0298 6D73675F 		.ascii	"msg_t\000"
 1212      7400
 1213              	.LASF15:
 1214 029e 74696D65 		.ascii	"timeout\000"
 1214      6F757400 
 1215              	.LASF33:
 1216 02a6 6E657874 		.ascii	"next\000"
 1216      00
 1217              		.ident	"GCC: (GNU Tools for ARM Embedded Processors) 4.7.3 20130312 (release) [ARM/embedded-4_7-br
ARM GAS  /tmp/ccj8vNu9.s 			page 25


DEFINED SYMBOLS
                            *ABS*:00000000 hal.c
     /tmp/ccj8vNu9.s:18     .text.halInit:00000000 $t
     /tmp/ccj8vNu9.s:23     .text.halInit:00000000 halInit
     /tmp/ccj8vNu9.s:53     .text.halInit:00000018 $d
                     .debug_frame:00000010 $d

UNDEFINED SYMBOLS
hal_lld_init
_pal_lld_init
boardInit
stInit
pal_default_config
