ARM GAS  /tmp/cc1TpdB9.s 			page 1


   1              		.cpu cortex-m0
   2              		.fpu softvfp
   3              		.eabi_attribute 20, 1
   4              		.eabi_attribute 21, 1
   5              		.eabi_attribute 23, 3
   6              		.eabi_attribute 24, 1
   7              		.eabi_attribute 25, 1
   8              		.eabi_attribute 26, 1
   9              		.eabi_attribute 30, 4
  10              		.eabi_attribute 34, 0
  11              		.eabi_attribute 18, 4
  12              		.code	16
  13              		.file	"hal_queues.c"
  14              		.text
  15              	.Ltext0:
  16              		.cfi_sections	.debug_frame
  17              		.section	.text.iqObjectInit,"ax",%progbits
  18              		.align	1
  19              		.global	iqObjectInit
  20              		.code	16
  21              		.thumb_func
  22              		.type	iqObjectInit, %function
  23              	iqObjectInit:
  24              	.LFB77:
  25              		.file 1 "./os/hal/src/hal_queues.c"
  26              		.loc 1 63 0
  27              		.cfi_startproc
  28              	.LVL0:
  29 0000 10B5     		push	{r4, lr}
  30              	.LCFI0:
  31              		.cfi_def_cfa_offset 8
  32              		.cfi_offset 4, -8
  33              		.cfi_offset 14, -4
  34              		.loc 1 69 0
  35 0002 8361     		str	r3, [r0, #24]
  36              		.loc 1 70 0
  37 0004 029B     		ldr	r3, [sp, #8]
  38              	.LVL1:
  39              	.LBB90:
  40              	.LBB91:
  41              		.file 2 "./os/nil/osal/osal.h"
  42              		.loc 2 652 0
  43 0006 0024     		mov	r4, #0
  44              	.LBE91:
  45              	.LBE90:
  46              		.loc 1 67 0
  47 0008 0161     		str	r1, [r0, #16]
  48 000a 4161     		str	r1, [r0, #20]
  49 000c 8160     		str	r1, [r0, #8]
  50              		.loc 1 68 0
  51 000e 8918     		add	r1, r1, r2
  52              	.LVL2:
  53              	.LBB93:
  54              	.LBB92:
  55              		.loc 2 652 0
  56 0010 0460     		str	r4, [r0]
  57              	.LBE92:
ARM GAS  /tmp/cc1TpdB9.s 			page 2


  58              	.LBE93:
  59              		.loc 1 66 0
  60 0012 4460     		str	r4, [r0, #4]
  61              		.loc 1 68 0
  62 0014 C160     		str	r1, [r0, #12]
  63              		.loc 1 70 0
  64 0016 C361     		str	r3, [r0, #28]
  65              		.loc 1 71 0
  66              		@ sp needed for prologue
  67 0018 10BD     		pop	{r4, pc}
  68              		.cfi_endproc
  69              	.LFE77:
  70              		.size	iqObjectInit, .-iqObjectInit
  71              		.section	.text.iqResetI,"ax",%progbits
  72              		.align	1
  73              		.global	iqResetI
  74              		.code	16
  75              		.thumb_func
  76              		.type	iqResetI, %function
  77              	iqResetI:
  78              	.LFB78:
  79              		.loc 1 84 0
  80              		.cfi_startproc
  81              	.LVL3:
  82 0000 08B5     		push	{r3, lr}
  83              	.LCFI1:
  84              		.cfi_def_cfa_offset 8
  85              		.cfi_offset 3, -8
  86              		.cfi_offset 14, -4
  87              		.loc 1 88 0
  88 0002 8368     		ldr	r3, [r0, #8]
  89              		.loc 1 89 0
  90 0004 0021     		mov	r1, #0
  91              		.loc 1 90 0
  92 0006 0222     		mov	r2, #2
  93              		.loc 1 89 0
  94 0008 4160     		str	r1, [r0, #4]
  95              		.loc 1 88 0
  96 000a 0361     		str	r3, [r0, #16]
  97 000c 4361     		str	r3, [r0, #20]
  98              		.loc 1 90 0
  99 000e 5142     		neg	r1, r2
 100 0010 FFF7FEFF 		bl	osalQueueWakeupAllI
 101              	.LVL4:
 102              		.loc 1 91 0
 103              		@ sp needed for prologue
 104 0014 08BD     		pop	{r3, pc}
 105              		.cfi_endproc
 106              	.LFE78:
 107              		.size	iqResetI, .-iqResetI
 108              		.section	.text.iqPutI,"ax",%progbits
 109              		.align	1
 110              		.global	iqPutI
 111              		.code	16
 112              		.thumb_func
 113              		.type	iqPutI, %function
 114              	iqPutI:
ARM GAS  /tmp/cc1TpdB9.s 			page 3


 115              	.LFB79:
 116              		.loc 1 106 0
 117              		.cfi_startproc
 118              	.LVL5:
 119 0000 10B5     		push	{r4, lr}
 120              	.LCFI2:
 121              		.cfi_def_cfa_offset 8
 122              		.cfi_offset 4, -8
 123              		.cfi_offset 14, -4
 124              		.loc 1 110 0
 125 0002 0369     		ldr	r3, [r0, #16]
 126 0004 4469     		ldr	r4, [r0, #20]
 127 0006 0022     		mov	r2, #0
 128 0008 A342     		cmp	r3, r4
 129 000a 02D1     		bne	.L4
 130              		.loc 1 110 0 is_stmt 0 discriminator 1
 131 000c 4268     		ldr	r2, [r0, #4]
 132 000e 541E     		sub	r4, r2, #1
 133 0010 A241     		sbc	r2, r2, r4
 134              	.L4:
 135              		.loc 1 110 0 discriminator 4
 136 0012 002A     		cmp	r2, #0
 137 0014 0FD1     		bne	.L8
 138              		.loc 1 113 0 is_stmt 1
 139 0016 4468     		ldr	r4, [r0, #4]
 140 0018 0134     		add	r4, r4, #1
 141 001a 4460     		str	r4, [r0, #4]
 142              		.loc 1 114 0
 143 001c 1970     		strb	r1, [r3]
 144              		.loc 1 115 0
 145 001e C168     		ldr	r1, [r0, #12]
 146              	.LVL6:
 147              		.loc 1 114 0
 148 0020 0133     		add	r3, r3, #1
 149              	.LVL7:
 150 0022 0361     		str	r3, [r0, #16]
 151              		.loc 1 115 0
 152 0024 8B42     		cmp	r3, r1
 153 0026 01D3     		bcc	.L6
 154              		.loc 1 116 0
 155 0028 8368     		ldr	r3, [r0, #8]
 156 002a 0361     		str	r3, [r0, #16]
 157              	.L6:
 158              		.loc 1 118 0
 159 002c 0021     		mov	r1, #0
 160 002e FFF7FEFF 		bl	osalQueueWakeupOneI
 161              	.LVL8:
 162              		.loc 1 120 0
 163 0032 0020     		mov	r0, #0
 164 0034 01E0     		b	.L5
 165              	.LVL9:
 166              	.L8:
 167              		.loc 1 111 0
 168 0036 0420     		mov	r0, #4
 169              	.LVL10:
 170 0038 4042     		neg	r0, r0
 171              	.LVL11:
ARM GAS  /tmp/cc1TpdB9.s 			page 4


 172              	.L5:
 173              		.loc 1 121 0
 174              		@ sp needed for prologue
 175 003a 10BD     		pop	{r4, pc}
 176              		.cfi_endproc
 177              	.LFE79:
 178              		.size	iqPutI, .-iqPutI
 179              		.section	.text.iqGetTimeout,"ax",%progbits
 180              		.align	1
 181              		.global	iqGetTimeout
 182              		.code	16
 183              		.thumb_func
 184              		.type	iqGetTimeout, %function
 185              	iqGetTimeout:
 186              	.LFB80:
 187              		.loc 1 143 0
 188              		.cfi_startproc
 189              	.LVL12:
 190 0000 38B5     		push	{r3, r4, r5, lr}
 191              	.LCFI3:
 192              		.cfi_def_cfa_offset 16
 193              		.cfi_offset 3, -16
 194              		.cfi_offset 4, -12
 195              		.cfi_offset 5, -8
 196              		.cfi_offset 14, -4
 197              		.loc 1 143 0
 198 0002 041C     		mov	r4, r0
 199 0004 0D1C     		mov	r5, r1
 200              	.LBB109:
 201              	.LBB110:
 202              	.LBB111:
 203              	.LBB112:
 204              		.file 3 "./os/ext/CMSIS/include/core_cmFunc.h"
 205              		.loc 3 342 0
 206              	@ 342 "./os/ext/CMSIS/include/core_cmFunc.h" 1
 207 0006 72B6     		cpsid i
 208              	@ 0 "" 2
 209              		.code	16
 210              	.LBE112:
 211              	.LBE111:
 212              	.LBE110:
 213              	.LBE109:
 214              		.loc 1 147 0
 215 0008 8369     		ldr	r3, [r0, #24]
 216 000a 002B     		cmp	r3, #0
 217 000c 07D0     		beq	.L18
 218              		.loc 1 148 0
 219 000e 9847     		blx	r3
 220              	.LVL13:
 221 0010 05E0     		b	.L18
 222              	.L14:
 223              	.LVL14:
 224              	.LBB113:
 225              	.LBB114:
 226              	.LBB115:
 227              		.loc 2 681 0
 228 0012 201C     		mov	r0, r4
ARM GAS  /tmp/cc1TpdB9.s 			page 5


 229 0014 291C     		mov	r1, r5
 230 0016 FFF7FEFF 		bl	chSemWaitTimeout
 231              	.LVL15:
 232              	.LBE115:
 233              	.LBE114:
 234              		.loc 1 152 0
 235 001a 0028     		cmp	r0, #0
 236 001c 0DDB     		blt	.L15
 237              	.LVL16:
 238              	.L18:
 239              	.LBE113:
 240              		.loc 1 150 0 discriminator 1
 241 001e 6068     		ldr	r0, [r4, #4]
 242 0020 0028     		cmp	r0, #0
 243 0022 F6D0     		beq	.L14
 244              		.loc 1 159 0
 245 0024 6169     		ldr	r1, [r4, #20]
 246              		.loc 1 158 0
 247 0026 0138     		sub	r0, r0, #1
 248 0028 6060     		str	r0, [r4, #4]
 249              		.loc 1 160 0
 250 002a E268     		ldr	r2, [r4, #12]
 251              		.loc 1 159 0
 252 002c 0878     		ldrb	r0, [r1]
 253              	.LVL17:
 254 002e 0131     		add	r1, r1, #1
 255              	.LVL18:
 256 0030 6161     		str	r1, [r4, #20]
 257              		.loc 1 160 0
 258 0032 9142     		cmp	r1, r2
 259 0034 01D3     		bcc	.L15
 260              		.loc 1 161 0
 261 0036 A568     		ldr	r5, [r4, #8]
 262 0038 6561     		str	r5, [r4, #20]
 263              	.LVL19:
 264              	.L15:
 265              	.LBB116:
 266              	.LBB117:
 267              	.LBB118:
 268              	.LBB119:
 269              		.loc 3 331 0
 270              	@ 331 "./os/ext/CMSIS/include/core_cmFunc.h" 1
 271 003a 62B6     		cpsie i
 272              	@ 0 "" 2
 273              		.code	16
 274              	.LBE119:
 275              	.LBE118:
 276              	.LBE117:
 277              	.LBE116:
 278              		.loc 1 165 0
 279              		@ sp needed for prologue
 280              	.LVL20:
 281 003c 38BD     		pop	{r3, r4, r5, pc}
 282              		.cfi_endproc
 283              	.LFE80:
 284              		.size	iqGetTimeout, .-iqGetTimeout
 285              		.section	.text.iqReadTimeout,"ax",%progbits
ARM GAS  /tmp/cc1TpdB9.s 			page 6


 286              		.align	1
 287              		.global	iqReadTimeout
 288              		.code	16
 289              		.thumb_func
 290              		.type	iqReadTimeout, %function
 291              	iqReadTimeout:
 292              	.LFB81:
 293              		.loc 1 192 0
 294              		.cfi_startproc
 295              	.LVL21:
 296 0000 F7B5     		push	{r0, r1, r2, r4, r5, r6, r7, lr}
 297              	.LCFI4:
 298              		.cfi_def_cfa_offset 32
 299              		.cfi_offset 0, -32
 300              		.cfi_offset 1, -28
 301              		.cfi_offset 2, -24
 302              		.cfi_offset 4, -20
 303              		.cfi_offset 5, -16
 304              		.cfi_offset 6, -12
 305              		.cfi_offset 7, -8
 306              		.cfi_offset 14, -4
 307              		.loc 1 192 0
 308 0002 041C     		mov	r4, r0
 309 0004 0F1C     		mov	r7, r1
 310 0006 0092     		str	r2, [sp]
 311 0008 0193     		str	r3, [sp, #4]
 312              		.loc 1 193 0
 313 000a 8669     		ldr	r6, [r0, #24]
 314              	.LVL22:
 315              	.LBB138:
 316              	.LBB139:
 317              	.LBB140:
 318              	.LBB141:
 319              		.loc 3 342 0
 320              	@ 342 "./os/ext/CMSIS/include/core_cmFunc.h" 1
 321 000c 72B6     		cpsid i
 322              	@ 0 "" 2
 323              		.loc 1 194 0
 324              		.code	16
 325 000e 0025     		mov	r5, #0
 326              	.LVL23:
 327              	.L27:
 328              	.LBE141:
 329              	.LBE140:
 330              	.LBE139:
 331              	.LBE138:
 332              		.loc 1 200 0
 333 0010 002E     		cmp	r6, #0
 334 0012 01D0     		beq	.L32
 335              		.loc 1 201 0
 336 0014 201C     		mov	r0, r4
 337 0016 B047     		blx	r6
 338              	.LVL24:
 339              	.L32:
 340              		.loc 1 203 0 discriminator 1
 341 0018 6368     		ldr	r3, [r4, #4]
 342 001a 002B     		cmp	r3, #0
ARM GAS  /tmp/cc1TpdB9.s 			page 7


 343 001c 07D1     		bne	.L36
 344              	.L25:
 345              	.LVL25:
 346              	.LBB142:
 347              	.LBB143:
 348              		.loc 2 681 0
 349 001e 201C     		mov	r0, r4
 350 0020 0199     		ldr	r1, [sp, #4]
 351 0022 FFF7FEFF 		bl	chSemWaitTimeout
 352              	.LVL26:
 353              	.LBE143:
 354              	.LBE142:
 355              		.loc 1 204 0
 356 0026 0028     		cmp	r0, #0
 357 0028 F6D0     		beq	.L32
 358              	.LBB144:
 359              	.LBB145:
 360              	.LBB146:
 361              	.LBB147:
 362              		.loc 3 331 0
 363              	@ 331 "./os/ext/CMSIS/include/core_cmFunc.h" 1
 364 002a 62B6     		cpsie i
 365              	@ 0 "" 2
 366              		.code	16
 367              	.LBE147:
 368              	.LBE146:
 369              	.LBE145:
 370              	.LBE144:
 371              		.loc 1 206 0
 372 002c 12E0     		b	.L24
 373              	.LVL27:
 374              	.L36:
 375              		.loc 1 211 0
 376 002e 6069     		ldr	r0, [r4, #20]
 377              		.loc 1 210 0
 378 0030 013B     		sub	r3, r3, #1
 379 0032 6360     		str	r3, [r4, #4]
 380              		.loc 1 211 0
 381 0034 0278     		ldrb	r2, [r0]
 382 0036 0130     		add	r0, r0, #1
 383 0038 7A55     		strb	r2, [r7, r5]
 384              		.loc 1 212 0
 385 003a E168     		ldr	r1, [r4, #12]
 386              		.loc 1 211 0
 387 003c 6061     		str	r0, [r4, #20]
 388              		.loc 1 212 0
 389 003e 8842     		cmp	r0, r1
 390 0040 01D3     		bcc	.L26
 391              		.loc 1 213 0
 392 0042 A368     		ldr	r3, [r4, #8]
 393 0044 6361     		str	r3, [r4, #20]
 394              	.L26:
 395              	.LBB148:
 396              	.LBB149:
 397              	.LBB150:
 398              	.LBB151:
 399              		.loc 3 331 0
ARM GAS  /tmp/cc1TpdB9.s 			page 8


 400              	@ 331 "./os/ext/CMSIS/include/core_cmFunc.h" 1
 401 0046 62B6     		cpsie i
 402              	@ 0 "" 2
 403              		.code	16
 404              	.LBE151:
 405              	.LBE150:
 406              	.LBE149:
 407              	.LBE148:
 408              		.loc 1 217 0
 409 0048 0098     		ldr	r0, [sp]
 410              		.loc 1 216 0
 411 004a 0135     		add	r5, r5, #1
 412              	.LVL28:
 413              		.loc 1 217 0
 414 004c A842     		cmp	r0, r5
 415 004e 01D0     		beq	.L24
 416              	.LBB152:
 417              	.LBB153:
 418              	.LBB154:
 419              	.LBB155:
 420              		.loc 3 342 0
 421              	@ 342 "./os/ext/CMSIS/include/core_cmFunc.h" 1
 422 0050 72B6     		cpsid i
 423              	@ 0 "" 2
 424              		.code	16
 425 0052 DDE7     		b	.L27
 426              	.L24:
 427              	.LBE155:
 428              	.LBE154:
 429              	.LBE153:
 430              	.LBE152:
 431              		.loc 1 222 0
 432 0054 281C     		mov	r0, r5
 433              		@ sp needed for prologue
 434              	.LVL29:
 435              	.LVL30:
 436              	.LVL31:
 437 0056 FEBD     		pop	{r1, r2, r3, r4, r5, r6, r7, pc}
 438              		.cfi_endproc
 439              	.LFE81:
 440              		.size	iqReadTimeout, .-iqReadTimeout
 441              		.section	.text.oqObjectInit,"ax",%progbits
 442              		.align	1
 443              		.global	oqObjectInit
 444              		.code	16
 445              		.thumb_func
 446              		.type	oqObjectInit, %function
 447              	oqObjectInit:
 448              	.LFB82:
 449              		.loc 1 241 0
 450              		.cfi_startproc
 451              	.LVL32:
 452 0000 10B5     		push	{r4, lr}
 453              	.LCFI5:
 454              		.cfi_def_cfa_offset 8
 455              		.cfi_offset 4, -8
 456              		.cfi_offset 14, -4
ARM GAS  /tmp/cc1TpdB9.s 			page 9


 457              		.loc 1 247 0
 458 0002 8361     		str	r3, [r0, #24]
 459              		.loc 1 248 0
 460 0004 029B     		ldr	r3, [sp, #8]
 461              	.LVL33:
 462              	.LBB156:
 463              	.LBB157:
 464              		.loc 2 652 0
 465 0006 0024     		mov	r4, #0
 466              	.LBE157:
 467              	.LBE156:
 468              		.loc 1 245 0
 469 0008 0161     		str	r1, [r0, #16]
 470 000a 4161     		str	r1, [r0, #20]
 471 000c 8160     		str	r1, [r0, #8]
 472              		.loc 1 246 0
 473 000e 8918     		add	r1, r1, r2
 474              	.LVL34:
 475              	.LBB159:
 476              	.LBB158:
 477              		.loc 2 652 0
 478 0010 0460     		str	r4, [r0]
 479              	.LBE158:
 480              	.LBE159:
 481              		.loc 1 244 0
 482 0012 4260     		str	r2, [r0, #4]
 483              		.loc 1 246 0
 484 0014 C160     		str	r1, [r0, #12]
 485              		.loc 1 248 0
 486 0016 C361     		str	r3, [r0, #28]
 487              		.loc 1 249 0
 488              		@ sp needed for prologue
 489 0018 10BD     		pop	{r4, pc}
 490              		.cfi_endproc
 491              	.LFE82:
 492              		.size	oqObjectInit, .-oqObjectInit
 493              		.section	.text.oqResetI,"ax",%progbits
 494              		.align	1
 495              		.global	oqResetI
 496              		.code	16
 497              		.thumb_func
 498              		.type	oqResetI, %function
 499              	oqResetI:
 500              	.LFB83:
 501              		.loc 1 262 0
 502              		.cfi_startproc
 503              	.LVL35:
 504 0000 08B5     		push	{r3, lr}
 505              	.LCFI6:
 506              		.cfi_def_cfa_offset 8
 507              		.cfi_offset 3, -8
 508              		.cfi_offset 14, -4
 509              		.loc 1 267 0
 510 0002 C268     		ldr	r2, [r0, #12]
 511              		.loc 1 266 0
 512 0004 8368     		ldr	r3, [r0, #8]
 513              		.loc 1 269 0
ARM GAS  /tmp/cc1TpdB9.s 			page 10


 514              		@ sp needed for prologue
 515              		.loc 1 267 0
 516 0006 D11A     		sub	r1, r2, r3
 517              		.loc 1 266 0
 518 0008 0361     		str	r3, [r0, #16]
 519 000a 4361     		str	r3, [r0, #20]
 520              		.loc 1 268 0
 521 000c 0223     		mov	r3, #2
 522              		.loc 1 267 0
 523 000e 4160     		str	r1, [r0, #4]
 524              		.loc 1 268 0
 525 0010 5942     		neg	r1, r3
 526 0012 FFF7FEFF 		bl	osalQueueWakeupAllI
 527              	.LVL36:
 528              		.loc 1 269 0
 529 0016 08BD     		pop	{r3, pc}
 530              		.cfi_endproc
 531              	.LFE83:
 532              		.size	oqResetI, .-oqResetI
 533              		.section	.text.oqPutTimeout,"ax",%progbits
 534              		.align	1
 535              		.global	oqPutTimeout
 536              		.code	16
 537              		.thumb_func
 538              		.type	oqPutTimeout, %function
 539              	oqPutTimeout:
 540              	.LFB84:
 541              		.loc 1 293 0
 542              		.cfi_startproc
 543              	.LVL37:
 544 0000 70B5     		push	{r4, r5, r6, lr}
 545              	.LCFI7:
 546              		.cfi_def_cfa_offset 16
 547              		.cfi_offset 4, -16
 548              		.cfi_offset 5, -12
 549              		.cfi_offset 6, -8
 550              		.cfi_offset 14, -4
 551              		.loc 1 293 0
 552 0002 041C     		mov	r4, r0
 553 0004 0D1C     		mov	r5, r1
 554 0006 161C     		mov	r6, r2
 555              	.LBB175:
 556              	.LBB176:
 557              	.LBB177:
 558              	.LBB178:
 559              		.loc 3 342 0
 560              	@ 342 "./os/ext/CMSIS/include/core_cmFunc.h" 1
 561 0008 72B6     		cpsid i
 562              	@ 0 "" 2
 563              	.LVL38:
 564              		.code	16
 565              	.L40:
 566              	.LBE178:
 567              	.LBE177:
 568              	.LBE176:
 569              	.LBE175:
 570              		.loc 1 296 0 discriminator 1
ARM GAS  /tmp/cc1TpdB9.s 			page 11


 571 000a 6368     		ldr	r3, [r4, #4]
 572 000c 002B     		cmp	r3, #0
 573 000e 07D1     		bne	.L49
 574              	.L42:
 575              	.LVL39:
 576              	.LBB179:
 577              	.LBB180:
 578              	.LBB181:
 579              		.loc 2 681 0
 580 0010 201C     		mov	r0, r4
 581 0012 311C     		mov	r1, r6
 582 0014 FFF7FEFF 		bl	chSemWaitTimeout
 583              	.LVL40:
 584              	.LBE181:
 585              	.LBE180:
 586              		.loc 1 299 0
 587 0018 0028     		cmp	r0, #0
 588 001a F6DA     		bge	.L40
 589              	.LBB182:
 590              	.LBB183:
 591              	.LBB184:
 592              	.LBB185:
 593              		.loc 3 331 0
 594              	@ 331 "./os/ext/CMSIS/include/core_cmFunc.h" 1
 595 001c 62B6     		cpsie i
 596              	@ 0 "" 2
 597              		.code	16
 598              	.LBE185:
 599              	.LBE184:
 600              	.LBE183:
 601              	.LBE182:
 602              		.loc 1 301 0
 603 001e 11E0     		b	.L41
 604              	.LVL41:
 605              	.L49:
 606              	.LBE179:
 607              		.loc 1 306 0
 608 0020 2069     		ldr	r0, [r4, #16]
 609              		.loc 1 305 0
 610 0022 013B     		sub	r3, r3, #1
 611 0024 6360     		str	r3, [r4, #4]
 612              		.loc 1 306 0
 613 0026 0570     		strb	r5, [r0]
 614              		.loc 1 307 0
 615 0028 E268     		ldr	r2, [r4, #12]
 616              		.loc 1 306 0
 617 002a 0130     		add	r0, r0, #1
 618 002c 2061     		str	r0, [r4, #16]
 619              		.loc 1 307 0
 620 002e 9042     		cmp	r0, r2
 621 0030 01D3     		bcc	.L43
 622              		.loc 1 308 0
 623 0032 A168     		ldr	r1, [r4, #8]
 624 0034 2161     		str	r1, [r4, #16]
 625              	.L43:
 626              		.loc 1 310 0
 627 0036 A569     		ldr	r5, [r4, #24]
ARM GAS  /tmp/cc1TpdB9.s 			page 12


 628 0038 002D     		cmp	r5, #0
 629 003a 01D0     		beq	.L44
 630              		.loc 1 311 0
 631 003c 201C     		mov	r0, r4
 632 003e A847     		blx	r5
 633              	.LVL42:
 634              	.L44:
 635              	.LBB186:
 636              	.LBB187:
 637              	.LBB188:
 638              	.LBB189:
 639              		.loc 3 331 0
 640              	@ 331 "./os/ext/CMSIS/include/core_cmFunc.h" 1
 641 0040 62B6     		cpsie i
 642              	@ 0 "" 2
 643              		.code	16
 644              	.LBE189:
 645              	.LBE188:
 646              	.LBE187:
 647              	.LBE186:
 648              		.loc 1 314 0
 649 0042 0020     		mov	r0, #0
 650              	.L41:
 651              		.loc 1 315 0
 652              		@ sp needed for prologue
 653              	.LVL43:
 654 0044 70BD     		pop	{r4, r5, r6, pc}
 655              		.cfi_endproc
 656              	.LFE84:
 657              		.size	oqPutTimeout, .-oqPutTimeout
 658              		.section	.text.oqGetI,"ax",%progbits
 659              		.align	1
 660              		.global	oqGetI
 661              		.code	16
 662              		.thumb_func
 663              		.type	oqGetI, %function
 664              	oqGetI:
 665              	.LFB85:
 666              		.loc 1 327 0
 667              		.cfi_startproc
 668              	.LVL44:
 669              		.loc 1 332 0
 670 0000 4369     		ldr	r3, [r0, #20]
 671 0002 0169     		ldr	r1, [r0, #16]
 672              		.loc 1 327 0
 673 0004 10B5     		push	{r4, lr}
 674              	.LCFI8:
 675              		.cfi_def_cfa_offset 8
 676              		.cfi_offset 4, -8
 677              		.cfi_offset 14, -4
 678              		.loc 1 332 0
 679 0006 0022     		mov	r2, #0
 680 0008 9942     		cmp	r1, r3
 681 000a 02D1     		bne	.L51
 682              		.loc 1 332 0 is_stmt 0 discriminator 1
 683 000c 4268     		ldr	r2, [r0, #4]
 684 000e 511E     		sub	r1, r2, #1
ARM GAS  /tmp/cc1TpdB9.s 			page 13


 685 0010 8A41     		sbc	r2, r2, r1
 686              	.L51:
 687              		.loc 1 332 0 discriminator 4
 688 0012 002A     		cmp	r2, #0
 689 0014 0FD1     		bne	.L55
 690              		.loc 1 335 0 is_stmt 1
 691 0016 4468     		ldr	r4, [r0, #4]
 692              		.loc 1 337 0
 693 0018 C168     		ldr	r1, [r0, #12]
 694              		.loc 1 335 0
 695 001a 0134     		add	r4, r4, #1
 696 001c 4460     		str	r4, [r0, #4]
 697              		.loc 1 336 0
 698 001e 1C78     		ldrb	r4, [r3]
 699              	.LVL45:
 700 0020 0133     		add	r3, r3, #1
 701              	.LVL46:
 702 0022 4361     		str	r3, [r0, #20]
 703              		.loc 1 337 0
 704 0024 8B42     		cmp	r3, r1
 705 0026 01D3     		bcc	.L53
 706              		.loc 1 338 0
 707 0028 8368     		ldr	r3, [r0, #8]
 708 002a 4361     		str	r3, [r0, #20]
 709              	.L53:
 710              		.loc 1 340 0
 711 002c 0021     		mov	r1, #0
 712 002e FFF7FEFF 		bl	osalQueueWakeupOneI
 713              	.LVL47:
 714              		.loc 1 342 0
 715 0032 201C     		mov	r0, r4
 716 0034 01E0     		b	.L52
 717              	.LVL48:
 718              	.L55:
 719              		.loc 1 333 0
 720 0036 0320     		mov	r0, #3
 721              	.LVL49:
 722 0038 4042     		neg	r0, r0
 723              	.L52:
 724              		.loc 1 343 0
 725              		@ sp needed for prologue
 726 003a 10BD     		pop	{r4, pc}
 727              		.cfi_endproc
 728              	.LFE85:
 729              		.size	oqGetI, .-oqGetI
 730              		.section	.text.oqWriteTimeout,"ax",%progbits
 731              		.align	1
 732              		.global	oqWriteTimeout
 733              		.code	16
 734              		.thumb_func
 735              		.type	oqWriteTimeout, %function
 736              	oqWriteTimeout:
 737              	.LFB86:
 738              		.loc 1 370 0
 739              		.cfi_startproc
 740              	.LVL50:
 741 0000 F7B5     		push	{r0, r1, r2, r4, r5, r6, r7, lr}
ARM GAS  /tmp/cc1TpdB9.s 			page 14


 742              	.LCFI9:
 743              		.cfi_def_cfa_offset 32
 744              		.cfi_offset 0, -32
 745              		.cfi_offset 1, -28
 746              		.cfi_offset 2, -24
 747              		.cfi_offset 4, -20
 748              		.cfi_offset 5, -16
 749              		.cfi_offset 6, -12
 750              		.cfi_offset 7, -8
 751              		.cfi_offset 14, -4
 752              		.loc 1 370 0
 753 0002 171C     		mov	r7, r2
 754              		.loc 1 371 0
 755 0004 8269     		ldr	r2, [r0, #24]
 756              	.LVL51:
 757              		.loc 1 370 0
 758 0006 041C     		mov	r4, r0
 759 0008 0E1C     		mov	r6, r1
 760 000a 0193     		str	r3, [sp, #4]
 761              		.loc 1 371 0
 762 000c 0092     		str	r2, [sp]
 763              	.LVL52:
 764              	.LBB208:
 765              	.LBB209:
 766              	.LBB210:
 767              	.LBB211:
 768              		.loc 3 342 0
 769              	@ 342 "./os/ext/CMSIS/include/core_cmFunc.h" 1
 770 000e 72B6     		cpsid i
 771              	@ 0 "" 2
 772              		.loc 1 372 0
 773              		.code	16
 774 0010 0025     		mov	r5, #0
 775              	.LVL53:
 776              	.L74:
 777              	.LBE211:
 778              	.LBE210:
 779              	.LBE209:
 780              	.LBE208:
 781              		.loc 1 378 0 discriminator 1
 782 0012 6368     		ldr	r3, [r4, #4]
 783 0014 002B     		cmp	r3, #0
 784 0016 07D1     		bne	.L75
 785              	.L60:
 786              	.LVL54:
 787              	.LBB212:
 788              	.LBB213:
 789              		.loc 2 681 0
 790 0018 201C     		mov	r0, r4
 791 001a 0199     		ldr	r1, [sp, #4]
 792 001c FFF7FEFF 		bl	chSemWaitTimeout
 793              	.LVL55:
 794              	.LBE213:
 795              	.LBE212:
 796              		.loc 1 379 0
 797 0020 0028     		cmp	r0, #0
 798 0022 F6D0     		beq	.L74
ARM GAS  /tmp/cc1TpdB9.s 			page 15


 799              	.LBB214:
 800              	.LBB215:
 801              	.LBB216:
 802              	.LBB217:
 803              		.loc 3 331 0
 804              	@ 331 "./os/ext/CMSIS/include/core_cmFunc.h" 1
 805 0024 62B6     		cpsie i
 806              	@ 0 "" 2
 807              		.code	16
 808              	.LBE217:
 809              	.LBE216:
 810              	.LBE215:
 811              	.LBE214:
 812              		.loc 1 381 0
 813 0026 18E0     		b	.L59
 814              	.LVL56:
 815              	.L75:
 816              		.loc 1 384 0
 817 0028 013B     		sub	r3, r3, #1
 818 002a 6360     		str	r3, [r4, #4]
 819              		.loc 1 385 0
 820 002c 2069     		ldr	r0, [r4, #16]
 821 002e 3178     		ldrb	r1, [r6]
 822 0030 0136     		add	r6, r6, #1
 823              	.LVL57:
 824 0032 0170     		strb	r1, [r0]
 825              		.loc 1 386 0
 826 0034 E268     		ldr	r2, [r4, #12]
 827              		.loc 1 385 0
 828 0036 0130     		add	r0, r0, #1
 829 0038 2061     		str	r0, [r4, #16]
 830              		.loc 1 386 0
 831 003a 9042     		cmp	r0, r2
 832 003c 01D3     		bcc	.L61
 833              		.loc 1 387 0
 834 003e A368     		ldr	r3, [r4, #8]
 835 0040 2361     		str	r3, [r4, #16]
 836              	.L61:
 837              		.loc 1 389 0
 838 0042 0099     		ldr	r1, [sp]
 839 0044 0029     		cmp	r1, #0
 840 0046 01D0     		beq	.L62
 841              		.loc 1 390 0
 842 0048 201C     		mov	r0, r4
 843 004a 8847     		blx	r1
 844              	.LVL58:
 845              	.L62:
 846              	.LBB218:
 847              	.LBB219:
 848              	.LBB220:
 849              	.LBB221:
 850              		.loc 3 331 0
 851              	@ 331 "./os/ext/CMSIS/include/core_cmFunc.h" 1
 852 004c 62B6     		cpsie i
 853              	@ 0 "" 2
 854              		.code	16
 855              	.LBE221:
ARM GAS  /tmp/cc1TpdB9.s 			page 16


 856              	.LBE220:
 857              	.LBE219:
 858              	.LBE218:
 859              		.loc 1 394 0
 860 004e 013F     		sub	r7, r7, #1
 861              	.LVL59:
 862              		.loc 1 393 0
 863 0050 0135     		add	r5, r5, #1
 864              	.LVL60:
 865              		.loc 1 394 0
 866 0052 002F     		cmp	r7, #0
 867 0054 01D0     		beq	.L59
 868              	.LBB222:
 869              	.LBB223:
 870              	.LBB224:
 871              	.LBB225:
 872              		.loc 3 342 0
 873              	@ 342 "./os/ext/CMSIS/include/core_cmFunc.h" 1
 874 0056 72B6     		cpsid i
 875              	@ 0 "" 2
 876              		.code	16
 877 0058 DBE7     		b	.L74
 878              	.L59:
 879              	.LBE225:
 880              	.LBE224:
 881              	.LBE223:
 882              	.LBE222:
 883              		.loc 1 398 0
 884 005a 281C     		mov	r0, r5
 885              		@ sp needed for prologue
 886              	.LVL61:
 887              	.LVL62:
 888              	.LVL63:
 889              	.LVL64:
 890 005c FEBD     		pop	{r1, r2, r3, r4, r5, r6, r7, pc}
 891              		.cfi_endproc
 892              	.LFE86:
 893              		.size	oqWriteTimeout, .-oqWriteTimeout
 894              		.text
 895              	.Letext0:
 896              		.file 4 "/media/data/src/x-tools/gcc-arm-none-eabi-4_7-2013q1/bin/../lib/gcc/arm-none-eabi/4.7.3/i
 897              		.file 5 "/media/data/src/x-tools/gcc-arm-none-eabi-4_7-2013q1/bin/../lib/gcc/arm-none-eabi/4.7.3/.
 898              		.file 6 "./os/nil/include/nil.h"
 899              		.file 7 "./os/nil/ports/ARMCMx/compilers/GCC/niltypes.h"
 900              		.file 8 "./os/nil/ports/ARMCMx/nilcore.h"
 901              		.file 9 "./os/nil/ports/ARMCMx/nilcore_v6m.h"
 902              		.file 10 "./os/hal/include/hal_queues.h"