ARM GAS  /tmp/cc1TpdB9.s 			page 1


   1              		.cpu cortex-m0
   2              		.fpu softvfp
   3              		.eabi_attribute 20, 1
   4              		.eabi_attribute 21, 1
   5              		.eabi_attribute 23, 3
   6              		.eabi_attribute 24, 1
   7              		.eabi_attribute 25, 1
   8              		.eabi_attribute 26, 1
   9              		.eabi_attribute 30, 4
  10              		.eabi_attribute 34, 0
  11              		.eabi_attribute 18, 4
  12              		.code	16
  13              		.file	"hal_queues.c"
  14              		.text
  15              	.Ltext0:
  16              		.cfi_sections	.debug_frame
  17              		.section	.text.iqObjectInit,"ax",%progbits
  18              		.align	1
  19              		.global	iqObjectInit
  20              		.code	16
  21              		.thumb_func
  22              		.type	iqObjectInit, %function
  23              	iqObjectInit:
  24              	.LFB77:
  25              		.file 1 "./os/hal/src/hal_queues.c"
  26              		.loc 1 63 0
  27              		.cfi_startproc
  28              	.LVL0:
  29 0000 10B5     		push	{r4, lr}
  30              	.LCFI0:
  31              		.cfi_def_cfa_offset 8
  32              		.cfi_offset 4, -8
  33              		.cfi_offset 14, -4
  34              		.loc 1 69 0
  35 0002 8361     		str	r3, [r0, #24]
  36              		.loc 1 70 0
  37 0004 029B     		ldr	r3, [sp, #8]
  38              	.LVL1:
  39              	.LBB90:
  40              	.LBB91:
  41              		.file 2 "./os/nil/osal/osal.h"
  42              		.loc 2 652 0
  43 0006 0024     		mov	r4, #0
  44              	.LBE91:
  45              	.LBE90:
  46              		.loc 1 67 0
  47 0008 0161     		str	r1, [r0, #16]
  48 000a 4161     		str	r1, [r0, #20]
  49 000c 8160     		str	r1, [r0, #8]
  50              		.loc 1 68 0
  51 000e 8918     		add	r1, r1, r2
  52              	.LVL2:
  53              	.LBB93:
  54              	.LBB92:
  55              		.loc 2 652 0
  56 0010 0460     		str	r4, [r0]
  57              	.LBE92:
ARM GAS  /tmp/cc1TpdB9.s 			page 2


  58              	.LBE93:
  59              		.loc 1 66 0
  60 0012 4460     		str	r4, [r0, #4]
  61              		.loc 1 68 0
  62 0014 C160     		str	r1, [r0, #12]
  63              		.loc 1 70 0
  64 0016 C361     		str	r3, [r0, #28]
  65              		.loc 1 71 0
  66              		@ sp needed for prologue
  67 0018 10BD     		pop	{r4, pc}
  68              		.cfi_endproc
  69              	.LFE77:
  70              		.size	iqObjectInit, .-iqObjectInit
  71              		.section	.text.iqResetI,"ax",%progbits
  72              		.align	1
  73              		.global	iqResetI
  74              		.code	16
  75              		.thumb_func
  76              		.type	iqResetI, %function
  77              	iqResetI:
  78              	.LFB78:
  79              		.loc 1 84 0
  80              		.cfi_startproc
  81              	.LVL3:
  82 0000 08B5     		push	{r3, lr}
  83              	.LCFI1:
  84              		.cfi_def_cfa_offset 8
  85              		.cfi_offset 3, -8
  86              		.cfi_offset 14, -4
  87              		.loc 1 88 0
  88 0002 8368     		ldr	r3, [r0, #8]
  89              		.loc 1 89 0
  90 0004 0021     		mov	r1, #0
  91              		.loc 1 90 0
  92 0006 0222     		mov	r2, #2
  93              		.loc 1 89 0
  94 0008 4160     		str	r1, [r0, #4]
  95              		.loc 1 88 0
  96 000a 0361     		str	r3, [r0, #16]
  97 000c 4361     		str	r3, [r0, #20]
  98              		.loc 1 90 0
  99 000e 5142     		neg	r1, r2
 100 0010 FFF7FEFF 		bl	osalQueueWakeupAllI
 101              	.LVL4:
 102              		.loc 1 91 0
 103              		@ sp needed for prologue
 104 0014 08BD     		pop	{r3, pc}
 105              		.cfi_endproc
 106              	.LFE78:
 107              		.size	iqResetI, .-iqResetI
 108              		.section	.text.iqPutI,"ax",%progbits
 109              		.align	1
 110              		.global	iqPutI
 111              		.code	16
 112              		.thumb_func
 113              		.type	iqPutI, %function
 114              	iqPutI:
ARM GAS  /tmp/cc1TpdB9.s 			page 3


 115              	.LFB79:
 116              		.loc 1 106 0
 117              		.cfi_startproc
 118              	.LVL5:
 119 0000 10B5     		push	{r4, lr}
 120              	.LCFI2:
 121              		.cfi_def_cfa_offset 8
 122              		.cfi_offset 4, -8
 123              		.cfi_offset 14, -4
 124              		.loc 1 110 0
 125 0002 0369     		ldr	r3, [r0, #16]
 126 0004 4469     		ldr	r4, [r0, #20]
 127 0006 0022     		mov	r2, #0
 128 0008 A342     		cmp	r3, r4
 129 000a 02D1     		bne	.L4
 130              		.loc 1 110 0 is_stmt 0 discriminator 1
 131 000c 4268     		ldr	r2, [r0, #4]
 132 000e 541E     		sub	r4, r2, #1
 133 0010 A241     		sbc	r2, r2, r4
 134              	.L4:
 135              		.loc 1 110 0 discriminator 4
 136 0012 002A     		cmp	r2, #0
 137 0014 0FD1     		bne	.L8
 138              		.loc 1 113 0 is_stmt 1
 139 0016 4468     		ldr	r4, [r0, #4]
 140 0018 0134     		add	r4, r4, #1
 141 001a 4460     		str	r4, [r0, #4]
 142              		.loc 1 114 0
 143 001c 1970     		strb	r1, [r3]
 144              		.loc 1 115 0
 145 001e C168     		ldr	r1, [r0, #12]
 146              	.LVL6:
 147              		.loc 1 114 0
 148 0020 0133     		add	r3, r3, #1
 149              	.LVL7:
 150 0022 0361     		str	r3, [r0, #16]
 151              		.loc 1 115 0
 152 0024 8B42     		cmp	r3, r1
 153 0026 01D3     		bcc	.L6
 154              		.loc 1 116 0
 155 0028 8368     		ldr	r3, [r0, #8]
 156 002a 0361     		str	r3, [r0, #16]
 157              	.L6:
 158              		.loc 1 118 0
 159 002c 0021     		mov	r1, #0
 160 002e FFF7FEFF 		bl	osalQueueWakeupOneI
 161              	.LVL8:
 162              		.loc 1 120 0
 163 0032 0020     		mov	r0, #0
 164 0034 01E0     		b	.L5
 165              	.LVL9:
 166              	.L8:
 167              		.loc 1 111 0
 168 0036 0420     		mov	r0, #4
 169              	.LVL10:
 170 0038 4042     		neg	r0, r0
 171              	.LVL11:
ARM GAS  /tmp/cc1TpdB9.s 			page 4


 172              	.L5:
 173              		.loc 1 121 0
 174              		@ sp needed for prologue
 175 003a 10BD     		pop	{r4, pc}
 176              		.cfi_endproc
 177              	.LFE79:
 178              		.size	iqPutI, .-iqPutI
 179              		.section	.text.iqGetTimeout,"ax",%progbits
 180              		.align	1
 181              		.global	iqGetTimeout
 182              		.code	16
 183              		.thumb_func
 184              		.type	iqGetTimeout, %function
 185              	iqGetTimeout:
 186              	.LFB80:
 187              		.loc 1 143 0
 188              		.cfi_startproc
 189              	.LVL12:
 190 0000 38B5     		push	{r3, r4, r5, lr}
 191              	.LCFI3:
 192              		.cfi_def_cfa_offset 16
 193              		.cfi_offset 3, -16
 194              		.cfi_offset 4, -12
 195              		.cfi_offset 5, -8
 196              		.cfi_offset 14, -4
 197              		.loc 1 143 0
 198 0002 041C     		mov	r4, r0
 199 0004 0D1C     		mov	r5, r1
 200              	.LBB109:
 201              	.LBB110:
 202              	.LBB111:
 203              	.LBB112:
 204              		.file 3 "./os/ext/CMSIS/include/core_cmFunc.h"
 205              		.loc 3 342 0
 206              	@ 342 "./os/ext/CMSIS/include/core_cmFunc.h" 1
 207 0006 72B6     		cpsid i
 208              	@ 0 "" 2
 209              		.code	16
 210              	.LBE112:
 211              	.LBE111:
 212              	.LBE110:
 213              	.LBE109:
 214              		.loc 1 147 0
 215 0008 8369     		ldr	r3, [r0, #24]
 216 000a 002B     		cmp	r3, #0
 217 000c 07D0     		beq	.L18
 218              		.loc 1 148 0
 219 000e 9847     		blx	r3
 220              	.LVL13:
 221 0010 05E0     		b	.L18
 222              	.L14:
 223              	.LVL14:
 224              	.LBB113:
 225              	.LBB114:
 226              	.LBB115:
 227              		.loc 2 681 0
 228 0012 201C     		mov	r0, r4
ARM GAS  /tmp/cc1TpdB9.s 			page 5


 229 0014 291C     		mov	r1, r5
 230 0016 FFF7FEFF 		bl	chSemWaitTimeout
 231              	.LVL15:
 232              	.LBE115:
 233              	.LBE114:
 234              		.loc 1 152 0
 235 001a 0028     		cmp	r0, #0
 236 001c 0DDB     		blt	.L15
 237              	.LVL16:
 238              	.L18:
 239              	.LBE113:
 240              		.loc 1 150 0 discriminator 1
 241 001e 6068     		ldr	r0, [r4, #4]
 242 0020 0028     		cmp	r0, #0
 243 0022 F6D0     		beq	.L14
 244              		.loc 1 159 0
 245 0024 6169     		ldr	r1, [r4, #20]
 246              		.loc 1 158 0
 247 0026 0138     		sub	r0, r0, #1
 248 0028 6060     		str	r0, [r4, #4]
 249              		.loc 1 160 0
 250 002a E268     		ldr	r2, [r4, #12]
 251              		.loc 1 159 0
 252 002c 0878     		ldrb	r0, [r1]
 253              	.LVL17:
 254 002e 0131     		add	r1, r1, #1
 255              	.LVL18:
 256 0030 6161     		str	r1, [r4, #20]
 257              		.loc 1 160 0
 258 0032 9142     		cmp	r1, r2
 259 0034 01D3     		bcc	.L15
 260              		.loc 1 161 0
 261 0036 A568     		ldr	r5, [r4, #8]
 262 0038 6561     		str	r5, [r4, #20]
 263              	.LVL19:
 264              	.L15:
 265              	.LBB116:
 266              	.LBB117:
 267              	.LBB118:
 268              	.LBB119:
 269              		.loc 3 331 0
 270              	@ 331 "./os/ext/CMSIS/include/core_cmFunc.h" 1
 271 003a 62B6     		cpsie i
 272              	@ 0 "" 2
 273              		.code	16
 274              	.LBE119:
 275              	.LBE118:
 276              	.LBE117:
 277              	.LBE116:
 278              		.loc 1 165 0
 279              		@ sp needed for prologue
 280              	.LVL20:
 281 003c 38BD     		pop	{r3, r4, r5, pc}
 282              		.cfi_endproc
 283              	.LFE80:
 284              		.size	iqGetTimeout, .-iqGetTimeout
 285              		.section	.text.iqReadTimeout,"ax",%progbits
ARM GAS  /tmp/cc1TpdB9.s 			page 6


 286              		.align	1
 287              		.global	iqReadTimeout
 288              		.code	16
 289              		.thumb_func
 290              		.type	iqReadTimeout, %function
 291              	iqReadTimeout:
 292              	.LFB81:
 293              		.loc 1 192 0
 294              		.cfi_startproc
 295              	.LVL21:
 296 0000 F7B5     		push	{r0, r1, r2, r4, r5, r6, r7, lr}
 297              	.LCFI4:
 298              		.cfi_def_cfa_offset 32
 299              		.cfi_offset 0, -32
 300              		.cfi_offset 1, -28
 301              		.cfi_offset 2, -24
 302              		.cfi_offset 4, -20
 303              		.cfi_offset 5, -16
 304              		.cfi_offset 6, -12
 305              		.cfi_offset 7, -8
 306              		.cfi_offset 14, -4
 307              		.loc 1 192 0
 308 0002 041C     		mov	r4, r0
 309 0004 0F1C     		mov	r7, r1
 310 0006 0092     		str	r2, [sp]
 311 0008 0193     		str	r3, [sp, #4]
 312              		.loc 1 193 0
 313 000a 8669     		ldr	r6, [r0, #24]
 314              	.LVL22:
 315              	.LBB138:
 316              	.LBB139:
 317              	.LBB140:
 318              	.LBB141:
 319              		.loc 3 342 0
 320              	@ 342 "./os/ext/CMSIS/include/core_cmFunc.h" 1
 321 000c 72B6     		cpsid i
 322              	@ 0 "" 2
 323              		.loc 1 194 0
 324              		.code	16
 325 000e 0025     		mov	r5, #0
 326              	.LVL23:
 327              	.L27:
 328              	.LBE141:
 329              	.LBE140:
 330              	.LBE139:
 331              	.LBE138:
 332              		.loc 1 200 0
 333 0010 002E     		cmp	r6, #0
 334 0012 01D0     		beq	.L32
 335              		.loc 1 201 0
 336 0014 201C     		mov	r0, r4
 337 0016 B047     		blx	r6
 338              	.LVL24:
 339              	.L32:
 340              		.loc 1 203 0 discriminator 1
 341 0018 6368     		ldr	r3, [r4, #4]
 342 001a 002B     		cmp	r3, #0
ARM GAS  /tmp/cc1TpdB9.s 			page 7


 343 001c 07D1     		bne	.L36
 344              	.L25:
 345              	.LVL25:
 346              	.LBB142:
 347              	.LBB143:
 348              		.loc 2 681 0
 349 001e 201C     		mov	r0, r4
 350 0020 0199     		ldr	r1, [sp, #4]
 351 0022 FFF7FEFF 		bl	chSemWaitTimeout
 352              	.LVL26:
 353              	.LBE143:
 354              	.LBE142:
 355              		.loc 1 204 0
 356 0026 0028     		cmp	r0, #0
 357 0028 F6D0     		beq	.L32
 358              	.LBB144:
 359              	.LBB145:
 360              	.LBB146:
 361              	.LBB147:
 362              		.loc 3 331 0
 363              	@ 331 "./os/ext/CMSIS/include/core_cmFunc.h" 1
 364 002a 62B6     		cpsie i
 365              	@ 0 "" 2
 366              		.code	16
 367              	.LBE147:
 368              	.LBE146:
 369              	.LBE145:
 370              	.LBE144:
 371              		.loc 1 206 0
 372 002c 12E0     		b	.L24
 373              	.LVL27:
 374              	.L36:
 375              		.loc 1 211 0
 376 002e 6069     		ldr	r0, [r4, #20]
 377              		.loc 1 210 0
 378 0030 013B     		sub	r3, r3, #1
 379 0032 6360     		str	r3, [r4, #4]
 380              		.loc 1 211 0
 381 0034 0278     		ldrb	r2, [r0]
 382 0036 0130     		add	r0, r0, #1
 383 0038 7A55     		strb	r2, [r7, r5]
 384              		.loc 1 212 0
 385 003a E168     		ldr	r1, [r4, #12]
 386              		.loc 1 211 0
 387 003c 6061     		str	r0, [r4, #20]
 388              		.loc 1 212 0
 389 003e 8842     		cmp	r0, r1
 390 0040 01D3     		bcc	.L26
 391              		.loc 1 213 0
 392 0042 A368     		ldr	r3, [r4, #8]
 393 0044 6361     		str	r3, [r4, #20]
 394              	.L26:
 395              	.LBB148:
 396              	.LBB149:
 397              	.LBB150:
 398              	.LBB151:
 399              		.loc 3 331 0
ARM GAS  /tmp/cc1TpdB9.s 			page 8


 400              	@ 331 "./os/ext/CMSIS/include/core_cmFunc.h" 1
 401 0046 62B6     		cpsie i
 402              	@ 0 "" 2
 403              		.code	16
 404              	.LBE151:
 405              	.LBE150:
 406              	.LBE149:
 407              	.LBE148:
 408              		.loc 1 217 0
 409 0048 0098     		ldr	r0, [sp]
 410              		.loc 1 216 0
 411 004a 0135     		add	r5, r5, #1
 412              	.LVL28:
 413              		.loc 1 217 0
 414 004c A842     		cmp	r0, r5
 415 004e 01D0     		beq	.L24
 416              	.LBB152:
 417              	.LBB153:
 418              	.LBB154:
 419              	.LBB155:
 420              		.loc 3 342 0
 421              	@ 342 "./os/ext/CMSIS/include/core_cmFunc.h" 1
 422 0050 72B6     		cpsid i
 423              	@ 0 "" 2
 424              		.code	16
 425 0052 DDE7     		b	.L27
 426              	.L24:
 427              	.LBE155:
 428              	.LBE154:
 429              	.LBE153:
 430              	.LBE152:
 431              		.loc 1 222 0
 432 0054 281C     		mov	r0, r5
 433              		@ sp needed for prologue
 434              	.LVL29:
 435              	.LVL30:
 436              	.LVL31:
 437 0056 FEBD     		pop	{r1, r2, r3, r4, r5, r6, r7, pc}
 438              		.cfi_endproc
 439              	.LFE81:
 440              		.size	iqReadTimeout, .-iqReadTimeout
 441              		.section	.text.oqObjectInit,"ax",%progbits
 442              		.align	1
 443              		.global	oqObjectInit
 444              		.code	16
 445              		.thumb_func
 446              		.type	oqObjectInit, %function
 447              	oqObjectInit:
 448              	.LFB82:
 449              		.loc 1 241 0
 450              		.cfi_startproc
 451              	.LVL32:
 452 0000 10B5     		push	{r4, lr}
 453              	.LCFI5:
 454              		.cfi_def_cfa_offset 8
 455              		.cfi_offset 4, -8
 456              		.cfi_offset 14, -4
ARM GAS  /tmp/cc1TpdB9.s 			page 9


 457              		.loc 1 247 0
 458 0002 8361     		str	r3, [r0, #24]
 459              		.loc 1 248 0
 460 0004 029B     		ldr	r3, [sp, #8]
 461              	.LVL33:
 462              	.LBB156:
 463              	.LBB157:
 464              		.loc 2 652 0
 465 0006 0024     		mov	r4, #0
 466              	.LBE157:
 467              	.LBE156:
 468              		.loc 1 245 0
 469 0008 0161     		str	r1, [r0, #16]
 470 000a 4161     		str	r1, [r0, #20]
 471 000c 8160     		str	r1, [r0, #8]
 472              		.loc 1 246 0
 473 000e 8918     		add	r1, r1, r2
 474              	.LVL34:
 475              	.LBB159:
 476              	.LBB158:
 477              		.loc 2 652 0
 478 0010 0460     		str	r4, [r0]
 479              	.LBE158:
 480              	.LBE159:
 481              		.loc 1 244 0
 482 0012 4260     		str	r2, [r0, #4]
 483              		.loc 1 246 0
 484 0014 C160     		str	r1, [r0, #12]
 485              		.loc 1 248 0
 486 0016 C361     		str	r3, [r0, #28]
 487              		.loc 1 249 0
 488              		@ sp needed for prologue
 489 0018 10BD     		pop	{r4, pc}
 490              		.cfi_endproc
 491              	.LFE82:
 492              		.size	oqObjectInit, .-oqObjectInit
 493              		.section	.text.oqResetI,"ax",%progbits
 494              		.align	1
 495              		.global	oqResetI
 496              		.code	16
 497              		.thumb_func
 498              		.type	oqResetI, %function
 499              	oqResetI:
 500              	.LFB83:
 501              		.loc 1 262 0
 502              		.cfi_startproc
 503              	.LVL35:
 504 0000 08B5     		push	{r3, lr}
 505              	.LCFI6:
 506              		.cfi_def_cfa_offset 8
 507              		.cfi_offset 3, -8
 508              		.cfi_offset 14, -4
 509              		.loc 1 267 0
 510 0002 C268     		ldr	r2, [r0, #12]
 511              		.loc 1 266 0
 512 0004 8368     		ldr	r3, [r0, #8]
 513              		.loc 1 269 0
ARM GAS  /tmp/cc1TpdB9.s 			page 10


 514              		@ sp needed for prologue
 515              		.loc 1 267 0
 516 0006 D11A     		sub	r1, r2, r3
 517              		.loc 1 266 0
 518 0008 0361     		str	r3, [r0, #16]
 519 000a 4361     		str	r3, [r0, #20]
 520              		.loc 1 268 0
 521 000c 0223     		mov	r3, #2
 522              		.loc 1 267 0
 523 000e 4160     		str	r1, [r0, #4]
 524              		.loc 1 268 0
 525 0010 5942     		neg	r1, r3
 526 0012 FFF7FEFF 		bl	osalQueueWakeupAllI
 527              	.LVL36:
 528              		.loc 1 269 0
 529 0016 08BD     		pop	{r3, pc}
 530              		.cfi_endproc
 531              	.LFE83:
 532              		.size	oqResetI, .-oqResetI
 533              		.section	.text.oqPutTimeout,"ax",%progbits
 534              		.align	1
 535              		.global	oqPutTimeout
 536              		.code	16
 537              		.thumb_func
 538              		.type	oqPutTimeout, %function
 539              	oqPutTimeout:
 540              	.LFB84:
 541              		.loc 1 293 0
 542              		.cfi_startproc
 543              	.LVL37:
 544 0000 70B5     		push	{r4, r5, r6, lr}
 545              	.LCFI7:
 546              		.cfi_def_cfa_offset 16
 547              		.cfi_offset 4, -16
 548              		.cfi_offset 5, -12
 549              		.cfi_offset 6, -8
 550              		.cfi_offset 14, -4
 551              		.loc 1 293 0
 552 0002 041C     		mov	r4, r0
 553 0004 0D1C     		mov	r5, r1
 554 0006 161C     		mov	r6, r2
 555              	.LBB175:
 556              	.LBB176:
 557              	.LBB177:
 558              	.LBB178:
 559              		.loc 3 342 0
 560              	@ 342 "./os/ext/CMSIS/include/core_cmFunc.h" 1
 561 0008 72B6     		cpsid i
 562              	@ 0 "" 2
 563              	.LVL38:
 564              		.code	16
 565              	.L40:
 566              	.LBE178:
 567              	.LBE177:
 568              	.LBE176:
 569              	.LBE175:
 570              		.loc 1 296 0 discriminator 1
ARM GAS  /tmp/cc1TpdB9.s 			page 11


 571 000a 6368     		ldr	r3, [r4, #4]
 572 000c 002B     		cmp	r3, #0
 573 000e 07D1     		bne	.L49
 574              	.L42:
 575              	.LVL39:
 576              	.LBB179:
 577              	.LBB180:
 578              	.LBB181:
 579              		.loc 2 681 0
 580 0010 201C     		mov	r0, r4
 581 0012 311C     		mov	r1, r6
 582 0014 FFF7FEFF 		bl	chSemWaitTimeout
 583              	.LVL40:
 584              	.LBE181:
 585              	.LBE180:
 586              		.loc 1 299 0
 587 0018 0028     		cmp	r0, #0
 588 001a F6DA     		bge	.L40
 589              	.LBB182:
 590              	.LBB183:
 591              	.LBB184:
 592              	.LBB185:
 593              		.loc 3 331 0
 594              	@ 331 "./os/ext/CMSIS/include/core_cmFunc.h" 1
 595 001c 62B6     		cpsie i
 596              	@ 0 "" 2
 597              		.code	16
 598              	.LBE185:
 599              	.LBE184:
 600              	.LBE183:
 601              	.LBE182:
 602              		.loc 1 301 0
 603 001e 11E0     		b	.L41
 604              	.LVL41:
 605              	.L49:
 606              	.LBE179:
 607              		.loc 1 306 0
 608 0020 2069     		ldr	r0, [r4, #16]
 609              		.loc 1 305 0
 610 0022 013B     		sub	r3, r3, #1
 611 0024 6360     		str	r3, [r4, #4]
 612              		.loc 1 306 0
 613 0026 0570     		strb	r5, [r0]
 614              		.loc 1 307 0
 615 0028 E268     		ldr	r2, [r4, #12]
 616              		.loc 1 306 0
 617 002a 0130     		add	r0, r0, #1
 618 002c 2061     		str	r0, [r4, #16]
 619              		.loc 1 307 0
 620 002e 9042     		cmp	r0, r2
 621 0030 01D3     		bcc	.L43
 622              		.loc 1 308 0
 623 0032 A168     		ldr	r1, [r4, #8]
 624 0034 2161     		str	r1, [r4, #16]
 625              	.L43:
 626              		.loc 1 310 0
 627 0036 A569     		ldr	r5, [r4, #24]
ARM GAS  /tmp/cc1TpdB9.s 			page 12


 628 0038 002D     		cmp	r5, #0
 629 003a 01D0     		beq	.L44
 630              		.loc 1 311 0
 631 003c 201C     		mov	r0, r4
 632 003e A847     		blx	r5
 633              	.LVL42:
 634              	.L44:
 635              	.LBB186:
 636              	.LBB187:
 637              	.LBB188:
 638              	.LBB189:
 639              		.loc 3 331 0
 640              	@ 331 "./os/ext/CMSIS/include/core_cmFunc.h" 1
 641 0040 62B6     		cpsie i
 642              	@ 0 "" 2
 643              		.code	16
 644              	.LBE189:
 645              	.LBE188:
 646              	.LBE187:
 647              	.LBE186:
 648              		.loc 1 314 0
 649 0042 0020     		mov	r0, #0
 650              	.L41:
 651              		.loc 1 315 0
 652              		@ sp needed for prologue
 653              	.LVL43:
 654 0044 70BD     		pop	{r4, r5, r6, pc}
 655              		.cfi_endproc
 656              	.LFE84:
 657              		.size	oqPutTimeout, .-oqPutTimeout
 658              		.section	.text.oqGetI,"ax",%progbits
 659              		.align	1
 660              		.global	oqGetI
 661              		.code	16
 662              		.thumb_func
 663              		.type	oqGetI, %function
 664              	oqGetI:
 665              	.LFB85:
 666              		.loc 1 327 0
 667              		.cfi_startproc
 668              	.LVL44:
 669              		.loc 1 332 0
 670 0000 4369     		ldr	r3, [r0, #20]
 671 0002 0169     		ldr	r1, [r0, #16]
 672              		.loc 1 327 0
 673 0004 10B5     		push	{r4, lr}
 674              	.LCFI8:
 675              		.cfi_def_cfa_offset 8
 676              		.cfi_offset 4, -8
 677              		.cfi_offset 14, -4
 678              		.loc 1 332 0
 679 0006 0022     		mov	r2, #0
 680 0008 9942     		cmp	r1, r3
 681 000a 02D1     		bne	.L51
 682              		.loc 1 332 0 is_stmt 0 discriminator 1
 683 000c 4268     		ldr	r2, [r0, #4]
 684 000e 511E     		sub	r1, r2, #1
ARM GAS  /tmp/cc1TpdB9.s 			page 13


 685 0010 8A41     		sbc	r2, r2, r1
 686              	.L51:
 687              		.loc 1 332 0 discriminator 4
 688 0012 002A     		cmp	r2, #0
 689 0014 0FD1     		bne	.L55
 690              		.loc 1 335 0 is_stmt 1
 691 0016 4468     		ldr	r4, [r0, #4]
 692              		.loc 1 337 0
 693 0018 C168     		ldr	r1, [r0, #12]
 694              		.loc 1 335 0
 695 001a 0134     		add	r4, r4, #1
 696 001c 4460     		str	r4, [r0, #4]
 697              		.loc 1 336 0
 698 001e 1C78     		ldrb	r4, [r3]
 699              	.LVL45:
 700 0020 0133     		add	r3, r3, #1
 701              	.LVL46:
 702 0022 4361     		str	r3, [r0, #20]
 703              		.loc 1 337 0
 704 0024 8B42     		cmp	r3, r1
 705 0026 01D3     		bcc	.L53
 706              		.loc 1 338 0
 707 0028 8368     		ldr	r3, [r0, #8]
 708 002a 4361     		str	r3, [r0, #20]
 709              	.L53:
 710              		.loc 1 340 0
 711 002c 0021     		mov	r1, #0
 712 002e FFF7FEFF 		bl	osalQueueWakeupOneI
 713              	.LVL47:
 714              		.loc 1 342 0
 715 0032 201C     		mov	r0, r4
 716 0034 01E0     		b	.L52
 717              	.LVL48:
 718              	.L55:
 719              		.loc 1 333 0
 720 0036 0320     		mov	r0, #3
 721              	.LVL49:
 722 0038 4042     		neg	r0, r0
 723              	.L52:
 724              		.loc 1 343 0
 725              		@ sp needed for prologue
 726 003a 10BD     		pop	{r4, pc}
 727              		.cfi_endproc
 728              	.LFE85:
 729              		.size	oqGetI, .-oqGetI
 730              		.section	.text.oqWriteTimeout,"ax",%progbits
 731              		.align	1
 732              		.global	oqWriteTimeout
 733              		.code	16
 734              		.thumb_func
 735              		.type	oqWriteTimeout, %function
 736              	oqWriteTimeout:
 737              	.LFB86:
 738              		.loc 1 370 0
 739              		.cfi_startproc
 740              	.LVL50:
 741 0000 F7B5     		push	{r0, r1, r2, r4, r5, r6, r7, lr}
ARM GAS  /tmp/cc1TpdB9.s 			page 14


 742              	.LCFI9:
 743              		.cfi_def_cfa_offset 32
 744              		.cfi_offset 0, -32
 745              		.cfi_offset 1, -28
 746              		.cfi_offset 2, -24
 747              		.cfi_offset 4, -20
 748              		.cfi_offset 5, -16
 749              		.cfi_offset 6, -12
 750              		.cfi_offset 7, -8
 751              		.cfi_offset 14, -4
 752              		.loc 1 370 0
 753 0002 171C     		mov	r7, r2
 754              		.loc 1 371 0
 755 0004 8269     		ldr	r2, [r0, #24]
 756              	.LVL51:
 757              		.loc 1 370 0
 758 0006 041C     		mov	r4, r0
 759 0008 0E1C     		mov	r6, r1
 760 000a 0193     		str	r3, [sp, #4]
 761              		.loc 1 371 0
 762 000c 0092     		str	r2, [sp]
 763              	.LVL52:
 764              	.LBB208:
 765              	.LBB209:
 766              	.LBB210:
 767              	.LBB211:
 768              		.loc 3 342 0
 769              	@ 342 "./os/ext/CMSIS/include/core_cmFunc.h" 1
 770 000e 72B6     		cpsid i
 771              	@ 0 "" 2
 772              		.loc 1 372 0
 773              		.code	16
 774 0010 0025     		mov	r5, #0
 775              	.LVL53:
 776              	.L74:
 777              	.LBE211:
 778              	.LBE210:
 779              	.LBE209:
 780              	.LBE208:
 781              		.loc 1 378 0 discriminator 1
 782 0012 6368     		ldr	r3, [r4, #4]
 783 0014 002B     		cmp	r3, #0
 784 0016 07D1     		bne	.L75
 785              	.L60:
 786              	.LVL54:
 787              	.LBB212:
 788              	.LBB213:
 789              		.loc 2 681 0
 790 0018 201C     		mov	r0, r4
 791 001a 0199     		ldr	r1, [sp, #4]
 792 001c FFF7FEFF 		bl	chSemWaitTimeout
 793              	.LVL55:
 794              	.LBE213:
 795              	.LBE212:
 796              		.loc 1 379 0
 797 0020 0028     		cmp	r0, #0
 798 0022 F6D0     		beq	.L74
ARM GAS  /tmp/cc1TpdB9.s 			page 15


 799              	.LBB214:
 800              	.LBB215:
 801              	.LBB216:
 802              	.LBB217:
 803              		.loc 3 331 0
 804              	@ 331 "./os/ext/CMSIS/include/core_cmFunc.h" 1
 805 0024 62B6     		cpsie i
 806              	@ 0 "" 2
 807              		.code	16
 808              	.LBE217:
 809              	.LBE216:
 810              	.LBE215:
 811              	.LBE214:
 812              		.loc 1 381 0
 813 0026 18E0     		b	.L59
 814              	.LVL56:
 815              	.L75:
 816              		.loc 1 384 0
 817 0028 013B     		sub	r3, r3, #1
 818 002a 6360     		str	r3, [r4, #4]
 819              		.loc 1 385 0
 820 002c 2069     		ldr	r0, [r4, #16]
 821 002e 3178     		ldrb	r1, [r6]
 822 0030 0136     		add	r6, r6, #1
 823              	.LVL57:
 824 0032 0170     		strb	r1, [r0]
 825              		.loc 1 386 0
 826 0034 E268     		ldr	r2, [r4, #12]
 827              		.loc 1 385 0
 828 0036 0130     		add	r0, r0, #1
 829 0038 2061     		str	r0, [r4, #16]
 830              		.loc 1 386 0
 831 003a 9042     		cmp	r0, r2
 832 003c 01D3     		bcc	.L61
 833              		.loc 1 387 0
 834 003e A368     		ldr	r3, [r4, #8]
 835 0040 2361     		str	r3, [r4, #16]
 836              	.L61:
 837              		.loc 1 389 0
 838 0042 0099     		ldr	r1, [sp]
 839 0044 0029     		cmp	r1, #0
 840 0046 01D0     		beq	.L62
 841              		.loc 1 390 0
 842 0048 201C     		mov	r0, r4
 843 004a 8847     		blx	r1
 844              	.LVL58:
 845              	.L62:
 846              	.LBB218:
 847              	.LBB219:
 848              	.LBB220:
 849              	.LBB221:
 850              		.loc 3 331 0
 851              	@ 331 "./os/ext/CMSIS/include/core_cmFunc.h" 1
 852 004c 62B6     		cpsie i
 853              	@ 0 "" 2
 854              		.code	16
 855              	.LBE221:
ARM GAS  /tmp/cc1TpdB9.s 			page 16


 856              	.LBE220:
 857              	.LBE219:
 858              	.LBE218:
 859              		.loc 1 394 0
 860 004e 013F     		sub	r7, r7, #1
 861              	.LVL59:
 862              		.loc 1 393 0
 863 0050 0135     		add	r5, r5, #1
 864              	.LVL60:
 865              		.loc 1 394 0
 866 0052 002F     		cmp	r7, #0
 867 0054 01D0     		beq	.L59
 868              	.LBB222:
 869              	.LBB223:
 870              	.LBB224:
 871              	.LBB225:
 872              		.loc 3 342 0
 873              	@ 342 "./os/ext/CMSIS/include/core_cmFunc.h" 1
 874 0056 72B6     		cpsid i
 875              	@ 0 "" 2
 876              		.code	16
 877 0058 DBE7     		b	.L74
 878              	.L59:
 879              	.LBE225:
 880              	.LBE224:
 881              	.LBE223:
 882              	.LBE222:
 883              		.loc 1 398 0
 884 005a 281C     		mov	r0, r5
 885              		@ sp needed for prologue
 886              	.LVL61:
 887              	.LVL62:
 888              	.LVL63:
 889              	.LVL64:
 890 005c FEBD     		pop	{r1, r2, r3, r4, r5, r6, r7, pc}
 891              		.cfi_endproc
 892              	.LFE86:
 893              		.size	oqWriteTimeout, .-oqWriteTimeout
 894              		.text
 895              	.Letext0:
 896              		.file 4 "/media/data/src/x-tools/gcc-arm-none-eabi-4_7-2013q1/bin/../lib/gcc/arm-none-eabi/4.7.3/i
 897              		.file 5 "/media/data/src/x-tools/gcc-arm-none-eabi-4_7-2013q1/bin/../lib/gcc/arm-none-eabi/4.7.3/.
 898              		.file 6 "./os/nil/include/nil.h"
 899              		.file 7 "./os/nil/ports/ARMCMx/compilers/GCC/niltypes.h"
 900              		.file 8 "./os/nil/ports/ARMCMx/nilcore.h"
 901              		.file 9 "./os/nil/ports/ARMCMx/nilcore_v6m.h"
 902              		.file 10 "./os/hal/include/hal_queues.h"
 903              		.section	.debug_info,"",%progbits
 904              	.Ldebug_info0:
 905 0000 610C0000 		.4byte	0xc61
 906 0004 0200     		.2byte	0x2
 907 0006 00000000 		.4byte	.Ldebug_abbrev0
 908 000a 04       		.byte	0x4
 909 000b 01       		.uleb128 0x1
 910 000c 0E020000 		.4byte	.LASF76
 911 0010 01       		.byte	0x1
 912 0011 7A030000 		.4byte	.LASF77
ARM GAS  /tmp/cc1TpdB9.s 			page 17


 913 0015 67010000 		.4byte	.LASF78
 914 0019 30000000 		.4byte	.Ldebug_ranges0+0x30
 915 001d 00000000 		.4byte	0
 916 0021 00000000 		.4byte	0
 917 0025 00000000 		.4byte	.Ldebug_line0
 918 0029 02       		.uleb128 0x2
 919 002a 04       		.byte	0x4
 920 002b 05       		.byte	0x5
 921 002c 696E7400 		.ascii	"int\000"
 922 0030 03       		.uleb128 0x3
 923 0031 5C000000 		.4byte	.LASF2
 924 0035 04       		.byte	0x4
 925 0036 D5       		.byte	0xd5
 926 0037 3B000000 		.4byte	0x3b
 927 003b 04       		.uleb128 0x4
 928 003c 04       		.byte	0x4
 929 003d 07       		.byte	0x7
 930 003e 67030000 		.4byte	.LASF0
 931 0042 04       		.uleb128 0x4
 932 0043 01       		.byte	0x1
 933 0044 06       		.byte	0x6
 934 0045 CC010000 		.4byte	.LASF1
 935 0049 03       		.uleb128 0x3
 936 004a ED000000 		.4byte	.LASF3
 937 004e 05       		.byte	0x5
 938 004f 2A       		.byte	0x2a
 939 0050 54000000 		.4byte	0x54
 940 0054 04       		.uleb128 0x4
 941 0055 01       		.byte	0x1
 942 0056 08       		.byte	0x8
 943 0057 A6010000 		.4byte	.LASF4
 944 005b 04       		.uleb128 0x4
 945 005c 02       		.byte	0x2
 946 005d 05       		.byte	0x5
 947 005e 52000000 		.4byte	.LASF5
 948 0062 03       		.uleb128 0x3
 949 0063 F8010000 		.4byte	.LASF6
 950 0067 05       		.byte	0x5
 951 0068 36       		.byte	0x36
 952 0069 6D000000 		.4byte	0x6d
 953 006d 04       		.uleb128 0x4
 954 006e 02       		.byte	0x2
 955 006f 07       		.byte	0x7
 956 0070 57020000 		.4byte	.LASF7
 957 0074 03       		.uleb128 0x3
 958 0075 79020000 		.4byte	.LASF8
 959 0079 05       		.byte	0x5
 960 007a 4F       		.byte	0x4f
 961 007b 7F000000 		.4byte	0x7f
 962 007f 04       		.uleb128 0x4
 963 0080 04       		.byte	0x4
 964 0081 05       		.byte	0x5
 965 0082 44010000 		.4byte	.LASF9
 966 0086 03       		.uleb128 0x3
 967 0087 EF010000 		.4byte	.LASF10
 968 008b 05       		.byte	0x5
 969 008c 50       		.byte	0x50
ARM GAS  /tmp/cc1TpdB9.s 			page 18


 970 008d 91000000 		.4byte	0x91
 971 0091 04       		.uleb128 0x4
 972 0092 04       		.byte	0x4
 973 0093 07       		.byte	0x7
 974 0094 D8020000 		.4byte	.LASF11
 975 0098 04       		.uleb128 0x4
 976 0099 08       		.byte	0x8
 977 009a 05       		.byte	0x5
 978 009b 20010000 		.4byte	.LASF12
 979 009f 04       		.uleb128 0x4
 980 00a0 08       		.byte	0x8
 981 00a1 07       		.byte	0x7
 982 00a2 D8010000 		.4byte	.LASF13
 983 00a6 05       		.uleb128 0x5
 984 00a7 B6000000 		.4byte	.LASF25
 985 00ab 14       		.byte	0x14
 986 00ac 06       		.byte	0x6
 987 00ad 1E01     		.2byte	0x11e
 988 00af FE000000 		.4byte	0xfe
 989 00b3 06       		.uleb128 0x6
 990 00b4 5A010000 		.4byte	.LASF14
 991 00b8 06       		.byte	0x6
 992 00b9 1F01     		.2byte	0x11f
 993 00bb 68020000 		.4byte	0x268
 994 00bf 02       		.byte	0x2
 995 00c0 23       		.byte	0x23
 996 00c1 00       		.uleb128 0
 997 00c2 06       		.uleb128 0x6
 998 00c3 97010000 		.4byte	.LASF15
 999 00c7 06       		.byte	0x6
 1000 00c8 2001     		.2byte	0x120
 1001 00ca FE000000 		.4byte	0xfe
 1002 00ce 02       		.byte	0x2
 1003 00cf 23       		.byte	0x23
 1004 00d0 04       		.uleb128 0x4
 1005 00d1 07       		.uleb128 0x7
 1006 00d2 753100   		.ascii	"u1\000"
 1007 00d5 06       		.byte	0x6
 1008 00d6 2B01     		.2byte	0x12b
 1009 00d8 18020000 		.4byte	0x218
 1010 00dc 02       		.byte	0x2
 1011 00dd 23       		.byte	0x23
 1012 00de 08       		.uleb128 0x8
 1013 00df 06       		.uleb128 0x6
 1014 00e0 A6030000 		.4byte	.LASF16
 1015 00e4 06       		.byte	0x6
 1016 00e5 2C01     		.2byte	0x12c
 1017 00e7 6E020000 		.4byte	0x26e
 1018 00eb 02       		.byte	0x2
 1019 00ec 23       		.byte	0x23
 1020 00ed 0C       		.uleb128 0xc
 1021 00ee 06       		.uleb128 0x6
 1022 00ef C8020000 		.4byte	.LASF17
 1023 00f3 06       		.byte	0x6
 1024 00f4 2F01     		.2byte	0x12f
 1025 00f6 14010000 		.4byte	0x114
 1026 00fa 02       		.byte	0x2
ARM GAS  /tmp/cc1TpdB9.s 			page 19


 1027 00fb 23       		.byte	0x23
 1028 00fc 10       		.uleb128 0x10
 1029 00fd 00       		.byte	0
 1030 00fe 03       		.uleb128 0x3
 1031 00ff CF020000 		.4byte	.LASF18
 1032 0103 07       		.byte	0x7
 1033 0104 37       		.byte	0x37
 1034 0105 49000000 		.4byte	0x49
 1035 0109 03       		.uleb128 0x3
 1036 010a A0030000 		.4byte	.LASF19
 1037 010e 07       		.byte	0x7
 1038 010f 38       		.byte	0x38
 1039 0110 74000000 		.4byte	0x74
 1040 0114 03       		.uleb128 0x3
 1041 0115 AA000000 		.4byte	.LASF20
 1042 0119 07       		.byte	0x7
 1043 011a 39       		.byte	0x39
 1044 011b 86000000 		.4byte	0x86
 1045 011f 03       		.uleb128 0x3
 1046 0120 88020000 		.4byte	.LASF21
 1047 0124 07       		.byte	0x7
 1048 0125 3A       		.byte	0x3a
 1049 0126 74000000 		.4byte	0x74
 1050 012a 04       		.uleb128 0x4
 1051 012b 04       		.byte	0x4
 1052 012c 07       		.byte	0x7
 1053 012d 6E000000 		.4byte	.LASF22
 1054 0131 03       		.uleb128 0x3
 1055 0132 6A020000 		.4byte	.LASF23
 1056 0136 08       		.byte	0x8
 1057 0137 77       		.byte	0x77
 1058 0138 62000000 		.4byte	0x62
 1059 013c 03       		.uleb128 0x3
 1060 013d E4000000 		.4byte	.LASF24
 1061 0141 08       		.byte	0x8
 1062 0142 7D       		.byte	0x7d
 1063 0143 47010000 		.4byte	0x147
 1064 0147 08       		.uleb128 0x8
 1065 0148 04       		.byte	0x4
 1066 0149 09       		.uleb128 0x9
 1067 014a 22030000 		.4byte	.LASF26
 1068 014e 24       		.byte	0x24
 1069 014f 09       		.byte	0x9
 1070 0150 A4       		.byte	0xa4
 1071 0151 CD010000 		.4byte	0x1cd
 1072 0155 0A       		.uleb128 0xa
 1073 0156 723800   		.ascii	"r8\000"
 1074 0159 09       		.byte	0x9
 1075 015a A5       		.byte	0xa5
 1076 015b 3C010000 		.4byte	0x13c
 1077 015f 02       		.byte	0x2
 1078 0160 23       		.byte	0x23
 1079 0161 00       		.uleb128 0
 1080 0162 0A       		.uleb128 0xa
 1081 0163 723900   		.ascii	"r9\000"
 1082 0166 09       		.byte	0x9
 1083 0167 A6       		.byte	0xa6
ARM GAS  /tmp/cc1TpdB9.s 			page 20


 1084 0168 3C010000 		.4byte	0x13c
 1085 016c 02       		.byte	0x2
 1086 016d 23       		.byte	0x23
 1087 016e 04       		.uleb128 0x4
 1088 016f 0A       		.uleb128 0xa
 1089 0170 72313000 		.ascii	"r10\000"
 1090 0174 09       		.byte	0x9
 1091 0175 A7       		.byte	0xa7
 1092 0176 3C010000 		.4byte	0x13c
 1093 017a 02       		.byte	0x2
 1094 017b 23       		.byte	0x23
 1095 017c 08       		.uleb128 0x8
 1096 017d 0A       		.uleb128 0xa
 1097 017e 72313100 		.ascii	"r11\000"
 1098 0182 09       		.byte	0x9
 1099 0183 A8       		.byte	0xa8
 1100 0184 3C010000 		.4byte	0x13c
 1101 0188 02       		.byte	0x2
 1102 0189 23       		.byte	0x23
 1103 018a 0C       		.uleb128 0xc
 1104 018b 0A       		.uleb128 0xa
 1105 018c 723400   		.ascii	"r4\000"
 1106 018f 09       		.byte	0x9
 1107 0190 A9       		.byte	0xa9
 1108 0191 3C010000 		.4byte	0x13c
 1109 0195 02       		.byte	0x2
 1110 0196 23       		.byte	0x23
 1111 0197 10       		.uleb128 0x10
 1112 0198 0A       		.uleb128 0xa
 1113 0199 723500   		.ascii	"r5\000"
 1114 019c 09       		.byte	0x9
 1115 019d AA       		.byte	0xaa
 1116 019e 3C010000 		.4byte	0x13c
 1117 01a2 02       		.byte	0x2
 1118 01a3 23       		.byte	0x23
 1119 01a4 14       		.uleb128 0x14
 1120 01a5 0A       		.uleb128 0xa
 1121 01a6 723600   		.ascii	"r6\000"
 1122 01a9 09       		.byte	0x9
 1123 01aa AB       		.byte	0xab
 1124 01ab 3C010000 		.4byte	0x13c
 1125 01af 02       		.byte	0x2
 1126 01b0 23       		.byte	0x23
 1127 01b1 18       		.uleb128 0x18
 1128 01b2 0A       		.uleb128 0xa
 1129 01b3 723700   		.ascii	"r7\000"
 1130 01b6 09       		.byte	0x9
 1131 01b7 AC       		.byte	0xac
 1132 01b8 3C010000 		.4byte	0x13c
 1133 01bc 02       		.byte	0x2
 1134 01bd 23       		.byte	0x23
 1135 01be 1C       		.uleb128 0x1c
 1136 01bf 0A       		.uleb128 0xa
 1137 01c0 6C7200   		.ascii	"lr\000"
 1138 01c3 09       		.byte	0x9
 1139 01c4 AD       		.byte	0xad
 1140 01c5 3C010000 		.4byte	0x13c
ARM GAS  /tmp/cc1TpdB9.s 			page 21


 1141 01c9 02       		.byte	0x2
 1142 01ca 23       		.byte	0x23
 1143 01cb 20       		.uleb128 0x20
 1144 01cc 00       		.byte	0
 1145 01cd 03       		.uleb128 0x3
 1146 01ce 4F030000 		.4byte	.LASF27
 1147 01d2 06       		.byte	0x6
 1148 01d3 F3       		.byte	0xf3
 1149 01d4 49010000 		.4byte	0x149
 1150 01d8 0B       		.uleb128 0xb
 1151 01d9 04       		.byte	0x4
 1152 01da 06       		.byte	0x6
 1153 01db F8       		.byte	0xf8
 1154 01dc EF010000 		.4byte	0x1ef
 1155 01e0 0A       		.uleb128 0xa
 1156 01e1 636E7400 		.ascii	"cnt\000"
 1157 01e5 06       		.byte	0x6
 1158 01e6 F9       		.byte	0xf9
 1159 01e7 EF010000 		.4byte	0x1ef
 1160 01eb 02       		.byte	0x2
 1161 01ec 23       		.byte	0x23
 1162 01ed 00       		.uleb128 0
 1163 01ee 00       		.byte	0
 1164 01ef 0C       		.uleb128 0xc
 1165 01f0 1F010000 		.4byte	0x11f
 1166 01f4 03       		.uleb128 0x3
 1167 01f5 F5000000 		.4byte	.LASF28
 1168 01f9 06       		.byte	0x6
 1169 01fa FA       		.byte	0xfa
 1170 01fb D8010000 		.4byte	0x1d8
 1171 01ff 04       		.uleb128 0x4
 1172 0200 01       		.byte	0x1
 1173 0201 08       		.byte	0x8
 1174 0202 74020000 		.4byte	.LASF29
 1175 0206 0D       		.uleb128 0xd
 1176 0207 33030000 		.4byte	.LASF30
 1177 020b 06       		.byte	0x6
 1178 020c 1901     		.2byte	0x119
 1179 020e 12020000 		.4byte	0x212
 1180 0212 0E       		.uleb128 0xe
 1181 0213 04       		.byte	0x4
 1182 0214 A6000000 		.4byte	0xa6
 1183 0218 0F       		.uleb128 0xf
 1184 0219 04       		.byte	0x4
 1185 021a 06       		.byte	0x6
 1186 021b 2301     		.2byte	0x123
 1187 021d 5C020000 		.4byte	0x25c
 1188 0221 10       		.uleb128 0x10
 1189 0222 6D736700 		.ascii	"msg\000"
 1190 0226 06       		.byte	0x6
 1191 0227 2401     		.2byte	0x124
 1192 0229 09010000 		.4byte	0x109
 1193 022d 10       		.uleb128 0x10
 1194 022e 7000     		.ascii	"p\000"
 1195 0230 06       		.byte	0x6
 1196 0231 2501     		.2byte	0x125
 1197 0233 47010000 		.4byte	0x147
ARM GAS  /tmp/cc1TpdB9.s 			page 22


 1198 0237 10       		.uleb128 0x10
 1199 0238 74727000 		.ascii	"trp\000"
 1200 023c 06       		.byte	0x6
 1201 023d 2601     		.2byte	0x126
 1202 023f 5C020000 		.4byte	0x25c
 1203 0243 11       		.uleb128 0x11
 1204 0244 2E030000 		.4byte	.LASF31
 1205 0248 06       		.byte	0x6
 1206 0249 2701     		.2byte	0x127
 1207 024b 62020000 		.4byte	0x262
 1208 024f 11       		.uleb128 0x11
 1209 0250 C5010000 		.4byte	.LASF32
 1210 0254 06       		.byte	0x6
 1211 0255 2901     		.2byte	0x129
 1212 0257 14010000 		.4byte	0x114
 1213 025b 00       		.byte	0
 1214 025c 0E       		.uleb128 0xe
 1215 025d 04       		.byte	0x4
 1216 025e 06020000 		.4byte	0x206
 1217 0262 0E       		.uleb128 0xe
 1218 0263 04       		.byte	0x4
 1219 0264 F4010000 		.4byte	0x1f4
 1220 0268 0E       		.uleb128 0xe
 1221 0269 04       		.byte	0x4
 1222 026a CD010000 		.4byte	0x1cd
 1223 026e 0C       		.uleb128 0xc
 1224 026f 31010000 		.4byte	0x131
 1225 0273 12       		.uleb128 0x12
 1226 0274 98       		.byte	0x98
 1227 0275 06       		.byte	0x6
 1228 0276 3D01     		.2byte	0x13d
 1229 0278 B9020000 		.4byte	0x2b9
 1230 027c 06       		.uleb128 0x6
 1231 027d 01020000 		.4byte	.LASF33
 1232 0281 06       		.byte	0x6
 1233 0282 4101     		.2byte	0x141
 1234 0284 12020000 		.4byte	0x212
 1235 0288 02       		.byte	0x2
 1236 0289 23       		.byte	0x23
 1237 028a 00       		.uleb128 0
 1238 028b 06       		.uleb128 0x6
 1239 028c AE030000 		.4byte	.LASF34
 1240 0290 06       		.byte	0x6
 1241 0291 4701     		.2byte	0x147
 1242 0293 12020000 		.4byte	0x212
 1243 0297 02       		.byte	0x2
 1244 0298 23       		.byte	0x23
 1245 0299 04       		.uleb128 0x4
 1246 029a 06       		.uleb128 0x6
 1247 029b 10010000 		.4byte	.LASF35
 1248 029f 06       		.byte	0x6
 1249 02a0 4C01     		.2byte	0x14c
 1250 02a2 31010000 		.4byte	0x131
 1251 02a6 02       		.byte	0x2
 1252 02a7 23       		.byte	0x23
 1253 02a8 08       		.uleb128 0x8
 1254 02a9 06       		.uleb128 0x6
ARM GAS  /tmp/cc1TpdB9.s 			page 23


 1255 02aa 18010000 		.4byte	.LASF36
 1256 02ae 06       		.byte	0x6
 1257 02af 5B01     		.2byte	0x15b
 1258 02b1 B9020000 		.4byte	0x2b9
 1259 02b5 02       		.byte	0x2
 1260 02b6 23       		.byte	0x23
 1261 02b7 0C       		.uleb128 0xc
 1262 02b8 00       		.byte	0
 1263 02b9 13       		.uleb128 0x13
 1264 02ba A6000000 		.4byte	0xa6
 1265 02be C9020000 		.4byte	0x2c9
 1266 02c2 14       		.uleb128 0x14
 1267 02c3 2A010000 		.4byte	0x12a
 1268 02c7 06       		.byte	0x6
 1269 02c8 00       		.byte	0
 1270 02c9 0D       		.uleb128 0xd
 1271 02ca 85000000 		.4byte	.LASF37
 1272 02ce 06       		.byte	0x6
 1273 02cf 6401     		.2byte	0x164
 1274 02d1 73020000 		.4byte	0x273
 1275 02d5 0B       		.uleb128 0xb
 1276 02d6 04       		.byte	0x4
 1277 02d7 02       		.byte	0x2
 1278 02d8 DF       		.byte	0xdf
 1279 02d9 EC020000 		.4byte	0x2ec
 1280 02dd 0A       		.uleb128 0xa
 1281 02de 73656D00 		.ascii	"sem\000"
 1282 02e2 02       		.byte	0x2
 1283 02e3 E0       		.byte	0xe0
 1284 02e4 F4010000 		.4byte	0x1f4
 1285 02e8 02       		.byte	0x2
 1286 02e9 23       		.byte	0x23
 1287 02ea 00       		.uleb128 0
 1288 02eb 00       		.byte	0
 1289 02ec 03       		.uleb128 0x3
 1290 02ed 19000000 		.4byte	.LASF38
 1291 02f1 02       		.byte	0x2
 1292 02f2 E1       		.byte	0xe1
 1293 02f3 D5020000 		.4byte	0x2d5
 1294 02f7 0E       		.uleb128 0xe
 1295 02f8 04       		.byte	0x4
 1296 02f9 FD020000 		.4byte	0x2fd
 1297 02fd 15       		.uleb128 0x15
 1298 02fe 49000000 		.4byte	0x49
 1299 0302 0E       		.uleb128 0xe
 1300 0303 04       		.byte	0x4
 1301 0304 49000000 		.4byte	0x49
 1302 0308 04       		.uleb128 0x4
 1303 0309 01       		.byte	0x1
 1304 030a 02       		.byte	0x2
 1305 030b 93020000 		.4byte	.LASF39
 1306 030f 03       		.uleb128 0x3
 1307 0310 63000000 		.4byte	.LASF40
 1308 0314 0A       		.byte	0xa
 1309 0315 32       		.byte	0x32
 1310 0316 1A030000 		.4byte	0x31a
 1311 031a 09       		.uleb128 0x9
ARM GAS  /tmp/cc1TpdB9.s 			page 24


 1312 031b 63000000 		.4byte	.LASF40
 1313 031f 20       		.byte	0x20
 1314 0320 0A       		.byte	0xa
 1315 0321 40       		.byte	0x40
 1316 0322 97030000 		.4byte	0x397
 1317 0326 16       		.uleb128 0x16
 1318 0327 BE020000 		.4byte	.LASF41
 1319 032b 0A       		.byte	0xa
 1320 032c 41       		.byte	0x41
 1321 032d EC020000 		.4byte	0x2ec
 1322 0331 02       		.byte	0x2
 1323 0332 23       		.byte	0x23
 1324 0333 00       		.uleb128 0
 1325 0334 16       		.uleb128 0x16
 1326 0335 06010000 		.4byte	.LASF42
 1327 0339 0A       		.byte	0xa
 1328 033a 42       		.byte	0x42
 1329 033b 30000000 		.4byte	0x30
 1330 033f 02       		.byte	0x2
 1331 0340 23       		.byte	0x23
 1332 0341 04       		.uleb128 0x4
 1333 0342 16       		.uleb128 0x16
 1334 0343 9D010000 		.4byte	.LASF43
 1335 0347 0A       		.byte	0xa
 1336 0348 43       		.byte	0x43
 1337 0349 02030000 		.4byte	0x302
 1338 034d 02       		.byte	0x2
 1339 034e 23       		.byte	0x23
 1340 034f 08       		.uleb128 0x8
 1341 0350 16       		.uleb128 0x16
 1342 0351 74030000 		.4byte	.LASF44
 1343 0355 0A       		.byte	0xa
 1344 0356 44       		.byte	0x44
 1345 0357 02030000 		.4byte	0x302
 1346 035b 02       		.byte	0x2
 1347 035c 23       		.byte	0x23
 1348 035d 0C       		.uleb128 0xc
 1349 035e 16       		.uleb128 0x16
 1350 035f 5F010000 		.4byte	.LASF45
 1351 0363 0A       		.byte	0xa
 1352 0364 46       		.byte	0x46
 1353 0365 02030000 		.4byte	0x302
 1354 0369 02       		.byte	0x2
 1355 036a 23       		.byte	0x23
 1356 036b 10       		.uleb128 0x10
 1357 036c 16       		.uleb128 0x16
 1358 036d 3D000000 		.4byte	.LASF46
 1359 0371 0A       		.byte	0xa
 1360 0372 47       		.byte	0x47
 1361 0373 02030000 		.4byte	0x302
 1362 0377 02       		.byte	0x2
 1363 0378 23       		.byte	0x23
 1364 0379 14       		.uleb128 0x14
 1365 037a 16       		.uleb128 0x16
 1366 037b 3B010000 		.4byte	.LASF47
 1367 037f 0A       		.byte	0xa
 1368 0380 48       		.byte	0x48
ARM GAS  /tmp/cc1TpdB9.s 			page 25


 1369 0381 97030000 		.4byte	0x397
 1370 0385 02       		.byte	0x2
 1371 0386 23       		.byte	0x23
 1372 0387 18       		.uleb128 0x18
 1373 0388 16       		.uleb128 0x16
 1374 0389 B3030000 		.4byte	.LASF48
 1375 038d 0A       		.byte	0xa
 1376 038e 49       		.byte	0x49
 1377 038f 47010000 		.4byte	0x147
 1378 0393 02       		.byte	0x2
 1379 0394 23       		.byte	0x23
 1380 0395 1C       		.uleb128 0x1c
 1381 0396 00       		.byte	0
 1382 0397 03       		.uleb128 0x3
 1383 0398 BA030000 		.4byte	.LASF49
 1384 039c 0A       		.byte	0xa
 1385 039d 35       		.byte	0x35
 1386 039e A2030000 		.4byte	0x3a2
 1387 03a2 0E       		.uleb128 0xe
 1388 03a3 04       		.byte	0x4
 1389 03a4 A8030000 		.4byte	0x3a8
 1390 03a8 17       		.uleb128 0x17
 1391 03a9 01       		.byte	0x1
 1392 03aa B4030000 		.4byte	0x3b4
 1393 03ae 18       		.uleb128 0x18
 1394 03af B4030000 		.4byte	0x3b4
 1395 03b3 00       		.byte	0
 1396 03b4 0E       		.uleb128 0xe
 1397 03b5 04       		.byte	0x4
 1398 03b6 0F030000 		.4byte	0x30f
 1399 03ba 03       		.uleb128 0x3
 1400 03bb 0B030000 		.4byte	.LASF50
 1401 03bf 0A       		.byte	0xa
 1402 03c0 7D       		.byte	0x7d
 1403 03c1 0F030000 		.4byte	0x30f
 1404 03c5 03       		.uleb128 0x3
 1405 03c6 58030000 		.4byte	.LASF51
 1406 03ca 0A       		.byte	0xa
 1407 03cb F0       		.byte	0xf0
 1408 03cc 0F030000 		.4byte	0x30f
 1409 03d0 19       		.uleb128 0x19
 1410 03d1 89010000 		.4byte	.LASF52
 1411 03d5 03       		.byte	0x3
 1412 03d6 5401     		.2byte	0x154
 1413 03d8 01       		.byte	0x1
 1414 03d9 03       		.byte	0x3
 1415 03da 19       		.uleb128 0x19
 1416 03db 4D010000 		.4byte	.LASF53
 1417 03df 03       		.byte	0x3
 1418 03e0 4901     		.2byte	0x149
 1419 03e2 01       		.byte	0x1
 1420 03e3 03       		.byte	0x3
 1421 03e4 19       		.uleb128 0x19
 1422 03e5 A0000000 		.4byte	.LASF54
 1423 03e9 09       		.byte	0x9
 1424 03ea 4101     		.2byte	0x141
 1425 03ec 01       		.byte	0x1
ARM GAS  /tmp/cc1TpdB9.s 			page 26


 1426 03ed 03       		.byte	0x3
 1427 03ee 19       		.uleb128 0x19
 1428 03ef 99020000 		.4byte	.LASF55
 1429 03f3 09       		.byte	0x9
 1430 03f4 4A01     		.2byte	0x14a
 1431 03f6 01       		.byte	0x1
 1432 03f7 03       		.byte	0x3
 1433 03f8 1A       		.uleb128 0x1a
 1434 03f9 F7020000 		.4byte	.LASF79
 1435 03fd 02       		.byte	0x2
 1436 03fe 8A02     		.2byte	0x28a
 1437 0400 01       		.byte	0x1
 1438 0401 03       		.byte	0x3
 1439 0402 13040000 		.4byte	0x413
 1440 0406 1B       		.uleb128 0x1b
 1441 0407 74717000 		.ascii	"tqp\000"
 1442 040b 02       		.byte	0x2
 1443 040c 8A02     		.2byte	0x28a
 1444 040e 13040000 		.4byte	0x413
 1445 0412 00       		.byte	0
 1446 0413 0E       		.uleb128 0xe
 1447 0414 04       		.byte	0x4
 1448 0415 EC020000 		.4byte	0x2ec
 1449 0419 19       		.uleb128 0x19
 1450 041a 94030000 		.4byte	.LASF56
 1451 041e 02       		.byte	0x2
 1452 041f 8301     		.2byte	0x183
 1453 0421 01       		.byte	0x1
 1454 0422 03       		.byte	0x3
 1455 0423 19       		.uleb128 0x19
 1456 0424 92000000 		.4byte	.LASF57
 1457 0428 02       		.byte	0x2
 1458 0429 8E01     		.2byte	0x18e
 1459 042b 01       		.byte	0x1
 1460 042c 03       		.byte	0x3
 1461 042d 1C       		.uleb128 0x1c
 1462 042e 01       		.byte	0x1
 1463 042f C1000000 		.4byte	.LASF61
 1464 0433 01       		.byte	0x1
 1465 0434 3E       		.byte	0x3e
 1466 0435 01       		.byte	0x1
 1467 0436 00000000 		.4byte	.LFB77
 1468 043a 1A000000 		.4byte	.LFE77
 1469 043e 00000000 		.4byte	.LLST0
 1470 0442 01       		.byte	0x1
 1471 0443 A4040000 		.4byte	0x4a4
 1472 0447 1D       		.uleb128 0x1d
 1473 0448 69717000 		.ascii	"iqp\000"
 1474 044c 01       		.byte	0x1
 1475 044d 3E       		.byte	0x3e
 1476 044e A4040000 		.4byte	0x4a4
 1477 0452 01       		.byte	0x1
 1478 0453 50       		.byte	0x50
 1479 0454 1E       		.uleb128 0x1e
 1480 0455 627000   		.ascii	"bp\000"
 1481 0458 01       		.byte	0x1
 1482 0459 3E       		.byte	0x3e
ARM GAS  /tmp/cc1TpdB9.s 			page 27


 1483 045a 02030000 		.4byte	0x302
 1484 045e 20000000 		.4byte	.LLST1
 1485 0462 1F       		.uleb128 0x1f
 1486 0463 B9020000 		.4byte	.LASF58
 1487 0467 01       		.byte	0x1
 1488 0468 3E       		.byte	0x3e
 1489 0469 30000000 		.4byte	0x30
 1490 046d 01       		.byte	0x1
 1491 046e 52       		.byte	0x52
 1492 046f 20       		.uleb128 0x20
 1493 0470 8E020000 		.4byte	.LASF59
 1494 0474 01       		.byte	0x1
 1495 0475 3F       		.byte	0x3f
 1496 0476 97030000 		.4byte	0x397
 1497 047a 3F000000 		.4byte	.LLST2
 1498 047e 1F       		.uleb128 0x1f
 1499 047f 01010000 		.4byte	.LASF60
 1500 0483 01       		.byte	0x1
 1501 0484 3F       		.byte	0x3f
 1502 0485 47010000 		.4byte	0x147
 1503 0489 02       		.byte	0x2
 1504 048a 91       		.byte	0x91
 1505 048b 00       		.sleb128 0
 1506 048c 21       		.uleb128 0x21
 1507 048d F8030000 		.4byte	0x3f8
 1508 0491 06000000 		.4byte	.LBB90
 1509 0495 00000000 		.4byte	.Ldebug_ranges0+0
 1510 0499 01       		.byte	0x1
 1511 049a 41       		.byte	0x41
 1512 049b 22       		.uleb128 0x22
 1513 049c 06040000 		.4byte	0x406
 1514 04a0 01       		.byte	0x1
 1515 04a1 50       		.byte	0x50
 1516 04a2 00       		.byte	0
 1517 04a3 00       		.byte	0
 1518 04a4 0E       		.uleb128 0xe
 1519 04a5 04       		.byte	0x4
 1520 04a6 BA030000 		.4byte	0x3ba
 1521 04aa 1C       		.uleb128 0x1c
 1522 04ab 01       		.byte	0x1
 1523 04ac 19030000 		.4byte	.LASF62
 1524 04b0 01       		.byte	0x1
 1525 04b1 54       		.byte	0x54
 1526 04b2 01       		.byte	0x1
 1527 04b3 00000000 		.4byte	.LFB78
 1528 04b7 16000000 		.4byte	.LFE78
 1529 04bb 5E000000 		.4byte	.LLST3
 1530 04bf 01       		.byte	0x1
 1531 04c0 EB040000 		.4byte	0x4eb
 1532 04c4 1E       		.uleb128 0x1e
 1533 04c5 69717000 		.ascii	"iqp\000"
 1534 04c9 01       		.byte	0x1
 1535 04ca 54       		.byte	0x54
 1536 04cb A4040000 		.4byte	0x4a4
 1537 04cf 7E000000 		.4byte	.LLST4
 1538 04d3 23       		.uleb128 0x23
 1539 04d4 14000000 		.4byte	.LVL4
ARM GAS  /tmp/cc1TpdB9.s 			page 28


 1540 04d8 160C0000 		.4byte	0xc16
 1541 04dc 24       		.uleb128 0x24
 1542 04dd 01       		.byte	0x1
 1543 04de 51       		.byte	0x51
 1544 04df 02       		.byte	0x2
 1545 04e0 09       		.byte	0x9
 1546 04e1 FE       		.byte	0xfe
 1547 04e2 24       		.uleb128 0x24
 1548 04e3 01       		.byte	0x1
 1549 04e4 50       		.byte	0x50
 1550 04e5 03       		.byte	0x3
 1551 04e6 F3       		.byte	0xf3
 1552 04e7 01       		.uleb128 0x1
 1553 04e8 50       		.byte	0x50
 1554 04e9 00       		.byte	0
 1555 04ea 00       		.byte	0
 1556 04eb 25       		.uleb128 0x25
 1557 04ec 01       		.byte	0x1
 1558 04ed CE000000 		.4byte	.LASF64
 1559 04f1 01       		.byte	0x1
 1560 04f2 6A       		.byte	0x6a
 1561 04f3 01       		.byte	0x1
 1562 04f4 09010000 		.4byte	0x109
 1563 04f8 00000000 		.4byte	.LFB79
 1564 04fc 3C000000 		.4byte	.LFE79
 1565 0500 9F000000 		.4byte	.LLST5
 1566 0504 01       		.byte	0x1
 1567 0505 35050000 		.4byte	0x535
 1568 0509 1E       		.uleb128 0x1e
 1569 050a 69717000 		.ascii	"iqp\000"
 1570 050e 01       		.byte	0x1
 1571 050f 6A       		.byte	0x6a
 1572 0510 A4040000 		.4byte	0x4a4
 1573 0514 BF000000 		.4byte	.LLST6
 1574 0518 1E       		.uleb128 0x1e
 1575 0519 6200     		.ascii	"b\000"
 1576 051b 01       		.byte	0x1
 1577 051c 6A       		.byte	0x6a
 1578 051d 49000000 		.4byte	0x49
 1579 0521 F9000000 		.4byte	.LLST7
 1580 0525 23       		.uleb128 0x23
 1581 0526 32000000 		.4byte	.LVL8
 1582 052a 300C0000 		.4byte	0xc30
 1583 052e 24       		.uleb128 0x24
 1584 052f 01       		.byte	0x1
 1585 0530 51       		.byte	0x51
 1586 0531 01       		.byte	0x1
 1587 0532 30       		.byte	0x30
 1588 0533 00       		.byte	0
 1589 0534 00       		.byte	0
 1590 0535 26       		.uleb128 0x26
 1591 0536 00000000 		.4byte	.LASF80
 1592 053a 02       		.byte	0x2
 1593 053b A602     		.2byte	0x2a6
 1594 053d 01       		.byte	0x1
 1595 053e 09010000 		.4byte	0x109
 1596 0542 03       		.byte	0x3
ARM GAS  /tmp/cc1TpdB9.s 			page 29


 1597 0543 60050000 		.4byte	0x560
 1598 0547 1B       		.uleb128 0x1b
 1599 0548 74717000 		.ascii	"tqp\000"
 1600 054c 02       		.byte	0x2
 1601 054d A602     		.2byte	0x2a6
 1602 054f 13040000 		.4byte	0x413
 1603 0553 27       		.uleb128 0x27
 1604 0554 09020000 		.4byte	.LASF63
 1605 0558 02       		.byte	0x2
 1606 0559 A702     		.2byte	0x2a7
 1607 055b 31010000 		.4byte	0x131
 1608 055f 00       		.byte	0
 1609 0560 25       		.uleb128 0x25
 1610 0561 01       		.byte	0x1
 1611 0562 45000000 		.4byte	.LASF65
 1612 0566 01       		.byte	0x1
 1613 0567 8F       		.byte	0x8f
 1614 0568 01       		.byte	0x1
 1615 0569 09010000 		.4byte	0x109
 1616 056d 00000000 		.4byte	.LFB80
 1617 0571 3E000000 		.4byte	.LFE80
 1618 0575 4C010000 		.4byte	.LLST8
 1619 0579 01       		.byte	0x1
 1620 057a 73060000 		.4byte	0x673
 1621 057e 1E       		.uleb128 0x1e
 1622 057f 69717000 		.ascii	"iqp\000"
 1623 0583 01       		.byte	0x1
 1624 0584 8F       		.byte	0x8f
 1625 0585 A4040000 		.4byte	0x4a4
 1626 0589 6C010000 		.4byte	.LLST9
 1627 058d 20       		.uleb128 0x20
 1628 058e 09020000 		.4byte	.LASF63
 1629 0592 01       		.byte	0x1
 1630 0593 8F       		.byte	0x8f
 1631 0594 31010000 		.4byte	0x131
 1632 0598 98010000 		.4byte	.LLST10
 1633 059c 28       		.uleb128 0x28
 1634 059d 6200     		.ascii	"b\000"
 1635 059f 01       		.byte	0x1
 1636 05a0 90       		.byte	0x90
 1637 05a1 49000000 		.4byte	0x49
 1638 05a5 B9010000 		.4byte	.LLST11
 1639 05a9 29       		.uleb128 0x29
 1640 05aa 19040000 		.4byte	0x419
 1641 05ae 06000000 		.4byte	.LBB109
 1642 05b2 08000000 		.4byte	.LBE109
 1643 05b6 01       		.byte	0x1
 1644 05b7 92       		.byte	0x92
 1645 05b8 DE050000 		.4byte	0x5de
 1646 05bc 2A       		.uleb128 0x2a
 1647 05bd E4030000 		.4byte	0x3e4
 1648 05c1 06000000 		.4byte	.LBB110
 1649 05c5 08000000 		.4byte	.LBE110
 1650 05c9 02       		.byte	0x2
 1651 05ca 8501     		.2byte	0x185
 1652 05cc 2B       		.uleb128 0x2b
 1653 05cd D0030000 		.4byte	0x3d0
ARM GAS  /tmp/cc1TpdB9.s 			page 30


 1654 05d1 06000000 		.4byte	.LBB111
 1655 05d5 08000000 		.4byte	.LBE111
 1656 05d9 09       		.byte	0x9
 1657 05da 4301     		.2byte	0x143
 1658 05dc 00       		.byte	0
 1659 05dd 00       		.byte	0
 1660 05de 2C       		.uleb128 0x2c
 1661 05df 12000000 		.4byte	.LBB113
 1662 05e3 1E000000 		.4byte	.LBE113
 1663 05e7 31060000 		.4byte	0x631
 1664 05eb 2D       		.uleb128 0x2d
 1665 05ec 6D736700 		.ascii	"msg\000"
 1666 05f0 01       		.byte	0x1
 1667 05f1 97       		.byte	0x97
 1668 05f2 09010000 		.4byte	0x109
 1669 05f6 01       		.byte	0x1
 1670 05f7 50       		.byte	0x50
 1671 05f8 2E       		.uleb128 0x2e
 1672 05f9 35050000 		.4byte	0x535
 1673 05fd 12000000 		.4byte	.LBB114
 1674 0601 1A000000 		.4byte	.LBE114
 1675 0605 01       		.byte	0x1
 1676 0606 98       		.byte	0x98
 1677 0607 2F       		.uleb128 0x2f
 1678 0608 53050000 		.4byte	0x553
 1679 060c DA010000 		.4byte	.LLST12
 1680 0610 2F       		.uleb128 0x2f
 1681 0611 47050000 		.4byte	0x547
 1682 0615 ED010000 		.4byte	.LLST13
 1683 0619 23       		.uleb128 0x23
 1684 061a 1A000000 		.4byte	.LVL15
 1685 061e 4A0C0000 		.4byte	0xc4a
 1686 0622 24       		.uleb128 0x24
 1687 0623 01       		.byte	0x1
 1688 0624 51       		.byte	0x51
 1689 0625 02       		.byte	0x2
 1690 0626 75       		.byte	0x75
 1691 0627 00       		.sleb128 0
 1692 0628 24       		.uleb128 0x24
 1693 0629 01       		.byte	0x1
 1694 062a 50       		.byte	0x50
 1695 062b 02       		.byte	0x2
 1696 062c 74       		.byte	0x74
 1697 062d 00       		.sleb128 0
 1698 062e 00       		.byte	0
 1699 062f 00       		.byte	0
 1700 0630 00       		.byte	0
 1701 0631 29       		.uleb128 0x29
 1702 0632 23040000 		.4byte	0x423
 1703 0636 3A000000 		.4byte	.LBB116
 1704 063a 3C000000 		.4byte	.LBE116
 1705 063e 01       		.byte	0x1
 1706 063f A3       		.byte	0xa3
 1707 0640 66060000 		.4byte	0x666
 1708 0644 2A       		.uleb128 0x2a
 1709 0645 EE030000 		.4byte	0x3ee
 1710 0649 3A000000 		.4byte	.LBB117
ARM GAS  /tmp/cc1TpdB9.s 			page 31


 1711 064d 3C000000 		.4byte	.LBE117
 1712 0651 02       		.byte	0x2
 1713 0652 9001     		.2byte	0x190
 1714 0654 2B       		.uleb128 0x2b
 1715 0655 DA030000 		.4byte	0x3da
 1716 0659 3A000000 		.4byte	.LBB118
 1717 065d 3C000000 		.4byte	.LBE118
 1718 0661 09       		.byte	0x9
 1719 0662 4C01     		.2byte	0x14c
 1720 0664 00       		.byte	0
 1721 0665 00       		.byte	0
 1722 0666 30       		.uleb128 0x30
 1723 0667 10000000 		.4byte	.LVL13
 1724 066b 24       		.uleb128 0x24
 1725 066c 01       		.byte	0x1
 1726 066d 50       		.byte	0x50
 1727 066e 02       		.byte	0x2
 1728 066f 74       		.byte	0x74
 1729 0670 00       		.sleb128 0
 1730 0671 00       		.byte	0
 1731 0672 00       		.byte	0
 1732 0673 25       		.uleb128 0x25
 1733 0674 01       		.byte	0x1
 1734 0675 77000000 		.4byte	.LASF66
 1735 0679 01       		.byte	0x1
 1736 067a BF       		.byte	0xbf
 1737 067b 01       		.byte	0x1
 1738 067c 30000000 		.4byte	0x30
 1739 0680 00000000 		.4byte	.LFB81
 1740 0684 58000000 		.4byte	.LFE81
 1741 0688 00020000 		.4byte	.LLST14
 1742 068c 01       		.byte	0x1
 1743 068d 05080000 		.4byte	0x805
 1744 0691 1E       		.uleb128 0x1e
 1745 0692 69717000 		.ascii	"iqp\000"
 1746 0696 01       		.byte	0x1
 1747 0697 BF       		.byte	0xbf
 1748 0698 A4040000 		.4byte	0x4a4
 1749 069c 20020000 		.4byte	.LLST15
 1750 06a0 1E       		.uleb128 0x1e
 1751 06a1 627000   		.ascii	"bp\000"
 1752 06a4 01       		.byte	0x1
 1753 06a5 BF       		.byte	0xbf
 1754 06a6 02030000 		.4byte	0x302
 1755 06aa 4C020000 		.4byte	.LLST16
 1756 06ae 1E       		.uleb128 0x1e
 1757 06af 6E00     		.ascii	"n\000"
 1758 06b1 01       		.byte	0x1
 1759 06b2 C0       		.byte	0xc0
 1760 06b3 30000000 		.4byte	0x30
 1761 06b7 5F020000 		.4byte	.LLST17
 1762 06bb 20       		.uleb128 0x20
 1763 06bc 09020000 		.4byte	.LASF63
 1764 06c0 01       		.byte	0x1
 1765 06c1 C0       		.byte	0xc0
 1766 06c2 31010000 		.4byte	0x131
 1767 06c6 72020000 		.4byte	.LLST18
ARM GAS  /tmp/cc1TpdB9.s 			page 32


 1768 06ca 28       		.uleb128 0x28
 1769 06cb 6E667900 		.ascii	"nfy\000"
 1770 06cf 01       		.byte	0x1
 1771 06d0 C1       		.byte	0xc1
 1772 06d1 97030000 		.4byte	0x397
 1773 06d5 93020000 		.4byte	.LLST19
 1774 06d9 28       		.uleb128 0x28
 1775 06da 7200     		.ascii	"r\000"
 1776 06dc 01       		.byte	0x1
 1777 06dd C2       		.byte	0xc2
 1778 06de 30000000 		.4byte	0x30
 1779 06e2 A6020000 		.4byte	.LLST20
 1780 06e6 29       		.uleb128 0x29
 1781 06e7 19040000 		.4byte	0x419
 1782 06eb 0C000000 		.4byte	.LBB138
 1783 06ef 10000000 		.4byte	.LBE138
 1784 06f3 01       		.byte	0x1
 1785 06f4 C6       		.byte	0xc6
 1786 06f5 1B070000 		.4byte	0x71b
 1787 06f9 2A       		.uleb128 0x2a
 1788 06fa E4030000 		.4byte	0x3e4
 1789 06fe 0C000000 		.4byte	.LBB139
 1790 0702 10000000 		.4byte	.LBE139
 1791 0706 02       		.byte	0x2
 1792 0707 8501     		.2byte	0x185
 1793 0709 2B       		.uleb128 0x2b
 1794 070a D0030000 		.4byte	0x3d0
 1795 070e 0C000000 		.4byte	.LBB140
 1796 0712 10000000 		.4byte	.LBE140
 1797 0716 09       		.byte	0x9
 1798 0717 4301     		.2byte	0x143
 1799 0719 00       		.byte	0
 1800 071a 00       		.byte	0
 1801 071b 29       		.uleb128 0x29
 1802 071c 35050000 		.4byte	0x535
 1803 0720 1E000000 		.4byte	.LBB142
 1804 0724 26000000 		.4byte	.LBE142
 1805 0728 01       		.byte	0x1
 1806 0729 CC       		.byte	0xcc
 1807 072a 59070000 		.4byte	0x759
 1808 072e 2F       		.uleb128 0x2f
 1809 072f 53050000 		.4byte	0x553
 1810 0733 D0020000 		.4byte	.LLST21
 1811 0737 2F       		.uleb128 0x2f
 1812 0738 47050000 		.4byte	0x547
 1813 073c E4020000 		.4byte	.LLST22
 1814 0740 23       		.uleb128 0x23
 1815 0741 26000000 		.4byte	.LVL26
 1816 0745 4A0C0000 		.4byte	0xc4a
 1817 0749 24       		.uleb128 0x24
 1818 074a 01       		.byte	0x1
 1819 074b 51       		.byte	0x51
 1820 074c 04       		.byte	0x4
 1821 074d 91       		.byte	0x91
 1822 074e 64       		.sleb128 -28
 1823 074f 94       		.byte	0x94
 1824 0750 02       		.byte	0x2
ARM GAS  /tmp/cc1TpdB9.s 			page 33


 1825 0751 24       		.uleb128 0x24
 1826 0752 01       		.byte	0x1
 1827 0753 50       		.byte	0x50
 1828 0754 02       		.byte	0x2
 1829 0755 74       		.byte	0x74
 1830 0756 00       		.sleb128 0
 1831 0757 00       		.byte	0
 1832 0758 00       		.byte	0
 1833 0759 29       		.uleb128 0x29
 1834 075a 23040000 		.4byte	0x423
 1835 075e 2A000000 		.4byte	.LBB144
 1836 0762 2C000000 		.4byte	.LBE144
 1837 0766 01       		.byte	0x1
 1838 0767 CD       		.byte	0xcd
 1839 0768 8E070000 		.4byte	0x78e
 1840 076c 2A       		.uleb128 0x2a
 1841 076d EE030000 		.4byte	0x3ee
 1842 0771 2A000000 		.4byte	.LBB145
 1843 0775 2C000000 		.4byte	.LBE145
 1844 0779 02       		.byte	0x2
 1845 077a 9001     		.2byte	0x190
 1846 077c 2B       		.uleb128 0x2b
 1847 077d DA030000 		.4byte	0x3da
 1848 0781 2A000000 		.4byte	.LBB146
 1849 0785 2C000000 		.4byte	.LBE146
 1850 0789 09       		.byte	0x9
 1851 078a 4C01     		.2byte	0x14c
 1852 078c 00       		.byte	0
 1853 078d 00       		.byte	0
 1854 078e 29       		.uleb128 0x29
 1855 078f 23040000 		.4byte	0x423
 1856 0793 46000000 		.4byte	.LBB148
 1857 0797 48000000 		.4byte	.LBE148
 1858 079b 01       		.byte	0x1
 1859 079c D7       		.byte	0xd7
 1860 079d C3070000 		.4byte	0x7c3
 1861 07a1 2A       		.uleb128 0x2a
 1862 07a2 EE030000 		.4byte	0x3ee
 1863 07a6 46000000 		.4byte	.LBB149
 1864 07aa 48000000 		.4byte	.LBE149
 1865 07ae 02       		.byte	0x2
 1866 07af 9001     		.2byte	0x190
 1867 07b1 2B       		.uleb128 0x2b
 1868 07b2 DA030000 		.4byte	0x3da
 1869 07b6 46000000 		.4byte	.LBB150
 1870 07ba 48000000 		.4byte	.LBE150
 1871 07be 09       		.byte	0x9
 1872 07bf 4C01     		.2byte	0x14c
 1873 07c1 00       		.byte	0
 1874 07c2 00       		.byte	0
 1875 07c3 29       		.uleb128 0x29
 1876 07c4 19040000 		.4byte	0x419
 1877 07c8 50000000 		.4byte	.LBB152
 1878 07cc 54000000 		.4byte	.LBE152
 1879 07d0 01       		.byte	0x1
 1880 07d1 DC       		.byte	0xdc
 1881 07d2 F8070000 		.4byte	0x7f8
ARM GAS  /tmp/cc1TpdB9.s 			page 34


 1882 07d6 2A       		.uleb128 0x2a
 1883 07d7 E4030000 		.4byte	0x3e4
 1884 07db 50000000 		.4byte	.LBB153
 1885 07df 54000000 		.4byte	.LBE153
 1886 07e3 02       		.byte	0x2
 1887 07e4 8501     		.2byte	0x185
 1888 07e6 2B       		.uleb128 0x2b
 1889 07e7 D0030000 		.4byte	0x3d0
 1890 07eb 50000000 		.4byte	.LBB154
 1891 07ef 54000000 		.4byte	.LBE154
 1892 07f3 09       		.byte	0x9
 1893 07f4 4301     		.2byte	0x143
 1894 07f6 00       		.byte	0
 1895 07f7 00       		.byte	0
 1896 07f8 30       		.uleb128 0x30
 1897 07f9 18000000 		.4byte	.LVL24
 1898 07fd 24       		.uleb128 0x24
 1899 07fe 01       		.byte	0x1
 1900 07ff 50       		.byte	0x50
 1901 0800 02       		.byte	0x2
 1902 0801 74       		.byte	0x74
 1903 0802 00       		.sleb128 0
 1904 0803 00       		.byte	0
 1905 0804 00       		.byte	0
 1906 0805 1C       		.uleb128 0x1c
 1907 0806 01       		.byte	0x1
 1908 0807 2E010000 		.4byte	.LASF67
 1909 080b 01       		.byte	0x1
 1910 080c F0       		.byte	0xf0
 1911 080d 01       		.byte	0x1
 1912 080e 00000000 		.4byte	.LFB82
 1913 0812 1A000000 		.4byte	.LFE82
 1914 0816 F7020000 		.4byte	.LLST23
 1915 081a 01       		.byte	0x1
 1916 081b 7C080000 		.4byte	0x87c
 1917 081f 1D       		.uleb128 0x1d
 1918 0820 6F717000 		.ascii	"oqp\000"
 1919 0824 01       		.byte	0x1
 1920 0825 F0       		.byte	0xf0
 1921 0826 7C080000 		.4byte	0x87c
 1922 082a 01       		.byte	0x1
 1923 082b 50       		.byte	0x50
 1924 082c 1E       		.uleb128 0x1e
 1925 082d 627000   		.ascii	"bp\000"
 1926 0830 01       		.byte	0x1
 1927 0831 F0       		.byte	0xf0
 1928 0832 02030000 		.4byte	0x302
 1929 0836 17030000 		.4byte	.LLST24
 1930 083a 1F       		.uleb128 0x1f
 1931 083b B9020000 		.4byte	.LASF58
 1932 083f 01       		.byte	0x1
 1933 0840 F0       		.byte	0xf0
 1934 0841 30000000 		.4byte	0x30
 1935 0845 01       		.byte	0x1
 1936 0846 52       		.byte	0x52
 1937 0847 20       		.uleb128 0x20
 1938 0848 84010000 		.4byte	.LASF68
ARM GAS  /tmp/cc1TpdB9.s 			page 35


 1939 084c 01       		.byte	0x1
 1940 084d F1       		.byte	0xf1
 1941 084e 97030000 		.4byte	0x397
 1942 0852 36030000 		.4byte	.LLST25
 1943 0856 1F       		.uleb128 0x1f
 1944 0857 01010000 		.4byte	.LASF60
 1945 085b 01       		.byte	0x1
 1946 085c F1       		.byte	0xf1
 1947 085d 47010000 		.4byte	0x147
 1948 0861 02       		.byte	0x2
 1949 0862 91       		.byte	0x91
 1950 0863 00       		.sleb128 0
 1951 0864 21       		.uleb128 0x21
 1952 0865 F8030000 		.4byte	0x3f8
 1953 0869 06000000 		.4byte	.LBB156
 1954 086d 18000000 		.4byte	.Ldebug_ranges0+0x18
 1955 0871 01       		.byte	0x1
 1956 0872 F3       		.byte	0xf3
 1957 0873 22       		.uleb128 0x22
 1958 0874 06040000 		.4byte	0x406
 1959 0878 01       		.byte	0x1
 1960 0879 50       		.byte	0x50
 1961 087a 00       		.byte	0
 1962 087b 00       		.byte	0
 1963 087c 0E       		.uleb128 0xe
 1964 087d 04       		.byte	0x4
 1965 087e C5030000 		.4byte	0x3c5
 1966 0882 31       		.uleb128 0x31
 1967 0883 01       		.byte	0x1
 1968 0884 46030000 		.4byte	.LASF69
 1969 0888 01       		.byte	0x1
 1970 0889 0601     		.2byte	0x106
 1971 088b 01       		.byte	0x1
 1972 088c 00000000 		.4byte	.LFB83
 1973 0890 18000000 		.4byte	.LFE83
 1974 0894 55030000 		.4byte	.LLST26
 1975 0898 01       		.byte	0x1
 1976 0899 C5080000 		.4byte	0x8c5
 1977 089d 32       		.uleb128 0x32
 1978 089e 6F717000 		.ascii	"oqp\000"
 1979 08a2 01       		.byte	0x1
 1980 08a3 0601     		.2byte	0x106
 1981 08a5 7C080000 		.4byte	0x87c
 1982 08a9 75030000 		.4byte	.LLST27
 1983 08ad 23       		.uleb128 0x23
 1984 08ae 16000000 		.4byte	.LVL36
 1985 08b2 160C0000 		.4byte	0xc16
 1986 08b6 24       		.uleb128 0x24
 1987 08b7 01       		.byte	0x1
 1988 08b8 51       		.byte	0x51
 1989 08b9 02       		.byte	0x2
 1990 08ba 09       		.byte	0x9
 1991 08bb FE       		.byte	0xfe
 1992 08bc 24       		.uleb128 0x24
 1993 08bd 01       		.byte	0x1
 1994 08be 50       		.byte	0x50
 1995 08bf 03       		.byte	0x3
ARM GAS  /tmp/cc1TpdB9.s 			page 36


 1996 08c0 F3       		.byte	0xf3
 1997 08c1 01       		.uleb128 0x1
 1998 08c2 50       		.byte	0x50
 1999 08c3 00       		.byte	0
 2000 08c4 00       		.byte	0
 2001 08c5 33       		.uleb128 0x33
 2002 08c6 01       		.byte	0x1
 2003 08c7 EA020000 		.4byte	.LASF70
 2004 08cb 01       		.byte	0x1
 2005 08cc 2501     		.2byte	0x125
 2006 08ce 01       		.byte	0x1
 2007 08cf 09010000 		.4byte	0x109
 2008 08d3 00000000 		.4byte	.LFB84
 2009 08d7 46000000 		.4byte	.LFE84
 2010 08db 96030000 		.4byte	.LLST28
 2011 08df 01       		.byte	0x1
 2012 08e0 190A0000 		.4byte	0xa19
 2013 08e4 32       		.uleb128 0x32
 2014 08e5 6F717000 		.ascii	"oqp\000"
 2015 08e9 01       		.byte	0x1
 2016 08ea 2501     		.2byte	0x125
 2017 08ec 7C080000 		.4byte	0x87c
 2018 08f0 B6030000 		.4byte	.LLST29
 2019 08f4 32       		.uleb128 0x32
 2020 08f5 6200     		.ascii	"b\000"
 2021 08f7 01       		.byte	0x1
 2022 08f8 2501     		.2byte	0x125
 2023 08fa 49000000 		.4byte	0x49
 2024 08fe E2030000 		.4byte	.LLST30
 2025 0902 34       		.uleb128 0x34
 2026 0903 09020000 		.4byte	.LASF63
 2027 0907 01       		.byte	0x1
 2028 0908 2501     		.2byte	0x125
 2029 090a 31010000 		.4byte	0x131
 2030 090e 03040000 		.4byte	.LLST31
 2031 0912 35       		.uleb128 0x35
 2032 0913 19040000 		.4byte	0x419
 2033 0917 08000000 		.4byte	.LBB175
 2034 091b 0A000000 		.4byte	.LBE175
 2035 091f 01       		.byte	0x1
 2036 0920 2701     		.2byte	0x127
 2037 0922 48090000 		.4byte	0x948
 2038 0926 2A       		.uleb128 0x2a
 2039 0927 E4030000 		.4byte	0x3e4
 2040 092b 08000000 		.4byte	.LBB176
 2041 092f 0A000000 		.4byte	.LBE176
 2042 0933 02       		.byte	0x2
 2043 0934 8501     		.2byte	0x185
 2044 0936 2B       		.uleb128 0x2b
 2045 0937 D0030000 		.4byte	0x3d0
 2046 093b 08000000 		.4byte	.LBB177
 2047 093f 0A000000 		.4byte	.LBE177
 2048 0943 09       		.byte	0x9
 2049 0944 4301     		.2byte	0x143
 2050 0946 00       		.byte	0
 2051 0947 00       		.byte	0
 2052 0948 2C       		.uleb128 0x2c
ARM GAS  /tmp/cc1TpdB9.s 			page 37


 2053 0949 10000000 		.4byte	.LBB179
 2054 094d 20000000 		.4byte	.LBE179
 2055 0951 D3090000 		.4byte	0x9d3
 2056 0955 36       		.uleb128 0x36
 2057 0956 6D736700 		.ascii	"msg\000"
 2058 095a 01       		.byte	0x1
 2059 095b 2901     		.2byte	0x129
 2060 095d 09010000 		.4byte	0x109
 2061 0961 01       		.byte	0x1
 2062 0962 50       		.byte	0x50
 2063 0963 35       		.uleb128 0x35
 2064 0964 35050000 		.4byte	0x535
 2065 0968 10000000 		.4byte	.LBB180
 2066 096c 18000000 		.4byte	.LBE180
 2067 0970 01       		.byte	0x1
 2068 0971 2B01     		.2byte	0x12b
 2069 0973 A0090000 		.4byte	0x9a0
 2070 0977 2F       		.uleb128 0x2f
 2071 0978 53050000 		.4byte	0x553
 2072 097c 24040000 		.4byte	.LLST32
 2073 0980 2F       		.uleb128 0x2f
 2074 0981 47050000 		.4byte	0x547
 2075 0985 37040000 		.4byte	.LLST33
 2076 0989 23       		.uleb128 0x23
 2077 098a 18000000 		.4byte	.LVL40
 2078 098e 4A0C0000 		.4byte	0xc4a
 2079 0992 24       		.uleb128 0x24
 2080 0993 01       		.byte	0x1
 2081 0994 51       		.byte	0x51
 2082 0995 02       		.byte	0x2
 2083 0996 76       		.byte	0x76
 2084 0997 00       		.sleb128 0
 2085 0998 24       		.uleb128 0x24
 2086 0999 01       		.byte	0x1
 2087 099a 50       		.byte	0x50
 2088 099b 02       		.byte	0x2
 2089 099c 74       		.byte	0x74
 2090 099d 00       		.sleb128 0
 2091 099e 00       		.byte	0
 2092 099f 00       		.byte	0
 2093 09a0 2A       		.uleb128 0x2a
 2094 09a1 23040000 		.4byte	0x423
 2095 09a5 1C000000 		.4byte	.LBB182
 2096 09a9 1E000000 		.4byte	.LBE182
 2097 09ad 01       		.byte	0x1
 2098 09ae 2C01     		.2byte	0x12c
 2099 09b0 2A       		.uleb128 0x2a
 2100 09b1 EE030000 		.4byte	0x3ee
 2101 09b5 1C000000 		.4byte	.LBB183
 2102 09b9 1E000000 		.4byte	.LBE183
 2103 09bd 02       		.byte	0x2
 2104 09be 9001     		.2byte	0x190
 2105 09c0 2B       		.uleb128 0x2b
 2106 09c1 DA030000 		.4byte	0x3da
 2107 09c5 1C000000 		.4byte	.LBB184
 2108 09c9 1E000000 		.4byte	.LBE184
 2109 09cd 09       		.byte	0x9
ARM GAS  /tmp/cc1TpdB9.s 			page 38


 2110 09ce 4C01     		.2byte	0x14c
 2111 09d0 00       		.byte	0
 2112 09d1 00       		.byte	0
 2113 09d2 00       		.byte	0
 2114 09d3 35       		.uleb128 0x35
 2115 09d4 23040000 		.4byte	0x423
 2116 09d8 40000000 		.4byte	.LBB186
 2117 09dc 42000000 		.4byte	.LBE186
 2118 09e0 01       		.byte	0x1
 2119 09e1 3901     		.2byte	0x139
 2120 09e3 090A0000 		.4byte	0xa09
 2121 09e7 2A       		.uleb128 0x2a
 2122 09e8 EE030000 		.4byte	0x3ee
 2123 09ec 40000000 		.4byte	.LBB187
 2124 09f0 42000000 		.4byte	.LBE187
 2125 09f4 02       		.byte	0x2
 2126 09f5 9001     		.2byte	0x190
 2127 09f7 2B       		.uleb128 0x2b
 2128 09f8 DA030000 		.4byte	0x3da
 2129 09fc 40000000 		.4byte	.LBB188
 2130 0a00 42000000 		.4byte	.LBE188
 2131 0a04 09       		.byte	0x9
 2132 0a05 4C01     		.2byte	0x14c
 2133 0a07 00       		.byte	0
 2134 0a08 00       		.byte	0
 2135 0a09 37       		.uleb128 0x37
 2136 0a0a 40000000 		.4byte	.LVL42
 2137 0a0e 02       		.byte	0x2
 2138 0a0f 75       		.byte	0x75
 2139 0a10 00       		.sleb128 0
 2140 0a11 24       		.uleb128 0x24
 2141 0a12 01       		.byte	0x1
 2142 0a13 50       		.byte	0x50
 2143 0a14 02       		.byte	0x2
 2144 0a15 74       		.byte	0x74
 2145 0a16 00       		.sleb128 0
 2146 0a17 00       		.byte	0
 2147 0a18 00       		.byte	0
 2148 0a19 33       		.uleb128 0x33
 2149 0a1a 01       		.byte	0x1
 2150 0a1b 81020000 		.4byte	.LASF71
 2151 0a1f 01       		.byte	0x1
 2152 0a20 4701     		.2byte	0x147
 2153 0a22 01       		.byte	0x1
 2154 0a23 09010000 		.4byte	0x109
 2155 0a27 00000000 		.4byte	.LFB85
 2156 0a2b 3C000000 		.4byte	.LFE85
 2157 0a2f 4A040000 		.4byte	.LLST34
 2158 0a33 01       		.byte	0x1
 2159 0a34 660A0000 		.4byte	0xa66
 2160 0a38 32       		.uleb128 0x32
 2161 0a39 6F717000 		.ascii	"oqp\000"
 2162 0a3d 01       		.byte	0x1
 2163 0a3e 4701     		.2byte	0x147
 2164 0a40 7C080000 		.4byte	0x87c
 2165 0a44 6A040000 		.4byte	.LLST35
 2166 0a48 38       		.uleb128 0x38
ARM GAS  /tmp/cc1TpdB9.s 			page 39


 2167 0a49 6200     		.ascii	"b\000"
 2168 0a4b 01       		.byte	0x1
 2169 0a4c 4801     		.2byte	0x148
 2170 0a4e 49000000 		.4byte	0x49
 2171 0a52 A4040000 		.4byte	.LLST36
 2172 0a56 23       		.uleb128 0x23
 2173 0a57 32000000 		.4byte	.LVL47
 2174 0a5b 300C0000 		.4byte	0xc30
 2175 0a5f 24       		.uleb128 0x24
 2176 0a60 01       		.byte	0x1
 2177 0a61 51       		.byte	0x51
 2178 0a62 01       		.byte	0x1
 2179 0a63 30       		.byte	0x30
 2180 0a64 00       		.byte	0
 2181 0a65 00       		.byte	0
 2182 0a66 33       		.uleb128 0x33
 2183 0a67 01       		.byte	0x1
 2184 0a68 D5000000 		.4byte	.LASF72
 2185 0a6c 01       		.byte	0x1
 2186 0a6d 7101     		.2byte	0x171
 2187 0a6f 01       		.byte	0x1
 2188 0a70 30000000 		.4byte	0x30
 2189 0a74 00000000 		.4byte	.LFB86
 2190 0a78 5E000000 		.4byte	.LFE86
 2191 0a7c D0040000 		.4byte	.LLST37
 2192 0a80 01       		.byte	0x1
 2193 0a81 080C0000 		.4byte	0xc08
 2194 0a85 32       		.uleb128 0x32
 2195 0a86 6F717000 		.ascii	"oqp\000"
 2196 0a8a 01       		.byte	0x1
 2197 0a8b 7101     		.2byte	0x171
 2198 0a8d 7C080000 		.4byte	0x87c
 2199 0a91 F0040000 		.4byte	.LLST38
 2200 0a95 32       		.uleb128 0x32
 2201 0a96 627000   		.ascii	"bp\000"
 2202 0a99 01       		.byte	0x1
 2203 0a9a 7101     		.2byte	0x171
 2204 0a9c F7020000 		.4byte	0x2f7
 2205 0aa0 1C050000 		.4byte	.LLST39
 2206 0aa4 32       		.uleb128 0x32
 2207 0aa5 6E00     		.ascii	"n\000"
 2208 0aa7 01       		.byte	0x1
 2209 0aa8 7201     		.2byte	0x172
 2210 0aaa 30000000 		.4byte	0x30
 2211 0aae 3A050000 		.4byte	.LLST40
 2212 0ab2 34       		.uleb128 0x34
 2213 0ab3 09020000 		.4byte	.LASF63
 2214 0ab7 01       		.byte	0x1
 2215 0ab8 7201     		.2byte	0x172
 2216 0aba 31010000 		.4byte	0x131
 2217 0abe 70050000 		.4byte	.LLST41
 2218 0ac2 38       		.uleb128 0x38
 2219 0ac3 6E667900 		.ascii	"nfy\000"
 2220 0ac7 01       		.byte	0x1
 2221 0ac8 7301     		.2byte	0x173
 2222 0aca 97030000 		.4byte	0x397
 2223 0ace 91050000 		.4byte	.LLST42
ARM GAS  /tmp/cc1TpdB9.s 			page 40


 2224 0ad2 38       		.uleb128 0x38
 2225 0ad3 7700     		.ascii	"w\000"
 2226 0ad5 01       		.byte	0x1
 2227 0ad6 7401     		.2byte	0x174
 2228 0ad8 30000000 		.4byte	0x30
 2229 0adc B0050000 		.4byte	.LLST43
 2230 0ae0 35       		.uleb128 0x35
 2231 0ae1 19040000 		.4byte	0x419
 2232 0ae5 0E000000 		.4byte	.LBB208
 2233 0ae9 12000000 		.4byte	.LBE208
 2234 0aed 01       		.byte	0x1
 2235 0aee 7801     		.2byte	0x178
 2236 0af0 160B0000 		.4byte	0xb16
 2237 0af4 2A       		.uleb128 0x2a
 2238 0af5 E4030000 		.4byte	0x3e4
 2239 0af9 0E000000 		.4byte	.LBB209
 2240 0afd 12000000 		.4byte	.LBE209
 2241 0b01 02       		.byte	0x2
 2242 0b02 8501     		.2byte	0x185
 2243 0b04 2B       		.uleb128 0x2b
 2244 0b05 D0030000 		.4byte	0x3d0
 2245 0b09 0E000000 		.4byte	.LBB210
 2246 0b0d 12000000 		.4byte	.LBE210
 2247 0b11 09       		.byte	0x9
 2248 0b12 4301     		.2byte	0x143
 2249 0b14 00       		.byte	0
 2250 0b15 00       		.byte	0
 2251 0b16 35       		.uleb128 0x35
 2252 0b17 35050000 		.4byte	0x535
 2253 0b1b 18000000 		.4byte	.LBB212
 2254 0b1f 20000000 		.4byte	.LBE212
 2255 0b23 01       		.byte	0x1
 2256 0b24 7B01     		.2byte	0x17b
 2257 0b26 550B0000 		.4byte	0xb55
 2258 0b2a 2F       		.uleb128 0x2f
 2259 0b2b 53050000 		.4byte	0x553
 2260 0b2f DA050000 		.4byte	.LLST44
 2261 0b33 2F       		.uleb128 0x2f
 2262 0b34 47050000 		.4byte	0x547
 2263 0b38 EE050000 		.4byte	.LLST45
 2264 0b3c 23       		.uleb128 0x23
 2265 0b3d 20000000 		.4byte	.LVL55
 2266 0b41 4A0C0000 		.4byte	0xc4a
 2267 0b45 24       		.uleb128 0x24
 2268 0b46 01       		.byte	0x1
 2269 0b47 51       		.byte	0x51
 2270 0b48 04       		.byte	0x4
 2271 0b49 91       		.byte	0x91
 2272 0b4a 64       		.sleb128 -28
 2273 0b4b 94       		.byte	0x94
 2274 0b4c 02       		.byte	0x2
 2275 0b4d 24       		.uleb128 0x24
 2276 0b4e 01       		.byte	0x1
 2277 0b4f 50       		.byte	0x50
 2278 0b50 02       		.byte	0x2
 2279 0b51 74       		.byte	0x74
 2280 0b52 00       		.sleb128 0
ARM GAS  /tmp/cc1TpdB9.s 			page 41


 2281 0b53 00       		.byte	0
 2282 0b54 00       		.byte	0
 2283 0b55 35       		.uleb128 0x35
 2284 0b56 23040000 		.4byte	0x423
 2285 0b5a 24000000 		.4byte	.LBB214
 2286 0b5e 26000000 		.4byte	.LBE214
 2287 0b62 01       		.byte	0x1
 2288 0b63 7C01     		.2byte	0x17c
 2289 0b65 8B0B0000 		.4byte	0xb8b
 2290 0b69 2A       		.uleb128 0x2a
 2291 0b6a EE030000 		.4byte	0x3ee
 2292 0b6e 24000000 		.4byte	.LBB215
 2293 0b72 26000000 		.4byte	.LBE215
 2294 0b76 02       		.byte	0x2
 2295 0b77 9001     		.2byte	0x190
 2296 0b79 2B       		.uleb128 0x2b
 2297 0b7a DA030000 		.4byte	0x3da
 2298 0b7e 24000000 		.4byte	.LBB216
 2299 0b82 26000000 		.4byte	.LBE216
 2300 0b86 09       		.byte	0x9
 2301 0b87 4C01     		.2byte	0x14c
 2302 0b89 00       		.byte	0
 2303 0b8a 00       		.byte	0
 2304 0b8b 35       		.uleb128 0x35
 2305 0b8c 23040000 		.4byte	0x423
 2306 0b90 4C000000 		.4byte	.LBB218
 2307 0b94 4E000000 		.4byte	.LBE218
 2308 0b98 01       		.byte	0x1
 2309 0b99 8801     		.2byte	0x188
 2310 0b9b C10B0000 		.4byte	0xbc1
 2311 0b9f 2A       		.uleb128 0x2a
 2312 0ba0 EE030000 		.4byte	0x3ee
 2313 0ba4 4C000000 		.4byte	.LBB219
 2314 0ba8 4E000000 		.4byte	.LBE219
 2315 0bac 02       		.byte	0x2
 2316 0bad 9001     		.2byte	0x190
 2317 0baf 2B       		.uleb128 0x2b
 2318 0bb0 DA030000 		.4byte	0x3da
 2319 0bb4 4C000000 		.4byte	.LBB220
 2320 0bb8 4E000000 		.4byte	.LBE220
 2321 0bbc 09       		.byte	0x9
 2322 0bbd 4C01     		.2byte	0x14c
 2323 0bbf 00       		.byte	0
 2324 0bc0 00       		.byte	0
 2325 0bc1 35       		.uleb128 0x35
 2326 0bc2 19040000 		.4byte	0x419
 2327 0bc6 56000000 		.4byte	.LBB222
 2328 0bca 5A000000 		.4byte	.LBE222
 2329 0bce 01       		.byte	0x1
 2330 0bcf 8C01     		.2byte	0x18c
 2331 0bd1 F70B0000 		.4byte	0xbf7
 2332 0bd5 2A       		.uleb128 0x2a
 2333 0bd6 E4030000 		.4byte	0x3e4
 2334 0bda 56000000 		.4byte	.LBB223
 2335 0bde 5A000000 		.4byte	.LBE223
 2336 0be2 02       		.byte	0x2
 2337 0be3 8501     		.2byte	0x185
ARM GAS  /tmp/cc1TpdB9.s 			page 42


 2338 0be5 2B       		.uleb128 0x2b
 2339 0be6 D0030000 		.4byte	0x3d0
 2340 0bea 56000000 		.4byte	.LBB224
 2341 0bee 5A000000 		.4byte	.LBE224
 2342 0bf2 09       		.byte	0x9
 2343 0bf3 4301     		.2byte	0x143
 2344 0bf5 00       		.byte	0
 2345 0bf6 00       		.byte	0
 2346 0bf7 37       		.uleb128 0x37
 2347 0bf8 4C000000 		.4byte	.LVL58
 2348 0bfc 03       		.byte	0x3
 2349 0bfd 91       		.byte	0x91
 2350 0bfe 60       		.sleb128 -32
 2351 0bff 06       		.byte	0x6
 2352 0c00 24       		.uleb128 0x24
 2353 0c01 01       		.byte	0x1
 2354 0c02 50       		.byte	0x50
 2355 0c03 02       		.byte	0x2
 2356 0c04 74       		.byte	0x74
 2357 0c05 00       		.sleb128 0
 2358 0c06 00       		.byte	0
 2359 0c07 00       		.byte	0
 2360 0c08 39       		.uleb128 0x39
 2361 0c09 6E696C00 		.ascii	"nil\000"
 2362 0c0d 06       		.byte	0x6
 2363 0c0e F602     		.2byte	0x2f6
 2364 0c10 C9020000 		.4byte	0x2c9
 2365 0c14 01       		.byte	0x1
 2366 0c15 01       		.byte	0x1
 2367 0c16 3A       		.uleb128 0x3a
 2368 0c17 01       		.byte	0x1
 2369 0c18 29000000 		.4byte	.LASF73
 2370 0c1c 02       		.byte	0x2
 2371 0c1d 5F01     		.2byte	0x15f
 2372 0c1f 01       		.byte	0x1
 2373 0c20 01       		.byte	0x1
 2374 0c21 300C0000 		.4byte	0xc30
 2375 0c25 18       		.uleb128 0x18
 2376 0c26 13040000 		.4byte	0x413
 2377 0c2a 18       		.uleb128 0x18
 2378 0c2b 09010000 		.4byte	0x109
 2379 0c2f 00       		.byte	0
 2380 0c30 3A       		.uleb128 0x3a
 2381 0c31 01       		.byte	0x1
 2382 0c32 A5020000 		.4byte	.LASF74
 2383 0c36 02       		.byte	0x2
 2384 0c37 5E01     		.2byte	0x15e
 2385 0c39 01       		.byte	0x1
 2386 0c3a 01       		.byte	0x1
 2387 0c3b 4A0C0000 		.4byte	0xc4a
 2388 0c3f 18       		.uleb128 0x18
 2389 0c40 13040000 		.4byte	0x413
 2390 0c44 18       		.uleb128 0x18
 2391 0c45 09010000 		.4byte	0x109
 2392 0c49 00       		.byte	0
 2393 0c4a 3B       		.uleb128 0x3b
 2394 0c4b 01       		.byte	0x1
ARM GAS  /tmp/cc1TpdB9.s 			page 43


 2395 0c4c B4010000 		.4byte	.LASF75
 2396 0c50 06       		.byte	0x6
 2397 0c51 0A03     		.2byte	0x30a
 2398 0c53 01       		.byte	0x1
 2399 0c54 09010000 		.4byte	0x109
 2400 0c58 01       		.byte	0x1
 2401 0c59 18       		.uleb128 0x18
 2402 0c5a 62020000 		.4byte	0x262
 2403 0c5e 18       		.uleb128 0x18
 2404 0c5f 31010000 		.4byte	0x131
 2405 0c63 00       		.byte	0
 2406 0c64 00       		.byte	0
 2407              		.section	.debug_abbrev,"",%progbits
 2408              	.Ldebug_abbrev0:
 2409 0000 01       		.uleb128 0x1
 2410 0001 11       		.uleb128 0x11
 2411 0002 01       		.byte	0x1
 2412 0003 25       		.uleb128 0x25
 2413 0004 0E       		.uleb128 0xe
 2414 0005 13       		.uleb128 0x13
 2415 0006 0B       		.uleb128 0xb
 2416 0007 03       		.uleb128 0x3
 2417 0008 0E       		.uleb128 0xe
 2418 0009 1B       		.uleb128 0x1b
 2419 000a 0E       		.uleb128 0xe
 2420 000b 55       		.uleb128 0x55
 2421 000c 06       		.uleb128 0x6
 2422 000d 11       		.uleb128 0x11
 2423 000e 01       		.uleb128 0x1
 2424 000f 52       		.uleb128 0x52
 2425 0010 01       		.uleb128 0x1
 2426 0011 10       		.uleb128 0x10
 2427 0012 06       		.uleb128 0x6
 2428 0013 00       		.byte	0
 2429 0014 00       		.byte	0
 2430 0015 02       		.uleb128 0x2
 2431 0016 24       		.uleb128 0x24
 2432 0017 00       		.byte	0
 2433 0018 0B       		.uleb128 0xb
 2434 0019 0B       		.uleb128 0xb
 2435 001a 3E       		.uleb128 0x3e
 2436 001b 0B       		.uleb128 0xb
 2437 001c 03       		.uleb128 0x3
 2438 001d 08       		.uleb128 0x8
 2439 001e 00       		.byte	0
 2440 001f 00       		.byte	0
 2441 0020 03       		.uleb128 0x3
 2442 0021 16       		.uleb128 0x16
 2443 0022 00       		.byte	0
 2444 0023 03       		.uleb128 0x3
 2445 0024 0E       		.uleb128 0xe
 2446 0025 3A       		.uleb128 0x3a
 2447 0026 0B       		.uleb128 0xb
 2448 0027 3B       		.uleb128 0x3b
 2449 0028 0B       		.uleb128 0xb
 2450 0029 49       		.uleb128 0x49
 2451 002a 13       		.uleb128 0x13
ARM GAS  /tmp/cc1TpdB9.s 			page 44


 2452 002b 00       		.byte	0
 2453 002c 00       		.byte	0
 2454 002d 04       		.uleb128 0x4
 2455 002e 24       		.uleb128 0x24
 2456 002f 00       		.byte	0
 2457 0030 0B       		.uleb128 0xb
 2458 0031 0B       		.uleb128 0xb
 2459 0032 3E       		.uleb128 0x3e
 2460 0033 0B       		.uleb128 0xb
 2461 0034 03       		.uleb128 0x3
 2462 0035 0E       		.uleb128 0xe
 2463 0036 00       		.byte	0
 2464 0037 00       		.byte	0
 2465 0038 05       		.uleb128 0x5
 2466 0039 13       		.uleb128 0x13
 2467 003a 01       		.byte	0x1
 2468 003b 03       		.uleb128 0x3
 2469 003c 0E       		.uleb128 0xe
 2470 003d 0B       		.uleb128 0xb
 2471 003e 0B       		.uleb128 0xb
 2472 003f 3A       		.uleb128 0x3a
 2473 0040 0B       		.uleb128 0xb
 2474 0041 3B       		.uleb128 0x3b
 2475 0042 05       		.uleb128 0x5
 2476 0043 01       		.uleb128 0x1
 2477 0044 13       		.uleb128 0x13
 2478 0045 00       		.byte	0
 2479 0046 00       		.byte	0
 2480 0047 06       		.uleb128 0x6
 2481 0048 0D       		.uleb128 0xd
 2482 0049 00       		.byte	0
 2483 004a 03       		.uleb128 0x3
 2484 004b 0E       		.uleb128 0xe
 2485 004c 3A       		.uleb128 0x3a
 2486 004d 0B       		.uleb128 0xb
 2487 004e 3B       		.uleb128 0x3b
 2488 004f 05       		.uleb128 0x5
 2489 0050 49       		.uleb128 0x49
 2490 0051 13       		.uleb128 0x13
 2491 0052 38       		.uleb128 0x38
 2492 0053 0A       		.uleb128 0xa
 2493 0054 00       		.byte	0
 2494 0055 00       		.byte	0
 2495 0056 07       		.uleb128 0x7
 2496 0057 0D       		.uleb128 0xd
 2497 0058 00       		.byte	0
 2498 0059 03       		.uleb128 0x3
 2499 005a 08       		.uleb128 0x8
 2500 005b 3A       		.uleb128 0x3a
 2501 005c 0B       		.uleb128 0xb
 2502 005d 3B       		.uleb128 0x3b
 2503 005e 05       		.uleb128 0x5
 2504 005f 49       		.uleb128 0x49
 2505 0060 13       		.uleb128 0x13
 2506 0061 38       		.uleb128 0x38
 2507 0062 0A       		.uleb128 0xa
 2508 0063 00       		.byte	0
ARM GAS  /tmp/cc1TpdB9.s 			page 45


 2509 0064 00       		.byte	0
 2510 0065 08       		.uleb128 0x8
 2511 0066 0F       		.uleb128 0xf
 2512 0067 00       		.byte	0
 2513 0068 0B       		.uleb128 0xb
 2514 0069 0B       		.uleb128 0xb
 2515 006a 00       		.byte	0
 2516 006b 00       		.byte	0
 2517 006c 09       		.uleb128 0x9
 2518 006d 13       		.uleb128 0x13
 2519 006e 01       		.byte	0x1
 2520 006f 03       		.uleb128 0x3
 2521 0070 0E       		.uleb128 0xe
 2522 0071 0B       		.uleb128 0xb
 2523 0072 0B       		.uleb128 0xb
 2524 0073 3A       		.uleb128 0x3a
 2525 0074 0B       		.uleb128 0xb
 2526 0075 3B       		.uleb128 0x3b
 2527 0076 0B       		.uleb128 0xb
 2528 0077 01       		.uleb128 0x1
 2529 0078 13       		.uleb128 0x13
 2530 0079 00       		.byte	0
 2531 007a 00       		.byte	0
 2532 007b 0A       		.uleb128 0xa
 2533 007c 0D       		.uleb128 0xd
 2534 007d 00       		.byte	0
 2535 007e 03       		.uleb128 0x3
 2536 007f 08       		.uleb128 0x8
 2537 0080 3A       		.uleb128 0x3a
 2538 0081 0B       		.uleb128 0xb
 2539 0082 3B       		.uleb128 0x3b
 2540 0083 0B       		.uleb128 0xb
 2541 0084 49       		.uleb128 0x49
 2542 0085 13       		.uleb128 0x13
 2543 0086 38       		.uleb128 0x38
 2544 0087 0A       		.uleb128 0xa
 2545 0088 00       		.byte	0
 2546 0089 00       		.byte	0
 2547 008a 0B       		.uleb128 0xb
 2548 008b 13       		.uleb128 0x13
 2549 008c 01       		.byte	0x1
 2550 008d 0B       		.uleb128 0xb
 2551 008e 0B       		.uleb128 0xb
 2552 008f 3A       		.uleb128 0x3a
 2553 0090 0B       		.uleb128 0xb
 2554 0091 3B       		.uleb128 0x3b
 2555 0092 0B       		.uleb128 0xb
 2556 0093 01       		.uleb128 0x1
 2557 0094 13       		.uleb128 0x13
 2558 0095 00       		.byte	0
 2559 0096 00       		.byte	0
 2560 0097 0C       		.uleb128 0xc
 2561 0098 35       		.uleb128 0x35
 2562 0099 00       		.byte	0
 2563 009a 49       		.uleb128 0x49
 2564 009b 13       		.uleb128 0x13
 2565 009c 00       		.byte	0
ARM GAS  /tmp/cc1TpdB9.s 			page 46


 2566 009d 00       		.byte	0
 2567 009e 0D       		.uleb128 0xd
 2568 009f 16       		.uleb128 0x16
 2569 00a0 00       		.byte	0
 2570 00a1 03       		.uleb128 0x3
 2571 00a2 0E       		.uleb128 0xe
 2572 00a3 3A       		.uleb128 0x3a
 2573 00a4 0B       		.uleb128 0xb
 2574 00a5 3B       		.uleb128 0x3b
 2575 00a6 05       		.uleb128 0x5
 2576 00a7 49       		.uleb128 0x49
 2577 00a8 13       		.uleb128 0x13
 2578 00a9 00       		.byte	0
 2579 00aa 00       		.byte	0
 2580 00ab 0E       		.uleb128 0xe
 2581 00ac 0F       		.uleb128 0xf
 2582 00ad 00       		.byte	0
 2583 00ae 0B       		.uleb128 0xb
 2584 00af 0B       		.uleb128 0xb
 2585 00b0 49       		.uleb128 0x49
 2586 00b1 13       		.uleb128 0x13
 2587 00b2 00       		.byte	0
 2588 00b3 00       		.byte	0
 2589 00b4 0F       		.uleb128 0xf
 2590 00b5 17       		.uleb128 0x17
 2591 00b6 01       		.byte	0x1
 2592 00b7 0B       		.uleb128 0xb
 2593 00b8 0B       		.uleb128 0xb
 2594 00b9 3A       		.uleb128 0x3a
 2595 00ba 0B       		.uleb128 0xb
 2596 00bb 3B       		.uleb128 0x3b
 2597 00bc 05       		.uleb128 0x5
 2598 00bd 01       		.uleb128 0x1
 2599 00be 13       		.uleb128 0x13
 2600 00bf 00       		.byte	0
 2601 00c0 00       		.byte	0
 2602 00c1 10       		.uleb128 0x10
 2603 00c2 0D       		.uleb128 0xd
 2604 00c3 00       		.byte	0
 2605 00c4 03       		.uleb128 0x3
 2606 00c5 08       		.uleb128 0x8
 2607 00c6 3A       		.uleb128 0x3a
 2608 00c7 0B       		.uleb128 0xb
 2609 00c8 3B       		.uleb128 0x3b
 2610 00c9 05       		.uleb128 0x5
 2611 00ca 49       		.uleb128 0x49
 2612 00cb 13       		.uleb128 0x13
 2613 00cc 00       		.byte	0
 2614 00cd 00       		.byte	0
 2615 00ce 11       		.uleb128 0x11
 2616 00cf 0D       		.uleb128 0xd
 2617 00d0 00       		.byte	0
 2618 00d1 03       		.uleb128 0x3
 2619 00d2 0E       		.uleb128 0xe
 2620 00d3 3A       		.uleb128 0x3a
 2621 00d4 0B       		.uleb128 0xb
 2622 00d5 3B       		.uleb128 0x3b
ARM GAS  /tmp/cc1TpdB9.s 			page 47


 2623 00d6 05       		.uleb128 0x5
 2624 00d7 49       		.uleb128 0x49
 2625 00d8 13       		.uleb128 0x13
 2626 00d9 00       		.byte	0
 2627 00da 00       		.byte	0
 2628 00db 12       		.uleb128 0x12
 2629 00dc 13       		.uleb128 0x13
 2630 00dd 01       		.byte	0x1
 2631 00de 0B       		.uleb128 0xb
 2632 00df 0B       		.uleb128 0xb
 2633 00e0 3A       		.uleb128 0x3a
 2634 00e1 0B       		.uleb128 0xb
 2635 00e2 3B       		.uleb128 0x3b
 2636 00e3 05       		.uleb128 0x5
 2637 00e4 01       		.uleb128 0x1
 2638 00e5 13       		.uleb128 0x13
 2639 00e6 00       		.byte	0
 2640 00e7 00       		.byte	0
 2641 00e8 13       		.uleb128 0x13
 2642 00e9 01       		.uleb128 0x1
 2643 00ea 01       		.byte	0x1
 2644 00eb 49       		.uleb128 0x49
 2645 00ec 13       		.uleb128 0x13
 2646 00ed 01       		.uleb128 0x1
 2647 00ee 13       		.uleb128 0x13
 2648 00ef 00       		.byte	0
 2649 00f0 00       		.byte	0
 2650 00f1 14       		.uleb128 0x14
 2651 00f2 21       		.uleb128 0x21
 2652 00f3 00       		.byte	0
 2653 00f4 49       		.uleb128 0x49
 2654 00f5 13       		.uleb128 0x13
 2655 00f6 2F       		.uleb128 0x2f
 2656 00f7 0B       		.uleb128 0xb
 2657 00f8 00       		.byte	0
 2658 00f9 00       		.byte	0
 2659 00fa 15       		.uleb128 0x15
 2660 00fb 26       		.uleb128 0x26
 2661 00fc 00       		.byte	0
 2662 00fd 49       		.uleb128 0x49
 2663 00fe 13       		.uleb128 0x13
 2664 00ff 00       		.byte	0
 2665 0100 00       		.byte	0
 2666 0101 16       		.uleb128 0x16
 2667 0102 0D       		.uleb128 0xd
 2668 0103 00       		.byte	0
 2669 0104 03       		.uleb128 0x3
 2670 0105 0E       		.uleb128 0xe
 2671 0106 3A       		.uleb128 0x3a
 2672 0107 0B       		.uleb128 0xb
 2673 0108 3B       		.uleb128 0x3b
 2674 0109 0B       		.uleb128 0xb
 2675 010a 49       		.uleb128 0x49
 2676 010b 13       		.uleb128 0x13
 2677 010c 38       		.uleb128 0x38
 2678 010d 0A       		.uleb128 0xa
 2679 010e 00       		.byte	0
ARM GAS  /tmp/cc1TpdB9.s 			page 48


 2680 010f 00       		.byte	0
 2681 0110 17       		.uleb128 0x17
 2682 0111 15       		.uleb128 0x15
 2683 0112 01       		.byte	0x1
 2684 0113 27       		.uleb128 0x27
 2685 0114 0C       		.uleb128 0xc
 2686 0115 01       		.uleb128 0x1
 2687 0116 13       		.uleb128 0x13
 2688 0117 00       		.byte	0
 2689 0118 00       		.byte	0
 2690 0119 18       		.uleb128 0x18
 2691 011a 05       		.uleb128 0x5
 2692 011b 00       		.byte	0
 2693 011c 49       		.uleb128 0x49
 2694 011d 13       		.uleb128 0x13
 2695 011e 00       		.byte	0
 2696 011f 00       		.byte	0
 2697 0120 19       		.uleb128 0x19
 2698 0121 2E       		.uleb128 0x2e
 2699 0122 00       		.byte	0
 2700 0123 03       		.uleb128 0x3
 2701 0124 0E       		.uleb128 0xe
 2702 0125 3A       		.uleb128 0x3a
 2703 0126 0B       		.uleb128 0xb
 2704 0127 3B       		.uleb128 0x3b
 2705 0128 05       		.uleb128 0x5
 2706 0129 27       		.uleb128 0x27
 2707 012a 0C       		.uleb128 0xc
 2708 012b 20       		.uleb128 0x20
 2709 012c 0B       		.uleb128 0xb
 2710 012d 00       		.byte	0
 2711 012e 00       		.byte	0
 2712 012f 1A       		.uleb128 0x1a
 2713 0130 2E       		.uleb128 0x2e
 2714 0131 01       		.byte	0x1
 2715 0132 03       		.uleb128 0x3
 2716 0133 0E       		.uleb128 0xe
 2717 0134 3A       		.uleb128 0x3a
 2718 0135 0B       		.uleb128 0xb
 2719 0136 3B       		.uleb128 0x3b
 2720 0137 05       		.uleb128 0x5
 2721 0138 27       		.uleb128 0x27
 2722 0139 0C       		.uleb128 0xc
 2723 013a 20       		.uleb128 0x20
 2724 013b 0B       		.uleb128 0xb
 2725 013c 01       		.uleb128 0x1
 2726 013d 13       		.uleb128 0x13
 2727 013e 00       		.byte	0
 2728 013f 00       		.byte	0
 2729 0140 1B       		.uleb128 0x1b
 2730 0141 05       		.uleb128 0x5
 2731 0142 00       		.byte	0
 2732 0143 03       		.uleb128 0x3
 2733 0144 08       		.uleb128 0x8
 2734 0145 3A       		.uleb128 0x3a
 2735 0146 0B       		.uleb128 0xb
 2736 0147 3B       		.uleb128 0x3b
ARM GAS  /tmp/cc1TpdB9.s 			page 49


 2737 0148 05       		.uleb128 0x5
 2738 0149 49       		.uleb128 0x49
 2739 014a 13       		.uleb128 0x13
 2740 014b 00       		.byte	0
 2741 014c 00       		.byte	0
 2742 014d 1C       		.uleb128 0x1c
 2743 014e 2E       		.uleb128 0x2e
 2744 014f 01       		.byte	0x1
 2745 0150 3F       		.uleb128 0x3f
 2746 0151 0C       		.uleb128 0xc
 2747 0152 03       		.uleb128 0x3
 2748 0153 0E       		.uleb128 0xe
 2749 0154 3A       		.uleb128 0x3a
 2750 0155 0B       		.uleb128 0xb
 2751 0156 3B       		.uleb128 0x3b
 2752 0157 0B       		.uleb128 0xb
 2753 0158 27       		.uleb128 0x27
 2754 0159 0C       		.uleb128 0xc
 2755 015a 11       		.uleb128 0x11
 2756 015b 01       		.uleb128 0x1
 2757 015c 12       		.uleb128 0x12
 2758 015d 01       		.uleb128 0x1
 2759 015e 40       		.uleb128 0x40
 2760 015f 06       		.uleb128 0x6
 2761 0160 9742     		.uleb128 0x2117
 2762 0162 0C       		.uleb128 0xc
 2763 0163 01       		.uleb128 0x1
 2764 0164 13       		.uleb128 0x13
 2765 0165 00       		.byte	0
 2766 0166 00       		.byte	0
 2767 0167 1D       		.uleb128 0x1d
 2768 0168 05       		.uleb128 0x5
 2769 0169 00       		.byte	0
 2770 016a 03       		.uleb128 0x3
 2771 016b 08       		.uleb128 0x8
 2772 016c 3A       		.uleb128 0x3a
 2773 016d 0B       		.uleb128 0xb
 2774 016e 3B       		.uleb128 0x3b
 2775 016f 0B       		.uleb128 0xb
 2776 0170 49       		.uleb128 0x49
 2777 0171 13       		.uleb128 0x13
 2778 0172 02       		.uleb128 0x2
 2779 0173 0A       		.uleb128 0xa
 2780 0174 00       		.byte	0
 2781 0175 00       		.byte	0
 2782 0176 1E       		.uleb128 0x1e
 2783 0177 05       		.uleb128 0x5
 2784 0178 00       		.byte	0
 2785 0179 03       		.uleb128 0x3
 2786 017a 08       		.uleb128 0x8
 2787 017b 3A       		.uleb128 0x3a
 2788 017c 0B       		.uleb128 0xb
 2789 017d 3B       		.uleb128 0x3b
 2790 017e 0B       		.uleb128 0xb
 2791 017f 49       		.uleb128 0x49
 2792 0180 13       		.uleb128 0x13
 2793 0181 02       		.uleb128 0x2
ARM GAS  /tmp/cc1TpdB9.s 			page 50


 2794 0182 06       		.uleb128 0x6
 2795 0183 00       		.byte	0
 2796 0184 00       		.byte	0
 2797 0185 1F       		.uleb128 0x1f
 2798 0186 05       		.uleb128 0x5
 2799 0187 00       		.byte	0
 2800 0188 03       		.uleb128 0x3
 2801 0189 0E       		.uleb128 0xe
 2802 018a 3A       		.uleb128 0x3a
 2803 018b 0B       		.uleb128 0xb
 2804 018c 3B       		.uleb128 0x3b
 2805 018d 0B       		.uleb128 0xb
 2806 018e 49       		.uleb128 0x49
 2807 018f 13       		.uleb128 0x13
 2808 0190 02       		.uleb128 0x2
 2809 0191 0A       		.uleb128 0xa
 2810 0192 00       		.byte	0
 2811 0193 00       		.byte	0
 2812 0194 20       		.uleb128 0x20
 2813 0195 05       		.uleb128 0x5
 2814 0196 00       		.byte	0
 2815 0197 03       		.uleb128 0x3
 2816 0198 0E       		.uleb128 0xe
 2817 0199 3A       		.uleb128 0x3a
 2818 019a 0B       		.uleb128 0xb
 2819 019b 3B       		.uleb128 0x3b
 2820 019c 0B       		.uleb128 0xb
 2821 019d 49       		.uleb128 0x49
 2822 019e 13       		.uleb128 0x13
 2823 019f 02       		.uleb128 0x2
 2824 01a0 06       		.uleb128 0x6
 2825 01a1 00       		.byte	0
 2826 01a2 00       		.byte	0
 2827 01a3 21       		.uleb128 0x21
 2828 01a4 1D       		.uleb128 0x1d
 2829 01a5 01       		.byte	0x1
 2830 01a6 31       		.uleb128 0x31
 2831 01a7 13       		.uleb128 0x13
 2832 01a8 52       		.uleb128 0x52
 2833 01a9 01       		.uleb128 0x1
 2834 01aa 55       		.uleb128 0x55
 2835 01ab 06       		.uleb128 0x6
 2836 01ac 58       		.uleb128 0x58
 2837 01ad 0B       		.uleb128 0xb
 2838 01ae 59       		.uleb128 0x59
 2839 01af 0B       		.uleb128 0xb
 2840 01b0 00       		.byte	0
 2841 01b1 00       		.byte	0
 2842 01b2 22       		.uleb128 0x22
 2843 01b3 05       		.uleb128 0x5
 2844 01b4 00       		.byte	0
 2845 01b5 31       		.uleb128 0x31
 2846 01b6 13       		.uleb128 0x13
 2847 01b7 02       		.uleb128 0x2
 2848 01b8 0A       		.uleb128 0xa
 2849 01b9 00       		.byte	0
 2850 01ba 00       		.byte	0
ARM GAS  /tmp/cc1TpdB9.s 			page 51


 2851 01bb 23       		.uleb128 0x23
 2852 01bc 898201   		.uleb128 0x4109
 2853 01bf 01       		.byte	0x1
 2854 01c0 11       		.uleb128 0x11
 2855 01c1 01       		.uleb128 0x1
 2856 01c2 31       		.uleb128 0x31
 2857 01c3 13       		.uleb128 0x13
 2858 01c4 00       		.byte	0
 2859 01c5 00       		.byte	0
 2860 01c6 24       		.uleb128 0x24
 2861 01c7 8A8201   		.uleb128 0x410a
 2862 01ca 00       		.byte	0
 2863 01cb 02       		.uleb128 0x2
 2864 01cc 0A       		.uleb128 0xa
 2865 01cd 9142     		.uleb128 0x2111
 2866 01cf 0A       		.uleb128 0xa
 2867 01d0 00       		.byte	0
 2868 01d1 00       		.byte	0
 2869 01d2 25       		.uleb128 0x25
 2870 01d3 2E       		.uleb128 0x2e
 2871 01d4 01       		.byte	0x1
 2872 01d5 3F       		.uleb128 0x3f
 2873 01d6 0C       		.uleb128 0xc
 2874 01d7 03       		.uleb128 0x3
 2875 01d8 0E       		.uleb128 0xe
 2876 01d9 3A       		.uleb128 0x3a
 2877 01da 0B       		.uleb128 0xb
 2878 01db 3B       		.uleb128 0x3b
 2879 01dc 0B       		.uleb128 0xb
 2880 01dd 27       		.uleb128 0x27
 2881 01de 0C       		.uleb128 0xc
 2882 01df 49       		.uleb128 0x49
 2883 01e0 13       		.uleb128 0x13
 2884 01e1 11       		.uleb128 0x11
 2885 01e2 01       		.uleb128 0x1
 2886 01e3 12       		.uleb128 0x12
 2887 01e4 01       		.uleb128 0x1
 2888 01e5 40       		.uleb128 0x40
 2889 01e6 06       		.uleb128 0x6
 2890 01e7 9742     		.uleb128 0x2117
 2891 01e9 0C       		.uleb128 0xc
 2892 01ea 01       		.uleb128 0x1
 2893 01eb 13       		.uleb128 0x13
 2894 01ec 00       		.byte	0
 2895 01ed 00       		.byte	0
 2896 01ee 26       		.uleb128 0x26
 2897 01ef 2E       		.uleb128 0x2e
 2898 01f0 01       		.byte	0x1
 2899 01f1 03       		.uleb128 0x3
 2900 01f2 0E       		.uleb128 0xe
 2901 01f3 3A       		.uleb128 0x3a
 2902 01f4 0B       		.uleb128 0xb
 2903 01f5 3B       		.uleb128 0x3b
 2904 01f6 05       		.uleb128 0x5
 2905 01f7 27       		.uleb128 0x27
 2906 01f8 0C       		.uleb128 0xc
 2907 01f9 49       		.uleb128 0x49
ARM GAS  /tmp/cc1TpdB9.s 			page 52


 2908 01fa 13       		.uleb128 0x13
 2909 01fb 20       		.uleb128 0x20
 2910 01fc 0B       		.uleb128 0xb
 2911 01fd 01       		.uleb128 0x1
 2912 01fe 13       		.uleb128 0x13
 2913 01ff 00       		.byte	0
 2914 0200 00       		.byte	0
 2915 0201 27       		.uleb128 0x27
 2916 0202 05       		.uleb128 0x5
 2917 0203 00       		.byte	0
 2918 0204 03       		.uleb128 0x3
 2919 0205 0E       		.uleb128 0xe
 2920 0206 3A       		.uleb128 0x3a
 2921 0207 0B       		.uleb128 0xb
 2922 0208 3B       		.uleb128 0x3b
 2923 0209 05       		.uleb128 0x5
 2924 020a 49       		.uleb128 0x49
 2925 020b 13       		.uleb128 0x13
 2926 020c 00       		.byte	0
 2927 020d 00       		.byte	0
 2928 020e 28       		.uleb128 0x28
 2929 020f 34       		.uleb128 0x34
 2930 0210 00       		.byte	0
 2931 0211 03       		.uleb128 0x3
 2932 0212 08       		.uleb128 0x8
 2933 0213 3A       		.uleb128 0x3a
 2934 0214 0B       		.uleb128 0xb
 2935 0215 3B       		.uleb128 0x3b
 2936 0216 0B       		.uleb128 0xb
 2937 0217 49       		.uleb128 0x49
 2938 0218 13       		.uleb128 0x13
 2939 0219 02       		.uleb128 0x2
 2940 021a 06       		.uleb128 0x6
 2941 021b 00       		.byte	0
 2942 021c 00       		.byte	0
 2943 021d 29       		.uleb128 0x29
 2944 021e 1D       		.uleb128 0x1d
 2945 021f 01       		.byte	0x1
 2946 0220 31       		.uleb128 0x31
 2947 0221 13       		.uleb128 0x13
 2948 0222 11       		.uleb128 0x11
 2949 0223 01       		.uleb128 0x1
 2950 0224 12       		.uleb128 0x12
 2951 0225 01       		.uleb128 0x1
 2952 0226 58       		.uleb128 0x58
 2953 0227 0B       		.uleb128 0xb
 2954 0228 59       		.uleb128 0x59
 2955 0229 0B       		.uleb128 0xb
 2956 022a 01       		.uleb128 0x1
 2957 022b 13       		.uleb128 0x13
 2958 022c 00       		.byte	0
 2959 022d 00       		.byte	0
 2960 022e 2A       		.uleb128 0x2a
 2961 022f 1D       		.uleb128 0x1d
 2962 0230 01       		.byte	0x1
 2963 0231 31       		.uleb128 0x31
 2964 0232 13       		.uleb128 0x13
ARM GAS  /tmp/cc1TpdB9.s 			page 53


 2965 0233 11       		.uleb128 0x11
 2966 0234 01       		.uleb128 0x1
 2967 0235 12       		.uleb128 0x12
 2968 0236 01       		.uleb128 0x1
 2969 0237 58       		.uleb128 0x58
 2970 0238 0B       		.uleb128 0xb
 2971 0239 59       		.uleb128 0x59
 2972 023a 05       		.uleb128 0x5
 2973 023b 00       		.byte	0
 2974 023c 00       		.byte	0
 2975 023d 2B       		.uleb128 0x2b
 2976 023e 1D       		.uleb128 0x1d
 2977 023f 00       		.byte	0
 2978 0240 31       		.uleb128 0x31
 2979 0241 13       		.uleb128 0x13
 2980 0242 11       		.uleb128 0x11
 2981 0243 01       		.uleb128 0x1
 2982 0244 12       		.uleb128 0x12
 2983 0245 01       		.uleb128 0x1
 2984 0246 58       		.uleb128 0x58
 2985 0247 0B       		.uleb128 0xb
 2986 0248 59       		.uleb128 0x59
 2987 0249 05       		.uleb128 0x5
 2988 024a 00       		.byte	0
 2989 024b 00       		.byte	0
 2990 024c 2C       		.uleb128 0x2c
 2991 024d 0B       		.uleb128 0xb
 2992 024e 01       		.byte	0x1
 2993 024f 11       		.uleb128 0x11
 2994 0250 01       		.uleb128 0x1
 2995 0251 12       		.uleb128 0x12
 2996 0252 01       		.uleb128 0x1
 2997 0253 01       		.uleb128 0x1
 2998 0254 13       		.uleb128 0x13
 2999 0255 00       		.byte	0
 3000 0256 00       		.byte	0
 3001 0257 2D       		.uleb128 0x2d
 3002 0258 34       		.uleb128 0x34
 3003 0259 00       		.byte	0
 3004 025a 03       		.uleb128 0x3
 3005 025b 08       		.uleb128 0x8
 3006 025c 3A       		.uleb128 0x3a
 3007 025d 0B       		.uleb128 0xb
 3008 025e 3B       		.uleb128 0x3b
 3009 025f 0B       		.uleb128 0xb
 3010 0260 49       		.uleb128 0x49
 3011 0261 13       		.uleb128 0x13
 3012 0262 02       		.uleb128 0x2
 3013 0263 0A       		.uleb128 0xa
 3014 0264 00       		.byte	0
 3015 0265 00       		.byte	0
 3016 0266 2E       		.uleb128 0x2e
 3017 0267 1D       		.uleb128 0x1d
 3018 0268 01       		.byte	0x1
 3019 0269 31       		.uleb128 0x31
 3020 026a 13       		.uleb128 0x13
 3021 026b 11       		.uleb128 0x11
ARM GAS  /tmp/cc1TpdB9.s 			page 54


 3022 026c 01       		.uleb128 0x1
 3023 026d 12       		.uleb128 0x12
 3024 026e 01       		.uleb128 0x1
 3025 026f 58       		.uleb128 0x58
 3026 0270 0B       		.uleb128 0xb
 3027 0271 59       		.uleb128 0x59
 3028 0272 0B       		.uleb128 0xb
 3029 0273 00       		.byte	0
 3030 0274 00       		.byte	0
 3031 0275 2F       		.uleb128 0x2f
 3032 0276 05       		.uleb128 0x5
 3033 0277 00       		.byte	0
 3034 0278 31       		.uleb128 0x31
 3035 0279 13       		.uleb128 0x13
 3036 027a 02       		.uleb128 0x2
 3037 027b 06       		.uleb128 0x6
 3038 027c 00       		.byte	0
 3039 027d 00       		.byte	0
 3040 027e 30       		.uleb128 0x30
 3041 027f 898201   		.uleb128 0x4109
 3042 0282 01       		.byte	0x1
 3043 0283 11       		.uleb128 0x11
 3044 0284 01       		.uleb128 0x1
 3045 0285 00       		.byte	0
 3046 0286 00       		.byte	0
 3047 0287 31       		.uleb128 0x31
 3048 0288 2E       		.uleb128 0x2e
 3049 0289 01       		.byte	0x1
 3050 028a 3F       		.uleb128 0x3f
 3051 028b 0C       		.uleb128 0xc
 3052 028c 03       		.uleb128 0x3
 3053 028d 0E       		.uleb128 0xe
 3054 028e 3A       		.uleb128 0x3a
 3055 028f 0B       		.uleb128 0xb
 3056 0290 3B       		.uleb128 0x3b
 3057 0291 05       		.uleb128 0x5
 3058 0292 27       		.uleb128 0x27
 3059 0293 0C       		.uleb128 0xc
 3060 0294 11       		.uleb128 0x11
 3061 0295 01       		.uleb128 0x1
 3062 0296 12       		.uleb128 0x12
 3063 0297 01       		.uleb128 0x1
 3064 0298 40       		.uleb128 0x40
 3065 0299 06       		.uleb128 0x6
 3066 029a 9742     		.uleb128 0x2117
 3067 029c 0C       		.uleb128 0xc
 3068 029d 01       		.uleb128 0x1
 3069 029e 13       		.uleb128 0x13
 3070 029f 00       		.byte	0
 3071 02a0 00       		.byte	0
 3072 02a1 32       		.uleb128 0x32
 3073 02a2 05       		.uleb128 0x5
 3074 02a3 00       		.byte	0
 3075 02a4 03       		.uleb128 0x3
 3076 02a5 08       		.uleb128 0x8
 3077 02a6 3A       		.uleb128 0x3a
 3078 02a7 0B       		.uleb128 0xb
ARM GAS  /tmp/cc1TpdB9.s 			page 55


 3079 02a8 3B       		.uleb128 0x3b
 3080 02a9 05       		.uleb128 0x5
 3081 02aa 49       		.uleb128 0x49
 3082 02ab 13       		.uleb128 0x13
 3083 02ac 02       		.uleb128 0x2
 3084 02ad 06       		.uleb128 0x6
 3085 02ae 00       		.byte	0
 3086 02af 00       		.byte	0
 3087 02b0 33       		.uleb128 0x33
 3088 02b1 2E       		.uleb128 0x2e
 3089 02b2 01       		.byte	0x1
 3090 02b3 3F       		.uleb128 0x3f
 3091 02b4 0C       		.uleb128 0xc
 3092 02b5 03       		.uleb128 0x3
 3093 02b6 0E       		.uleb128 0xe
 3094 02b7 3A       		.uleb128 0x3a
 3095 02b8 0B       		.uleb128 0xb
 3096 02b9 3B       		.uleb128 0x3b
 3097 02ba 05       		.uleb128 0x5
 3098 02bb 27       		.uleb128 0x27
 3099 02bc 0C       		.uleb128 0xc
 3100 02bd 49       		.uleb128 0x49
 3101 02be 13       		.uleb128 0x13
 3102 02bf 11       		.uleb128 0x11
 3103 02c0 01       		.uleb128 0x1
 3104 02c1 12       		.uleb128 0x12
 3105 02c2 01       		.uleb128 0x1
 3106 02c3 40       		.uleb128 0x40
 3107 02c4 06       		.uleb128 0x6
 3108 02c5 9742     		.uleb128 0x2117
 3109 02c7 0C       		.uleb128 0xc
 3110 02c8 01       		.uleb128 0x1
 3111 02c9 13       		.uleb128 0x13
 3112 02ca 00       		.byte	0
 3113 02cb 00       		.byte	0
 3114 02cc 34       		.uleb128 0x34
 3115 02cd 05       		.uleb128 0x5
 3116 02ce 00       		.byte	0
 3117 02cf 03       		.uleb128 0x3
 3118 02d0 0E       		.uleb128 0xe
 3119 02d1 3A       		.uleb128 0x3a
 3120 02d2 0B       		.uleb128 0xb
 3121 02d3 3B       		.uleb128 0x3b
 3122 02d4 05       		.uleb128 0x5
 3123 02d5 49       		.uleb128 0x49
 3124 02d6 13       		.uleb128 0x13
 3125 02d7 02       		.uleb128 0x2
 3126 02d8 06       		.uleb128 0x6
 3127 02d9 00       		.byte	0
 3128 02da 00       		.byte	0
 3129 02db 35       		.uleb128 0x35
 3130 02dc 1D       		.uleb128 0x1d
 3131 02dd 01       		.byte	0x1
 3132 02de 31       		.uleb128 0x31
 3133 02df 13       		.uleb128 0x13
 3134 02e0 11       		.uleb128 0x11
 3135 02e1 01       		.uleb128 0x1
ARM GAS  /tmp/cc1TpdB9.s 			page 56


 3136 02e2 12       		.uleb128 0x12
 3137 02e3 01       		.uleb128 0x1
 3138 02e4 58       		.uleb128 0x58
 3139 02e5 0B       		.uleb128 0xb
 3140 02e6 59       		.uleb128 0x59
 3141 02e7 05       		.uleb128 0x5
 3142 02e8 01       		.uleb128 0x1
 3143 02e9 13       		.uleb128 0x13
 3144 02ea 00       		.byte	0
 3145 02eb 00       		.byte	0
 3146 02ec 36       		.uleb128 0x36
 3147 02ed 34       		.uleb128 0x34
 3148 02ee 00       		.byte	0
 3149 02ef 03       		.uleb128 0x3
 3150 02f0 08       		.uleb128 0x8
 3151 02f1 3A       		.uleb128 0x3a
 3152 02f2 0B       		.uleb128 0xb
 3153 02f3 3B       		.uleb128 0x3b
 3154 02f4 05       		.uleb128 0x5
 3155 02f5 49       		.uleb128 0x49
 3156 02f6 13       		.uleb128 0x13
 3157 02f7 02       		.uleb128 0x2
 3158 02f8 0A       		.uleb128 0xa
 3159 02f9 00       		.byte	0
 3160 02fa 00       		.byte	0
 3161 02fb 37       		.uleb128 0x37
 3162 02fc 898201   		.uleb128 0x4109
 3163 02ff 01       		.byte	0x1
 3164 0300 11       		.uleb128 0x11
 3165 0301 01       		.uleb128 0x1
 3166 0302 9342     		.uleb128 0x2113
 3167 0304 0A       		.uleb128 0xa
 3168 0305 00       		.byte	0
 3169 0306 00       		.byte	0
 3170 0307 38       		.uleb128 0x38
 3171 0308 34       		.uleb128 0x34
 3172 0309 00       		.byte	0
 3173 030a 03       		.uleb128 0x3
 3174 030b 08       		.uleb128 0x8
 3175 030c 3A       		.uleb128 0x3a
 3176 030d 0B       		.uleb128 0xb
 3177 030e 3B       		.uleb128 0x3b
 3178 030f 05       		.uleb128 0x5
 3179 0310 49       		.uleb128 0x49
 3180 0311 13       		.uleb128 0x13
 3181 0312 02       		.uleb128 0x2
 3182 0313 06       		.uleb128 0x6
 3183 0314 00       		.byte	0
 3184 0315 00       		.byte	0
 3185 0316 39       		.uleb128 0x39
 3186 0317 34       		.uleb128 0x34
 3187 0318 00       		.byte	0
 3188 0319 03       		.uleb128 0x3
 3189 031a 08       		.uleb128 0x8
 3190 031b 3A       		.uleb128 0x3a
 3191 031c 0B       		.uleb128 0xb
 3192 031d 3B       		.uleb128 0x3b
ARM GAS  /tmp/cc1TpdB9.s 			page 57


 3193 031e 05       		.uleb128 0x5
 3194 031f 49       		.uleb128 0x49
 3195 0320 13       		.uleb128 0x13
 3196 0321 3F       		.uleb128 0x3f
 3197 0322 0C       		.uleb128 0xc
 3198 0323 3C       		.uleb128 0x3c
 3199 0324 0C       		.uleb128 0xc
 3200 0325 00       		.byte	0
 3201 0326 00       		.byte	0
 3202 0327 3A       		.uleb128 0x3a
 3203 0328 2E       		.uleb128 0x2e
 3204 0329 01       		.byte	0x1
 3205 032a 3F       		.uleb128 0x3f
 3206 032b 0C       		.uleb128 0xc
 3207 032c 03       		.uleb128 0x3
 3208 032d 0E       		.uleb128 0xe
 3209 032e 3A       		.uleb128 0x3a
 3210 032f 0B       		.uleb128 0xb
 3211 0330 3B       		.uleb128 0x3b
 3212 0331 05       		.uleb128 0x5
 3213 0332 27       		.uleb128 0x27
 3214 0333 0C       		.uleb128 0xc
 3215 0334 3C       		.uleb128 0x3c
 3216 0335 0C       		.uleb128 0xc
 3217 0336 01       		.uleb128 0x1
 3218 0337 13       		.uleb128 0x13
 3219 0338 00       		.byte	0
 3220 0339 00       		.byte	0
 3221 033a 3B       		.uleb128 0x3b
 3222 033b 2E       		.uleb128 0x2e
 3223 033c 01       		.byte	0x1
 3224 033d 3F       		.uleb128 0x3f
 3225 033e 0C       		.uleb128 0xc
 3226 033f 03       		.uleb128 0x3
 3227 0340 0E       		.uleb128 0xe
 3228 0341 3A       		.uleb128 0x3a
 3229 0342 0B       		.uleb128 0xb
 3230 0343 3B       		.uleb128 0x3b
 3231 0344 05       		.uleb128 0x5
 3232 0345 27       		.uleb128 0x27
 3233 0346 0C       		.uleb128 0xc
 3234 0347 49       		.uleb128 0x49
 3235 0348 13       		.uleb128 0x13
 3236 0349 3C       		.uleb128 0x3c
 3237 034a 0C       		.uleb128 0xc
 3238 034b 00       		.byte	0
 3239 034c 00       		.byte	0
 3240 034d 00       		.byte	0
 3241              		.section	.debug_loc,"",%progbits
 3242              	.Ldebug_loc0:
 3243              	.LLST0:
 3244 0000 00000000 		.4byte	.LFB77
 3245 0004 02000000 		.4byte	.LCFI0
 3246 0008 0200     		.2byte	0x2
 3247 000a 7D       		.byte	0x7d
 3248 000b 00       		.sleb128 0
 3249 000c 02000000 		.4byte	.LCFI0
ARM GAS  /tmp/cc1TpdB9.s 			page 58


 3250 0010 1A000000 		.4byte	.LFE77
 3251 0014 0200     		.2byte	0x2
 3252 0016 7D       		.byte	0x7d
 3253 0017 08       		.sleb128 8
 3254 0018 00000000 		.4byte	0
 3255 001c 00000000 		.4byte	0
 3256              	.LLST1:
 3257 0020 00000000 		.4byte	.LVL0
 3258 0024 10000000 		.4byte	.LVL2
 3259 0028 0100     		.2byte	0x1
 3260 002a 51       		.byte	0x51
 3261 002b 10000000 		.4byte	.LVL2
 3262 002f 1A000000 		.4byte	.LFE77
 3263 0033 0200     		.2byte	0x2
 3264 0035 70       		.byte	0x70
 3265 0036 10       		.sleb128 16
 3266 0037 00000000 		.4byte	0
 3267 003b 00000000 		.4byte	0
 3268              	.LLST2:
 3269 003f 00000000 		.4byte	.LVL0
 3270 0043 06000000 		.4byte	.LVL1
 3271 0047 0100     		.2byte	0x1
 3272 0049 53       		.byte	0x53
 3273 004a 06000000 		.4byte	.LVL1
 3274 004e 1A000000 		.4byte	.LFE77
 3275 0052 0200     		.2byte	0x2
 3276 0054 70       		.byte	0x70
 3277 0055 18       		.sleb128 24
 3278 0056 00000000 		.4byte	0
 3279 005a 00000000 		.4byte	0
 3280              	.LLST3:
 3281 005e 00000000 		.4byte	.LFB78
 3282 0062 02000000 		.4byte	.LCFI1
 3283 0066 0200     		.2byte	0x2
 3284 0068 7D       		.byte	0x7d
 3285 0069 00       		.sleb128 0
 3286 006a 02000000 		.4byte	.LCFI1
 3287 006e 16000000 		.4byte	.LFE78
 3288 0072 0200     		.2byte	0x2
 3289 0074 7D       		.byte	0x7d
 3290 0075 08       		.sleb128 8
 3291 0076 00000000 		.4byte	0
 3292 007a 00000000 		.4byte	0
 3293              	.LLST4:
 3294 007e 00000000 		.4byte	.LVL3
 3295 0082 13000000 		.4byte	.LVL4-1
 3296 0086 0100     		.2byte	0x1
 3297 0088 50       		.byte	0x50
 3298 0089 13000000 		.4byte	.LVL4-1
 3299 008d 16000000 		.4byte	.LFE78
 3300 0091 0400     		.2byte	0x4
 3301 0093 F3       		.byte	0xf3
 3302 0094 01       		.uleb128 0x1
 3303 0095 50       		.byte	0x50
 3304 0096 9F       		.byte	0x9f
 3305 0097 00000000 		.4byte	0
 3306 009b 00000000 		.4byte	0
ARM GAS  /tmp/cc1TpdB9.s 			page 59


 3307              	.LLST5:
 3308 009f 00000000 		.4byte	.LFB79
 3309 00a3 02000000 		.4byte	.LCFI2
 3310 00a7 0200     		.2byte	0x2
 3311 00a9 7D       		.byte	0x7d
 3312 00aa 00       		.sleb128 0
 3313 00ab 02000000 		.4byte	.LCFI2
 3314 00af 3C000000 		.4byte	.LFE79
 3315 00b3 0200     		.2byte	0x2
 3316 00b5 7D       		.byte	0x7d
 3317 00b6 08       		.sleb128 8
 3318 00b7 00000000 		.4byte	0
 3319 00bb 00000000 		.4byte	0
 3320              	.LLST6:
 3321 00bf 00000000 		.4byte	.LVL5
 3322 00c3 31000000 		.4byte	.LVL8-1
 3323 00c7 0100     		.2byte	0x1
 3324 00c9 50       		.byte	0x50
 3325 00ca 31000000 		.4byte	.LVL8-1
 3326 00ce 36000000 		.4byte	.LVL9
 3327 00d2 0400     		.2byte	0x4
 3328 00d4 F3       		.byte	0xf3
 3329 00d5 01       		.uleb128 0x1
 3330 00d6 50       		.byte	0x50
 3331 00d7 9F       		.byte	0x9f
 3332 00d8 36000000 		.4byte	.LVL9
 3333 00dc 38000000 		.4byte	.LVL10
 3334 00e0 0100     		.2byte	0x1
 3335 00e2 50       		.byte	0x50
 3336 00e3 38000000 		.4byte	.LVL10
 3337 00e7 3C000000 		.4byte	.LFE79
 3338 00eb 0400     		.2byte	0x4
 3339 00ed F3       		.byte	0xf3
 3340 00ee 01       		.uleb128 0x1
 3341 00ef 50       		.byte	0x50
 3342 00f0 9F       		.byte	0x9f
 3343 00f1 00000000 		.4byte	0
 3344 00f5 00000000 		.4byte	0
 3345              	.LLST7:
 3346 00f9 00000000 		.4byte	.LVL5
 3347 00fd 20000000 		.4byte	.LVL6
 3348 0101 0100     		.2byte	0x1
 3349 0103 51       		.byte	0x51
 3350 0104 20000000 		.4byte	.LVL6
 3351 0108 22000000 		.4byte	.LVL7
 3352 010c 0200     		.2byte	0x2
 3353 010e 73       		.byte	0x73
 3354 010f 00       		.sleb128 0
 3355 0110 22000000 		.4byte	.LVL7
 3356 0114 31000000 		.4byte	.LVL8-1
 3357 0118 0300     		.2byte	0x3
 3358 011a 70       		.byte	0x70
 3359 011b 10       		.sleb128 16
 3360 011c 06       		.byte	0x6
 3361 011d 31000000 		.4byte	.LVL8-1
 3362 0121 36000000 		.4byte	.LVL9
 3363 0125 0400     		.2byte	0x4
ARM GAS  /tmp/cc1TpdB9.s 			page 60


 3364 0127 F3       		.byte	0xf3
 3365 0128 01       		.uleb128 0x1
 3366 0129 51       		.byte	0x51
 3367 012a 9F       		.byte	0x9f
 3368 012b 36000000 		.4byte	.LVL9
 3369 012f 3A000000 		.4byte	.LVL11
 3370 0133 0100     		.2byte	0x1
 3371 0135 51       		.byte	0x51
 3372 0136 3A000000 		.4byte	.LVL11
 3373 013a 3C000000 		.4byte	.LFE79
 3374 013e 0400     		.2byte	0x4
 3375 0140 F3       		.byte	0xf3
 3376 0141 01       		.uleb128 0x1
 3377 0142 51       		.byte	0x51
 3378 0143 9F       		.byte	0x9f
 3379 0144 00000000 		.4byte	0
 3380 0148 00000000 		.4byte	0
 3381              	.LLST8:
 3382 014c 00000000 		.4byte	.LFB80
 3383 0150 02000000 		.4byte	.LCFI3
 3384 0154 0200     		.2byte	0x2
 3385 0156 7D       		.byte	0x7d
 3386 0157 00       		.sleb128 0
 3387 0158 02000000 		.4byte	.LCFI3
 3388 015c 3E000000 		.4byte	.LFE80
 3389 0160 0200     		.2byte	0x2
 3390 0162 7D       		.byte	0x7d
 3391 0163 10       		.sleb128 16
 3392 0164 00000000 		.4byte	0
 3393 0168 00000000 		.4byte	0
 3394              	.LLST9:
 3395 016c 00000000 		.4byte	.LVL12
 3396 0170 0F000000 		.4byte	.LVL13-1
 3397 0174 0100     		.2byte	0x1
 3398 0176 50       		.byte	0x50
 3399 0177 0F000000 		.4byte	.LVL13-1
 3400 017b 3C000000 		.4byte	.LVL20
 3401 017f 0100     		.2byte	0x1
 3402 0181 54       		.byte	0x54
 3403 0182 3C000000 		.4byte	.LVL20
 3404 0186 3E000000 		.4byte	.LFE80
 3405 018a 0400     		.2byte	0x4
 3406 018c F3       		.byte	0xf3
 3407 018d 01       		.uleb128 0x1
 3408 018e 50       		.byte	0x50
 3409 018f 9F       		.byte	0x9f
 3410 0190 00000000 		.4byte	0
 3411 0194 00000000 		.4byte	0
 3412              	.LLST10:
 3413 0198 00000000 		.4byte	.LVL12
 3414 019c 0F000000 		.4byte	.LVL13-1
 3415 01a0 0100     		.2byte	0x1
 3416 01a2 51       		.byte	0x51
 3417 01a3 0F000000 		.4byte	.LVL13-1
 3418 01a7 3E000000 		.4byte	.LFE80
 3419 01ab 0400     		.2byte	0x4
 3420 01ad F3       		.byte	0xf3
ARM GAS  /tmp/cc1TpdB9.s 			page 61


 3421 01ae 01       		.uleb128 0x1
 3422 01af 51       		.byte	0x51
 3423 01b0 9F       		.byte	0x9f
 3424 01b1 00000000 		.4byte	0
 3425 01b5 00000000 		.4byte	0
 3426              	.LLST11:
 3427 01b9 2E000000 		.4byte	.LVL17
 3428 01bd 30000000 		.4byte	.LVL18
 3429 01c1 0200     		.2byte	0x2
 3430 01c3 71       		.byte	0x71
 3431 01c4 00       		.sleb128 0
 3432 01c5 30000000 		.4byte	.LVL18
 3433 01c9 3A000000 		.4byte	.LVL19
 3434 01cd 0300     		.2byte	0x3
 3435 01cf 74       		.byte	0x74
 3436 01d0 14       		.sleb128 20
 3437 01d1 06       		.byte	0x6
 3438 01d2 00000000 		.4byte	0
 3439 01d6 00000000 		.4byte	0
 3440              	.LLST12:
 3441 01da 12000000 		.4byte	.LVL14
 3442 01de 1E000000 		.4byte	.LVL16
 3443 01e2 0100     		.2byte	0x1
 3444 01e4 55       		.byte	0x55
 3445 01e5 00000000 		.4byte	0
 3446 01e9 00000000 		.4byte	0
 3447              	.LLST13:
 3448 01ed 12000000 		.4byte	.LVL14
 3449 01f1 1E000000 		.4byte	.LVL16
 3450 01f5 0100     		.2byte	0x1
 3451 01f7 54       		.byte	0x54
 3452 01f8 00000000 		.4byte	0
 3453 01fc 00000000 		.4byte	0
 3454              	.LLST14:
 3455 0200 00000000 		.4byte	.LFB81
 3456 0204 02000000 		.4byte	.LCFI4
 3457 0208 0200     		.2byte	0x2
 3458 020a 7D       		.byte	0x7d
 3459 020b 00       		.sleb128 0
 3460 020c 02000000 		.4byte	.LCFI4
 3461 0210 58000000 		.4byte	.LFE81
 3462 0214 0200     		.2byte	0x2
 3463 0216 7D       		.byte	0x7d
 3464 0217 20       		.sleb128 32
 3465 0218 00000000 		.4byte	0
 3466 021c 00000000 		.4byte	0
 3467              	.LLST15:
 3468 0220 00000000 		.4byte	.LVL21
 3469 0224 10000000 		.4byte	.LVL23
 3470 0228 0100     		.2byte	0x1
 3471 022a 50       		.byte	0x50
 3472 022b 10000000 		.4byte	.LVL23
 3473 022f 56000000 		.4byte	.LVL29
 3474 0233 0100     		.2byte	0x1
 3475 0235 54       		.byte	0x54
 3476 0236 56000000 		.4byte	.LVL29
 3477 023a 58000000 		.4byte	.LFE81
ARM GAS  /tmp/cc1TpdB9.s 			page 62


 3478 023e 0400     		.2byte	0x4
 3479 0240 F3       		.byte	0xf3
 3480 0241 01       		.uleb128 0x1
 3481 0242 50       		.byte	0x50
 3482 0243 9F       		.byte	0x9f
 3483 0244 00000000 		.4byte	0
 3484 0248 00000000 		.4byte	0
 3485              	.LLST16:
 3486 024c 00000000 		.4byte	.LVL21
 3487 0250 10000000 		.4byte	.LVL23
 3488 0254 0100     		.2byte	0x1
 3489 0256 51       		.byte	0x51
 3490 0257 00000000 		.4byte	0
 3491 025b 00000000 		.4byte	0
 3492              	.LLST17:
 3493 025f 00000000 		.4byte	.LVL21
 3494 0263 10000000 		.4byte	.LVL23
 3495 0267 0100     		.2byte	0x1
 3496 0269 52       		.byte	0x52
 3497 026a 00000000 		.4byte	0
 3498 026e 00000000 		.4byte	0
 3499              	.LLST18:
 3500 0272 00000000 		.4byte	.LVL21
 3501 0276 10000000 		.4byte	.LVL23
 3502 027a 0100     		.2byte	0x1
 3503 027c 53       		.byte	0x53
 3504 027d 10000000 		.4byte	.LVL23
 3505 0281 58000000 		.4byte	.LFE81
 3506 0285 0400     		.2byte	0x4
 3507 0287 F3       		.byte	0xf3
 3508 0288 01       		.uleb128 0x1
 3509 0289 53       		.byte	0x53
 3510 028a 9F       		.byte	0x9f
 3511 028b 00000000 		.4byte	0
 3512 028f 00000000 		.4byte	0
 3513              	.LLST19:
 3514 0293 0C000000 		.4byte	.LVL22
 3515 0297 56000000 		.4byte	.LVL31
 3516 029b 0100     		.2byte	0x1
 3517 029d 56       		.byte	0x56
 3518 029e 00000000 		.4byte	0
 3519 02a2 00000000 		.4byte	0
 3520              	.LLST20:
 3521 02a6 0C000000 		.4byte	.LVL22
 3522 02aa 10000000 		.4byte	.LVL23
 3523 02ae 0200     		.2byte	0x2
 3524 02b0 30       		.byte	0x30
 3525 02b1 9F       		.byte	0x9f
 3526 02b2 10000000 		.4byte	.LVL23
 3527 02b6 56000000 		.4byte	.LVL30
 3528 02ba 0100     		.2byte	0x1
 3529 02bc 55       		.byte	0x55
 3530 02bd 56000000 		.4byte	.LVL30
 3531 02c1 58000000 		.4byte	.LFE81
 3532 02c5 0100     		.2byte	0x1
 3533 02c7 50       		.byte	0x50
 3534 02c8 00000000 		.4byte	0
ARM GAS  /tmp/cc1TpdB9.s 			page 63


 3535 02cc 00000000 		.4byte	0
 3536              	.LLST21:
 3537 02d0 1E000000 		.4byte	.LVL25
 3538 02d4 2E000000 		.4byte	.LVL27
 3539 02d8 0200     		.2byte	0x2
 3540 02da 91       		.byte	0x91
 3541 02db 64       		.sleb128 -28
 3542 02dc 00000000 		.4byte	0
 3543 02e0 00000000 		.4byte	0
 3544              	.LLST22:
 3545 02e4 1E000000 		.4byte	.LVL25
 3546 02e8 2E000000 		.4byte	.LVL27
 3547 02ec 0100     		.2byte	0x1
 3548 02ee 54       		.byte	0x54
 3549 02ef 00000000 		.4byte	0
 3550 02f3 00000000 		.4byte	0
 3551              	.LLST23:
 3552 02f7 00000000 		.4byte	.LFB82
 3553 02fb 02000000 		.4byte	.LCFI5
 3554 02ff 0200     		.2byte	0x2
 3555 0301 7D       		.byte	0x7d
 3556 0302 00       		.sleb128 0
 3557 0303 02000000 		.4byte	.LCFI5
 3558 0307 1A000000 		.4byte	.LFE82
 3559 030b 0200     		.2byte	0x2
 3560 030d 7D       		.byte	0x7d
 3561 030e 08       		.sleb128 8
 3562 030f 00000000 		.4byte	0
 3563 0313 00000000 		.4byte	0
 3564              	.LLST24:
 3565 0317 00000000 		.4byte	.LVL32
 3566 031b 10000000 		.4byte	.LVL34
 3567 031f 0100     		.2byte	0x1
 3568 0321 51       		.byte	0x51
 3569 0322 10000000 		.4byte	.LVL34
 3570 0326 1A000000 		.4byte	.LFE82
 3571 032a 0200     		.2byte	0x2
 3572 032c 70       		.byte	0x70
 3573 032d 10       		.sleb128 16
 3574 032e 00000000 		.4byte	0
 3575 0332 00000000 		.4byte	0
 3576              	.LLST25:
 3577 0336 00000000 		.4byte	.LVL32
 3578 033a 06000000 		.4byte	.LVL33
 3579 033e 0100     		.2byte	0x1
 3580 0340 53       		.byte	0x53
 3581 0341 06000000 		.4byte	.LVL33
 3582 0345 1A000000 		.4byte	.LFE82
 3583 0349 0200     		.2byte	0x2
 3584 034b 70       		.byte	0x70
 3585 034c 18       		.sleb128 24
 3586 034d 00000000 		.4byte	0
 3587 0351 00000000 		.4byte	0
 3588              	.LLST26:
 3589 0355 00000000 		.4byte	.LFB83
 3590 0359 02000000 		.4byte	.LCFI6
 3591 035d 0200     		.2byte	0x2
ARM GAS  /tmp/cc1TpdB9.s 			page 64


 3592 035f 7D       		.byte	0x7d
 3593 0360 00       		.sleb128 0
 3594 0361 02000000 		.4byte	.LCFI6
 3595 0365 18000000 		.4byte	.LFE83
 3596 0369 0200     		.2byte	0x2
 3597 036b 7D       		.byte	0x7d
 3598 036c 08       		.sleb128 8
 3599 036d 00000000 		.4byte	0
 3600 0371 00000000 		.4byte	0
 3601              	.LLST27:
 3602 0375 00000000 		.4byte	.LVL35
 3603 0379 15000000 		.4byte	.LVL36-1
 3604 037d 0100     		.2byte	0x1
 3605 037f 50       		.byte	0x50
 3606 0380 15000000 		.4byte	.LVL36-1
 3607 0384 18000000 		.4byte	.LFE83
 3608 0388 0400     		.2byte	0x4
 3609 038a F3       		.byte	0xf3
 3610 038b 01       		.uleb128 0x1
 3611 038c 50       		.byte	0x50
 3612 038d 9F       		.byte	0x9f
 3613 038e 00000000 		.4byte	0
 3614 0392 00000000 		.4byte	0
 3615              	.LLST28:
 3616 0396 00000000 		.4byte	.LFB84
 3617 039a 02000000 		.4byte	.LCFI7
 3618 039e 0200     		.2byte	0x2
 3619 03a0 7D       		.byte	0x7d
 3620 03a1 00       		.sleb128 0
 3621 03a2 02000000 		.4byte	.LCFI7
 3622 03a6 46000000 		.4byte	.LFE84
 3623 03aa 0200     		.2byte	0x2
 3624 03ac 7D       		.byte	0x7d
 3625 03ad 10       		.sleb128 16
 3626 03ae 00000000 		.4byte	0
 3627 03b2 00000000 		.4byte	0
 3628              	.LLST29:
 3629 03b6 00000000 		.4byte	.LVL37
 3630 03ba 0A000000 		.4byte	.LVL38
 3631 03be 0100     		.2byte	0x1
 3632 03c0 50       		.byte	0x50
 3633 03c1 0A000000 		.4byte	.LVL38
 3634 03c5 44000000 		.4byte	.LVL43
 3635 03c9 0100     		.2byte	0x1
 3636 03cb 54       		.byte	0x54
 3637 03cc 44000000 		.4byte	.LVL43
 3638 03d0 46000000 		.4byte	.LFE84
 3639 03d4 0400     		.2byte	0x4
 3640 03d6 F3       		.byte	0xf3
 3641 03d7 01       		.uleb128 0x1
 3642 03d8 50       		.byte	0x50
 3643 03d9 9F       		.byte	0x9f
 3644 03da 00000000 		.4byte	0
 3645 03de 00000000 		.4byte	0
 3646              	.LLST30:
 3647 03e2 00000000 		.4byte	.LVL37
 3648 03e6 0A000000 		.4byte	.LVL38
ARM GAS  /tmp/cc1TpdB9.s 			page 65


 3649 03ea 0100     		.2byte	0x1
 3650 03ec 51       		.byte	0x51
 3651 03ed 0A000000 		.4byte	.LVL38
 3652 03f1 46000000 		.4byte	.LFE84
 3653 03f5 0400     		.2byte	0x4
 3654 03f7 F3       		.byte	0xf3
 3655 03f8 01       		.uleb128 0x1
 3656 03f9 51       		.byte	0x51
 3657 03fa 9F       		.byte	0x9f
 3658 03fb 00000000 		.4byte	0
 3659 03ff 00000000 		.4byte	0
 3660              	.LLST31:
 3661 0403 00000000 		.4byte	.LVL37
 3662 0407 0A000000 		.4byte	.LVL38
 3663 040b 0100     		.2byte	0x1
 3664 040d 52       		.byte	0x52
 3665 040e 0A000000 		.4byte	.LVL38
 3666 0412 46000000 		.4byte	.LFE84
 3667 0416 0400     		.2byte	0x4
 3668 0418 F3       		.byte	0xf3
 3669 0419 01       		.uleb128 0x1
 3670 041a 52       		.byte	0x52
 3671 041b 9F       		.byte	0x9f
 3672 041c 00000000 		.4byte	0
 3673 0420 00000000 		.4byte	0
 3674              	.LLST32:
 3675 0424 10000000 		.4byte	.LVL39
 3676 0428 20000000 		.4byte	.LVL41
 3677 042c 0100     		.2byte	0x1
 3678 042e 56       		.byte	0x56
 3679 042f 00000000 		.4byte	0
 3680 0433 00000000 		.4byte	0
 3681              	.LLST33:
 3682 0437 10000000 		.4byte	.LVL39
 3683 043b 20000000 		.4byte	.LVL41
 3684 043f 0100     		.2byte	0x1
 3685 0441 54       		.byte	0x54
 3686 0442 00000000 		.4byte	0
 3687 0446 00000000 		.4byte	0
 3688              	.LLST34:
 3689 044a 00000000 		.4byte	.LFB85
 3690 044e 06000000 		.4byte	.LCFI8
 3691 0452 0200     		.2byte	0x2
 3692 0454 7D       		.byte	0x7d
 3693 0455 00       		.sleb128 0
 3694 0456 06000000 		.4byte	.LCFI8
 3695 045a 3C000000 		.4byte	.LFE85
 3696 045e 0200     		.2byte	0x2
 3697 0460 7D       		.byte	0x7d
 3698 0461 08       		.sleb128 8
 3699 0462 00000000 		.4byte	0
 3700 0466 00000000 		.4byte	0
 3701              	.LLST35:
 3702 046a 00000000 		.4byte	.LVL44
 3703 046e 31000000 		.4byte	.LVL47-1
 3704 0472 0100     		.2byte	0x1
 3705 0474 50       		.byte	0x50
ARM GAS  /tmp/cc1TpdB9.s 			page 66


 3706 0475 31000000 		.4byte	.LVL47-1
 3707 0479 36000000 		.4byte	.LVL48
 3708 047d 0400     		.2byte	0x4
 3709 047f F3       		.byte	0xf3
 3710 0480 01       		.uleb128 0x1
 3711 0481 50       		.byte	0x50
 3712 0482 9F       		.byte	0x9f
 3713 0483 36000000 		.4byte	.LVL48
 3714 0487 38000000 		.4byte	.LVL49
 3715 048b 0100     		.2byte	0x1
 3716 048d 50       		.byte	0x50
 3717 048e 38000000 		.4byte	.LVL49
 3718 0492 3C000000 		.4byte	.LFE85
 3719 0496 0400     		.2byte	0x4
 3720 0498 F3       		.byte	0xf3
 3721 0499 01       		.uleb128 0x1
 3722 049a 50       		.byte	0x50
 3723 049b 9F       		.byte	0x9f
 3724 049c 00000000 		.4byte	0
 3725 04a0 00000000 		.4byte	0
 3726              	.LLST36:
 3727 04a4 20000000 		.4byte	.LVL45
 3728 04a8 22000000 		.4byte	.LVL46
 3729 04ac 0200     		.2byte	0x2
 3730 04ae 73       		.byte	0x73
 3731 04af 00       		.sleb128 0
 3732 04b0 22000000 		.4byte	.LVL46
 3733 04b4 31000000 		.4byte	.LVL47-1
 3734 04b8 0300     		.2byte	0x3
 3735 04ba 70       		.byte	0x70
 3736 04bb 14       		.sleb128 20
 3737 04bc 06       		.byte	0x6
 3738 04bd 31000000 		.4byte	.LVL47-1
 3739 04c1 36000000 		.4byte	.LVL48
 3740 04c5 0100     		.2byte	0x1
 3741 04c7 54       		.byte	0x54
 3742 04c8 00000000 		.4byte	0
 3743 04cc 00000000 		.4byte	0
 3744              	.LLST37:
 3745 04d0 00000000 		.4byte	.LFB86
 3746 04d4 02000000 		.4byte	.LCFI9
 3747 04d8 0200     		.2byte	0x2
 3748 04da 7D       		.byte	0x7d
 3749 04db 00       		.sleb128 0
 3750 04dc 02000000 		.4byte	.LCFI9
 3751 04e0 5E000000 		.4byte	.LFE86
 3752 04e4 0200     		.2byte	0x2
 3753 04e6 7D       		.byte	0x7d
 3754 04e7 20       		.sleb128 32
 3755 04e8 00000000 		.4byte	0
 3756 04ec 00000000 		.4byte	0
 3757              	.LLST38:
 3758 04f0 00000000 		.4byte	.LVL50
 3759 04f4 12000000 		.4byte	.LVL53
 3760 04f8 0100     		.2byte	0x1
 3761 04fa 50       		.byte	0x50
 3762 04fb 12000000 		.4byte	.LVL53
ARM GAS  /tmp/cc1TpdB9.s 			page 67


 3763 04ff 5C000000 		.4byte	.LVL61
 3764 0503 0100     		.2byte	0x1
 3765 0505 54       		.byte	0x54
 3766 0506 5C000000 		.4byte	.LVL61
 3767 050a 5E000000 		.4byte	.LFE86
 3768 050e 0400     		.2byte	0x4
 3769 0510 F3       		.byte	0xf3
 3770 0511 01       		.uleb128 0x1
 3771 0512 50       		.byte	0x50
 3772 0513 9F       		.byte	0x9f
 3773 0514 00000000 		.4byte	0
 3774 0518 00000000 		.4byte	0
 3775              	.LLST39:
 3776 051c 00000000 		.4byte	.LVL50
 3777 0520 12000000 		.4byte	.LVL53
 3778 0524 0100     		.2byte	0x1
 3779 0526 51       		.byte	0x51
 3780 0527 12000000 		.4byte	.LVL53
 3781 052b 5C000000 		.4byte	.LVL63
 3782 052f 0100     		.2byte	0x1
 3783 0531 56       		.byte	0x56
 3784 0532 00000000 		.4byte	0
 3785 0536 00000000 		.4byte	0
 3786              	.LLST40:
 3787 053a 00000000 		.4byte	.LVL50
 3788 053e 06000000 		.4byte	.LVL51
 3789 0542 0100     		.2byte	0x1
 3790 0544 52       		.byte	0x52
 3791 0545 06000000 		.4byte	.LVL51
 3792 0549 50000000 		.4byte	.LVL59
 3793 054d 0100     		.2byte	0x1
 3794 054f 57       		.byte	0x57
 3795 0550 50000000 		.4byte	.LVL59
 3796 0554 52000000 		.4byte	.LVL60
 3797 0558 0300     		.2byte	0x3
 3798 055a 77       		.byte	0x77
 3799 055b 01       		.sleb128 1
 3800 055c 9F       		.byte	0x9f
 3801 055d 52000000 		.4byte	.LVL60
 3802 0561 5C000000 		.4byte	.LVL64
 3803 0565 0100     		.2byte	0x1
 3804 0567 57       		.byte	0x57
 3805 0568 00000000 		.4byte	0
 3806 056c 00000000 		.4byte	0
 3807              	.LLST41:
 3808 0570 00000000 		.4byte	.LVL50
 3809 0574 12000000 		.4byte	.LVL53
 3810 0578 0100     		.2byte	0x1
 3811 057a 53       		.byte	0x53
 3812 057b 12000000 		.4byte	.LVL53
 3813 057f 5E000000 		.4byte	.LFE86
 3814 0583 0400     		.2byte	0x4
 3815 0585 F3       		.byte	0xf3
 3816 0586 01       		.uleb128 0x1
 3817 0587 53       		.byte	0x53
 3818 0588 9F       		.byte	0x9f
 3819 0589 00000000 		.4byte	0
ARM GAS  /tmp/cc1TpdB9.s 			page 68


 3820 058d 00000000 		.4byte	0
 3821              	.LLST42:
 3822 0591 0E000000 		.4byte	.LVL52
 3823 0595 12000000 		.4byte	.LVL53
 3824 0599 0100     		.2byte	0x1
 3825 059b 52       		.byte	0x52
 3826 059c 12000000 		.4byte	.LVL53
 3827 05a0 5E000000 		.4byte	.LFE86
 3828 05a4 0200     		.2byte	0x2
 3829 05a6 91       		.byte	0x91
 3830 05a7 60       		.sleb128 -32
 3831 05a8 00000000 		.4byte	0
 3832 05ac 00000000 		.4byte	0
 3833              	.LLST43:
 3834 05b0 0E000000 		.4byte	.LVL52
 3835 05b4 12000000 		.4byte	.LVL53
 3836 05b8 0200     		.2byte	0x2
 3837 05ba 30       		.byte	0x30
 3838 05bb 9F       		.byte	0x9f
 3839 05bc 12000000 		.4byte	.LVL53
 3840 05c0 5C000000 		.4byte	.LVL62
 3841 05c4 0100     		.2byte	0x1
 3842 05c6 55       		.byte	0x55
 3843 05c7 5C000000 		.4byte	.LVL62
 3844 05cb 5E000000 		.4byte	.LFE86
 3845 05cf 0100     		.2byte	0x1
 3846 05d1 50       		.byte	0x50
 3847 05d2 00000000 		.4byte	0
 3848 05d6 00000000 		.4byte	0
 3849              	.LLST44:
 3850 05da 18000000 		.4byte	.LVL54
 3851 05de 28000000 		.4byte	.LVL56
 3852 05e2 0200     		.2byte	0x2
 3853 05e4 91       		.byte	0x91
 3854 05e5 64       		.sleb128 -28
 3855 05e6 00000000 		.4byte	0
 3856 05ea 00000000 		.4byte	0
 3857              	.LLST45:
 3858 05ee 18000000 		.4byte	.LVL54
 3859 05f2 28000000 		.4byte	.LVL56
 3860 05f6 0100     		.2byte	0x1
 3861 05f8 54       		.byte	0x54
 3862 05f9 00000000 		.4byte	0
 3863 05fd 00000000 		.4byte	0
 3864              		.section	.debug_aranges,"",%progbits
 3865 0000 64000000 		.4byte	0x64
 3866 0004 0200     		.2byte	0x2
 3867 0006 00000000 		.4byte	.Ldebug_info0
 3868 000a 04       		.byte	0x4
 3869 000b 00       		.byte	0
 3870 000c 0000     		.2byte	0
 3871 000e 0000     		.2byte	0
 3872 0010 00000000 		.4byte	.LFB77
 3873 0014 1A000000 		.4byte	.LFE77-.LFB77
 3874 0018 00000000 		.4byte	.LFB78
 3875 001c 16000000 		.4byte	.LFE78-.LFB78
 3876 0020 00000000 		.4byte	.LFB79
ARM GAS  /tmp/cc1TpdB9.s 			page 69


 3877 0024 3C000000 		.4byte	.LFE79-.LFB79
 3878 0028 00000000 		.4byte	.LFB80
 3879 002c 3E000000 		.4byte	.LFE80-.LFB80
 3880 0030 00000000 		.4byte	.LFB81
 3881 0034 58000000 		.4byte	.LFE81-.LFB81
 3882 0038 00000000 		.4byte	.LFB82
 3883 003c 1A000000 		.4byte	.LFE82-.LFB82
 3884 0040 00000000 		.4byte	.LFB83
 3885 0044 18000000 		.4byte	.LFE83-.LFB83
 3886 0048 00000000 		.4byte	.LFB84
 3887 004c 46000000 		.4byte	.LFE84-.LFB84
 3888 0050 00000000 		.4byte	.LFB85
 3889 0054 3C000000 		.4byte	.LFE85-.LFB85
 3890 0058 00000000 		.4byte	.LFB86
 3891 005c 5E000000 		.4byte	.LFE86-.LFB86
 3892 0060 00000000 		.4byte	0
 3893 0064 00000000 		.4byte	0
 3894              		.section	.debug_ranges,"",%progbits
 3895              	.Ldebug_ranges0:
 3896 0000 06000000 		.4byte	.LBB90
 3897 0004 08000000 		.4byte	.LBE90
 3898 0008 10000000 		.4byte	.LBB93
 3899 000c 12000000 		.4byte	.LBE93
 3900 0010 00000000 		.4byte	0
 3901 0014 00000000 		.4byte	0
 3902 0018 06000000 		.4byte	.LBB156
 3903 001c 08000000 		.4byte	.LBE156
 3904 0020 10000000 		.4byte	.LBB159
 3905 0024 12000000 		.4byte	.LBE159
 3906 0028 00000000 		.4byte	0
 3907 002c 00000000 		.4byte	0
 3908 0030 00000000 		.4byte	.LFB77
 3909 0034 1A000000 		.4byte	.LFE77
 3910 0038 00000000 		.4byte	.LFB78
 3911 003c 16000000 		.4byte	.LFE78
 3912 0040 00000000 		.4byte	.LFB79
 3913 0044 3C000000 		.4byte	.LFE79
 3914 0048 00000000 		.4byte	.LFB80
 3915 004c 3E000000 		.4byte	.LFE80
 3916 0050 00000000 		.4byte	.LFB81
 3917 0054 58000000 		.4byte	.LFE81
 3918 0058 00000000 		.4byte	.LFB82
 3919 005c 1A000000 		.4byte	.LFE82
 3920 0060 00000000 		.4byte	.LFB83
 3921 0064 18000000 		.4byte	.LFE83
 3922 0068 00000000 		.4byte	.LFB84
 3923 006c 46000000 		.4byte	.LFE84
 3924 0070 00000000 		.4byte	.LFB85
 3925 0074 3C000000 		.4byte	.LFE85
 3926 0078 00000000 		.4byte	.LFB86
 3927 007c 5E000000 		.4byte	.LFE86
 3928 0080 00000000 		.4byte	0
 3929 0084 00000000 		.4byte	0
 3930              		.section	.debug_line,"",%progbits
 3931              	.Ldebug_line0:
 3932 0000 2D040000 		.section	.debug_str,"MS",%progbits,1
 3932      02000302 
ARM GAS  /tmp/cc1TpdB9.s 			page 70


 3932      00000201 
 3932      FB0E0D00 
 3932      01010101 
 3933              	.LASF80:
 3934 0000 6F73616C 		.ascii	"osalQueueGoSleepTimeoutS\000"
 3934      51756575 
 3934      65476F53 
 3934      6C656570 
 3934      54696D65 
 3935              	.LASF38:
 3936 0019 74687265 		.ascii	"threads_queue_t\000"
 3936      6164735F 
 3936      71756575 
 3936      655F7400 
 3937              	.LASF73:
 3938 0029 6F73616C 		.ascii	"osalQueueWakeupAllI\000"
 3938      51756575 
 3938      6557616B 
 3938      65757041 
 3938      6C6C4900 
 3939              	.LASF46:
 3940 003d 715F7264 		.ascii	"q_rdptr\000"
 3940      70747200 
 3941              	.LASF65:
 3942 0045 69714765 		.ascii	"iqGetTimeout\000"
 3942      7454696D 
 3942      656F7574 
 3942      00
 3943              	.LASF5:
 3944 0052 73686F72 		.ascii	"short int\000"
 3944      7420696E 
 3944      7400
 3945              	.LASF2:
 3946 005c 73697A65 		.ascii	"size_t\000"
 3946      5F7400
 3947              	.LASF40:
 3948 0063 696F5F71 		.ascii	"io_queue_t\000"
 3948      75657565 
 3948      5F7400
 3949              	.LASF22:
 3950 006e 73697A65 		.ascii	"sizetype\000"
 3950      74797065 
 3950      00
 3951              	.LASF66:
 3952 0077 69715265 		.ascii	"iqReadTimeout\000"
 3952      61645469 
 3952      6D656F75 
 3952      7400
 3953              	.LASF37:
 3954 0085 6E696C5F 		.ascii	"nil_system_t\000"
 3954      73797374 
 3954      656D5F74 
 3954      00
 3955              	.LASF57:
 3956 0092 6F73616C 		.ascii	"osalSysUnlock\000"
 3956      53797355 
 3956      6E6C6F63 
ARM GAS  /tmp/cc1TpdB9.s 			page 71


 3956      6B00
 3957              	.LASF54:
 3958 00a0 706F7274 		.ascii	"port_lock\000"
 3958      5F6C6F63 
 3958      6B00
 3959              	.LASF20:
 3960 00aa 6576656E 		.ascii	"eventmask_t\000"
 3960      746D6173 
 3960      6B5F7400 
 3961              	.LASF25:
 3962 00b6 6E696C5F 		.ascii	"nil_thread\000"
 3962      74687265 
 3962      616400
 3963              	.LASF61:
 3964 00c1 69714F62 		.ascii	"iqObjectInit\000"
 3964      6A656374 
 3964      496E6974 
 3964      00
 3965              	.LASF64:
 3966 00ce 69715075 		.ascii	"iqPutI\000"
 3966      744900
 3967              	.LASF72:
 3968 00d5 6F715772 		.ascii	"oqWriteTimeout\000"
 3968      69746554 
 3968      696D656F 
 3968      757400
 3969              	.LASF24:
 3970 00e4 72656761 		.ascii	"regarm_t\000"
 3970      726D5F74 
 3970      00
 3971              	.LASF3:
 3972 00ed 75696E74 		.ascii	"uint8_t\000"
 3972      385F7400 
 3973              	.LASF28:
 3974 00f5 73656D61 		.ascii	"semaphore_t\000"
 3974      70686F72 
 3974      655F7400 
 3975              	.LASF60:
 3976 0101 6C696E6B 		.ascii	"link\000"
 3976      00
 3977              	.LASF42:
 3978 0106 715F636F 		.ascii	"q_counter\000"
 3978      756E7465 
 3978      7200
 3979              	.LASF35:
 3980 0110 73797374 		.ascii	"systime\000"
 3980      696D6500 
 3981              	.LASF36:
 3982 0118 74687265 		.ascii	"threads\000"
 3982      61647300 
 3983              	.LASF12:
 3984 0120 6C6F6E67 		.ascii	"long long int\000"
 3984      206C6F6E 
 3984      6720696E 
 3984      7400
 3985              	.LASF67:
 3986 012e 6F714F62 		.ascii	"oqObjectInit\000"
ARM GAS  /tmp/cc1TpdB9.s 			page 72


 3986      6A656374 
 3986      496E6974 
 3986      00
 3987              	.LASF47:
 3988 013b 715F6E6F 		.ascii	"q_notify\000"
 3988      74696679 
 3988      00
 3989              	.LASF9:
 3990 0144 6C6F6E67 		.ascii	"long int\000"
 3990      20696E74 
 3990      00
 3991              	.LASF53:
 3992 014d 5F5F656E 		.ascii	"__enable_irq\000"
 3992      61626C65 
 3992      5F697271 
 3992      00
 3993              	.LASF14:
 3994 015a 63747870 		.ascii	"ctxp\000"
 3994      00
 3995              	.LASF45:
 3996 015f 715F7772 		.ascii	"q_wrptr\000"
 3996      70747200 
 3997              	.LASF78:
 3998 0167 2F6D6564 		.ascii	"/media/data/src/OpenTCS/code\000"
 3998      69612F64 
 3998      6174612F 
 3998      7372632F 
 3998      4F70656E 
 3999              	.LASF68:
 4000 0184 6F6E6679 		.ascii	"onfy\000"
 4000      00
 4001              	.LASF52:
 4002 0189 5F5F6469 		.ascii	"__disable_irq\000"
 4002      7361626C 
 4002      655F6972 
 4002      7100
 4003              	.LASF15:
 4004 0197 73746174 		.ascii	"state\000"
 4004      6500
 4005              	.LASF43:
 4006 019d 715F6275 		.ascii	"q_buffer\000"
 4006      66666572 
 4006      00
 4007              	.LASF4:
 4008 01a6 756E7369 		.ascii	"unsigned char\000"
 4008      676E6564 
 4008      20636861 
 4008      7200
 4009              	.LASF75:
 4010 01b4 63685365 		.ascii	"chSemWaitTimeout\000"
 4010      6D576169 
 4010      7454696D 
 4010      656F7574 
 4010      00
 4011              	.LASF32:
 4012 01c5 65776D61 		.ascii	"ewmask\000"
 4012      736B00
ARM GAS  /tmp/cc1TpdB9.s 			page 73


 4013              	.LASF1:
 4014 01cc 7369676E 		.ascii	"signed char\000"
 4014      65642063 
 4014      68617200 
 4015              	.LASF13:
 4016 01d8 6C6F6E67 		.ascii	"long long unsigned int\000"
 4016      206C6F6E 
 4016      6720756E 
 4016      7369676E 
 4016      65642069 
 4017              	.LASF10:
 4018 01ef 75696E74 		.ascii	"uint32_t\000"
 4018      33325F74 
 4018      00
 4019              	.LASF6:
 4020 01f8 75696E74 		.ascii	"uint16_t\000"
 4020      31365F74 
 4020      00
 4021              	.LASF33:
 4022 0201 63757272 		.ascii	"current\000"
 4022      656E7400 
 4023              	.LASF63:
 4024 0209 74696D65 		.ascii	"time\000"
 4024      00
 4025              	.LASF76:
 4026 020e 474E5520 		.ascii	"GNU C 4.7.3 20130312 (release) [ARM/embedded-4_7-br"
 4026      4320342E 
 4026      372E3320 
 4026      32303133 
 4026      30333132 
 4027 0241 616E6368 		.ascii	"anch revision 196615]\000"
 4027      20726576 
 4027      6973696F 
 4027      6E203139 
 4027      36363135 
 4028              	.LASF7:
 4029 0257 73686F72 		.ascii	"short unsigned int\000"
 4029      7420756E 
 4029      7369676E 
 4029      65642069 
 4029      6E7400
 4030              	.LASF23:
 4031 026a 73797374 		.ascii	"systime_t\000"
 4031      696D655F 
 4031      7400
 4032              	.LASF29:
 4033 0274 63686172 		.ascii	"char\000"
 4033      00
 4034              	.LASF8:
 4035 0279 696E7433 		.ascii	"int32_t\000"
 4035      325F7400 
 4036              	.LASF71:
 4037 0281 6F714765 		.ascii	"oqGetI\000"
 4037      744900
 4038              	.LASF21:
 4039 0288 636E745F 		.ascii	"cnt_t\000"
 4039      7400
ARM GAS  /tmp/cc1TpdB9.s 			page 74


 4040              	.LASF59:
 4041 028e 696E6679 		.ascii	"infy\000"
 4041      00
 4042              	.LASF39:
 4043 0293 5F426F6F 		.ascii	"_Bool\000"
 4043      6C00
 4044              	.LASF55:
 4045 0299 706F7274 		.ascii	"port_unlock\000"
 4045      5F756E6C 
 4045      6F636B00 
 4046              	.LASF74:
 4047 02a5 6F73616C 		.ascii	"osalQueueWakeupOneI\000"
 4047      51756575 
 4047      6557616B 
 4047      6575704F 
 4047      6E654900 
 4048              	.LASF58:
 4049 02b9 73697A65 		.ascii	"size\000"
 4049      00
 4050              	.LASF41:
 4051 02be 715F7761 		.ascii	"q_waiting\000"
 4051      6974696E 
 4051      6700
 4052              	.LASF17:
 4053 02c8 65706D61 		.ascii	"epmask\000"
 4053      736B00
 4054              	.LASF18:
 4055 02cf 74737461 		.ascii	"tstate_t\000"
 4055      74655F74 
 4055      00
 4056              	.LASF11:
 4057 02d8 6C6F6E67 		.ascii	"long unsigned int\000"
 4057      20756E73 
 4057      69676E65 
 4057      6420696E 
 4057      7400
 4058              	.LASF70:
 4059 02ea 6F715075 		.ascii	"oqPutTimeout\000"
 4059      7454696D 
 4059      656F7574 
 4059      00
 4060              	.LASF79:
 4061 02f7 6F73616C 		.ascii	"osalQueueObjectInit\000"
 4061      51756575 
 4061      654F626A 
 4061      65637449 
 4061      6E697400 
 4062              	.LASF50:
 4063 030b 696E7075 		.ascii	"input_queue_t\000"
 4063      745F7175 
 4063      6575655F 
 4063      7400
 4064              	.LASF62:
 4065 0319 69715265 		.ascii	"iqResetI\000"
 4065      73657449 
 4065      00
 4066              	.LASF26:
ARM GAS  /tmp/cc1TpdB9.s 			page 75


 4067 0322 706F7274 		.ascii	"port_intctx\000"
 4067      5F696E74 
 4067      63747800 
 4068              	.LASF31:
 4069 032e 73656D70 		.ascii	"semp\000"
 4069      00
 4070              	.LASF30:
 4071 0333 74687265 		.ascii	"thread_reference_t\000"
 4071      61645F72 
 4071      65666572 
 4071      656E6365 
 4071      5F7400
 4072              	.LASF69:
 4073 0346 6F715265 		.ascii	"oqResetI\000"
 4073      73657449 
 4073      00
 4074              	.LASF27:
 4075 034f 696E7463 		.ascii	"intctx_t\000"
 4075      74785F74 
 4075      00
 4076              	.LASF51:
 4077 0358 6F757470 		.ascii	"output_queue_t\000"
 4077      75745F71 
 4077      75657565 
 4077      5F7400
 4078              	.LASF0:
 4079 0367 756E7369 		.ascii	"unsigned int\000"
 4079      676E6564 
 4079      20696E74 
 4079      00
 4080              	.LASF44:
 4081 0374 715F746F 		.ascii	"q_top\000"
 4081      7000
 4082              	.LASF77:
 4083 037a 2E2F6F73 		.ascii	"./os/hal/src/hal_queues.c\000"
 4083      2F68616C 
 4083      2F737263 
 4083      2F68616C 
 4083      5F717565 
 4084              	.LASF56:
 4085 0394 6F73616C 		.ascii	"osalSysLock\000"
 4085      5379734C 
 4085      6F636B00 
 4086              	.LASF19:
 4087 03a0 6D73675F 		.ascii	"msg_t\000"
 4087      7400
 4088              	.LASF16:
 4089 03a6 74696D65 		.ascii	"timeout\000"
 4089      6F757400 
 4090              	.LASF34:
 4091 03ae 6E657874 		.ascii	"next\000"
 4091      00
 4092              	.LASF48:
 4093 03b3 715F6C69 		.ascii	"q_link\000"
 4093      6E6B00
 4094              	.LASF49:
 4095 03ba 716E6F74 		.ascii	"qnotify_t\000"
ARM GAS  /tmp/cc1TpdB9.s 			page 76


 4095      6966795F 
 4095      7400
 4096              		.ident	"GCC: (GNU Tools for ARM Embedded Processors) 4.7.3 20130312 (release) [ARM/embedded-4_7-br
ARM GAS  /tmp/cc1TpdB9.s 			page 77


DEFINED SYMBOLS
                            *ABS*:00000000 hal_queues.c
     /tmp/cc1TpdB9.s:18     .text.iqObjectInit:00000000 $t
     /tmp/cc1TpdB9.s:23     .text.iqObjectInit:00000000 iqObjectInit
     /tmp/cc1TpdB9.s:72     .text.iqResetI:00000000 $t
     /tmp/cc1TpdB9.s:77     .text.iqResetI:00000000 iqResetI
     /tmp/cc1TpdB9.s:109    .text.iqPutI:00000000 $t
     /tmp/cc1TpdB9.s:114    .text.iqPutI:00000000 iqPutI
     /tmp/cc1TpdB9.s:180    .text.iqGetTimeout:00000000 $t
     /tmp/cc1TpdB9.s:185    .text.iqGetTimeout:00000000 iqGetTimeout
     /tmp/cc1TpdB9.s:286    .text.iqReadTimeout:00000000 $t
     /tmp/cc1TpdB9.s:291    .text.iqReadTimeout:00000000 iqReadTimeout
     /tmp/cc1TpdB9.s:442    .text.oqObjectInit:00000000 $t
     /tmp/cc1TpdB9.s:447    .text.oqObjectInit:00000000 oqObjectInit
     /tmp/cc1TpdB9.s:494    .text.oqResetI:00000000 $t
     /tmp/cc1TpdB9.s:499    .text.oqResetI:00000000 oqResetI
     /tmp/cc1TpdB9.s:534    .text.oqPutTimeout:00000000 $t
     /tmp/cc1TpdB9.s:539    .text.oqPutTimeout:00000000 oqPutTimeout
     /tmp/cc1TpdB9.s:659    .text.oqGetI:00000000 $t
     /tmp/cc1TpdB9.s:664    .text.oqGetI:00000000 oqGetI
     /tmp/cc1TpdB9.s:731    .text.oqWriteTimeout:00000000 $t
     /tmp/cc1TpdB9.s:736    .text.oqWriteTimeout:00000000 oqWriteTimeout
                     .debug_frame:00000010 $d

UNDEFINED SYMBOLS
osalQueueWakeupAllI
osalQueueWakeupOneI
chSemWaitTimeout
