ARM GAS  /tmp/ccbTXR8k.s 			page 1


   1              		.cpu cortex-m0
   2              		.fpu softvfp
   3              		.eabi_attribute 20, 1
   4              		.eabi_attribute 21, 1
   5              		.eabi_attribute 23, 3
   6              		.eabi_attribute 24, 1
   7              		.eabi_attribute 25, 1
   8              		.eabi_attribute 26, 1
   9              		.eabi_attribute 30, 4
  10              		.eabi_attribute 34, 0
  11              		.eabi_attribute 18, 4
  12              		.code	16
  13              		.file	"light.c"
  14              		.text
  15              	.Ltext0:
  16              		.cfi_sections	.debug_frame
  17              		.section	.text.updateLight,"ax",%progbits
  18              		.align	1
  19              		.global	updateLight
  20              		.code	16
  21              		.thumb_func
  22              		.type	updateLight, %function
  23              	updateLight:
  24              	.LFB78:
  25              		.file 1 "src/light.c"
  26              		.loc 1 70 0
  27              		.cfi_startproc
  28              	.LVL0:
  29 0000 00B5     		push	{lr}
  30              	.LCFI0:
  31              		.cfi_def_cfa_offset 4
  32              		.cfi_offset 14, -4
  33              		.loc 1 73 0
  34 0002 194B     		ldr	r3, .L11
  35              		.loc 1 70 0
  36 0004 021C     		mov	r2, r0
  37              		.loc 1 73 0
  38 0006 1988     		ldrh	r1, [r3]
  39 0008 0120     		mov	r0, #1
  40              	.LVL1:
  41 000a 8143     		bic	r1, r0
  42 000c 1980     		strh	r1, [r3]
  43              		.loc 1 76 0
  44 000e 198B     		ldrh	r1, [r3, #24]
  45 0010 7020     		mov	r0, #112
  46 0012 8143     		bic	r1, r0
  47 0014 1983     		strh	r1, [r3, #24]
  48              		.loc 1 79 0
  49 0016 1988     		ldrh	r1, [r3]
  50 0018 0820     		mov	r0, #8
  51 001a 8143     		bic	r1, r0
  52 001c 1980     		strh	r1, [r3]
  53              		.loc 1 81 0
  54 001e 1078     		ldrb	r0, [r2]
  55 0020 0328     		cmp	r0, #3
  56 0022 18D8     		bhi	.L2
  57 0024 FFF7FEFF 		bl	__gnu_thumb1_case_uqi
ARM GAS  /tmp/ccbTXR8k.s 			page 2


  58              	.L7:
  59 0028 17       		.byte	(.L2-.L7)/2
  60 0029 02       		.byte	(.L4-.L7)/2
  61 002a 05       		.byte	(.L5-.L7)/2
  62 002b 0C       		.byte	(.L6-.L7)/2
  63              		.align	1
  64              	.L4:
  65              		.loc 1 89 0
  66 002c 1A8B     		ldrh	r2, [r3, #24]
  67              	.LVL2:
  68 002e 5020     		mov	r0, #80
  69 0030 13E0     		b	.L9
  70              	.LVL3:
  71              	.L5:
  72              		.loc 1 94 0
  73 0032 198B     		ldrh	r1, [r3, #24]
  74 0034 3020     		mov	r0, #48
  75 0036 0143     		orr	r1, r0
  76 0038 1983     		strh	r1, [r3, #24]
  77              		.loc 1 95 0
  78 003a 5288     		ldrh	r2, [r2, #2]
  79              	.LVL4:
  80 003c 5A63     		str	r2, [r3, #52]
  81              		.loc 1 96 0
  82 003e 0EE0     		b	.L8
  83              	.LVL5:
  84              	.L6:
  85              		.loc 1 100 0
  86 0040 198B     		ldrh	r1, [r3, #24]
  87 0042 3020     		mov	r0, #48
  88 0044 0143     		orr	r1, r0
  89 0046 1983     		strh	r1, [r3, #24]
  90              		.loc 1 101 0
  91 0048 5288     		ldrh	r2, [r2, #2]
  92              	.LVL6:
  93              		.loc 1 102 0
  94 004a 0821     		mov	r1, #8
  95              		.loc 1 101 0
  96 004c 5A63     		str	r2, [r3, #52]
  97              		.loc 1 102 0
  98 004e 1888     		ldrh	r0, [r3]
  99 0050 0843     		orr	r0, r1
 100 0052 1880     		strh	r0, [r3]
 101              		.loc 1 103 0
 102 0054 03E0     		b	.L8
 103              	.LVL7:
 104              	.L2:
 105              		.loc 1 107 0
 106 0056 1A8B     		ldrh	r2, [r3, #24]
 107              	.LVL8:
 108 0058 4020     		mov	r0, #64
 109              	.L9:
 110 005a 0243     		orr	r2, r0
 111 005c 1A83     		strh	r2, [r3, #24]
 112              	.L8:
 113              		.loc 1 111 0
 114 005e 1A88     		ldrh	r2, [r3]
ARM GAS  /tmp/ccbTXR8k.s 			page 3


 115 0060 0121     		mov	r1, #1
 116 0062 0A43     		orr	r2, r1
 117 0064 1A80     		strh	r2, [r3]
 118              		.loc 1 112 0
 119              		@ sp needed for prologue
 120 0066 00BD     		pop	{pc}
 121              	.L12:
 122              		.align	2
 123              	.L11:
 124 0068 00440140 		.word	1073824768
 125              		.cfi_endproc
 126              	.LFE78:
 127              		.size	updateLight, .-updateLight
 128              		.section	.text.startLight,"ax",%progbits
 129              		.align	1
 130              		.global	startLight
 131              		.code	16
 132              		.thumb_func
 133              		.type	startLight, %function
 134              	startLight:
 135              	.LFB77:
 136              		.loc 1 20 0
 137              		.cfi_startproc
 138 0000 F8B5     		push	{r3, r4, r5, r6, r7, lr}
 139              	.LCFI1:
 140              		.cfi_def_cfa_offset 24
 141              		.cfi_offset 3, -24
 142              		.cfi_offset 4, -20
 143              		.cfi_offset 5, -16
 144              		.cfi_offset 6, -12
 145              		.cfi_offset 7, -8
 146              		.cfi_offset 14, -4
 147              		.loc 1 24 0
 148 0002 1C48     		ldr	r0, .L22
 149              		.loc 1 22 0
 150 0004 1C4C     		ldr	r4, .L22+4
 151              		.loc 1 26 0
 152 0006 1D4A     		ldr	r2, .L22+8
 153              		.loc 1 27 0
 154 0008 1D49     		ldr	r1, .L22+12
 155              		.loc 1 24 0
 156 000a 0023     		mov	r3, #0
 157              		.loc 1 22 0
 158 000c 2678     		ldrb	r6, [r4]
 159              	.LVL9:
 160 000e 6588     		ldrh	r5, [r4, #2]
 161              	.LVL10:
 162              		.loc 1 24 0
 163 0010 0380     		strh	r3, [r0]
 164              		.loc 1 25 0
 165 0012 8380     		strh	r3, [r0, #4]
 166              		.loc 1 26 0
 167 0014 C262     		str	r2, [r0, #44]
 168              		.loc 1 27 0
 169 0016 0185     		strh	r1, [r0, #40]
 170              		.loc 1 30 0
 171 0018 1A49     		ldr	r1, .L22+16
ARM GAS  /tmp/ccbTXR8k.s 			page 4


 172              		.loc 1 31 0
 173 001a 0122     		mov	r2, #1
 174              		.loc 1 30 0
 175 001c 1027     		mov	r7, #16
 176 001e 0F80     		strh	r7, [r1]
 177              		.loc 1 31 0
 178 0020 4A80     		strh	r2, [r1, #2]
 179              		.loc 1 32 0
 180 0022 8B81     		strh	r3, [r1, #12]
 181              		.loc 1 33 0
 182 0024 8D60     		str	r5, [r1, #8]
 183              		.loc 1 34 0
 184 0026 FFF7FEFF 		bl	TIM_OC1Init
 185              	.LVL11:
 186              		.loc 1 36 0
 187 002a 1748     		ldr	r0, .L22+20
 188 002c FFF7FEFF 		bl	serDbg
 189              	.LVL12:
 190              	.L14:
 191              		.loc 1 40 0
 192 0030 1648     		ldr	r0, .L22+24
 193 0032 FFF7FEFF 		bl	chThdSleep
 194              	.LVL13:
 195              		.loc 1 42 0
 196 0036 164B     		ldr	r3, .L22+28
 197 0038 1878     		ldrb	r0, [r3]
 198 003a 4107     		lsl	r1, r0, #29
 199 003c 02D4     		bmi	.L21
 200              	.L20:
 201 003e 371C     		mov	r7, r6
 202              	.LVL14:
 203              	.L15:
 204 0040 3E1C     		mov	r6, r7
 205 0042 F5E7     		b	.L14
 206              	.LVL15:
 207              	.L21:
 208              		.loc 1 45 0
 209 0044 2778     		ldrb	r7, [r4]
 210 0046 B742     		cmp	r7, r6
 211 0048 02D1     		bne	.L16
 212              		.loc 1 45 0 is_stmt 0 discriminator 1
 213 004a 6688     		ldrh	r6, [r4, #2]
 214              	.LVL16:
 215 004c AE42     		cmp	r6, r5
 216 004e F7D0     		beq	.L15
 217              	.L16:
 218              	.LVL17:
 219              		.loc 1 51 0 is_stmt 1
 220 0050 104A     		ldr	r2, .L22+32
 221              		.loc 1 49 0
 222 0052 6588     		ldrh	r5, [r4, #2]
 223              	.LVL18:
 224              		.loc 1 51 0
 225 0054 0221     		mov	r1, #2
 226 0056 505E     		ldrsh	r0, [r2, r1]
 227 0058 9988     		ldrh	r1, [r3, #4]
 228 005a 0123     		mov	r3, #1
ARM GAS  /tmp/ccbTXR8k.s 			page 5


 229 005c 8842     		cmp	r0, r1
 230 005e 03DA     		bge	.L19
 231              	.L17:
 232              		.loc 1 55 0
 233 0060 1678     		ldrb	r6, [r2]
 234 0062 3340     		and	r3, r6
 235 0064 00D0     		beq	.L19
 236              		.loc 1 57 0
 237 0066 0323     		mov	r3, #3
 238              	.L19:
 239              		.loc 1 64 0
 240 0068 201C     		mov	r0, r4
 241              		.loc 1 61 0
 242 006a 2370     		strb	r3, [r4]
 243              		.loc 1 64 0
 244 006c FFF7FEFF 		bl	updateLight
 245              	.LVL19:
 246 0070 E6E7     		b	.L15
 247              	.L23:
 248 0072 C046     		.align	2
 249              	.L22:
 250 0074 00440140 		.word	1073824768
 251 0078 00000000 		.word	.LANCHOR0
 252 007c FFFF0000 		.word	65535
 253 0080 7FBBFFFF 		.word	-17537
 254 0084 00000000 		.word	.LANCHOR1
 255 0088 00000000 		.word	.LC2
 256 008c 77010000 		.word	375
 257 0090 00000000 		.word	settings
 258 0094 00000000 		.word	status
 259              		.cfi_endproc
 260              	.LFE77:
 261              		.size	startLight, .-startLight
 262              		.global	TIM_OCInitStructure
 263              		.global	light_settings
 264              		.section	.bss.TIM_OCInitStructure,"aw",%nobits
 265              		.align	2
 266              		.set	.LANCHOR1,. + 0
 267              		.type	TIM_OCInitStructure, %object
 268              		.size	TIM_OCInitStructure, 20
 269              	TIM_OCInitStructure:
 270 0000 00000000 		.space	20
 270      00000000 
 270      00000000 
 270      00000000 
 270      00000000 
 271              		.section	.rodata.str1.1,"aMS",%progbits,1
 272              	.LC2:
 273 0000 73746172 		.ascii	"startLight Complete\015\012\000"
 273      744C6967 
 273      68742043 
 273      6F6D706C 
 273      6574650D 
 274              		.section	.data.light_settings,"aw",%progbits
 275              		.align	1
 276              		.set	.LANCHOR0,. + 0
 277              		.type	light_settings, %object
ARM GAS  /tmp/ccbTXR8k.s 			page 6


 278              		.size	light_settings, 4
 279              	light_settings:
 280 0000 00       		.byte	0
 281 0001 00       		.space	1
 282 0002 FA00     		.short	250
 283              		.text
 284              	.Letext0:
 285              		.file 2 "/media/data/src/x-tools/gcc-arm-none-eabi-4_7-2013q1/bin/../lib/gcc/arm-none-eabi/4.7.3/.
 286              		.file 3 "./os/nil/include/nil.h"
 287              		.file 4 "./os/nil/ports/ARMCMx/compilers/GCC/niltypes.h"
 288              		.file 5 "./os/ext/CMSIS/ST/stm32f0xx.h"
 289              		.file 6 "lib/STM32F0xx_StdPeriph_Driver/inc/stm32f0xx_tim.h"
 290              		.file 7 "./os/nil/ports/ARMCMx/nilcore.h"
 291              		.file 8 "./os/nil/ports/ARMCMx/nilcore_v6m.h"
 292              		.file 9 "inc/threads.h"