ARM GAS  /tmp/ccCMkwph.s 			page 1


   1              		.cpu cortex-m0
   2              		.fpu softvfp
   3              		.eabi_attribute 20, 1
   4              		.eabi_attribute 21, 1
   5              		.eabi_attribute 23, 3
   6              		.eabi_attribute 24, 1
   7              		.eabi_attribute 25, 1
   8              		.eabi_attribute 26, 1
   9              		.eabi_attribute 30, 4
  10              		.eabi_attribute 34, 0
  11              		.eabi_attribute 18, 4
  12              		.code	16
  13              		.file	"main.c"
  14              		.text
  15              	.Ltext0:
  16              		.cfi_sections	.debug_frame
  17              		.section	.text.Thread5,"ax",%progbits
  18              		.align	1
  19              		.global	Thread5
  20              		.code	16
  21              		.thumb_func
  22              		.type	Thread5, %function
  23              	Thread5:
  24              	.LFB82:
  25              		.file 1 "src/main.c"
  26              		.loc 1 95 0
  27              		.cfi_startproc
  28              	.LVL0:
  29 0000 08B5     		push	{r3, lr}
  30              	.LCFI0:
  31              		.cfi_def_cfa_offset 8
  32              		.cfi_offset 3, -8
  33              		.cfi_offset 14, -4
  34              		.loc 1 97 0
  35 0002 FFF7FEFF 		bl	startSerialCom
  36              	.LVL1:
  37              		.cfi_endproc
  38              	.LFE82:
  39              		.size	Thread5, .-Thread5
  40              		.section	.text.Thread4,"ax",%progbits
  41              		.align	1
  42              		.global	Thread4
  43              		.code	16
  44              		.thumb_func
  45              		.type	Thread4, %function
  46              	Thread4:
  47              	.LFB81:
  48              		.loc 1 84 0
  49              		.cfi_startproc
  50              	.LVL2:
  51 0000 08B5     		push	{r3, lr}
  52              	.LCFI1:
  53              		.cfi_def_cfa_offset 8
  54              		.cfi_offset 3, -8
  55              		.cfi_offset 14, -4
  56              		.loc 1 86 0
  57 0002 FFF7FEFF 		bl	startAdc
ARM GAS  /tmp/ccCMkwph.s 			page 2


  58              	.LVL3:
  59              		.loc 1 87 0
  60 0006 FFF7FEFF 		bl	startSensors
  61              	.LVL4:
  62              		.cfi_endproc
  63              	.LFE81:
  64              		.size	Thread4, .-Thread4
  65              		.section	.text.Thread3,"ax",%progbits
  66              		.align	1
  67              		.global	Thread3
  68              		.code	16
  69              		.thumb_func
  70              		.type	Thread3, %function
  71              	Thread3:
  72              	.LFB80:
  73              		.loc 1 74 0
  74              		.cfi_startproc
  75              	.LVL5:
  76 0000 08B5     		push	{r3, lr}
  77              	.LCFI2:
  78              		.cfi_def_cfa_offset 8
  79              		.cfi_offset 3, -8
  80              		.cfi_offset 14, -4
  81              		.loc 1 76 0
  82 0002 FFF7FEFF 		bl	startIgnition
  83              	.LVL6:
  84              		.cfi_endproc
  85              	.LFE80:
  86              		.size	Thread3, .-Thread3
  87              		.section	.text.Thread2,"ax",%progbits
  88              		.align	1
  89              		.global	Thread2
  90              		.code	16
  91              		.thumb_func
  92              		.type	Thread2, %function
  93              	Thread2:
  94              	.LFB79:
  95              		.loc 1 64 0
  96              		.cfi_startproc
  97              	.LVL7:
  98 0000 08B5     		push	{r3, lr}
  99              	.LCFI3:
 100              		.cfi_def_cfa_offset 8
 101              		.cfi_offset 3, -8
 102              		.cfi_offset 14, -4
 103              		.loc 1 66 0
 104 0002 FFF7FEFF 		bl	startDisplay
 105              	.LVL8:
 106              		.cfi_endproc
 107              	.LFE79:
 108              		.size	Thread2, .-Thread2
 109              		.section	.text.Thread1,"ax",%progbits
 110              		.align	1
 111              		.global	Thread1
 112              		.code	16
 113              		.thumb_func
 114              		.type	Thread1, %function
ARM GAS  /tmp/ccCMkwph.s 			page 3


 115              	Thread1:
 116              	.LFB78:
 117              		.loc 1 54 0
 118              		.cfi_startproc
 119              	.LVL9:
 120 0000 08B5     		push	{r3, lr}
 121              	.LCFI4:
 122              		.cfi_def_cfa_offset 8
 123              		.cfi_offset 3, -8
 124              		.cfi_offset 14, -4
 125              		.loc 1 56 0
 126 0002 FFF7FEFF 		bl	startLight
 127              	.LVL10:
 128              		.cfi_endproc
 129              	.LFE78:
 130              		.size	Thread1, .-Thread1
 131              		.section	.text.Thread0,"ax",%progbits
 132              		.align	1
 133              		.global	Thread0
 134              		.code	16
 135              		.thumb_func
 136              		.type	Thread0, %function
 137              	Thread0:
 138              	.LFB77:
 139              		.loc 1 15 0
 140              		.cfi_startproc
 141              	.LVL11:
 142 0000 10B5     		push	{r4, lr}
 143              	.LCFI5:
 144              		.cfi_def_cfa_offset 8
 145              		.cfi_offset 4, -8
 146              		.cfi_offset 14, -4
 147              		.loc 1 17 0
 148 0002 164C     		ldr	r4, .L13
 149 0004 636A     		ldr	r3, [r4, #36]
 150 0006 5A00     		lsl	r2, r3, #1
 151 0008 07D5     		bpl	.L7
 152              		.loc 1 20 0
 153 000a 1548     		ldr	r0, .L13+4
 154              	.LVL12:
 155 000c FFF7FEFF 		bl	serDbg
 156              	.LVL13:
 157              		.loc 1 23 0
 158 0010 626A     		ldr	r2, [r4, #36]
 159 0012 8020     		mov	r0, #128
 160 0014 4104     		lsl	r1, r0, #17
 161 0016 1143     		orr	r1, r2
 162 0018 6162     		str	r1, [r4, #36]
 163              	.L7:
 164              		.loc 1 27 0
 165 001a C024     		mov	r4, #192
 166 001c 6000     		lsl	r0, r4, #1
 167 001e FFF7FEFF 		bl	WWDG_SetPrescaler
 168              	.LVL14:
 169              		.loc 1 31 0
 170 0022 7E20     		mov	r0, #126
 171 0024 FFF7FEFF 		bl	WWDG_SetWindowValue
ARM GAS  /tmp/ccCMkwph.s 			page 4


 172              	.LVL15:
 173              		.loc 1 34 0
 174 0028 0E4B     		ldr	r3, .L13+8
 175 002a 8022     		mov	r2, #128
 176 002c 9868     		ldr	r0, [r3, #8]
 177 002e 1101     		lsl	r1, r2, #4
 178 0030 0143     		orr	r1, r0
 179 0032 9960     		str	r1, [r3, #8]
 180              		.loc 1 39 0
 181 0034 7F20     		mov	r0, #127
 182 0036 FFF7FEFF 		bl	WWDG_Enable
 183              	.LVL16:
 184              		.loc 1 40 0
 185 003a 0B48     		ldr	r0, .L13+12
 186 003c FFF7FEFF 		bl	serDbg
 187              	.LVL17:
 188              	.L8:
 189              		.loc 1 44 0 discriminator 1
 190 0040 0A4C     		ldr	r4, .L13+16
 191              		.loc 1 43 0 discriminator 1
 192 0042 7D20     		mov	r0, #125
 193 0044 FFF7FEFF 		bl	chThdSleep
 194              	.LVL18:
 195              		.loc 1 44 0 discriminator 1
 196 0048 6369     		ldr	r3, [r4, #20]
 197 004a 8020     		mov	r0, #128
 198 004c 8200     		lsl	r2, r0, #2
 199 004e 5A40     		eor	r2, r3
 200 0050 6261     		str	r2, [r4, #20]
 201              		.loc 1 45 0 discriminator 1
 202 0052 7F20     		mov	r0, #127
 203 0054 FFF7FEFF 		bl	WWDG_SetCounter
 204              	.LVL19:
 205 0058 F2E7     		b	.L8
 206              	.L14:
 207 005a C046     		.align	2
 208              	.L13:
 209 005c 00100240 		.word	1073876992
 210 0060 00000000 		.word	.LC0
 211 0064 00580140 		.word	1073829888
 212 0068 16000000 		.word	.LC2
 213 006c 00080048 		.word	1207961600
 214              		.cfi_endproc
 215              	.LFE77:
 216              		.size	Thread0, .-Thread0
 217              		.section	.text.startup.main,"ax",%progbits
 218              		.align	1
 219              		.global	main
 220              		.code	16
 221              		.thumb_func
 222              		.type	main, %function
 223              	main:
 224              	.LFB83:
 225              		.loc 1 117 0
 226              		.cfi_startproc
 227 0000 08B5     		push	{r3, lr}
 228              	.LCFI6:
ARM GAS  /tmp/ccCMkwph.s 			page 5


 229              		.cfi_def_cfa_offset 8
 230              		.cfi_offset 3, -8
 231              		.cfi_offset 14, -4
 232              		.loc 1 123 0
 233 0002 FFF7FEFF 		bl	halInit
 234              	.LVL20:
 235              		.loc 1 124 0
 236 0006 FFF7FEFF 		bl	settingsInit
 237              	.LVL21:
 238              		.loc 1 125 0
 239 000a 0348     		ldr	r0, .L17
 240 000c FFF7FEFF 		bl	usartInit
 241              	.LVL22:
 242              		.loc 1 126 0
 243 0010 FFF7FEFF 		bl	chSysInit
 244              	.LVL23:
 245              	.L16:
 246 0014 FEE7     		b	.L16
 247              	.L18:
 248 0016 C046     		.align	2
 249              	.L17:
 250 0018 00380140 		.word	1073821696
 251              		.cfi_endproc
 252              	.LFE83:
 253              		.size	main, .-main
 254              		.global	nil_thd_configs
 255              		.global	waThread5
 256              		.global	waThread4
 257              		.global	waThread3
 258              		.global	waThread2
 259              		.global	waThread1
 260              		.global	waThread0
 261              		.section	.bss.waThread0,"aw",%nobits
 262              		.align	3
 263              		.type	waThread0, %object
 264              		.size	waThread0, 184
 265              	waThread0:
 266 0000 00000000 		.space	184
 266      00000000 
 266      00000000 
 266      00000000 
 266      00000000 
 267              		.section	.bss.waThread1,"aw",%nobits
 268              		.align	3
 269              		.type	waThread1, %object
 270              		.size	waThread1, 248
 271              	waThread1:
 272 0000 00000000 		.space	248
 272      00000000 
 272      00000000 
 272      00000000 
 272      00000000 
 273              		.section	.bss.waThread2,"aw",%nobits
 274              		.align	3
 275              		.type	waThread2, %object
 276              		.size	waThread2, 376
 277              	waThread2:
ARM GAS  /tmp/ccCMkwph.s 			page 6


 278 0000 00000000 		.space	376
 278      00000000 
 278      00000000 
 278      00000000 
 278      00000000 
 279              		.section	.bss.waThread3,"aw",%nobits
 280              		.align	3
 281              		.type	waThread3, %object
 282              		.size	waThread3, 248
 283              	waThread3:
 284 0000 00000000 		.space	248
 284      00000000 
 284      00000000 
 284      00000000 
 284      00000000 
 285              		.section	.bss.waThread4,"aw",%nobits
 286              		.align	3
 287              		.type	waThread4, %object
 288              		.size	waThread4, 248
 289              	waThread4:
 290 0000 00000000 		.space	248
 290      00000000 
 290      00000000 
 290      00000000 
 290      00000000 
 291              		.section	.bss.waThread5,"aw",%nobits
 292              		.align	3
 293              		.type	waThread5, %object
 294              		.size	waThread5, 248
 295              	waThread5:
 296 0000 00000000 		.space	248
 296      00000000 
 296      00000000 
 296      00000000 
 296      00000000 
 297              		.section	.rodata.nil_thd_configs,"a",%progbits
 298              		.align	2
 299              		.type	nil_thd_configs, %object
 300              		.size	nil_thd_configs, 140
 301              	nil_thd_configs:
 302 0000 00000000 		.word	waThread0
 303 0004 C0050000 		.word	waThread0+1472
 304 0008 25000000 		.word	.LC4
 305 000c 00000000 		.word	Thread0
 306 0010 00000000 		.word	0
 307 0014 00000000 		.word	waThread1
 308 0018 C0070000 		.word	waThread1+1984
 309 001c 2E000000 		.word	.LC5
 310 0020 00000000 		.word	Thread1
 311 0024 00000000 		.word	0
 312 0028 00000000 		.word	waThread2
 313 002c C00B0000 		.word	waThread2+3008
 314 0030 34000000 		.word	.LC6
 315 0034 00000000 		.word	Thread2
 316 0038 00000000 		.word	0
 317 003c 00000000 		.word	waThread3
 318 0040 C0070000 		.word	waThread3+1984
ARM GAS  /tmp/ccCMkwph.s 			page 7


 319 0044 3C000000 		.word	.LC7
 320 0048 00000000 		.word	Thread3
 321 004c 00000000 		.word	0
 322 0050 00000000 		.word	waThread4
 323 0054 C0070000 		.word	waThread4+1984
 324 0058 45000000 		.word	.LC8
 325 005c 00000000 		.word	Thread4
 326 0060 00000000 		.word	0
 327 0064 00000000 		.word	waThread5
 328 0068 C0070000 		.word	waThread5+1984
 329 006c 4D000000 		.word	.LC9
 330 0070 00000000 		.word	Thread5
 331 0074 00000000 		.word	0
 332 0078 00000000 		.word	0
 333 007c 00000000 		.word	0
 334 0080 58000000 		.word	.LC10
 335 0084 00000000 		.word	0
 336 0088 00000000 		.word	0
 337              		.section	.rodata.str1.1,"aMS",%progbits,1
 338              	.LC0:
 339 0000 0D0A2A2A 		.ascii	"\015\012**WWDG Reset!**\015\012\015\012\000"
 339      57574447 
 339      20526573 
 339      6574212A 
 339      2A0D0A0D 
 340              	.LC2:
 341 0016 57574447 		.ascii	"WWDG Started\015\012\000"
 341      20537461 
 341      72746564 
 341      0D0A00
 342              	.LC4:
 343 0025 57617463 		.ascii	"Watchdog\000"
 343      68646F67 
 343      00
 344              	.LC5:
 345 002e 4C696768 		.ascii	"Light\000"
 345      7400
 346              	.LC6:
 347 0034 44697370 		.ascii	"Display\000"
 347      6C617900 
 348              	.LC7:
 349 003c 49676E69 		.ascii	"Ignition\000"
 349      74696F6E 
 349      00
 350              	.LC8:
 351 0045 53656E73 		.ascii	"Sensors\000"
 351      6F727300 
 352              	.LC9:
 353 004d 53657269 		.ascii	"Serial Com\000"
 353      616C2043 
 353      6F6D00
 354              	.LC10:
 355 0058 69646C65 		.ascii	"idle\000"
 355      00
 356              		.text
 357              	.Letext0:
 358              		.file 2 "/media/data/src/x-tools/gcc-arm-none-eabi-4_7-2013q1/bin/../lib/gcc/arm-none-eabi/4.7.3/.
ARM GAS  /tmp/ccCMkwph.s 			page 8


 359              		.file 3 "./os/nil/include/nil.h"
 360              		.file 4 "./os/nil/ports/ARMCMx/compilers/GCC/niltypes.h"
 361              		.file 5 "./os/ext/CMSIS/ST/stm32f0xx.h"
 362              		.file 6 "./os/nil/ports/ARMCMx/nilcore.h"
 363              		.file 7 "./os/nil/ports/ARMCMx/nilcore_v6m.h"
 364              		.file 8 "./os/hal/ports/STM32/GPIOv2/pal_lld.h"
 365              		.file 9 "inc/threads.h"
 366              		.file 10 "lib/STM32F0xx_StdPeriph_Driver/inc/stm32f0xx_wwdg.h"
 367              		.file 11 "./os/hal/include/hal.h"