ARM GAS  /tmp/ccCMkwph.s 			page 1


   1              		.cpu cortex-m0
   2              		.fpu softvfp
   3              		.eabi_attribute 20, 1
   4              		.eabi_attribute 21, 1
   5              		.eabi_attribute 23, 3
   6              		.eabi_attribute 24, 1
   7              		.eabi_attribute 25, 1
   8              		.eabi_attribute 26, 1
   9              		.eabi_attribute 30, 4
  10              		.eabi_attribute 34, 0
  11              		.eabi_attribute 18, 4
  12              		.code	16
  13              		.file	"main.c"
  14              		.text
  15              	.Ltext0:
  16              		.cfi_sections	.debug_frame
  17              		.section	.text.Thread5,"ax",%progbits
  18              		.align	1
  19              		.global	Thread5
  20              		.code	16
  21              		.thumb_func
  22              		.type	Thread5, %function
  23              	Thread5:
  24              	.LFB82:
  25              		.file 1 "src/main.c"
  26              		.loc 1 95 0
  27              		.cfi_startproc
  28              	.LVL0:
  29 0000 08B5     		push	{r3, lr}
  30              	.LCFI0:
  31              		.cfi_def_cfa_offset 8
  32              		.cfi_offset 3, -8
  33              		.cfi_offset 14, -4
  34              		.loc 1 97 0
  35 0002 FFF7FEFF 		bl	startSerialCom
  36              	.LVL1:
  37              		.cfi_endproc
  38              	.LFE82:
  39              		.size	Thread5, .-Thread5
  40              		.section	.text.Thread4,"ax",%progbits
  41              		.align	1
  42              		.global	Thread4
  43              		.code	16
  44              		.thumb_func
  45              		.type	Thread4, %function
  46              	Thread4:
  47              	.LFB81:
  48              		.loc 1 84 0
  49              		.cfi_startproc
  50              	.LVL2:
  51 0000 08B5     		push	{r3, lr}
  52              	.LCFI1:
  53              		.cfi_def_cfa_offset 8
  54              		.cfi_offset 3, -8
  55              		.cfi_offset 14, -4
  56              		.loc 1 86 0
  57 0002 FFF7FEFF 		bl	startAdc
ARM GAS  /tmp/ccCMkwph.s 			page 2


  58              	.LVL3:
  59              		.loc 1 87 0
  60 0006 FFF7FEFF 		bl	startSensors
  61              	.LVL4:
  62              		.cfi_endproc
  63              	.LFE81:
  64              		.size	Thread4, .-Thread4
  65              		.section	.text.Thread3,"ax",%progbits
  66              		.align	1
  67              		.global	Thread3
  68              		.code	16
  69              		.thumb_func
  70              		.type	Thread3, %function
  71              	Thread3:
  72              	.LFB80:
  73              		.loc 1 74 0
  74              		.cfi_startproc
  75              	.LVL5:
  76 0000 08B5     		push	{r3, lr}
  77              	.LCFI2:
  78              		.cfi_def_cfa_offset 8
  79              		.cfi_offset 3, -8
  80              		.cfi_offset 14, -4
  81              		.loc 1 76 0
  82 0002 FFF7FEFF 		bl	startIgnition
  83              	.LVL6:
  84              		.cfi_endproc
  85              	.LFE80:
  86              		.size	Thread3, .-Thread3
  87              		.section	.text.Thread2,"ax",%progbits
  88              		.align	1
  89              		.global	Thread2
  90              		.code	16
  91              		.thumb_func
  92              		.type	Thread2, %function
  93              	Thread2:
  94              	.LFB79:
  95              		.loc 1 64 0
  96              		.cfi_startproc
  97              	.LVL7:
  98 0000 08B5     		push	{r3, lr}
  99              	.LCFI3:
 100              		.cfi_def_cfa_offset 8
 101              		.cfi_offset 3, -8
 102              		.cfi_offset 14, -4
 103              		.loc 1 66 0
 104 0002 FFF7FEFF 		bl	startDisplay
 105              	.LVL8:
 106              		.cfi_endproc
 107              	.LFE79:
 108              		.size	Thread2, .-Thread2
 109              		.section	.text.Thread1,"ax",%progbits
 110              		.align	1
 111              		.global	Thread1
 112              		.code	16
 113              		.thumb_func
 114              		.type	Thread1, %function
ARM GAS  /tmp/ccCMkwph.s 			page 3


 115              	Thread1:
 116              	.LFB78:
 117              		.loc 1 54 0
 118              		.cfi_startproc
 119              	.LVL9:
 120 0000 08B5     		push	{r3, lr}
 121              	.LCFI4:
 122              		.cfi_def_cfa_offset 8
 123              		.cfi_offset 3, -8
 124              		.cfi_offset 14, -4
 125              		.loc 1 56 0
 126 0002 FFF7FEFF 		bl	startLight
 127              	.LVL10:
 128              		.cfi_endproc
 129              	.LFE78:
 130              		.size	Thread1, .-Thread1
 131              		.section	.text.Thread0,"ax",%progbits
 132              		.align	1
 133              		.global	Thread0
 134              		.code	16
 135              		.thumb_func
 136              		.type	Thread0, %function
 137              	Thread0:
 138              	.LFB77:
 139              		.loc 1 15 0
 140              		.cfi_startproc
 141              	.LVL11:
 142 0000 10B5     		push	{r4, lr}
 143              	.LCFI5:
 144              		.cfi_def_cfa_offset 8
 145              		.cfi_offset 4, -8
 146              		.cfi_offset 14, -4
 147              		.loc 1 17 0
 148 0002 164C     		ldr	r4, .L13
 149 0004 636A     		ldr	r3, [r4, #36]
 150 0006 5A00     		lsl	r2, r3, #1
 151 0008 07D5     		bpl	.L7
 152              		.loc 1 20 0
 153 000a 1548     		ldr	r0, .L13+4
 154              	.LVL12:
 155 000c FFF7FEFF 		bl	serDbg
 156              	.LVL13:
 157              		.loc 1 23 0
 158 0010 626A     		ldr	r2, [r4, #36]
 159 0012 8020     		mov	r0, #128
 160 0014 4104     		lsl	r1, r0, #17
 161 0016 1143     		orr	r1, r2
 162 0018 6162     		str	r1, [r4, #36]
 163              	.L7:
 164              		.loc 1 27 0
 165 001a C024     		mov	r4, #192
 166 001c 6000     		lsl	r0, r4, #1
 167 001e FFF7FEFF 		bl	WWDG_SetPrescaler
 168              	.LVL14:
 169              		.loc 1 31 0
 170 0022 7E20     		mov	r0, #126
 171 0024 FFF7FEFF 		bl	WWDG_SetWindowValue
ARM GAS  /tmp/ccCMkwph.s 			page 4


 172              	.LVL15:
 173              		.loc 1 34 0
 174 0028 0E4B     		ldr	r3, .L13+8
 175 002a 8022     		mov	r2, #128
 176 002c 9868     		ldr	r0, [r3, #8]
 177 002e 1101     		lsl	r1, r2, #4
 178 0030 0143     		orr	r1, r0
 179 0032 9960     		str	r1, [r3, #8]
 180              		.loc 1 39 0
 181 0034 7F20     		mov	r0, #127
 182 0036 FFF7FEFF 		bl	WWDG_Enable
 183              	.LVL16:
 184              		.loc 1 40 0
 185 003a 0B48     		ldr	r0, .L13+12
 186 003c FFF7FEFF 		bl	serDbg
 187              	.LVL17:
 188              	.L8:
 189              		.loc 1 44 0 discriminator 1
 190 0040 0A4C     		ldr	r4, .L13+16
 191              		.loc 1 43 0 discriminator 1
 192 0042 7D20     		mov	r0, #125
 193 0044 FFF7FEFF 		bl	chThdSleep
 194              	.LVL18:
 195              		.loc 1 44 0 discriminator 1
 196 0048 6369     		ldr	r3, [r4, #20]
 197 004a 8020     		mov	r0, #128
 198 004c 8200     		lsl	r2, r0, #2
 199 004e 5A40     		eor	r2, r3
 200 0050 6261     		str	r2, [r4, #20]
 201              		.loc 1 45 0 discriminator 1
 202 0052 7F20     		mov	r0, #127
 203 0054 FFF7FEFF 		bl	WWDG_SetCounter
 204              	.LVL19:
 205 0058 F2E7     		b	.L8
 206              	.L14:
 207 005a C046     		.align	2
 208              	.L13:
 209 005c 00100240 		.word	1073876992
 210 0060 00000000 		.word	.LC0
 211 0064 00580140 		.word	1073829888
 212 0068 16000000 		.word	.LC2
 213 006c 00080048 		.word	1207961600
 214              		.cfi_endproc
 215              	.LFE77:
 216              		.size	Thread0, .-Thread0
 217              		.section	.text.startup.main,"ax",%progbits
 218              		.align	1
 219              		.global	main
 220              		.code	16
 221              		.thumb_func
 222              		.type	main, %function
 223              	main:
 224              	.LFB83:
 225              		.loc 1 117 0
 226              		.cfi_startproc
 227 0000 08B5     		push	{r3, lr}
 228              	.LCFI6:
ARM GAS  /tmp/ccCMkwph.s 			page 5


 229              		.cfi_def_cfa_offset 8
 230              		.cfi_offset 3, -8
 231              		.cfi_offset 14, -4
 232              		.loc 1 123 0
 233 0002 FFF7FEFF 		bl	halInit
 234              	.LVL20:
 235              		.loc 1 124 0
 236 0006 FFF7FEFF 		bl	settingsInit
 237              	.LVL21:
 238              		.loc 1 125 0
 239 000a 0348     		ldr	r0, .L17
 240 000c FFF7FEFF 		bl	usartInit
 241              	.LVL22:
 242              		.loc 1 126 0
 243 0010 FFF7FEFF 		bl	chSysInit
 244              	.LVL23:
 245              	.L16:
 246 0014 FEE7     		b	.L16
 247              	.L18:
 248 0016 C046     		.align	2
 249              	.L17:
 250 0018 00380140 		.word	1073821696
 251              		.cfi_endproc
 252              	.LFE83:
 253              		.size	main, .-main
 254              		.global	nil_thd_configs
 255              		.global	waThread5
 256              		.global	waThread4
 257              		.global	waThread3
 258              		.global	waThread2
 259              		.global	waThread1
 260              		.global	waThread0
 261              		.section	.bss.waThread0,"aw",%nobits
 262              		.align	3
 263              		.type	waThread0, %object
 264              		.size	waThread0, 184
 265              	waThread0:
 266 0000 00000000 		.space	184
 266      00000000 
 266      00000000 
 266      00000000 
 266      00000000 
 267              		.section	.bss.waThread1,"aw",%nobits
 268              		.align	3
 269              		.type	waThread1, %object
 270              		.size	waThread1, 248
 271              	waThread1:
 272 0000 00000000 		.space	248
 272      00000000 
 272      00000000 
 272      00000000 
 272      00000000 
 273              		.section	.bss.waThread2,"aw",%nobits
 274              		.align	3
 275              		.type	waThread2, %object
 276              		.size	waThread2, 376
 277              	waThread2:
ARM GAS  /tmp/ccCMkwph.s 			page 6


 278 0000 00000000 		.space	376
 278      00000000 
 278      00000000 
 278      00000000 
 278      00000000 
 279              		.section	.bss.waThread3,"aw",%nobits
 280              		.align	3
 281              		.type	waThread3, %object
 282              		.size	waThread3, 248
 283              	waThread3:
 284 0000 00000000 		.space	248
 284      00000000 
 284      00000000 
 284      00000000 
 284      00000000 
 285              		.section	.bss.waThread4,"aw",%nobits
 286              		.align	3
 287              		.type	waThread4, %object
 288              		.size	waThread4, 248
 289              	waThread4:
 290 0000 00000000 		.space	248
 290      00000000 
 290      00000000 
 290      00000000 
 290      00000000 
 291              		.section	.bss.waThread5,"aw",%nobits
 292              		.align	3
 293              		.type	waThread5, %object
 294              		.size	waThread5, 248
 295              	waThread5:
 296 0000 00000000 		.space	248
 296      00000000 
 296      00000000 
 296      00000000 
 296      00000000 
 297              		.section	.rodata.nil_thd_configs,"a",%progbits
 298              		.align	2
 299              		.type	nil_thd_configs, %object
 300              		.size	nil_thd_configs, 140
 301              	nil_thd_configs:
 302 0000 00000000 		.word	waThread0
 303 0004 C0050000 		.word	waThread0+1472
 304 0008 25000000 		.word	.LC4
 305 000c 00000000 		.word	Thread0
 306 0010 00000000 		.word	0
 307 0014 00000000 		.word	waThread1
 308 0018 C0070000 		.word	waThread1+1984
 309 001c 2E000000 		.word	.LC5
 310 0020 00000000 		.word	Thread1
 311 0024 00000000 		.word	0
 312 0028 00000000 		.word	waThread2
 313 002c C00B0000 		.word	waThread2+3008
 314 0030 34000000 		.word	.LC6
 315 0034 00000000 		.word	Thread2
 316 0038 00000000 		.word	0
 317 003c 00000000 		.word	waThread3
 318 0040 C0070000 		.word	waThread3+1984
ARM GAS  /tmp/ccCMkwph.s 			page 7


 319 0044 3C000000 		.word	.LC7
 320 0048 00000000 		.word	Thread3
 321 004c 00000000 		.word	0
 322 0050 00000000 		.word	waThread4
 323 0054 C0070000 		.word	waThread4+1984
 324 0058 45000000 		.word	.LC8
 325 005c 00000000 		.word	Thread4
 326 0060 00000000 		.word	0
 327 0064 00000000 		.word	waThread5
 328 0068 C0070000 		.word	waThread5+1984
 329 006c 4D000000 		.word	.LC9
 330 0070 00000000 		.word	Thread5
 331 0074 00000000 		.word	0
 332 0078 00000000 		.word	0
 333 007c 00000000 		.word	0
 334 0080 58000000 		.word	.LC10
 335 0084 00000000 		.word	0
 336 0088 00000000 		.word	0
 337              		.section	.rodata.str1.1,"aMS",%progbits,1
 338              	.LC0:
 339 0000 0D0A2A2A 		.ascii	"\015\012**WWDG Reset!**\015\012\015\012\000"
 339      57574447 
 339      20526573 
 339      6574212A 
 339      2A0D0A0D 
 340              	.LC2:
 341 0016 57574447 		.ascii	"WWDG Started\015\012\000"
 341      20537461 
 341      72746564 
 341      0D0A00
 342              	.LC4:
 343 0025 57617463 		.ascii	"Watchdog\000"
 343      68646F67 
 343      00
 344              	.LC5:
 345 002e 4C696768 		.ascii	"Light\000"
 345      7400
 346              	.LC6:
 347 0034 44697370 		.ascii	"Display\000"
 347      6C617900 
 348              	.LC7:
 349 003c 49676E69 		.ascii	"Ignition\000"
 349      74696F6E 
 349      00
 350              	.LC8:
 351 0045 53656E73 		.ascii	"Sensors\000"
 351      6F727300 
 352              	.LC9:
 353 004d 53657269 		.ascii	"Serial Com\000"
 353      616C2043 
 353      6F6D00
 354              	.LC10:
 355 0058 69646C65 		.ascii	"idle\000"
 355      00
 356              		.text
 357              	.Letext0:
 358              		.file 2 "/media/data/src/x-tools/gcc-arm-none-eabi-4_7-2013q1/bin/../lib/gcc/arm-none-eabi/4.7.3/.
ARM GAS  /tmp/ccCMkwph.s 			page 8


 359              		.file 3 "./os/nil/include/nil.h"
 360              		.file 4 "./os/nil/ports/ARMCMx/compilers/GCC/niltypes.h"
 361              		.file 5 "./os/ext/CMSIS/ST/stm32f0xx.h"
 362              		.file 6 "./os/nil/ports/ARMCMx/nilcore.h"
 363              		.file 7 "./os/nil/ports/ARMCMx/nilcore_v6m.h"
 364              		.file 8 "./os/hal/ports/STM32/GPIOv2/pal_lld.h"
 365              		.file 9 "inc/threads.h"
 366              		.file 10 "lib/STM32F0xx_StdPeriph_Driver/inc/stm32f0xx_wwdg.h"
 367              		.file 11 "./os/hal/include/hal.h"
 368              		.section	.debug_info,"",%progbits
 369              	.Ldebug_info0:
 370 0000 8F0A0000 		.4byte	0xa8f
 371 0004 0200     		.2byte	0x2
 372 0006 00000000 		.4byte	.Ldebug_abbrev0
 373 000a 04       		.byte	0x4
 374 000b 01       		.uleb128 0x1
 375 000c 43040000 		.4byte	.LASF110
 376 0010 01       		.byte	0x1
 377 0011 1A040000 		.4byte	.LASF111
 378 0015 DB010000 		.4byte	.LASF112
 379 0019 00000000 		.4byte	.Ldebug_ranges0+0
 380 001d 00000000 		.4byte	0
 381 0021 00000000 		.4byte	0
 382 0025 00000000 		.4byte	.Ldebug_line0
 383 0029 02       		.uleb128 0x2
 384 002a 04       		.byte	0x4
 385 002b 05       		.byte	0x5
 386 002c 696E7400 		.ascii	"int\000"
 387 0030 03       		.uleb128 0x3
 388 0031 04       		.byte	0x4
 389 0032 07       		.byte	0x7
 390 0033 25000000 		.4byte	.LASF0
 391 0037 03       		.uleb128 0x3
 392 0038 01       		.byte	0x1
 393 0039 06       		.byte	0x6
 394 003a 0E040000 		.4byte	.LASF1
 395 003e 04       		.uleb128 0x4
 396 003f D3010000 		.4byte	.LASF4
 397 0043 02       		.byte	0x2
 398 0044 2A       		.byte	0x2a
 399 0045 49000000 		.4byte	0x49
 400 0049 03       		.uleb128 0x3
 401 004a 01       		.byte	0x1
 402 004b 08       		.byte	0x8
 403 004c 95030000 		.4byte	.LASF2
 404 0050 03       		.uleb128 0x3
 405 0051 02       		.byte	0x2
 406 0052 05       		.byte	0x5
 407 0053 CE020000 		.4byte	.LASF3
 408 0057 04       		.uleb128 0x4
 409 0058 86020000 		.4byte	.LASF5
 410 005c 02       		.byte	0x2
 411 005d 36       		.byte	0x36
 412 005e 62000000 		.4byte	0x62
 413 0062 03       		.uleb128 0x3
 414 0063 02       		.byte	0x2
 415 0064 07       		.byte	0x7
ARM GAS  /tmp/ccCMkwph.s 			page 9


 416 0065 25040000 		.4byte	.LASF6
 417 0069 04       		.uleb128 0x4
 418 006a 51030000 		.4byte	.LASF7
 419 006e 02       		.byte	0x2
 420 006f 4F       		.byte	0x4f
 421 0070 74000000 		.4byte	0x74
 422 0074 03       		.uleb128 0x3
 423 0075 04       		.byte	0x4
 424 0076 05       		.byte	0x5
 425 0077 DD020000 		.4byte	.LASF8
 426 007b 04       		.uleb128 0x4
 427 007c A9000000 		.4byte	.LASF9
 428 0080 02       		.byte	0x2
 429 0081 50       		.byte	0x50
 430 0082 86000000 		.4byte	0x86
 431 0086 03       		.uleb128 0x3
 432 0087 04       		.byte	0x4
 433 0088 07       		.byte	0x7
 434 0089 37030000 		.4byte	.LASF10
 435 008d 03       		.uleb128 0x3
 436 008e 08       		.byte	0x8
 437 008f 05       		.byte	0x5
 438 0090 17020000 		.4byte	.LASF11
 439 0094 04       		.uleb128 0x4
 440 0095 F9020000 		.4byte	.LASF12
 441 0099 02       		.byte	0x2
 442 009a 78       		.byte	0x78
 443 009b 9F000000 		.4byte	0x9f
 444 009f 03       		.uleb128 0x3
 445 00a0 08       		.byte	0x8
 446 00a1 07       		.byte	0x7
 447 00a2 DE000000 		.4byte	.LASF13
 448 00a6 05       		.uleb128 0x5
 449 00a7 03040000 		.4byte	.LASF49
 450 00ab 14       		.byte	0x14
 451 00ac 03       		.byte	0x3
 452 00ad 1E01     		.2byte	0x11e
 453 00af FE000000 		.4byte	0xfe
 454 00b3 06       		.uleb128 0x6
 455 00b4 D8020000 		.4byte	.LASF14
 456 00b8 03       		.byte	0x3
 457 00b9 1F01     		.2byte	0x11f
 458 00bb 4E050000 		.4byte	0x54e
 459 00bf 02       		.byte	0x2
 460 00c0 23       		.byte	0x23
 461 00c1 00       		.uleb128 0
 462 00c2 06       		.uleb128 0x6
 463 00c3 B6030000 		.4byte	.LASF15
 464 00c7 03       		.byte	0x3
 465 00c8 2001     		.2byte	0x120
 466 00ca FE000000 		.4byte	0xfe
 467 00ce 02       		.byte	0x2
 468 00cf 23       		.byte	0x23
 469 00d0 04       		.uleb128 0x4
 470 00d1 07       		.uleb128 0x7
 471 00d2 753100   		.ascii	"u1\000"
 472 00d5 03       		.byte	0x3
ARM GAS  /tmp/ccCMkwph.s 			page 10


 473 00d6 2B01     		.2byte	0x12b
 474 00d8 FE040000 		.4byte	0x4fe
 475 00dc 02       		.byte	0x2
 476 00dd 23       		.byte	0x23
 477 00de 08       		.uleb128 0x8
 478 00df 06       		.uleb128 0x6
 479 00e0 A3030000 		.4byte	.LASF16
 480 00e4 03       		.byte	0x3
 481 00e5 2C01     		.2byte	0x12c
 482 00e7 54050000 		.4byte	0x554
 483 00eb 02       		.byte	0x2
 484 00ec 23       		.byte	0x23
 485 00ed 0C       		.uleb128 0xc
 486 00ee 06       		.uleb128 0x6
 487 00ef 4E020000 		.4byte	.LASF17
 488 00f3 03       		.byte	0x3
 489 00f4 2F01     		.2byte	0x12f
 490 00f6 14010000 		.4byte	0x114
 491 00fa 02       		.byte	0x2
 492 00fb 23       		.byte	0x23
 493 00fc 10       		.uleb128 0x10
 494 00fd 00       		.byte	0
 495 00fe 04       		.uleb128 0x4
 496 00ff B4010000 		.4byte	.LASF18
 497 0103 04       		.byte	0x4
 498 0104 37       		.byte	0x37
 499 0105 3E000000 		.4byte	0x3e
 500 0109 04       		.uleb128 0x4
 501 010a 2C020000 		.4byte	.LASF19
 502 010e 04       		.byte	0x4
 503 010f 38       		.byte	0x38
 504 0110 69000000 		.4byte	0x69
 505 0114 04       		.uleb128 0x4
 506 0115 B9000000 		.4byte	.LASF20
 507 0119 04       		.byte	0x4
 508 011a 39       		.byte	0x39
 509 011b 7B000000 		.4byte	0x7b
 510 011f 04       		.uleb128 0x4
 511 0120 F5000000 		.4byte	.LASF21
 512 0124 04       		.byte	0x4
 513 0125 3A       		.byte	0x3a
 514 0126 69000000 		.4byte	0x69
 515 012a 03       		.uleb128 0x3
 516 012b 04       		.byte	0x4
 517 012c 07       		.byte	0x7
 518 012d 2E030000 		.4byte	.LASF22
 519 0131 08       		.uleb128 0x8
 520 0132 7B000000 		.4byte	0x7b
 521 0136 09       		.uleb128 0x9
 522 0137 10       		.byte	0x10
 523 0138 05       		.byte	0x5
 524 0139 6001     		.2byte	0x160
 525 013b 7B010000 		.4byte	0x17b
 526 013f 06       		.uleb128 0x6
 527 0140 25020000 		.4byte	.LASF23
 528 0144 05       		.byte	0x5
 529 0145 6201     		.2byte	0x162
ARM GAS  /tmp/ccCMkwph.s 			page 11


 530 0147 31010000 		.4byte	0x131
 531 014b 02       		.byte	0x2
 532 014c 23       		.byte	0x23
 533 014d 00       		.uleb128 0
 534 014e 07       		.uleb128 0x7
 535 014f 435200   		.ascii	"CR\000"
 536 0152 05       		.byte	0x5
 537 0153 6301     		.2byte	0x163
 538 0155 31010000 		.4byte	0x131
 539 0159 02       		.byte	0x2
 540 015a 23       		.byte	0x23
 541 015b 04       		.uleb128 0x4
 542 015c 06       		.uleb128 0x6
 543 015d B2000000 		.4byte	.LASF24
 544 0161 05       		.byte	0x5
 545 0162 6401     		.2byte	0x164
 546 0164 31010000 		.4byte	0x131
 547 0168 02       		.byte	0x2
 548 0169 23       		.byte	0x23
 549 016a 08       		.uleb128 0x8
 550 016b 06       		.uleb128 0x6
 551 016c 69020000 		.4byte	.LASF25
 552 0170 05       		.byte	0x5
 553 0171 6501     		.2byte	0x165
 554 0173 31010000 		.4byte	0x131
 555 0177 02       		.byte	0x2
 556 0178 23       		.byte	0x23
 557 0179 0C       		.uleb128 0xc
 558 017a 00       		.byte	0
 559 017b 0A       		.uleb128 0xa
 560 017c 8E000000 		.4byte	.LASF26
 561 0180 05       		.byte	0x5
 562 0181 6601     		.2byte	0x166
 563 0183 36010000 		.4byte	0x136
 564 0187 08       		.uleb128 0x8
 565 0188 57000000 		.4byte	0x57
 566 018c 09       		.uleb128 0x9
 567 018d 38       		.byte	0x38
 568 018e 05       		.byte	0x5
 569 018f F701     		.2byte	0x1f7
 570 0191 67020000 		.4byte	0x267
 571 0195 07       		.uleb128 0x7
 572 0196 435200   		.ascii	"CR\000"
 573 0199 05       		.byte	0x5
 574 019a F901     		.2byte	0x1f9
 575 019c 31010000 		.4byte	0x131
 576 01a0 02       		.byte	0x2
 577 01a1 23       		.byte	0x23
 578 01a2 00       		.uleb128 0
 579 01a3 06       		.uleb128 0x6
 580 01a4 02030000 		.4byte	.LASF27
 581 01a8 05       		.byte	0x5
 582 01a9 FA01     		.2byte	0x1fa
 583 01ab 31010000 		.4byte	0x131
 584 01af 02       		.byte	0x2
 585 01b0 23       		.byte	0x23
 586 01b1 04       		.uleb128 0x4
ARM GAS  /tmp/ccCMkwph.s 			page 12


 587 01b2 07       		.uleb128 0x7
 588 01b3 43495200 		.ascii	"CIR\000"
 589 01b7 05       		.byte	0x5
 590 01b8 FB01     		.2byte	0x1fb
 591 01ba 31010000 		.4byte	0x131
 592 01be 02       		.byte	0x2
 593 01bf 23       		.byte	0x23
 594 01c0 08       		.uleb128 0x8
 595 01c1 06       		.uleb128 0x6
 596 01c2 1C000000 		.4byte	.LASF28
 597 01c6 05       		.byte	0x5
 598 01c7 FC01     		.2byte	0x1fc
 599 01c9 31010000 		.4byte	0x131
 600 01cd 02       		.byte	0x2
 601 01ce 23       		.byte	0x23
 602 01cf 0C       		.uleb128 0xc
 603 01d0 06       		.uleb128 0x6
 604 01d1 89010000 		.4byte	.LASF29
 605 01d5 05       		.byte	0x5
 606 01d6 FD01     		.2byte	0x1fd
 607 01d8 31010000 		.4byte	0x131
 608 01dc 02       		.byte	0x2
 609 01dd 23       		.byte	0x23
 610 01de 10       		.uleb128 0x10
 611 01df 06       		.uleb128 0x6
 612 01e0 BD010000 		.4byte	.LASF30
 613 01e4 05       		.byte	0x5
 614 01e5 FE01     		.2byte	0x1fe
 615 01e7 31010000 		.4byte	0x131
 616 01eb 02       		.byte	0x2
 617 01ec 23       		.byte	0x23
 618 01ed 14       		.uleb128 0x14
 619 01ee 06       		.uleb128 0x6
 620 01ef 61020000 		.4byte	.LASF31
 621 01f3 05       		.byte	0x5
 622 01f4 FF01     		.2byte	0x1ff
 623 01f6 31010000 		.4byte	0x131
 624 01fa 02       		.byte	0x2
 625 01fb 23       		.byte	0x23
 626 01fc 18       		.uleb128 0x18
 627 01fd 06       		.uleb128 0x6
 628 01fe 05000000 		.4byte	.LASF32
 629 0202 05       		.byte	0x5
 630 0203 0002     		.2byte	0x200
 631 0205 31010000 		.4byte	0x131
 632 0209 02       		.byte	0x2
 633 020a 23       		.byte	0x23
 634 020b 1C       		.uleb128 0x1c
 635 020c 06       		.uleb128 0x6
 636 020d 37000000 		.4byte	.LASF33
 637 0211 05       		.byte	0x5
 638 0212 0102     		.2byte	0x201
 639 0214 31010000 		.4byte	0x131
 640 0218 02       		.byte	0x2
 641 0219 23       		.byte	0x23
 642 021a 20       		.uleb128 0x20
 643 021b 07       		.uleb128 0x7
ARM GAS  /tmp/ccCMkwph.s 			page 13


 644 021c 43535200 		.ascii	"CSR\000"
 645 0220 05       		.byte	0x5
 646 0221 0202     		.2byte	0x202
 647 0223 31010000 		.4byte	0x131
 648 0227 02       		.byte	0x2
 649 0228 23       		.byte	0x23
 650 0229 24       		.uleb128 0x24
 651 022a 06       		.uleb128 0x6
 652 022b C5000000 		.4byte	.LASF34
 653 022f 05       		.byte	0x5
 654 0230 0302     		.2byte	0x203
 655 0232 31010000 		.4byte	0x131
 656 0236 02       		.byte	0x2
 657 0237 23       		.byte	0x23
 658 0238 28       		.uleb128 0x28
 659 0239 06       		.uleb128 0x6
 660 023a 55020000 		.4byte	.LASF35
 661 023e 05       		.byte	0x5
 662 023f 0402     		.2byte	0x204
 663 0241 31010000 		.4byte	0x131
 664 0245 02       		.byte	0x2
 665 0246 23       		.byte	0x23
 666 0247 2C       		.uleb128 0x2c
 667 0248 06       		.uleb128 0x6
 668 0249 5B020000 		.4byte	.LASF36
 669 024d 05       		.byte	0x5
 670 024e 0502     		.2byte	0x205
 671 0250 31010000 		.4byte	0x131
 672 0254 02       		.byte	0x2
 673 0255 23       		.byte	0x23
 674 0256 30       		.uleb128 0x30
 675 0257 07       		.uleb128 0x7
 676 0258 43523200 		.ascii	"CR2\000"
 677 025c 05       		.byte	0x5
 678 025d 0602     		.2byte	0x206
 679 025f 31010000 		.4byte	0x131
 680 0263 02       		.byte	0x2
 681 0264 23       		.byte	0x23
 682 0265 34       		.uleb128 0x34
 683 0266 00       		.byte	0
 684 0267 0A       		.uleb128 0xa
 685 0268 5A010000 		.4byte	.LASF37
 686 026c 05       		.byte	0x5
 687 026d 0702     		.2byte	0x207
 688 026f 8C010000 		.4byte	0x18c
 689 0273 09       		.uleb128 0x9
 690 0274 2C       		.byte	0x2c
 691 0275 05       		.byte	0x5
 692 0276 8A02     		.2byte	0x28a
 693 0278 6D030000 		.4byte	0x36d
 694 027c 07       		.uleb128 0x7
 695 027d 43523100 		.ascii	"CR1\000"
 696 0281 05       		.byte	0x5
 697 0282 8C02     		.2byte	0x28c
 698 0284 31010000 		.4byte	0x131
 699 0288 02       		.byte	0x2
 700 0289 23       		.byte	0x23
ARM GAS  /tmp/ccCMkwph.s 			page 14


 701 028a 00       		.uleb128 0
 702 028b 07       		.uleb128 0x7
 703 028c 43523200 		.ascii	"CR2\000"
 704 0290 05       		.byte	0x5
 705 0291 8D02     		.2byte	0x28d
 706 0293 31010000 		.4byte	0x131
 707 0297 02       		.byte	0x2
 708 0298 23       		.byte	0x23
 709 0299 04       		.uleb128 0x4
 710 029a 07       		.uleb128 0x7
 711 029b 43523300 		.ascii	"CR3\000"
 712 029f 05       		.byte	0x5
 713 02a0 8E02     		.2byte	0x28e
 714 02a2 31010000 		.4byte	0x131
 715 02a6 02       		.byte	0x2
 716 02a7 23       		.byte	0x23
 717 02a8 08       		.uleb128 0x8
 718 02a9 07       		.uleb128 0x7
 719 02aa 42525200 		.ascii	"BRR\000"
 720 02ae 05       		.byte	0x5
 721 02af 8F02     		.2byte	0x28f
 722 02b1 87010000 		.4byte	0x187
 723 02b5 02       		.byte	0x2
 724 02b6 23       		.byte	0x23
 725 02b7 0C       		.uleb128 0xc
 726 02b8 06       		.uleb128 0x6
 727 02b9 9C020000 		.4byte	.LASF38
 728 02bd 05       		.byte	0x5
 729 02be 9002     		.2byte	0x290
 730 02c0 57000000 		.4byte	0x57
 731 02c4 02       		.byte	0x2
 732 02c5 23       		.byte	0x23
 733 02c6 0E       		.uleb128 0xe
 734 02c7 06       		.uleb128 0x6
 735 02c8 9D000000 		.4byte	.LASF39
 736 02cc 05       		.byte	0x5
 737 02cd 9102     		.2byte	0x291
 738 02cf 87010000 		.4byte	0x187
 739 02d3 02       		.byte	0x2
 740 02d4 23       		.byte	0x23
 741 02d5 10       		.uleb128 0x10
 742 02d6 06       		.uleb128 0x6
 743 02d7 A6020000 		.4byte	.LASF40
 744 02db 05       		.byte	0x5
 745 02dc 9202     		.2byte	0x292
 746 02de 57000000 		.4byte	0x57
 747 02e2 02       		.byte	0x2
 748 02e3 23       		.byte	0x23
 749 02e4 12       		.uleb128 0x12
 750 02e5 06       		.uleb128 0x6
 751 02e6 58000000 		.4byte	.LASF41
 752 02ea 05       		.byte	0x5
 753 02eb 9302     		.2byte	0x293
 754 02ed 31010000 		.4byte	0x131
 755 02f1 02       		.byte	0x2
 756 02f2 23       		.byte	0x23
 757 02f3 14       		.uleb128 0x14
ARM GAS  /tmp/ccCMkwph.s 			page 15


 758 02f4 07       		.uleb128 0x7
 759 02f5 52515200 		.ascii	"RQR\000"
 760 02f9 05       		.byte	0x5
 761 02fa 9402     		.2byte	0x294
 762 02fc 87010000 		.4byte	0x187
 763 0300 02       		.byte	0x2
 764 0301 23       		.byte	0x23
 765 0302 18       		.uleb128 0x18
 766 0303 06       		.uleb128 0x6
 767 0304 B0020000 		.4byte	.LASF42
 768 0308 05       		.byte	0x5
 769 0309 9502     		.2byte	0x295
 770 030b 57000000 		.4byte	0x57
 771 030f 02       		.byte	0x2
 772 0310 23       		.byte	0x23
 773 0311 1A       		.uleb128 0x1a
 774 0312 07       		.uleb128 0x7
 775 0313 49535200 		.ascii	"ISR\000"
 776 0317 05       		.byte	0x5
 777 0318 9602     		.2byte	0x296
 778 031a 31010000 		.4byte	0x131
 779 031e 02       		.byte	0x2
 780 031f 23       		.byte	0x23
 781 0320 1C       		.uleb128 0x1c
 782 0321 07       		.uleb128 0x7
 783 0322 49435200 		.ascii	"ICR\000"
 784 0326 05       		.byte	0x5
 785 0327 9702     		.2byte	0x297
 786 0329 31010000 		.4byte	0x131
 787 032d 02       		.byte	0x2
 788 032e 23       		.byte	0x23
 789 032f 20       		.uleb128 0x20
 790 0330 07       		.uleb128 0x7
 791 0331 52445200 		.ascii	"RDR\000"
 792 0335 05       		.byte	0x5
 793 0336 9802     		.2byte	0x298
 794 0338 87010000 		.4byte	0x187
 795 033c 02       		.byte	0x2
 796 033d 23       		.byte	0x23
 797 033e 24       		.uleb128 0x24
 798 033f 06       		.uleb128 0x6
 799 0340 BA020000 		.4byte	.LASF43
 800 0344 05       		.byte	0x5
 801 0345 9902     		.2byte	0x299
 802 0347 57000000 		.4byte	0x57
 803 034b 02       		.byte	0x2
 804 034c 23       		.byte	0x23
 805 034d 26       		.uleb128 0x26
 806 034e 07       		.uleb128 0x7
 807 034f 54445200 		.ascii	"TDR\000"
 808 0353 05       		.byte	0x5
 809 0354 9A02     		.2byte	0x29a
 810 0356 87010000 		.4byte	0x187
 811 035a 02       		.byte	0x2
 812 035b 23       		.byte	0x23
 813 035c 28       		.uleb128 0x28
 814 035d 06       		.uleb128 0x6
ARM GAS  /tmp/ccCMkwph.s 			page 16


 815 035e C4020000 		.4byte	.LASF44
 816 0362 05       		.byte	0x5
 817 0363 9B02     		.2byte	0x29b
 818 0365 57000000 		.4byte	0x57
 819 0369 02       		.byte	0x2
 820 036a 23       		.byte	0x23
 821 036b 2A       		.uleb128 0x2a
 822 036c 00       		.byte	0
 823 036d 0A       		.uleb128 0xa
 824 036e 71010000 		.4byte	.LASF45
 825 0372 05       		.byte	0x5
 826 0373 9C02     		.2byte	0x29c
 827 0375 73020000 		.4byte	0x273
 828 0379 04       		.uleb128 0x4
 829 037a 7F010000 		.4byte	.LASF46
 830 037e 06       		.byte	0x6
 831 037f 77       		.byte	0x77
 832 0380 57000000 		.4byte	0x57
 833 0384 04       		.uleb128 0x4
 834 0385 13000000 		.4byte	.LASF47
 835 0389 06       		.byte	0x6
 836 038a 7D       		.byte	0x7d
 837 038b 8F030000 		.4byte	0x38f
 838 038f 0B       		.uleb128 0xb
 839 0390 04       		.byte	0x4
 840 0391 04       		.uleb128 0x4
 841 0392 38040000 		.4byte	.LASF48
 842 0396 06       		.byte	0x6
 843 0397 85       		.byte	0x85
 844 0398 94000000 		.4byte	0x94
 845 039c 0C       		.uleb128 0xc
 846 039d E6020000 		.4byte	.LASF50
 847 03a1 24       		.byte	0x24
 848 03a2 07       		.byte	0x7
 849 03a3 A4       		.byte	0xa4
 850 03a4 20040000 		.4byte	0x420
 851 03a8 0D       		.uleb128 0xd
 852 03a9 723800   		.ascii	"r8\000"
 853 03ac 07       		.byte	0x7
 854 03ad A5       		.byte	0xa5
 855 03ae 84030000 		.4byte	0x384
 856 03b2 02       		.byte	0x2
 857 03b3 23       		.byte	0x23
 858 03b4 00       		.uleb128 0
 859 03b5 0D       		.uleb128 0xd
 860 03b6 723900   		.ascii	"r9\000"
 861 03b9 07       		.byte	0x7
 862 03ba A6       		.byte	0xa6
 863 03bb 84030000 		.4byte	0x384
 864 03bf 02       		.byte	0x2
 865 03c0 23       		.byte	0x23
 866 03c1 04       		.uleb128 0x4
 867 03c2 0D       		.uleb128 0xd
 868 03c3 72313000 		.ascii	"r10\000"
 869 03c7 07       		.byte	0x7
 870 03c8 A7       		.byte	0xa7
 871 03c9 84030000 		.4byte	0x384
ARM GAS  /tmp/ccCMkwph.s 			page 17


 872 03cd 02       		.byte	0x2
 873 03ce 23       		.byte	0x23
 874 03cf 08       		.uleb128 0x8
 875 03d0 0D       		.uleb128 0xd
 876 03d1 72313100 		.ascii	"r11\000"
 877 03d5 07       		.byte	0x7
 878 03d6 A8       		.byte	0xa8
 879 03d7 84030000 		.4byte	0x384
 880 03db 02       		.byte	0x2
 881 03dc 23       		.byte	0x23
 882 03dd 0C       		.uleb128 0xc
 883 03de 0D       		.uleb128 0xd
 884 03df 723400   		.ascii	"r4\000"
 885 03e2 07       		.byte	0x7
 886 03e3 A9       		.byte	0xa9
 887 03e4 84030000 		.4byte	0x384
 888 03e8 02       		.byte	0x2
 889 03e9 23       		.byte	0x23
 890 03ea 10       		.uleb128 0x10
 891 03eb 0D       		.uleb128 0xd
 892 03ec 723500   		.ascii	"r5\000"
 893 03ef 07       		.byte	0x7
 894 03f0 AA       		.byte	0xaa
 895 03f1 84030000 		.4byte	0x384
 896 03f5 02       		.byte	0x2
 897 03f6 23       		.byte	0x23
 898 03f7 14       		.uleb128 0x14
 899 03f8 0D       		.uleb128 0xd
 900 03f9 723600   		.ascii	"r6\000"
 901 03fc 07       		.byte	0x7
 902 03fd AB       		.byte	0xab
 903 03fe 84030000 		.4byte	0x384
 904 0402 02       		.byte	0x2
 905 0403 23       		.byte	0x23
 906 0404 18       		.uleb128 0x18
 907 0405 0D       		.uleb128 0xd
 908 0406 723700   		.ascii	"r7\000"
 909 0409 07       		.byte	0x7
 910 040a AC       		.byte	0xac
 911 040b 84030000 		.4byte	0x384
 912 040f 02       		.byte	0x2
 913 0410 23       		.byte	0x23
 914 0411 1C       		.uleb128 0x1c
 915 0412 0D       		.uleb128 0xd
 916 0413 6C7200   		.ascii	"lr\000"
 917 0416 07       		.byte	0x7
 918 0417 AD       		.byte	0xad
 919 0418 84030000 		.4byte	0x384
 920 041c 02       		.byte	0x2
 921 041d 23       		.byte	0x23
 922 041e 20       		.uleb128 0x20
 923 041f 00       		.byte	0
 924 0420 04       		.uleb128 0x4
 925 0421 3F020000 		.4byte	.LASF51
 926 0425 03       		.byte	0x3
 927 0426 F3       		.byte	0xf3
 928 0427 9C030000 		.4byte	0x39c
ARM GAS  /tmp/ccCMkwph.s 			page 18


 929 042b 0E       		.uleb128 0xe
 930 042c 04       		.byte	0x4
 931 042d 03       		.byte	0x3
 932 042e F8       		.byte	0xf8
 933 042f 42040000 		.4byte	0x442
 934 0433 0D       		.uleb128 0xd
 935 0434 636E7400 		.ascii	"cnt\000"
 936 0438 03       		.byte	0x3
 937 0439 F9       		.byte	0xf9
 938 043a 42040000 		.4byte	0x442
 939 043e 02       		.byte	0x2
 940 043f 23       		.byte	0x23
 941 0440 00       		.uleb128 0
 942 0441 00       		.byte	0
 943 0442 08       		.uleb128 0x8
 944 0443 1F010000 		.4byte	0x11f
 945 0447 04       		.uleb128 0x4
 946 0448 25010000 		.4byte	.LASF52
 947 044c 03       		.byte	0x3
 948 044d FA       		.byte	0xfa
 949 044e 2B040000 		.4byte	0x42b
 950 0452 04       		.uleb128 0x4
 951 0453 D6000000 		.4byte	.LASF53
 952 0457 03       		.byte	0x3
 953 0458 FF       		.byte	0xff
 954 0459 5D040000 		.4byte	0x45d
 955 045d 0F       		.uleb128 0xf
 956 045e 04       		.byte	0x4
 957 045f 63040000 		.4byte	0x463
 958 0463 10       		.uleb128 0x10
 959 0464 01       		.byte	0x1
 960 0465 6F040000 		.4byte	0x46f
 961 0469 11       		.uleb128 0x11
 962 046a 8F030000 		.4byte	0x38f
 963 046e 00       		.byte	0
 964 046f 0A       		.uleb128 0xa
 965 0470 F3030000 		.4byte	.LASF54
 966 0474 03       		.byte	0x3
 967 0475 0401     		.2byte	0x104
 968 0477 7B040000 		.4byte	0x47b
 969 047b 05       		.uleb128 0x5
 970 047c 08020000 		.4byte	.LASF55
 971 0480 14       		.byte	0x14
 972 0481 03       		.byte	0x3
 973 0482 0E01     		.2byte	0x10e
 974 0484 D4040000 		.4byte	0x4d4
 975 0488 06       		.uleb128 0x6
 976 0489 0D000000 		.4byte	.LASF56
 977 048d 03       		.byte	0x3
 978 048e 0F01     		.2byte	0x10f
 979 0490 D4040000 		.4byte	0x4d4
 980 0494 02       		.byte	0x2
 981 0495 23       		.byte	0x23
 982 0496 00       		.uleb128 0
 983 0497 06       		.uleb128 0x6
 984 0498 6C010000 		.4byte	.LASF57
 985 049c 03       		.byte	0x3
ARM GAS  /tmp/ccCMkwph.s 			page 19


 986 049d 1001     		.2byte	0x110
 987 049f D4040000 		.4byte	0x4d4
 988 04a3 02       		.byte	0x2
 989 04a4 23       		.byte	0x23
 990 04a5 04       		.uleb128 0x4
 991 04a6 06       		.uleb128 0x6
 992 04a7 48020000 		.4byte	.LASF58
 993 04ab 03       		.byte	0x3
 994 04ac 1101     		.2byte	0x111
 995 04ae DA040000 		.4byte	0x4da
 996 04b2 02       		.byte	0x2
 997 04b3 23       		.byte	0x23
 998 04b4 08       		.uleb128 0x8
 999 04b5 06       		.uleb128 0x6
 1000 04b6 76000000 		.4byte	.LASF59
 1001 04ba 03       		.byte	0x3
 1002 04bb 1201     		.2byte	0x112
 1003 04bd 52040000 		.4byte	0x452
 1004 04c1 02       		.byte	0x2
 1005 04c2 23       		.byte	0x23
 1006 04c3 0C       		.uleb128 0xc
 1007 04c4 07       		.uleb128 0x7
 1008 04c5 61726700 		.ascii	"arg\000"
 1009 04c9 03       		.byte	0x3
 1010 04ca 1301     		.2byte	0x113
 1011 04cc 8F030000 		.4byte	0x38f
 1012 04d0 02       		.byte	0x2
 1013 04d1 23       		.byte	0x23
 1014 04d2 10       		.uleb128 0x10
 1015 04d3 00       		.byte	0
 1016 04d4 0F       		.uleb128 0xf
 1017 04d5 04       		.byte	0x4
 1018 04d6 91030000 		.4byte	0x391
 1019 04da 0F       		.uleb128 0xf
 1020 04db 04       		.byte	0x4
 1021 04dc E0040000 		.4byte	0x4e0
 1022 04e0 12       		.uleb128 0x12
 1023 04e1 E5040000 		.4byte	0x4e5
 1024 04e5 03       		.uleb128 0x3
 1025 04e6 01       		.byte	0x1
 1026 04e7 08       		.byte	0x8
 1027 04e8 92010000 		.4byte	.LASF60
 1028 04ec 0A       		.uleb128 0xa
 1029 04ed A1010000 		.4byte	.LASF61
 1030 04f1 03       		.byte	0x3
 1031 04f2 1901     		.2byte	0x119
 1032 04f4 F8040000 		.4byte	0x4f8
 1033 04f8 0F       		.uleb128 0xf
 1034 04f9 04       		.byte	0x4
 1035 04fa A6000000 		.4byte	0xa6
 1036 04fe 13       		.uleb128 0x13
 1037 04ff 04       		.byte	0x4
 1038 0500 03       		.byte	0x3
 1039 0501 2301     		.2byte	0x123
 1040 0503 42050000 		.4byte	0x542
 1041 0507 14       		.uleb128 0x14
 1042 0508 6D736700 		.ascii	"msg\000"
ARM GAS  /tmp/ccCMkwph.s 			page 20


 1043 050c 03       		.byte	0x3
 1044 050d 2401     		.2byte	0x124
 1045 050f 09010000 		.4byte	0x109
 1046 0513 14       		.uleb128 0x14
 1047 0514 7000     		.ascii	"p\000"
 1048 0516 03       		.byte	0x3
 1049 0517 2501     		.2byte	0x125
 1050 0519 8F030000 		.4byte	0x38f
 1051 051d 14       		.uleb128 0x14
 1052 051e 74727000 		.ascii	"trp\000"
 1053 0522 03       		.byte	0x3
 1054 0523 2601     		.2byte	0x126
 1055 0525 42050000 		.4byte	0x542
 1056 0529 15       		.uleb128 0x15
 1057 052a 71000000 		.4byte	.LASF62
 1058 052e 03       		.byte	0x3
 1059 052f 2701     		.2byte	0x127
 1060 0531 48050000 		.4byte	0x548
 1061 0535 15       		.uleb128 0x15
 1062 0536 BC030000 		.4byte	.LASF63
 1063 053a 03       		.byte	0x3
 1064 053b 2901     		.2byte	0x129
 1065 053d 14010000 		.4byte	0x114
 1066 0541 00       		.byte	0
 1067 0542 0F       		.uleb128 0xf
 1068 0543 04       		.byte	0x4
 1069 0544 EC040000 		.4byte	0x4ec
 1070 0548 0F       		.uleb128 0xf
 1071 0549 04       		.byte	0x4
 1072 054a 47040000 		.4byte	0x447
 1073 054e 0F       		.uleb128 0xf
 1074 054f 04       		.byte	0x4
 1075 0550 20040000 		.4byte	0x420
 1076 0554 08       		.uleb128 0x8
 1077 0555 79030000 		.4byte	0x379
 1078 0559 09       		.uleb128 0x9
 1079 055a 98       		.byte	0x98
 1080 055b 03       		.byte	0x3
 1081 055c 3D01     		.2byte	0x13d
 1082 055e 9F050000 		.4byte	0x59f
 1083 0562 06       		.uleb128 0x6
 1084 0563 8C040000 		.4byte	.LASF64
 1085 0567 03       		.byte	0x3
 1086 0568 4101     		.2byte	0x141
 1087 056a F8040000 		.4byte	0x4f8
 1088 056e 02       		.byte	0x2
 1089 056f 23       		.byte	0x23
 1090 0570 00       		.uleb128 0
 1091 0571 06       		.uleb128 0x6
 1092 0572 32000000 		.4byte	.LASF65
 1093 0576 03       		.byte	0x3
 1094 0577 4701     		.2byte	0x147
 1095 0579 F8040000 		.4byte	0x4f8
 1096 057d 02       		.byte	0x2
 1097 057e 23       		.byte	0x23
 1098 057f 04       		.uleb128 0x4
 1099 0580 06       		.uleb128 0x6
ARM GAS  /tmp/ccCMkwph.s 			page 21


 1100 0581 76020000 		.4byte	.LASF66
 1101 0585 03       		.byte	0x3
 1102 0586 4C01     		.2byte	0x14c
 1103 0588 79030000 		.4byte	0x379
 1104 058c 02       		.byte	0x2
 1105 058d 23       		.byte	0x23
 1106 058e 08       		.uleb128 0x8
 1107 058f 06       		.uleb128 0x6
 1108 0590 49030000 		.4byte	.LASF67
 1109 0594 03       		.byte	0x3
 1110 0595 5B01     		.2byte	0x15b
 1111 0597 9F050000 		.4byte	0x59f
 1112 059b 02       		.byte	0x2
 1113 059c 23       		.byte	0x23
 1114 059d 0C       		.uleb128 0xc
 1115 059e 00       		.byte	0
 1116 059f 16       		.uleb128 0x16
 1117 05a0 A6000000 		.4byte	0xa6
 1118 05a4 AF050000 		.4byte	0x5af
 1119 05a8 17       		.uleb128 0x17
 1120 05a9 2A010000 		.4byte	0x12a
 1121 05ad 06       		.byte	0x6
 1122 05ae 00       		.byte	0
 1123 05af 0A       		.uleb128 0xa
 1124 05b0 12030000 		.4byte	.LASF68
 1125 05b4 03       		.byte	0x3
 1126 05b5 6401     		.2byte	0x164
 1127 05b7 59050000 		.4byte	0x559
 1128 05bb 03       		.uleb128 0x3
 1129 05bc 01       		.byte	0x1
 1130 05bd 02       		.byte	0x2
 1131 05be 70020000 		.4byte	.LASF69
 1132 05c2 0E       		.uleb128 0xe
 1133 05c3 04       		.byte	0x4
 1134 05c4 08       		.byte	0x8
 1135 05c5 A5       		.byte	0xa5
 1136 05c6 E7050000 		.4byte	0x5e7
 1137 05ca 0D       		.uleb128 0xd
 1138 05cb 73657400 		.ascii	"set\000"
 1139 05cf 08       		.byte	0x8
 1140 05d0 A6       		.byte	0xa6
 1141 05d1 57000000 		.4byte	0x57
 1142 05d5 02       		.byte	0x2
 1143 05d6 23       		.byte	0x23
 1144 05d7 00       		.uleb128 0
 1145 05d8 18       		.uleb128 0x18
 1146 05d9 31010000 		.4byte	.LASF70
 1147 05dd 08       		.byte	0x8
 1148 05de A7       		.byte	0xa7
 1149 05df 57000000 		.4byte	0x57
 1150 05e3 02       		.byte	0x2
 1151 05e4 23       		.byte	0x23
 1152 05e5 02       		.uleb128 0x2
 1153 05e6 00       		.byte	0
 1154 05e7 19       		.uleb128 0x19
 1155 05e8 04       		.byte	0x4
 1156 05e9 08       		.byte	0x8
ARM GAS  /tmp/ccCMkwph.s 			page 22


 1157 05ea A3       		.byte	0xa3
 1158 05eb 02060000 		.4byte	0x602
 1159 05ef 1A       		.uleb128 0x1a
 1160 05f0 5700     		.ascii	"W\000"
 1161 05f2 08       		.byte	0x8
 1162 05f3 A4       		.byte	0xa4
 1163 05f4 7B000000 		.4byte	0x7b
 1164 05f8 1A       		.uleb128 0x1a
 1165 05f9 4800     		.ascii	"H\000"
 1166 05fb 08       		.byte	0x8
 1167 05fc A8       		.byte	0xa8
 1168 05fd C2050000 		.4byte	0x5c2
 1169 0601 00       		.byte	0
 1170 0602 0E       		.uleb128 0xe
 1171 0603 2C       		.byte	0x2c
 1172 0604 08       		.byte	0x8
 1173 0605 9B       		.byte	0x9b
 1174 0606 A5060000 		.4byte	0x6a5
 1175 060a 18       		.uleb128 0x18
 1176 060b FB000000 		.4byte	.LASF71
 1177 060f 08       		.byte	0x8
 1178 0610 9D       		.byte	0x9d
 1179 0611 31010000 		.4byte	0x131
 1180 0615 02       		.byte	0x2
 1181 0616 23       		.byte	0x23
 1182 0617 00       		.uleb128 0
 1183 0618 18       		.uleb128 0x18
 1184 0619 F2020000 		.4byte	.LASF72
 1185 061d 08       		.byte	0x8
 1186 061e 9E       		.byte	0x9e
 1187 061f 31010000 		.4byte	0x131
 1188 0623 02       		.byte	0x2
 1189 0624 23       		.byte	0x23
 1190 0625 04       		.uleb128 0x4
 1191 0626 18       		.uleb128 0x18
 1192 0627 7E020000 		.4byte	.LASF73
 1193 062b 08       		.byte	0x8
 1194 062c 9F       		.byte	0x9f
 1195 062d 31010000 		.4byte	0x131
 1196 0631 02       		.byte	0x2
 1197 0632 23       		.byte	0x23
 1198 0633 08       		.uleb128 0x8
 1199 0634 18       		.uleb128 0x18
 1200 0635 66010000 		.4byte	.LASF74
 1201 0639 08       		.byte	0x8
 1202 063a A0       		.byte	0xa0
 1203 063b 31010000 		.4byte	0x131
 1204 063f 02       		.byte	0x2
 1205 0640 23       		.byte	0x23
 1206 0641 0C       		.uleb128 0xc
 1207 0642 0D       		.uleb128 0xd
 1208 0643 49445200 		.ascii	"IDR\000"
 1209 0647 08       		.byte	0x8
 1210 0648 A1       		.byte	0xa1
 1211 0649 31010000 		.4byte	0x131
 1212 064d 02       		.byte	0x2
 1213 064e 23       		.byte	0x23
ARM GAS  /tmp/ccCMkwph.s 			page 23


 1214 064f 10       		.uleb128 0x10
 1215 0650 0D       		.uleb128 0xd
 1216 0651 4F445200 		.ascii	"ODR\000"
 1217 0655 08       		.byte	0x8
 1218 0656 A2       		.byte	0xa2
 1219 0657 31010000 		.4byte	0x131
 1220 065b 02       		.byte	0x2
 1221 065c 23       		.byte	0x23
 1222 065d 14       		.uleb128 0x14
 1223 065e 18       		.uleb128 0x18
 1224 065f 00000000 		.4byte	.LASF75
 1225 0663 08       		.byte	0x8
 1226 0664 A9       		.byte	0xa9
 1227 0665 A5060000 		.4byte	0x6a5
 1228 0669 02       		.byte	0x2
 1229 066a 23       		.byte	0x23
 1230 066b 18       		.uleb128 0x18
 1231 066c 18       		.uleb128 0x18
 1232 066d 94040000 		.4byte	.LASF76
 1233 0671 08       		.byte	0x8
 1234 0672 AA       		.byte	0xaa
 1235 0673 31010000 		.4byte	0x131
 1236 0677 02       		.byte	0x2
 1237 0678 23       		.byte	0x23
 1238 0679 1C       		.uleb128 0x1c
 1239 067a 18       		.uleb128 0x18
 1240 067b 20010000 		.4byte	.LASF77
 1241 067f 08       		.byte	0x8
 1242 0680 AB       		.byte	0xab
 1243 0681 31010000 		.4byte	0x131
 1244 0685 02       		.byte	0x2
 1245 0686 23       		.byte	0x23
 1246 0687 20       		.uleb128 0x20
 1247 0688 18       		.uleb128 0x18
 1248 0689 0E010000 		.4byte	.LASF78
 1249 068d 08       		.byte	0x8
 1250 068e AC       		.byte	0xac
 1251 068f 31010000 		.4byte	0x131
 1252 0693 02       		.byte	0x2
 1253 0694 23       		.byte	0x23
 1254 0695 24       		.uleb128 0x24
 1255 0696 0D       		.uleb128 0xd
 1256 0697 42525200 		.ascii	"BRR\000"
 1257 069b 08       		.byte	0x8
 1258 069c AD       		.byte	0xad
 1259 069d 31010000 		.4byte	0x131
 1260 06a1 02       		.byte	0x2
 1261 06a2 23       		.byte	0x23
 1262 06a3 28       		.uleb128 0x28
 1263 06a4 00       		.byte	0
 1264 06a5 08       		.uleb128 0x8
 1265 06a6 E7050000 		.4byte	0x5e7
 1266 06aa 04       		.uleb128 0x4
 1267 06ab 13010000 		.4byte	.LASF79
 1268 06af 08       		.byte	0x8
 1269 06b0 AE       		.byte	0xae
 1270 06b1 02060000 		.4byte	0x602
ARM GAS  /tmp/ccCMkwph.s 			page 24


 1271 06b5 04       		.uleb128 0x4
 1272 06b6 32020000 		.4byte	.LASF80
 1273 06ba 08       		.byte	0x8
 1274 06bb F8       		.byte	0xf8
 1275 06bc 7B000000 		.4byte	0x7b
 1276 06c0 1B       		.uleb128 0x1b
 1277 06c1 01       		.byte	0x1
 1278 06c2 EB030000 		.4byte	.LASF81
 1279 06c6 01       		.byte	0x1
 1280 06c7 5E       		.byte	0x5e
 1281 06c8 01       		.byte	0x1
 1282 06c9 00000000 		.4byte	.LFB82
 1283 06cd 06000000 		.4byte	.LFE82
 1284 06d1 00000000 		.4byte	.LLST0
 1285 06d5 01       		.byte	0x1
 1286 06d6 F3060000 		.4byte	0x6f3
 1287 06da 1C       		.uleb128 0x1c
 1288 06db 61726700 		.ascii	"arg\000"
 1289 06df 01       		.byte	0x1
 1290 06e0 5E       		.byte	0x5e
 1291 06e1 8F030000 		.4byte	0x38f
 1292 06e5 20000000 		.4byte	.LLST1
 1293 06e9 1D       		.uleb128 0x1d
 1294 06ea 06000000 		.4byte	.LVL1
 1295 06ee A4090000 		.4byte	0x9a4
 1296 06f2 00       		.byte	0
 1297 06f3 1B       		.uleb128 0x1b
 1298 06f4 01       		.byte	0x1
 1299 06f5 E3030000 		.4byte	.LASF82
 1300 06f9 01       		.byte	0x1
 1301 06fa 53       		.byte	0x53
 1302 06fb 01       		.byte	0x1
 1303 06fc 00000000 		.4byte	.LFB81
 1304 0700 0A000000 		.4byte	.LFE81
 1305 0704 41000000 		.4byte	.LLST2
 1306 0708 01       		.byte	0x1
 1307 0709 2F070000 		.4byte	0x72f
 1308 070d 1C       		.uleb128 0x1c
 1309 070e 61726700 		.ascii	"arg\000"
 1310 0712 01       		.byte	0x1
 1311 0713 53       		.byte	0x53
 1312 0714 8F030000 		.4byte	0x38f
 1313 0718 61000000 		.4byte	.LLST3
 1314 071c 1D       		.uleb128 0x1d
 1315 071d 06000000 		.4byte	.LVL3
 1316 0721 AE090000 		.4byte	0x9ae
 1317 0725 1D       		.uleb128 0x1d
 1318 0726 0A000000 		.4byte	.LVL4
 1319 072a B8090000 		.4byte	0x9b8
 1320 072e 00       		.byte	0
 1321 072f 1B       		.uleb128 0x1b
 1322 0730 01       		.byte	0x1
 1323 0731 DB030000 		.4byte	.LASF83
 1324 0735 01       		.byte	0x1
 1325 0736 49       		.byte	0x49
 1326 0737 01       		.byte	0x1
 1327 0738 00000000 		.4byte	.LFB80
ARM GAS  /tmp/ccCMkwph.s 			page 25


 1328 073c 06000000 		.4byte	.LFE80
 1329 0740 82000000 		.4byte	.LLST4
 1330 0744 01       		.byte	0x1
 1331 0745 62070000 		.4byte	0x762
 1332 0749 1C       		.uleb128 0x1c
 1333 074a 61726700 		.ascii	"arg\000"
 1334 074e 01       		.byte	0x1
 1335 074f 49       		.byte	0x49
 1336 0750 8F030000 		.4byte	0x38f
 1337 0754 A2000000 		.4byte	.LLST5
 1338 0758 1D       		.uleb128 0x1d
 1339 0759 06000000 		.4byte	.LVL6
 1340 075d C2090000 		.4byte	0x9c2
 1341 0761 00       		.byte	0
 1342 0762 1B       		.uleb128 0x1b
 1343 0763 01       		.byte	0x1
 1344 0764 D3030000 		.4byte	.LASF84
 1345 0768 01       		.byte	0x1
 1346 0769 3F       		.byte	0x3f
 1347 076a 01       		.byte	0x1
 1348 076b 00000000 		.4byte	.LFB79
 1349 076f 06000000 		.4byte	.LFE79
 1350 0773 C3000000 		.4byte	.LLST6
 1351 0777 01       		.byte	0x1
 1352 0778 95070000 		.4byte	0x795
 1353 077c 1C       		.uleb128 0x1c
 1354 077d 61726700 		.ascii	"arg\000"
 1355 0781 01       		.byte	0x1
 1356 0782 3F       		.byte	0x3f
 1357 0783 8F030000 		.4byte	0x38f
 1358 0787 E3000000 		.4byte	.LLST7
 1359 078b 1D       		.uleb128 0x1d
 1360 078c 06000000 		.4byte	.LVL8
 1361 0790 CC090000 		.4byte	0x9cc
 1362 0794 00       		.byte	0
 1363 0795 1B       		.uleb128 0x1b
 1364 0796 01       		.byte	0x1
 1365 0797 CB030000 		.4byte	.LASF85
 1366 079b 01       		.byte	0x1
 1367 079c 35       		.byte	0x35
 1368 079d 01       		.byte	0x1
 1369 079e 00000000 		.4byte	.LFB78
 1370 07a2 06000000 		.4byte	.LFE78
 1371 07a6 04010000 		.4byte	.LLST8
 1372 07aa 01       		.byte	0x1
 1373 07ab C8070000 		.4byte	0x7c8
 1374 07af 1C       		.uleb128 0x1c
 1375 07b0 61726700 		.ascii	"arg\000"
 1376 07b4 01       		.byte	0x1
 1377 07b5 35       		.byte	0x35
 1378 07b6 8F030000 		.4byte	0x38f
 1379 07ba 24010000 		.4byte	.LLST9
 1380 07be 1D       		.uleb128 0x1d
 1381 07bf 06000000 		.4byte	.LVL10
 1382 07c3 D6090000 		.4byte	0x9d6
 1383 07c7 00       		.byte	0
 1384 07c8 1B       		.uleb128 0x1b
ARM GAS  /tmp/ccCMkwph.s 			page 26


 1385 07c9 01       		.byte	0x1
 1386 07ca C3030000 		.4byte	.LASF86
 1387 07ce 01       		.byte	0x1
 1388 07cf 0E       		.byte	0xe
 1389 07d0 01       		.byte	0x1
 1390 07d1 00000000 		.4byte	.LFB77
 1391 07d5 70000000 		.4byte	.LFE77
 1392 07d9 45010000 		.4byte	.LLST10
 1393 07dd 01       		.byte	0x1
 1394 07de 82080000 		.4byte	0x882
 1395 07e2 1C       		.uleb128 0x1c
 1396 07e3 61726700 		.ascii	"arg\000"
 1397 07e7 01       		.byte	0x1
 1398 07e8 0E       		.byte	0xe
 1399 07e9 8F030000 		.4byte	0x38f
 1400 07ed 65010000 		.4byte	.LLST11
 1401 07f1 1E       		.uleb128 0x1e
 1402 07f2 10000000 		.4byte	.LVL13
 1403 07f6 E0090000 		.4byte	0x9e0
 1404 07fa 08080000 		.4byte	0x808
 1405 07fe 1F       		.uleb128 0x1f
 1406 07ff 01       		.byte	0x1
 1407 0800 50       		.byte	0x50
 1408 0801 05       		.byte	0x5
 1409 0802 03       		.byte	0x3
 1410 0803 00000000 		.4byte	.LC0
 1411 0807 00       		.byte	0
 1412 0808 1E       		.uleb128 0x1e
 1413 0809 22000000 		.4byte	.LVL14
 1414 080d F4090000 		.4byte	0x9f4
 1415 0811 1E080000 		.4byte	0x81e
 1416 0815 1F       		.uleb128 0x1f
 1417 0816 01       		.byte	0x1
 1418 0817 50       		.byte	0x50
 1419 0818 04       		.byte	0x4
 1420 0819 74       		.byte	0x74
 1421 081a 00       		.sleb128 0
 1422 081b 31       		.byte	0x31
 1423 081c 24       		.byte	0x24
 1424 081d 00       		.byte	0
 1425 081e 1E       		.uleb128 0x1e
 1426 081f 28000000 		.4byte	.LVL15
 1427 0823 080A0000 		.4byte	0xa08
 1428 0827 32080000 		.4byte	0x832
 1429 082b 1F       		.uleb128 0x1f
 1430 082c 01       		.byte	0x1
 1431 082d 50       		.byte	0x50
 1432 082e 02       		.byte	0x2
 1433 082f 08       		.byte	0x8
 1434 0830 7E       		.byte	0x7e
 1435 0831 00       		.byte	0
 1436 0832 1E       		.uleb128 0x1e
 1437 0833 3A000000 		.4byte	.LVL16
 1438 0837 1C0A0000 		.4byte	0xa1c
 1439 083b 46080000 		.4byte	0x846
 1440 083f 1F       		.uleb128 0x1f
 1441 0840 01       		.byte	0x1
ARM GAS  /tmp/ccCMkwph.s 			page 27


 1442 0841 50       		.byte	0x50
 1443 0842 02       		.byte	0x2
 1444 0843 08       		.byte	0x8
 1445 0844 7F       		.byte	0x7f
 1446 0845 00       		.byte	0
 1447 0846 1E       		.uleb128 0x1e
 1448 0847 40000000 		.4byte	.LVL17
 1449 084b E0090000 		.4byte	0x9e0
 1450 084f 5D080000 		.4byte	0x85d
 1451 0853 1F       		.uleb128 0x1f
 1452 0854 01       		.byte	0x1
 1453 0855 50       		.byte	0x50
 1454 0856 05       		.byte	0x5
 1455 0857 03       		.byte	0x3
 1456 0858 16000000 		.4byte	.LC2
 1457 085c 00       		.byte	0
 1458 085d 1E       		.uleb128 0x1e
 1459 085e 48000000 		.4byte	.LVL18
 1460 0862 300A0000 		.4byte	0xa30
 1461 0866 71080000 		.4byte	0x871
 1462 086a 1F       		.uleb128 0x1f
 1463 086b 01       		.byte	0x1
 1464 086c 50       		.byte	0x50
 1465 086d 02       		.byte	0x2
 1466 086e 08       		.byte	0x8
 1467 086f 7D       		.byte	0x7d
 1468 0870 00       		.byte	0
 1469 0871 20       		.uleb128 0x20
 1470 0872 58000000 		.4byte	.LVL19
 1471 0876 450A0000 		.4byte	0xa45
 1472 087a 1F       		.uleb128 0x1f
 1473 087b 01       		.byte	0x1
 1474 087c 50       		.byte	0x50
 1475 087d 02       		.byte	0x2
 1476 087e 08       		.byte	0x8
 1477 087f 7F       		.byte	0x7f
 1478 0880 00       		.byte	0
 1479 0881 00       		.byte	0
 1480 0882 21       		.uleb128 0x21
 1481 0883 01       		.byte	0x1
 1482 0884 1F030000 		.4byte	.LASF113
 1483 0888 01       		.byte	0x1
 1484 0889 74       		.byte	0x74
 1485 088a 01       		.byte	0x1
 1486 088b 29000000 		.4byte	0x29
 1487 088f 00000000 		.4byte	.LFB83
 1488 0893 1C000000 		.4byte	.LFE83
 1489 0897 86010000 		.4byte	.LLST12
 1490 089b 01       		.byte	0x1
 1491 089c D3080000 		.4byte	0x8d3
 1492 08a0 1D       		.uleb128 0x1d
 1493 08a1 06000000 		.4byte	.LVL20
 1494 08a5 590A0000 		.4byte	0xa59
 1495 08a9 1D       		.uleb128 0x1d
 1496 08aa 0A000000 		.4byte	.LVL21
 1497 08ae 630A0000 		.4byte	0xa63
 1498 08b2 1E       		.uleb128 0x1e
ARM GAS  /tmp/ccCMkwph.s 			page 28


 1499 08b3 10000000 		.4byte	.LVL22
 1500 08b7 6D0A0000 		.4byte	0xa6d
 1501 08bb C9080000 		.4byte	0x8c9
 1502 08bf 1F       		.uleb128 0x1f
 1503 08c0 01       		.byte	0x1
 1504 08c1 50       		.byte	0x50
 1505 08c2 05       		.byte	0x5
 1506 08c3 0C       		.byte	0xc
 1507 08c4 00380140 		.4byte	0x40013800
 1508 08c8 00       		.byte	0
 1509 08c9 1D       		.uleb128 0x1d
 1510 08ca 14000000 		.4byte	.LVL23
 1511 08ce 870A0000 		.4byte	0xa87
 1512 08d2 00       		.byte	0
 1513 08d3 22       		.uleb128 0x22
 1514 08d4 6E696C00 		.ascii	"nil\000"
 1515 08d8 03       		.byte	0x3
 1516 08d9 F602     		.2byte	0x2f6
 1517 08db AF050000 		.4byte	0x5af
 1518 08df 01       		.byte	0x1
 1519 08e0 01       		.byte	0x1
 1520 08e1 16       		.uleb128 0x16
 1521 08e2 6F040000 		.4byte	0x46f
 1522 08e6 F1080000 		.4byte	0x8f1
 1523 08ea 17       		.uleb128 0x17
 1524 08eb 2A010000 		.4byte	0x12a
 1525 08ef 06       		.byte	0x6
 1526 08f0 00       		.byte	0
 1527 08f1 23       		.uleb128 0x23
 1528 08f2 F8010000 		.4byte	.LASF87
 1529 08f6 01       		.byte	0x1
 1530 08f7 68       		.byte	0x68
 1531 08f8 03090000 		.4byte	0x903
 1532 08fc 01       		.byte	0x1
 1533 08fd 05       		.byte	0x5
 1534 08fe 03       		.byte	0x3
 1535 08ff 00000000 		.4byte	nil_thd_configs
 1536 0903 12       		.uleb128 0x12
 1537 0904 E1080000 		.4byte	0x8e1
 1538 0908 16       		.uleb128 0x16
 1539 0909 91030000 		.4byte	0x391
 1540 090d 18090000 		.4byte	0x918
 1541 0911 17       		.uleb128 0x17
 1542 0912 2A010000 		.4byte	0x12a
 1543 0916 16       		.byte	0x16
 1544 0917 00       		.byte	0
 1545 0918 23       		.uleb128 0x23
 1546 0919 59030000 		.4byte	.LASF88
 1547 091d 01       		.byte	0x1
 1548 091e 0D       		.byte	0xd
 1549 091f 08090000 		.4byte	0x908
 1550 0923 01       		.byte	0x1
 1551 0924 05       		.byte	0x5
 1552 0925 03       		.byte	0x3
 1553 0926 00000000 		.4byte	waThread0
 1554 092a 16       		.uleb128 0x16
 1555 092b 91030000 		.4byte	0x391
ARM GAS  /tmp/ccCMkwph.s 			page 29


 1556 092f 3A090000 		.4byte	0x93a
 1557 0933 17       		.uleb128 0x17
 1558 0934 2A010000 		.4byte	0x12a
 1559 0938 1E       		.byte	0x1e
 1560 0939 00       		.byte	0
 1561 093a 23       		.uleb128 0x23
 1562 093b 63030000 		.4byte	.LASF89
 1563 093f 01       		.byte	0x1
 1564 0940 34       		.byte	0x34
 1565 0941 2A090000 		.4byte	0x92a
 1566 0945 01       		.byte	0x1
 1567 0946 05       		.byte	0x5
 1568 0947 03       		.byte	0x3
 1569 0948 00000000 		.4byte	waThread1
 1570 094c 16       		.uleb128 0x16
 1571 094d 91030000 		.4byte	0x391
 1572 0951 5C090000 		.4byte	0x95c
 1573 0955 17       		.uleb128 0x17
 1574 0956 2A010000 		.4byte	0x12a
 1575 095a 2E       		.byte	0x2e
 1576 095b 00       		.byte	0
 1577 095c 23       		.uleb128 0x23
 1578 095d 6D030000 		.4byte	.LASF90
 1579 0961 01       		.byte	0x1
 1580 0962 3E       		.byte	0x3e
 1581 0963 4C090000 		.4byte	0x94c
 1582 0967 01       		.byte	0x1
 1583 0968 05       		.byte	0x5
 1584 0969 03       		.byte	0x3
 1585 096a 00000000 		.4byte	waThread2
 1586 096e 23       		.uleb128 0x23
 1587 096f 77030000 		.4byte	.LASF91
 1588 0973 01       		.byte	0x1
 1589 0974 48       		.byte	0x48
 1590 0975 2A090000 		.4byte	0x92a
 1591 0979 01       		.byte	0x1
 1592 097a 05       		.byte	0x5
 1593 097b 03       		.byte	0x3
 1594 097c 00000000 		.4byte	waThread3
 1595 0980 23       		.uleb128 0x23
 1596 0981 81030000 		.4byte	.LASF92
 1597 0985 01       		.byte	0x1
 1598 0986 52       		.byte	0x52
 1599 0987 2A090000 		.4byte	0x92a
 1600 098b 01       		.byte	0x1
 1601 098c 05       		.byte	0x5
 1602 098d 03       		.byte	0x3
 1603 098e 00000000 		.4byte	waThread4
 1604 0992 23       		.uleb128 0x23
 1605 0993 8B030000 		.4byte	.LASF93
 1606 0997 01       		.byte	0x1
 1607 0998 5D       		.byte	0x5d
 1608 0999 2A090000 		.4byte	0x92a
 1609 099d 01       		.byte	0x1
 1610 099e 05       		.byte	0x5
 1611 099f 03       		.byte	0x3
 1612 09a0 00000000 		.4byte	waThread5
ARM GAS  /tmp/ccCMkwph.s 			page 30


 1613 09a4 24       		.uleb128 0x24
 1614 09a5 01       		.byte	0x1
 1615 09a6 C4010000 		.4byte	.LASF94
 1616 09aa 09       		.byte	0x9
 1617 09ab DA       		.byte	0xda
 1618 09ac 01       		.byte	0x1
 1619 09ad 01       		.byte	0x1
 1620 09ae 24       		.uleb128 0x24
 1621 09af 01       		.byte	0x1
 1622 09b0 CD000000 		.4byte	.LASF95
 1623 09b4 09       		.byte	0x9
 1624 09b5 AC       		.byte	0xac
 1625 09b6 01       		.byte	0x1
 1626 09b7 01       		.byte	0x1
 1627 09b8 24       		.uleb128 0x24
 1628 09b9 01       		.byte	0x1
 1629 09ba 4D010000 		.4byte	.LASF96
 1630 09be 09       		.byte	0x9
 1631 09bf D3       		.byte	0xd3
 1632 09c0 01       		.byte	0x1
 1633 09c1 01       		.byte	0x1
 1634 09c2 24       		.uleb128 0x24
 1635 09c3 01       		.byte	0x1
 1636 09c4 3F010000 		.4byte	.LASF97
 1637 09c8 09       		.byte	0x9
 1638 09c9 B2       		.byte	0xb2
 1639 09ca 01       		.byte	0x1
 1640 09cb 01       		.byte	0x1
 1641 09cc 24       		.uleb128 0x24
 1642 09cd 01       		.byte	0x1
 1643 09ce 8F020000 		.4byte	.LASF98
 1644 09d2 09       		.byte	0x9
 1645 09d3 C1       		.byte	0xc1
 1646 09d4 01       		.byte	0x1
 1647 09d5 01       		.byte	0x1
 1648 09d6 24       		.uleb128 0x24
 1649 09d7 01       		.byte	0x1
 1650 09d8 07030000 		.4byte	.LASF99
 1651 09dc 09       		.byte	0x9
 1652 09dd 93       		.byte	0x93
 1653 09de 01       		.byte	0x1
 1654 09df 01       		.byte	0x1
 1655 09e0 25       		.uleb128 0x25
 1656 09e1 01       		.byte	0x1
 1657 09e2 A2000000 		.4byte	.LASF100
 1658 09e6 09       		.byte	0x9
 1659 09e7 53       		.byte	0x53
 1660 09e8 01       		.byte	0x1
 1661 09e9 01       		.byte	0x1
 1662 09ea F4090000 		.4byte	0x9f4
 1663 09ee 11       		.uleb128 0x11
 1664 09ef DA040000 		.4byte	0x4da
 1665 09f3 00       		.byte	0
 1666 09f4 25       		.uleb128 0x25
 1667 09f5 01       		.byte	0x1
 1668 09f6 7C000000 		.4byte	.LASF101
 1669 09fa 0A       		.byte	0xa
ARM GAS  /tmp/ccCMkwph.s 			page 31


 1670 09fb 53       		.byte	0x53
 1671 09fc 01       		.byte	0x1
 1672 09fd 01       		.byte	0x1
 1673 09fe 080A0000 		.4byte	0xa08
 1674 0a02 11       		.uleb128 0x11
 1675 0a03 7B000000 		.4byte	0x7b
 1676 0a07 00       		.byte	0
 1677 0a08 25       		.uleb128 0x25
 1678 0a09 01       		.byte	0x1
 1679 0a0a 5D000000 		.4byte	.LASF102
 1680 0a0e 0A       		.byte	0xa
 1681 0a0f 54       		.byte	0x54
 1682 0a10 01       		.byte	0x1
 1683 0a11 01       		.byte	0x1
 1684 0a12 1C0A0000 		.4byte	0xa1c
 1685 0a16 11       		.uleb128 0x11
 1686 0a17 3E000000 		.4byte	0x3e
 1687 0a1b 00       		.byte	0
 1688 0a1c 25       		.uleb128 0x25
 1689 0a1d 01       		.byte	0x1
 1690 0a1e 4C000000 		.4byte	.LASF103
 1691 0a22 0A       		.byte	0xa
 1692 0a23 59       		.byte	0x59
 1693 0a24 01       		.byte	0x1
 1694 0a25 01       		.byte	0x1
 1695 0a26 300A0000 		.4byte	0xa30
 1696 0a2a 11       		.uleb128 0x11
 1697 0a2b 3E000000 		.4byte	0x3e
 1698 0a2f 00       		.byte	0
 1699 0a30 26       		.uleb128 0x26
 1700 0a31 01       		.byte	0x1
 1701 0a32 AB030000 		.4byte	.LASF104
 1702 0a36 03       		.byte	0x3
 1703 0a37 0703     		.2byte	0x307
 1704 0a39 01       		.byte	0x1
 1705 0a3a 01       		.byte	0x1
 1706 0a3b 450A0000 		.4byte	0xa45
 1707 0a3f 11       		.uleb128 0x11
 1708 0a40 79030000 		.4byte	0x379
 1709 0a44 00       		.byte	0
 1710 0a45 25       		.uleb128 0x25
 1711 0a46 01       		.byte	0x1
 1712 0a47 3C000000 		.4byte	.LASF105
 1713 0a4b 0A       		.byte	0xa
 1714 0a4c 56       		.byte	0x56
 1715 0a4d 01       		.byte	0x1
 1716 0a4e 01       		.byte	0x1
 1717 0a4f 590A0000 		.4byte	0xa59
 1718 0a53 11       		.uleb128 0x11
 1719 0a54 3E000000 		.4byte	0x3e
 1720 0a58 00       		.byte	0
 1721 0a59 24       		.uleb128 0x24
 1722 0a5a 01       		.byte	0x1
 1723 0a5b 37010000 		.4byte	.LASF106
 1724 0a5f 0B       		.byte	0xb
 1725 0a60 60       		.byte	0x60
 1726 0a61 01       		.byte	0x1
ARM GAS  /tmp/ccCMkwph.s 			page 32


 1727 0a62 01       		.byte	0x1
 1728 0a63 24       		.uleb128 0x24
 1729 0a64 01       		.byte	0x1
 1730 0a65 01010000 		.4byte	.LASF107
 1731 0a69 09       		.byte	0x9
 1732 0a6a 78       		.byte	0x78
 1733 0a6b 01       		.byte	0x1
 1734 0a6c 01       		.byte	0x1
 1735 0a6d 25       		.uleb128 0x25
 1736 0a6e 01       		.byte	0x1
 1737 0a6f 24030000 		.4byte	.LASF108
 1738 0a73 09       		.byte	0x9
 1739 0a74 4F       		.byte	0x4f
 1740 0a75 01       		.byte	0x1
 1741 0a76 01       		.byte	0x1
 1742 0a77 810A0000 		.4byte	0xa81
 1743 0a7b 11       		.uleb128 0x11
 1744 0a7c 810A0000 		.4byte	0xa81
 1745 0a80 00       		.byte	0
 1746 0a81 0F       		.uleb128 0xf
 1747 0a82 04       		.byte	0x4
 1748 0a83 6D030000 		.4byte	0x36d
 1749 0a87 27       		.uleb128 0x27
 1750 0a88 01       		.byte	0x1
 1751 0a89 97010000 		.4byte	.LASF109
 1752 0a8d 03       		.byte	0x3
 1753 0a8e FD02     		.2byte	0x2fd
 1754 0a90 01       		.byte	0x1
 1755 0a91 01       		.byte	0x1
 1756 0a92 00       		.byte	0
 1757              		.section	.debug_abbrev,"",%progbits
 1758              	.Ldebug_abbrev0:
 1759 0000 01       		.uleb128 0x1
 1760 0001 11       		.uleb128 0x11
 1761 0002 01       		.byte	0x1
 1762 0003 25       		.uleb128 0x25
 1763 0004 0E       		.uleb128 0xe
 1764 0005 13       		.uleb128 0x13
 1765 0006 0B       		.uleb128 0xb
 1766 0007 03       		.uleb128 0x3
 1767 0008 0E       		.uleb128 0xe
 1768 0009 1B       		.uleb128 0x1b
 1769 000a 0E       		.uleb128 0xe
 1770 000b 55       		.uleb128 0x55
 1771 000c 06       		.uleb128 0x6
 1772 000d 11       		.uleb128 0x11
 1773 000e 01       		.uleb128 0x1
 1774 000f 52       		.uleb128 0x52
 1775 0010 01       		.uleb128 0x1
 1776 0011 10       		.uleb128 0x10
 1777 0012 06       		.uleb128 0x6
 1778 0013 00       		.byte	0
 1779 0014 00       		.byte	0
 1780 0015 02       		.uleb128 0x2
 1781 0016 24       		.uleb128 0x24
 1782 0017 00       		.byte	0
 1783 0018 0B       		.uleb128 0xb
ARM GAS  /tmp/ccCMkwph.s 			page 33


 1784 0019 0B       		.uleb128 0xb
 1785 001a 3E       		.uleb128 0x3e
 1786 001b 0B       		.uleb128 0xb
 1787 001c 03       		.uleb128 0x3
 1788 001d 08       		.uleb128 0x8
 1789 001e 00       		.byte	0
 1790 001f 00       		.byte	0
 1791 0020 03       		.uleb128 0x3
 1792 0021 24       		.uleb128 0x24
 1793 0022 00       		.byte	0
 1794 0023 0B       		.uleb128 0xb
 1795 0024 0B       		.uleb128 0xb
 1796 0025 3E       		.uleb128 0x3e
 1797 0026 0B       		.uleb128 0xb
 1798 0027 03       		.uleb128 0x3
 1799 0028 0E       		.uleb128 0xe
 1800 0029 00       		.byte	0
 1801 002a 00       		.byte	0
 1802 002b 04       		.uleb128 0x4
 1803 002c 16       		.uleb128 0x16
 1804 002d 00       		.byte	0
 1805 002e 03       		.uleb128 0x3
 1806 002f 0E       		.uleb128 0xe
 1807 0030 3A       		.uleb128 0x3a
 1808 0031 0B       		.uleb128 0xb
 1809 0032 3B       		.uleb128 0x3b
 1810 0033 0B       		.uleb128 0xb
 1811 0034 49       		.uleb128 0x49
 1812 0035 13       		.uleb128 0x13
 1813 0036 00       		.byte	0
 1814 0037 00       		.byte	0
 1815 0038 05       		.uleb128 0x5
 1816 0039 13       		.uleb128 0x13
 1817 003a 01       		.byte	0x1
 1818 003b 03       		.uleb128 0x3
 1819 003c 0E       		.uleb128 0xe
 1820 003d 0B       		.uleb128 0xb
 1821 003e 0B       		.uleb128 0xb
 1822 003f 3A       		.uleb128 0x3a
 1823 0040 0B       		.uleb128 0xb
 1824 0041 3B       		.uleb128 0x3b
 1825 0042 05       		.uleb128 0x5
 1826 0043 01       		.uleb128 0x1
 1827 0044 13       		.uleb128 0x13
 1828 0045 00       		.byte	0
 1829 0046 00       		.byte	0
 1830 0047 06       		.uleb128 0x6
 1831 0048 0D       		.uleb128 0xd
 1832 0049 00       		.byte	0
 1833 004a 03       		.uleb128 0x3
 1834 004b 0E       		.uleb128 0xe
 1835 004c 3A       		.uleb128 0x3a
 1836 004d 0B       		.uleb128 0xb
 1837 004e 3B       		.uleb128 0x3b
 1838 004f 05       		.uleb128 0x5
 1839 0050 49       		.uleb128 0x49
 1840 0051 13       		.uleb128 0x13
ARM GAS  /tmp/ccCMkwph.s 			page 34


 1841 0052 38       		.uleb128 0x38
 1842 0053 0A       		.uleb128 0xa
 1843 0054 00       		.byte	0
 1844 0055 00       		.byte	0
 1845 0056 07       		.uleb128 0x7
 1846 0057 0D       		.uleb128 0xd
 1847 0058 00       		.byte	0
 1848 0059 03       		.uleb128 0x3
 1849 005a 08       		.uleb128 0x8
 1850 005b 3A       		.uleb128 0x3a
 1851 005c 0B       		.uleb128 0xb
 1852 005d 3B       		.uleb128 0x3b
 1853 005e 05       		.uleb128 0x5
 1854 005f 49       		.uleb128 0x49
 1855 0060 13       		.uleb128 0x13
 1856 0061 38       		.uleb128 0x38
 1857 0062 0A       		.uleb128 0xa
 1858 0063 00       		.byte	0
 1859 0064 00       		.byte	0
 1860 0065 08       		.uleb128 0x8
 1861 0066 35       		.uleb128 0x35
 1862 0067 00       		.byte	0
 1863 0068 49       		.uleb128 0x49
 1864 0069 13       		.uleb128 0x13
 1865 006a 00       		.byte	0
 1866 006b 00       		.byte	0
 1867 006c 09       		.uleb128 0x9
 1868 006d 13       		.uleb128 0x13
 1869 006e 01       		.byte	0x1
 1870 006f 0B       		.uleb128 0xb
 1871 0070 0B       		.uleb128 0xb
 1872 0071 3A       		.uleb128 0x3a
 1873 0072 0B       		.uleb128 0xb
 1874 0073 3B       		.uleb128 0x3b
 1875 0074 05       		.uleb128 0x5
 1876 0075 01       		.uleb128 0x1
 1877 0076 13       		.uleb128 0x13
 1878 0077 00       		.byte	0
 1879 0078 00       		.byte	0
 1880 0079 0A       		.uleb128 0xa
 1881 007a 16       		.uleb128 0x16
 1882 007b 00       		.byte	0
 1883 007c 03       		.uleb128 0x3
 1884 007d 0E       		.uleb128 0xe
 1885 007e 3A       		.uleb128 0x3a
 1886 007f 0B       		.uleb128 0xb
 1887 0080 3B       		.uleb128 0x3b
 1888 0081 05       		.uleb128 0x5
 1889 0082 49       		.uleb128 0x49
 1890 0083 13       		.uleb128 0x13
 1891 0084 00       		.byte	0
 1892 0085 00       		.byte	0
 1893 0086 0B       		.uleb128 0xb
 1894 0087 0F       		.uleb128 0xf
 1895 0088 00       		.byte	0
 1896 0089 0B       		.uleb128 0xb
 1897 008a 0B       		.uleb128 0xb
ARM GAS  /tmp/ccCMkwph.s 			page 35


 1898 008b 00       		.byte	0
 1899 008c 00       		.byte	0
 1900 008d 0C       		.uleb128 0xc
 1901 008e 13       		.uleb128 0x13
 1902 008f 01       		.byte	0x1
 1903 0090 03       		.uleb128 0x3
 1904 0091 0E       		.uleb128 0xe
 1905 0092 0B       		.uleb128 0xb
 1906 0093 0B       		.uleb128 0xb
 1907 0094 3A       		.uleb128 0x3a
 1908 0095 0B       		.uleb128 0xb
 1909 0096 3B       		.uleb128 0x3b
 1910 0097 0B       		.uleb128 0xb
 1911 0098 01       		.uleb128 0x1
 1912 0099 13       		.uleb128 0x13
 1913 009a 00       		.byte	0
 1914 009b 00       		.byte	0
 1915 009c 0D       		.uleb128 0xd
 1916 009d 0D       		.uleb128 0xd
 1917 009e 00       		.byte	0
 1918 009f 03       		.uleb128 0x3
 1919 00a0 08       		.uleb128 0x8
 1920 00a1 3A       		.uleb128 0x3a
 1921 00a2 0B       		.uleb128 0xb
 1922 00a3 3B       		.uleb128 0x3b
 1923 00a4 0B       		.uleb128 0xb
 1924 00a5 49       		.uleb128 0x49
 1925 00a6 13       		.uleb128 0x13
 1926 00a7 38       		.uleb128 0x38
 1927 00a8 0A       		.uleb128 0xa
 1928 00a9 00       		.byte	0
 1929 00aa 00       		.byte	0
 1930 00ab 0E       		.uleb128 0xe
 1931 00ac 13       		.uleb128 0x13
 1932 00ad 01       		.byte	0x1
 1933 00ae 0B       		.uleb128 0xb
 1934 00af 0B       		.uleb128 0xb
 1935 00b0 3A       		.uleb128 0x3a
 1936 00b1 0B       		.uleb128 0xb
 1937 00b2 3B       		.uleb128 0x3b
 1938 00b3 0B       		.uleb128 0xb
 1939 00b4 01       		.uleb128 0x1
 1940 00b5 13       		.uleb128 0x13
 1941 00b6 00       		.byte	0
 1942 00b7 00       		.byte	0
 1943 00b8 0F       		.uleb128 0xf
 1944 00b9 0F       		.uleb128 0xf
 1945 00ba 00       		.byte	0
 1946 00bb 0B       		.uleb128 0xb
 1947 00bc 0B       		.uleb128 0xb
 1948 00bd 49       		.uleb128 0x49
 1949 00be 13       		.uleb128 0x13
 1950 00bf 00       		.byte	0
 1951 00c0 00       		.byte	0
 1952 00c1 10       		.uleb128 0x10
 1953 00c2 15       		.uleb128 0x15
 1954 00c3 01       		.byte	0x1
ARM GAS  /tmp/ccCMkwph.s 			page 36


 1955 00c4 27       		.uleb128 0x27
 1956 00c5 0C       		.uleb128 0xc
 1957 00c6 01       		.uleb128 0x1
 1958 00c7 13       		.uleb128 0x13
 1959 00c8 00       		.byte	0
 1960 00c9 00       		.byte	0
 1961 00ca 11       		.uleb128 0x11
 1962 00cb 05       		.uleb128 0x5
 1963 00cc 00       		.byte	0
 1964 00cd 49       		.uleb128 0x49
 1965 00ce 13       		.uleb128 0x13
 1966 00cf 00       		.byte	0
 1967 00d0 00       		.byte	0
 1968 00d1 12       		.uleb128 0x12
 1969 00d2 26       		.uleb128 0x26
 1970 00d3 00       		.byte	0
 1971 00d4 49       		.uleb128 0x49
 1972 00d5 13       		.uleb128 0x13
 1973 00d6 00       		.byte	0
 1974 00d7 00       		.byte	0
 1975 00d8 13       		.uleb128 0x13
 1976 00d9 17       		.uleb128 0x17
 1977 00da 01       		.byte	0x1
 1978 00db 0B       		.uleb128 0xb
 1979 00dc 0B       		.uleb128 0xb
 1980 00dd 3A       		.uleb128 0x3a
 1981 00de 0B       		.uleb128 0xb
 1982 00df 3B       		.uleb128 0x3b
 1983 00e0 05       		.uleb128 0x5
 1984 00e1 01       		.uleb128 0x1
 1985 00e2 13       		.uleb128 0x13
 1986 00e3 00       		.byte	0
 1987 00e4 00       		.byte	0
 1988 00e5 14       		.uleb128 0x14
 1989 00e6 0D       		.uleb128 0xd
 1990 00e7 00       		.byte	0
 1991 00e8 03       		.uleb128 0x3
 1992 00e9 08       		.uleb128 0x8
 1993 00ea 3A       		.uleb128 0x3a
 1994 00eb 0B       		.uleb128 0xb
 1995 00ec 3B       		.uleb128 0x3b
 1996 00ed 05       		.uleb128 0x5
 1997 00ee 49       		.uleb128 0x49
 1998 00ef 13       		.uleb128 0x13
 1999 00f0 00       		.byte	0
 2000 00f1 00       		.byte	0
 2001 00f2 15       		.uleb128 0x15
 2002 00f3 0D       		.uleb128 0xd
 2003 00f4 00       		.byte	0
 2004 00f5 03       		.uleb128 0x3
 2005 00f6 0E       		.uleb128 0xe
 2006 00f7 3A       		.uleb128 0x3a
 2007 00f8 0B       		.uleb128 0xb
 2008 00f9 3B       		.uleb128 0x3b
 2009 00fa 05       		.uleb128 0x5
 2010 00fb 49       		.uleb128 0x49
 2011 00fc 13       		.uleb128 0x13
ARM GAS  /tmp/ccCMkwph.s 			page 37


 2012 00fd 00       		.byte	0
 2013 00fe 00       		.byte	0
 2014 00ff 16       		.uleb128 0x16
 2015 0100 01       		.uleb128 0x1
 2016 0101 01       		.byte	0x1
 2017 0102 49       		.uleb128 0x49
 2018 0103 13       		.uleb128 0x13
 2019 0104 01       		.uleb128 0x1
 2020 0105 13       		.uleb128 0x13
 2021 0106 00       		.byte	0
 2022 0107 00       		.byte	0
 2023 0108 17       		.uleb128 0x17
 2024 0109 21       		.uleb128 0x21
 2025 010a 00       		.byte	0
 2026 010b 49       		.uleb128 0x49
 2027 010c 13       		.uleb128 0x13
 2028 010d 2F       		.uleb128 0x2f
 2029 010e 0B       		.uleb128 0xb
 2030 010f 00       		.byte	0
 2031 0110 00       		.byte	0
 2032 0111 18       		.uleb128 0x18
 2033 0112 0D       		.uleb128 0xd
 2034 0113 00       		.byte	0
 2035 0114 03       		.uleb128 0x3
 2036 0115 0E       		.uleb128 0xe
 2037 0116 3A       		.uleb128 0x3a
 2038 0117 0B       		.uleb128 0xb
 2039 0118 3B       		.uleb128 0x3b
 2040 0119 0B       		.uleb128 0xb
 2041 011a 49       		.uleb128 0x49
 2042 011b 13       		.uleb128 0x13
 2043 011c 38       		.uleb128 0x38
 2044 011d 0A       		.uleb128 0xa
 2045 011e 00       		.byte	0
 2046 011f 00       		.byte	0
 2047 0120 19       		.uleb128 0x19
 2048 0121 17       		.uleb128 0x17
 2049 0122 01       		.byte	0x1
 2050 0123 0B       		.uleb128 0xb
 2051 0124 0B       		.uleb128 0xb
 2052 0125 3A       		.uleb128 0x3a
 2053 0126 0B       		.uleb128 0xb
 2054 0127 3B       		.uleb128 0x3b
 2055 0128 0B       		.uleb128 0xb
 2056 0129 01       		.uleb128 0x1
 2057 012a 13       		.uleb128 0x13
 2058 012b 00       		.byte	0
 2059 012c 00       		.byte	0
 2060 012d 1A       		.uleb128 0x1a
 2061 012e 0D       		.uleb128 0xd
 2062 012f 00       		.byte	0
 2063 0130 03       		.uleb128 0x3
 2064 0131 08       		.uleb128 0x8
 2065 0132 3A       		.uleb128 0x3a
 2066 0133 0B       		.uleb128 0xb
 2067 0134 3B       		.uleb128 0x3b
 2068 0135 0B       		.uleb128 0xb
ARM GAS  /tmp/ccCMkwph.s 			page 38


 2069 0136 49       		.uleb128 0x49
 2070 0137 13       		.uleb128 0x13
 2071 0138 00       		.byte	0
 2072 0139 00       		.byte	0
 2073 013a 1B       		.uleb128 0x1b
 2074 013b 2E       		.uleb128 0x2e
 2075 013c 01       		.byte	0x1
 2076 013d 3F       		.uleb128 0x3f
 2077 013e 0C       		.uleb128 0xc
 2078 013f 03       		.uleb128 0x3
 2079 0140 0E       		.uleb128 0xe
 2080 0141 3A       		.uleb128 0x3a
 2081 0142 0B       		.uleb128 0xb
 2082 0143 3B       		.uleb128 0x3b
 2083 0144 0B       		.uleb128 0xb
 2084 0145 27       		.uleb128 0x27
 2085 0146 0C       		.uleb128 0xc
 2086 0147 11       		.uleb128 0x11
 2087 0148 01       		.uleb128 0x1
 2088 0149 12       		.uleb128 0x12
 2089 014a 01       		.uleb128 0x1
 2090 014b 40       		.uleb128 0x40
 2091 014c 06       		.uleb128 0x6
 2092 014d 9742     		.uleb128 0x2117
 2093 014f 0C       		.uleb128 0xc
 2094 0150 01       		.uleb128 0x1
 2095 0151 13       		.uleb128 0x13
 2096 0152 00       		.byte	0
 2097 0153 00       		.byte	0
 2098 0154 1C       		.uleb128 0x1c
 2099 0155 05       		.uleb128 0x5
 2100 0156 00       		.byte	0
 2101 0157 03       		.uleb128 0x3
 2102 0158 08       		.uleb128 0x8
 2103 0159 3A       		.uleb128 0x3a
 2104 015a 0B       		.uleb128 0xb
 2105 015b 3B       		.uleb128 0x3b
 2106 015c 0B       		.uleb128 0xb
 2107 015d 49       		.uleb128 0x49
 2108 015e 13       		.uleb128 0x13
 2109 015f 02       		.uleb128 0x2
 2110 0160 06       		.uleb128 0x6
 2111 0161 00       		.byte	0
 2112 0162 00       		.byte	0
 2113 0163 1D       		.uleb128 0x1d
 2114 0164 898201   		.uleb128 0x4109
 2115 0167 00       		.byte	0
 2116 0168 11       		.uleb128 0x11
 2117 0169 01       		.uleb128 0x1
 2118 016a 31       		.uleb128 0x31
 2119 016b 13       		.uleb128 0x13
 2120 016c 00       		.byte	0
 2121 016d 00       		.byte	0
 2122 016e 1E       		.uleb128 0x1e
 2123 016f 898201   		.uleb128 0x4109
 2124 0172 01       		.byte	0x1
 2125 0173 11       		.uleb128 0x11
ARM GAS  /tmp/ccCMkwph.s 			page 39


 2126 0174 01       		.uleb128 0x1
 2127 0175 31       		.uleb128 0x31
 2128 0176 13       		.uleb128 0x13
 2129 0177 01       		.uleb128 0x1
 2130 0178 13       		.uleb128 0x13
 2131 0179 00       		.byte	0
 2132 017a 00       		.byte	0
 2133 017b 1F       		.uleb128 0x1f
 2134 017c 8A8201   		.uleb128 0x410a
 2135 017f 00       		.byte	0
 2136 0180 02       		.uleb128 0x2
 2137 0181 0A       		.uleb128 0xa
 2138 0182 9142     		.uleb128 0x2111
 2139 0184 0A       		.uleb128 0xa
 2140 0185 00       		.byte	0
 2141 0186 00       		.byte	0
 2142 0187 20       		.uleb128 0x20
 2143 0188 898201   		.uleb128 0x4109
 2144 018b 01       		.byte	0x1
 2145 018c 11       		.uleb128 0x11
 2146 018d 01       		.uleb128 0x1
 2147 018e 31       		.uleb128 0x31
 2148 018f 13       		.uleb128 0x13
 2149 0190 00       		.byte	0
 2150 0191 00       		.byte	0
 2151 0192 21       		.uleb128 0x21
 2152 0193 2E       		.uleb128 0x2e
 2153 0194 01       		.byte	0x1
 2154 0195 3F       		.uleb128 0x3f
 2155 0196 0C       		.uleb128 0xc
 2156 0197 03       		.uleb128 0x3
 2157 0198 0E       		.uleb128 0xe
 2158 0199 3A       		.uleb128 0x3a
 2159 019a 0B       		.uleb128 0xb
 2160 019b 3B       		.uleb128 0x3b
 2161 019c 0B       		.uleb128 0xb
 2162 019d 27       		.uleb128 0x27
 2163 019e 0C       		.uleb128 0xc
 2164 019f 49       		.uleb128 0x49
 2165 01a0 13       		.uleb128 0x13
 2166 01a1 11       		.uleb128 0x11
 2167 01a2 01       		.uleb128 0x1
 2168 01a3 12       		.uleb128 0x12
 2169 01a4 01       		.uleb128 0x1
 2170 01a5 40       		.uleb128 0x40
 2171 01a6 06       		.uleb128 0x6
 2172 01a7 9742     		.uleb128 0x2117
 2173 01a9 0C       		.uleb128 0xc
 2174 01aa 01       		.uleb128 0x1
 2175 01ab 13       		.uleb128 0x13
 2176 01ac 00       		.byte	0
 2177 01ad 00       		.byte	0
 2178 01ae 22       		.uleb128 0x22
 2179 01af 34       		.uleb128 0x34
 2180 01b0 00       		.byte	0
 2181 01b1 03       		.uleb128 0x3
 2182 01b2 08       		.uleb128 0x8
ARM GAS  /tmp/ccCMkwph.s 			page 40


 2183 01b3 3A       		.uleb128 0x3a
 2184 01b4 0B       		.uleb128 0xb
 2185 01b5 3B       		.uleb128 0x3b
 2186 01b6 05       		.uleb128 0x5
 2187 01b7 49       		.uleb128 0x49
 2188 01b8 13       		.uleb128 0x13
 2189 01b9 3F       		.uleb128 0x3f
 2190 01ba 0C       		.uleb128 0xc
 2191 01bb 3C       		.uleb128 0x3c
 2192 01bc 0C       		.uleb128 0xc
 2193 01bd 00       		.byte	0
 2194 01be 00       		.byte	0
 2195 01bf 23       		.uleb128 0x23
 2196 01c0 34       		.uleb128 0x34
 2197 01c1 00       		.byte	0
 2198 01c2 03       		.uleb128 0x3
 2199 01c3 0E       		.uleb128 0xe
 2200 01c4 3A       		.uleb128 0x3a
 2201 01c5 0B       		.uleb128 0xb
 2202 01c6 3B       		.uleb128 0x3b
 2203 01c7 0B       		.uleb128 0xb
 2204 01c8 49       		.uleb128 0x49
 2205 01c9 13       		.uleb128 0x13
 2206 01ca 3F       		.uleb128 0x3f
 2207 01cb 0C       		.uleb128 0xc
 2208 01cc 02       		.uleb128 0x2
 2209 01cd 0A       		.uleb128 0xa
 2210 01ce 00       		.byte	0
 2211 01cf 00       		.byte	0
 2212 01d0 24       		.uleb128 0x24
 2213 01d1 2E       		.uleb128 0x2e
 2214 01d2 00       		.byte	0
 2215 01d3 3F       		.uleb128 0x3f
 2216 01d4 0C       		.uleb128 0xc
 2217 01d5 03       		.uleb128 0x3
 2218 01d6 0E       		.uleb128 0xe
 2219 01d7 3A       		.uleb128 0x3a
 2220 01d8 0B       		.uleb128 0xb
 2221 01d9 3B       		.uleb128 0x3b
 2222 01da 0B       		.uleb128 0xb
 2223 01db 27       		.uleb128 0x27
 2224 01dc 0C       		.uleb128 0xc
 2225 01dd 3C       		.uleb128 0x3c
 2226 01de 0C       		.uleb128 0xc
 2227 01df 00       		.byte	0
 2228 01e0 00       		.byte	0
 2229 01e1 25       		.uleb128 0x25
 2230 01e2 2E       		.uleb128 0x2e
 2231 01e3 01       		.byte	0x1
 2232 01e4 3F       		.uleb128 0x3f
 2233 01e5 0C       		.uleb128 0xc
 2234 01e6 03       		.uleb128 0x3
 2235 01e7 0E       		.uleb128 0xe
 2236 01e8 3A       		.uleb128 0x3a
 2237 01e9 0B       		.uleb128 0xb
 2238 01ea 3B       		.uleb128 0x3b
 2239 01eb 0B       		.uleb128 0xb
ARM GAS  /tmp/ccCMkwph.s 			page 41


 2240 01ec 27       		.uleb128 0x27
 2241 01ed 0C       		.uleb128 0xc
 2242 01ee 3C       		.uleb128 0x3c
 2243 01ef 0C       		.uleb128 0xc
 2244 01f0 01       		.uleb128 0x1
 2245 01f1 13       		.uleb128 0x13
 2246 01f2 00       		.byte	0
 2247 01f3 00       		.byte	0
 2248 01f4 26       		.uleb128 0x26
 2249 01f5 2E       		.uleb128 0x2e
 2250 01f6 01       		.byte	0x1
 2251 01f7 3F       		.uleb128 0x3f
 2252 01f8 0C       		.uleb128 0xc
 2253 01f9 03       		.uleb128 0x3
 2254 01fa 0E       		.uleb128 0xe
 2255 01fb 3A       		.uleb128 0x3a
 2256 01fc 0B       		.uleb128 0xb
 2257 01fd 3B       		.uleb128 0x3b
 2258 01fe 05       		.uleb128 0x5
 2259 01ff 27       		.uleb128 0x27
 2260 0200 0C       		.uleb128 0xc
 2261 0201 3C       		.uleb128 0x3c
 2262 0202 0C       		.uleb128 0xc
 2263 0203 01       		.uleb128 0x1
 2264 0204 13       		.uleb128 0x13
 2265 0205 00       		.byte	0
 2266 0206 00       		.byte	0
 2267 0207 27       		.uleb128 0x27
 2268 0208 2E       		.uleb128 0x2e
 2269 0209 00       		.byte	0
 2270 020a 3F       		.uleb128 0x3f
 2271 020b 0C       		.uleb128 0xc
 2272 020c 03       		.uleb128 0x3
 2273 020d 0E       		.uleb128 0xe
 2274 020e 3A       		.uleb128 0x3a
 2275 020f 0B       		.uleb128 0xb
 2276 0210 3B       		.uleb128 0x3b
 2277 0211 05       		.uleb128 0x5
 2278 0212 27       		.uleb128 0x27
 2279 0213 0C       		.uleb128 0xc
 2280 0214 3C       		.uleb128 0x3c
 2281 0215 0C       		.uleb128 0xc
 2282 0216 00       		.byte	0
 2283 0217 00       		.byte	0
 2284 0218 00       		.byte	0
 2285              		.section	.debug_loc,"",%progbits
 2286              	.Ldebug_loc0:
 2287              	.LLST0:
 2288 0000 00000000 		.4byte	.LFB82
 2289 0004 02000000 		.4byte	.LCFI0
 2290 0008 0200     		.2byte	0x2
 2291 000a 7D       		.byte	0x7d
 2292 000b 00       		.sleb128 0
 2293 000c 02000000 		.4byte	.LCFI0
 2294 0010 06000000 		.4byte	.LFE82
 2295 0014 0200     		.2byte	0x2
 2296 0016 7D       		.byte	0x7d
ARM GAS  /tmp/ccCMkwph.s 			page 42


 2297 0017 08       		.sleb128 8
 2298 0018 00000000 		.4byte	0
 2299 001c 00000000 		.4byte	0
 2300              	.LLST1:
 2301 0020 00000000 		.4byte	.LVL0
 2302 0024 05000000 		.4byte	.LVL1-1
 2303 0028 0100     		.2byte	0x1
 2304 002a 50       		.byte	0x50
 2305 002b 05000000 		.4byte	.LVL1-1
 2306 002f 06000000 		.4byte	.LFE82
 2307 0033 0400     		.2byte	0x4
 2308 0035 F3       		.byte	0xf3
 2309 0036 01       		.uleb128 0x1
 2310 0037 50       		.byte	0x50
 2311 0038 9F       		.byte	0x9f
 2312 0039 00000000 		.4byte	0
 2313 003d 00000000 		.4byte	0
 2314              	.LLST2:
 2315 0041 00000000 		.4byte	.LFB81
 2316 0045 02000000 		.4byte	.LCFI1
 2317 0049 0200     		.2byte	0x2
 2318 004b 7D       		.byte	0x7d
 2319 004c 00       		.sleb128 0
 2320 004d 02000000 		.4byte	.LCFI1
 2321 0051 0A000000 		.4byte	.LFE81
 2322 0055 0200     		.2byte	0x2
 2323 0057 7D       		.byte	0x7d
 2324 0058 08       		.sleb128 8
 2325 0059 00000000 		.4byte	0
 2326 005d 00000000 		.4byte	0
 2327              	.LLST3:
 2328 0061 00000000 		.4byte	.LVL2
 2329 0065 05000000 		.4byte	.LVL3-1
 2330 0069 0100     		.2byte	0x1
 2331 006b 50       		.byte	0x50
 2332 006c 05000000 		.4byte	.LVL3-1
 2333 0070 0A000000 		.4byte	.LFE81
 2334 0074 0400     		.2byte	0x4
 2335 0076 F3       		.byte	0xf3
 2336 0077 01       		.uleb128 0x1
 2337 0078 50       		.byte	0x50
 2338 0079 9F       		.byte	0x9f
 2339 007a 00000000 		.4byte	0
 2340 007e 00000000 		.4byte	0
 2341              	.LLST4:
 2342 0082 00000000 		.4byte	.LFB80
 2343 0086 02000000 		.4byte	.LCFI2
 2344 008a 0200     		.2byte	0x2
 2345 008c 7D       		.byte	0x7d
 2346 008d 00       		.sleb128 0
 2347 008e 02000000 		.4byte	.LCFI2
 2348 0092 06000000 		.4byte	.LFE80
 2349 0096 0200     		.2byte	0x2
 2350 0098 7D       		.byte	0x7d
 2351 0099 08       		.sleb128 8
 2352 009a 00000000 		.4byte	0
 2353 009e 00000000 		.4byte	0
ARM GAS  /tmp/ccCMkwph.s 			page 43


 2354              	.LLST5:
 2355 00a2 00000000 		.4byte	.LVL5
 2356 00a6 05000000 		.4byte	.LVL6-1
 2357 00aa 0100     		.2byte	0x1
 2358 00ac 50       		.byte	0x50
 2359 00ad 05000000 		.4byte	.LVL6-1
 2360 00b1 06000000 		.4byte	.LFE80
 2361 00b5 0400     		.2byte	0x4
 2362 00b7 F3       		.byte	0xf3
 2363 00b8 01       		.uleb128 0x1
 2364 00b9 50       		.byte	0x50
 2365 00ba 9F       		.byte	0x9f
 2366 00bb 00000000 		.4byte	0
 2367 00bf 00000000 		.4byte	0
 2368              	.LLST6:
 2369 00c3 00000000 		.4byte	.LFB79
 2370 00c7 02000000 		.4byte	.LCFI3
 2371 00cb 0200     		.2byte	0x2
 2372 00cd 7D       		.byte	0x7d
 2373 00ce 00       		.sleb128 0
 2374 00cf 02000000 		.4byte	.LCFI3
 2375 00d3 06000000 		.4byte	.LFE79
 2376 00d7 0200     		.2byte	0x2
 2377 00d9 7D       		.byte	0x7d
 2378 00da 08       		.sleb128 8
 2379 00db 00000000 		.4byte	0
 2380 00df 00000000 		.4byte	0
 2381              	.LLST7:
 2382 00e3 00000000 		.4byte	.LVL7
 2383 00e7 05000000 		.4byte	.LVL8-1
 2384 00eb 0100     		.2byte	0x1
 2385 00ed 50       		.byte	0x50
 2386 00ee 05000000 		.4byte	.LVL8-1
 2387 00f2 06000000 		.4byte	.LFE79
 2388 00f6 0400     		.2byte	0x4
 2389 00f8 F3       		.byte	0xf3
 2390 00f9 01       		.uleb128 0x1
 2391 00fa 50       		.byte	0x50
 2392 00fb 9F       		.byte	0x9f
 2393 00fc 00000000 		.4byte	0
 2394 0100 00000000 		.4byte	0
 2395              	.LLST8:
 2396 0104 00000000 		.4byte	.LFB78
 2397 0108 02000000 		.4byte	.LCFI4
 2398 010c 0200     		.2byte	0x2
 2399 010e 7D       		.byte	0x7d
 2400 010f 00       		.sleb128 0
 2401 0110 02000000 		.4byte	.LCFI4
 2402 0114 06000000 		.4byte	.LFE78
 2403 0118 0200     		.2byte	0x2
 2404 011a 7D       		.byte	0x7d
 2405 011b 08       		.sleb128 8
 2406 011c 00000000 		.4byte	0
 2407 0120 00000000 		.4byte	0
 2408              	.LLST9:
 2409 0124 00000000 		.4byte	.LVL9
 2410 0128 05000000 		.4byte	.LVL10-1
ARM GAS  /tmp/ccCMkwph.s 			page 44


 2411 012c 0100     		.2byte	0x1
 2412 012e 50       		.byte	0x50
 2413 012f 05000000 		.4byte	.LVL10-1
 2414 0133 06000000 		.4byte	.LFE78
 2415 0137 0400     		.2byte	0x4
 2416 0139 F3       		.byte	0xf3
 2417 013a 01       		.uleb128 0x1
 2418 013b 50       		.byte	0x50
 2419 013c 9F       		.byte	0x9f
 2420 013d 00000000 		.4byte	0
 2421 0141 00000000 		.4byte	0
 2422              	.LLST10:
 2423 0145 00000000 		.4byte	.LFB77
 2424 0149 02000000 		.4byte	.LCFI5
 2425 014d 0200     		.2byte	0x2
 2426 014f 7D       		.byte	0x7d
 2427 0150 00       		.sleb128 0
 2428 0151 02000000 		.4byte	.LCFI5
 2429 0155 70000000 		.4byte	.LFE77
 2430 0159 0200     		.2byte	0x2
 2431 015b 7D       		.byte	0x7d
 2432 015c 08       		.sleb128 8
 2433 015d 00000000 		.4byte	0
 2434 0161 00000000 		.4byte	0
 2435              	.LLST11:
 2436 0165 00000000 		.4byte	.LVL11
 2437 0169 0C000000 		.4byte	.LVL12
 2438 016d 0100     		.2byte	0x1
 2439 016f 50       		.byte	0x50
 2440 0170 0C000000 		.4byte	.LVL12
 2441 0174 70000000 		.4byte	.LFE77
 2442 0178 0400     		.2byte	0x4
 2443 017a F3       		.byte	0xf3
 2444 017b 01       		.uleb128 0x1
 2445 017c 50       		.byte	0x50
 2446 017d 9F       		.byte	0x9f
 2447 017e 00000000 		.4byte	0
 2448 0182 00000000 		.4byte	0
 2449              	.LLST12:
 2450 0186 00000000 		.4byte	.LFB83
 2451 018a 02000000 		.4byte	.LCFI6
 2452 018e 0200     		.2byte	0x2
 2453 0190 7D       		.byte	0x7d
 2454 0191 00       		.sleb128 0
 2455 0192 02000000 		.4byte	.LCFI6
 2456 0196 1C000000 		.4byte	.LFE83
 2457 019a 0200     		.2byte	0x2
 2458 019c 7D       		.byte	0x7d
 2459 019d 08       		.sleb128 8
 2460 019e 00000000 		.4byte	0
 2461 01a2 00000000 		.4byte	0
 2462              		.section	.debug_aranges,"",%progbits
 2463 0000 4C000000 		.4byte	0x4c
 2464 0004 0200     		.2byte	0x2
 2465 0006 00000000 		.4byte	.Ldebug_info0
 2466 000a 04       		.byte	0x4
 2467 000b 00       		.byte	0
ARM GAS  /tmp/ccCMkwph.s 			page 45


 2468 000c 0000     		.2byte	0
 2469 000e 0000     		.2byte	0
 2470 0010 00000000 		.4byte	.LFB82
 2471 0014 06000000 		.4byte	.LFE82-.LFB82
 2472 0018 00000000 		.4byte	.LFB81
 2473 001c 0A000000 		.4byte	.LFE81-.LFB81
 2474 0020 00000000 		.4byte	.LFB80
 2475 0024 06000000 		.4byte	.LFE80-.LFB80
 2476 0028 00000000 		.4byte	.LFB79
 2477 002c 06000000 		.4byte	.LFE79-.LFB79
 2478 0030 00000000 		.4byte	.LFB78
 2479 0034 06000000 		.4byte	.LFE78-.LFB78
 2480 0038 00000000 		.4byte	.LFB77
 2481 003c 70000000 		.4byte	.LFE77-.LFB77
 2482 0040 00000000 		.4byte	.LFB83
 2483 0044 1C000000 		.4byte	.LFE83-.LFB83
 2484 0048 00000000 		.4byte	0
 2485 004c 00000000 		.4byte	0
 2486              		.section	.debug_ranges,"",%progbits
 2487              	.Ldebug_ranges0:
 2488 0000 00000000 		.4byte	.LFB82
 2489 0004 06000000 		.4byte	.LFE82
 2490 0008 00000000 		.4byte	.LFB81
 2491 000c 0A000000 		.4byte	.LFE81
 2492 0010 00000000 		.4byte	.LFB80
 2493 0014 06000000 		.4byte	.LFE80
 2494 0018 00000000 		.4byte	.LFB79
 2495 001c 06000000 		.4byte	.LFE79
 2496 0020 00000000 		.4byte	.LFB78
 2497 0024 06000000 		.4byte	.LFE78
 2498 0028 00000000 		.4byte	.LFB77
 2499 002c 70000000 		.4byte	.LFE77
 2500 0030 00000000 		.4byte	.LFB83
 2501 0034 1C000000 		.4byte	.LFE83
 2502 0038 00000000 		.4byte	0
 2503 003c 00000000 		.4byte	0
 2504              		.section	.debug_line,"",%progbits
 2505              	.Ldebug_line0:
 2506 0000 6C020000 		.section	.debug_str,"MS",%progbits,1
 2506      0200D301 
 2506      00000201 
 2506      FB0E0D00 
 2506      01010101 
 2507              	.LASF75:
 2508 0000 42535252 		.ascii	"BSRR\000"
 2508      00
 2509              	.LASF32:
 2510 0005 41504231 		.ascii	"APB1ENR\000"
 2510      454E5200 
 2511              	.LASF56:
 2512 000d 77626173 		.ascii	"wbase\000"
 2512      6500
 2513              	.LASF47:
 2514 0013 72656761 		.ascii	"regarm_t\000"
 2514      726D5F74 
 2514      00
 2515              	.LASF28:
ARM GAS  /tmp/ccCMkwph.s 			page 46


 2516 001c 41504232 		.ascii	"APB2RSTR\000"
 2516      52535452 
 2516      00
 2517              	.LASF0:
 2518 0025 756E7369 		.ascii	"unsigned int\000"
 2518      676E6564 
 2518      20696E74 
 2518      00
 2519              	.LASF65:
 2520 0032 6E657874 		.ascii	"next\000"
 2520      00
 2521              	.LASF33:
 2522 0037 42444352 		.ascii	"BDCR\000"
 2522      00
 2523              	.LASF105:
 2524 003c 57574447 		.ascii	"WWDG_SetCounter\000"
 2524      5F536574 
 2524      436F756E 
 2524      74657200 
 2525              	.LASF103:
 2526 004c 57574447 		.ascii	"WWDG_Enable\000"
 2526      5F456E61 
 2526      626C6500 
 2527              	.LASF41:
 2528 0058 52544F52 		.ascii	"RTOR\000"
 2528      00
 2529              	.LASF102:
 2530 005d 57574447 		.ascii	"WWDG_SetWindowValue\000"
 2530      5F536574 
 2530      57696E64 
 2530      6F775661 
 2530      6C756500 
 2531              	.LASF62:
 2532 0071 73656D70 		.ascii	"semp\000"
 2532      00
 2533              	.LASF59:
 2534 0076 66756E63 		.ascii	"funcp\000"
 2534      7000
 2535              	.LASF101:
 2536 007c 57574447 		.ascii	"WWDG_SetPrescaler\000"
 2536      5F536574 
 2536      50726573 
 2536      63616C65 
 2536      7200
 2537              	.LASF26:
 2538 008e 4442474D 		.ascii	"DBGMCU_TypeDef\000"
 2538      43555F54 
 2538      79706544 
 2538      656600
 2539              	.LASF39:
 2540 009d 47545052 		.ascii	"GTPR\000"
 2540      00
 2541              	.LASF100:
 2542 00a2 73657244 		.ascii	"serDbg\000"
 2542      626700
 2543              	.LASF9:
 2544 00a9 75696E74 		.ascii	"uint32_t\000"
ARM GAS  /tmp/ccCMkwph.s 			page 47


 2544      33325F74 
 2544      00
 2545              	.LASF24:
 2546 00b2 41504231 		.ascii	"APB1FZ\000"
 2546      465A00
 2547              	.LASF20:
 2548 00b9 6576656E 		.ascii	"eventmask_t\000"
 2548      746D6173 
 2548      6B5F7400 
 2549              	.LASF34:
 2550 00c5 41484252 		.ascii	"AHBRSTR\000"
 2550      53545200 
 2551              	.LASF95:
 2552 00cd 73746172 		.ascii	"startAdc\000"
 2552      74416463 
 2552      00
 2553              	.LASF53:
 2554 00d6 7466756E 		.ascii	"tfunc_t\000"
 2554      635F7400 
 2555              	.LASF13:
 2556 00de 6C6F6E67 		.ascii	"long long unsigned int\000"
 2556      206C6F6E 
 2556      6720756E 
 2556      7369676E 
 2556      65642069 
 2557              	.LASF21:
 2558 00f5 636E745F 		.ascii	"cnt_t\000"
 2558      7400
 2559              	.LASF71:
 2560 00fb 4D4F4445 		.ascii	"MODER\000"
 2560      5200
 2561              	.LASF107:
 2562 0101 73657474 		.ascii	"settingsInit\000"
 2562      696E6773 
 2562      496E6974 
 2562      00
 2563              	.LASF78:
 2564 010e 41465248 		.ascii	"AFRH\000"
 2564      00
 2565              	.LASF79:
 2566 0113 73746D33 		.ascii	"stm32_gpio_t\000"
 2566      325F6770 
 2566      696F5F74 
 2566      00
 2567              	.LASF77:
 2568 0120 4146524C 		.ascii	"AFRL\000"
 2568      00
 2569              	.LASF52:
 2570 0125 73656D61 		.ascii	"semaphore_t\000"
 2570      70686F72 
 2570      655F7400 
 2571              	.LASF70:
 2572 0131 636C6561 		.ascii	"clear\000"
 2572      7200
 2573              	.LASF106:
 2574 0137 68616C49 		.ascii	"halInit\000"
 2574      6E697400 
ARM GAS  /tmp/ccCMkwph.s 			page 48


 2575              	.LASF97:
 2576 013f 73746172 		.ascii	"startIgnition\000"
 2576      7449676E 
 2576      6974696F 
 2576      6E00
 2577              	.LASF96:
 2578 014d 73746172 		.ascii	"startSensors\000"
 2578      7453656E 
 2578      736F7273 
 2578      00
 2579              	.LASF37:
 2580 015a 5243435F 		.ascii	"RCC_TypeDef\000"
 2580      54797065 
 2580      44656600 
 2581              	.LASF74:
 2582 0166 50555044 		.ascii	"PUPDR\000"
 2582      5200
 2583              	.LASF57:
 2584 016c 77656E64 		.ascii	"wend\000"
 2584      00
 2585              	.LASF45:
 2586 0171 55534152 		.ascii	"USART_TypeDef\000"
 2586      545F5479 
 2586      70654465 
 2586      6600
 2587              	.LASF46:
 2588 017f 73797374 		.ascii	"systime_t\000"
 2588      696D655F 
 2588      7400
 2589              	.LASF29:
 2590 0189 41504231 		.ascii	"APB1RSTR\000"
 2590      52535452 
 2590      00
 2591              	.LASF60:
 2592 0192 63686172 		.ascii	"char\000"
 2592      00
 2593              	.LASF109:
 2594 0197 63685379 		.ascii	"chSysInit\000"
 2594      73496E69 
 2594      7400
 2595              	.LASF61:
 2596 01a1 74687265 		.ascii	"thread_reference_t\000"
 2596      61645F72 
 2596      65666572 
 2596      656E6365 
 2596      5F7400
 2597              	.LASF18:
 2598 01b4 74737461 		.ascii	"tstate_t\000"
 2598      74655F74 
 2598      00
 2599              	.LASF30:
 2600 01bd 41484245 		.ascii	"AHBENR\000"
 2600      4E5200
 2601              	.LASF94:
 2602 01c4 73746172 		.ascii	"startSerialCom\000"
 2602      74536572 
 2602      69616C43 
ARM GAS  /tmp/ccCMkwph.s 			page 49


 2602      6F6D00
 2603              	.LASF4:
 2604 01d3 75696E74 		.ascii	"uint8_t\000"
 2604      385F7400 
 2605              	.LASF112:
 2606 01db 2F6D6564 		.ascii	"/media/data/src/OpenTCS/code\000"
 2606      69612F64 
 2606      6174612F 
 2606      7372632F 
 2606      4F70656E 
 2607              	.LASF87:
 2608 01f8 6E696C5F 		.ascii	"nil_thd_configs\000"
 2608      7468645F 
 2608      636F6E66 
 2608      69677300 
 2609              	.LASF55:
 2610 0208 6E696C5F 		.ascii	"nil_thread_cfg\000"
 2610      74687265 
 2610      61645F63 
 2610      666700
 2611              	.LASF11:
 2612 0217 6C6F6E67 		.ascii	"long long int\000"
 2612      206C6F6E 
 2612      6720696E 
 2612      7400
 2613              	.LASF23:
 2614 0225 4944434F 		.ascii	"IDCODE\000"
 2614      444500
 2615              	.LASF19:
 2616 022c 6D73675F 		.ascii	"msg_t\000"
 2616      7400
 2617              	.LASF80:
 2618 0232 696F706F 		.ascii	"ioportmask_t\000"
 2618      72746D61 
 2618      736B5F74 
 2618      00
 2619              	.LASF51:
 2620 023f 696E7463 		.ascii	"intctx_t\000"
 2620      74785F74 
 2620      00
 2621              	.LASF58:
 2622 0248 6E616D65 		.ascii	"namep\000"
 2622      7000
 2623              	.LASF17:
 2624 024e 65706D61 		.ascii	"epmask\000"
 2624      736B00
 2625              	.LASF35:
 2626 0255 43464752 		.ascii	"CFGR2\000"
 2626      3200
 2627              	.LASF36:
 2628 025b 43464752 		.ascii	"CFGR3\000"
 2628      3300
 2629              	.LASF31:
 2630 0261 41504232 		.ascii	"APB2ENR\000"
 2630      454E5200 
 2631              	.LASF25:
 2632 0269 41504232 		.ascii	"APB2FZ\000"
ARM GAS  /tmp/ccCMkwph.s 			page 50


 2632      465A00
 2633              	.LASF69:
 2634 0270 5F426F6F 		.ascii	"_Bool\000"
 2634      6C00
 2635              	.LASF66:
 2636 0276 73797374 		.ascii	"systime\000"
 2636      696D6500 
 2637              	.LASF73:
 2638 027e 4F535045 		.ascii	"OSPEEDR\000"
 2638      45445200 
 2639              	.LASF5:
 2640 0286 75696E74 		.ascii	"uint16_t\000"
 2640      31365F74 
 2640      00
 2641              	.LASF98:
 2642 028f 73746172 		.ascii	"startDisplay\000"
 2642      74446973 
 2642      706C6179 
 2642      00
 2643              	.LASF38:
 2644 029c 52455345 		.ascii	"RESERVED1\000"
 2644      52564544 
 2644      3100
 2645              	.LASF40:
 2646 02a6 52455345 		.ascii	"RESERVED2\000"
 2646      52564544 
 2646      3200
 2647              	.LASF42:
 2648 02b0 52455345 		.ascii	"RESERVED3\000"
 2648      52564544 
 2648      3300
 2649              	.LASF43:
 2650 02ba 52455345 		.ascii	"RESERVED4\000"
 2650      52564544 
 2650      3400
 2651              	.LASF44:
 2652 02c4 52455345 		.ascii	"RESERVED5\000"
 2652      52564544 
 2652      3500
 2653              	.LASF3:
 2654 02ce 73686F72 		.ascii	"short int\000"
 2654      7420696E 
 2654      7400
 2655              	.LASF14:
 2656 02d8 63747870 		.ascii	"ctxp\000"
 2656      00
 2657              	.LASF8:
 2658 02dd 6C6F6E67 		.ascii	"long int\000"
 2658      20696E74 
 2658      00
 2659              	.LASF50:
 2660 02e6 706F7274 		.ascii	"port_intctx\000"
 2660      5F696E74 
 2660      63747800 
 2661              	.LASF72:
 2662 02f2 4F545950 		.ascii	"OTYPER\000"
 2662      455200
ARM GAS  /tmp/ccCMkwph.s 			page 51


 2663              	.LASF12:
 2664 02f9 75696E74 		.ascii	"uint64_t\000"
 2664      36345F74 
 2664      00
 2665              	.LASF27:
 2666 0302 43464752 		.ascii	"CFGR\000"
 2666      00
 2667              	.LASF99:
 2668 0307 73746172 		.ascii	"startLight\000"
 2668      744C6967 
 2668      687400
 2669              	.LASF68:
 2670 0312 6E696C5F 		.ascii	"nil_system_t\000"
 2670      73797374 
 2670      656D5F74 
 2670      00
 2671              	.LASF113:
 2672 031f 6D61696E 		.ascii	"main\000"
 2672      00
 2673              	.LASF108:
 2674 0324 75736172 		.ascii	"usartInit\000"
 2674      74496E69 
 2674      7400
 2675              	.LASF22:
 2676 032e 73697A65 		.ascii	"sizetype\000"
 2676      74797065 
 2676      00
 2677              	.LASF10:
 2678 0337 6C6F6E67 		.ascii	"long unsigned int\000"
 2678      20756E73 
 2678      69676E65 
 2678      6420696E 
 2678      7400
 2679              	.LASF67:
 2680 0349 74687265 		.ascii	"threads\000"
 2680      61647300 
 2681              	.LASF7:
 2682 0351 696E7433 		.ascii	"int32_t\000"
 2682      325F7400 
 2683              	.LASF88:
 2684 0359 77615468 		.ascii	"waThread0\000"
 2684      72656164 
 2684      3000
 2685              	.LASF89:
 2686 0363 77615468 		.ascii	"waThread1\000"
 2686      72656164 
 2686      3100
 2687              	.LASF90:
 2688 036d 77615468 		.ascii	"waThread2\000"
 2688      72656164 
 2688      3200
 2689              	.LASF91:
 2690 0377 77615468 		.ascii	"waThread3\000"
 2690      72656164 
 2690      3300
 2691              	.LASF92:
 2692 0381 77615468 		.ascii	"waThread4\000"
ARM GAS  /tmp/ccCMkwph.s 			page 52


 2692      72656164 
 2692      3400
 2693              	.LASF93:
 2694 038b 77615468 		.ascii	"waThread5\000"
 2694      72656164 
 2694      3500
 2695              	.LASF2:
 2696 0395 756E7369 		.ascii	"unsigned char\000"
 2696      676E6564 
 2696      20636861 
 2696      7200
 2697              	.LASF16:
 2698 03a3 74696D65 		.ascii	"timeout\000"
 2698      6F757400 
 2699              	.LASF104:
 2700 03ab 63685468 		.ascii	"chThdSleep\000"
 2700      64536C65 
 2700      657000
 2701              	.LASF15:
 2702 03b6 73746174 		.ascii	"state\000"
 2702      6500
 2703              	.LASF63:
 2704 03bc 65776D61 		.ascii	"ewmask\000"
 2704      736B00
 2705              	.LASF86:
 2706 03c3 54687265 		.ascii	"Thread0\000"
 2706      61643000 
 2707              	.LASF85:
 2708 03cb 54687265 		.ascii	"Thread1\000"
 2708      61643100 
 2709              	.LASF84:
 2710 03d3 54687265 		.ascii	"Thread2\000"
 2710      61643200 
 2711              	.LASF83:
 2712 03db 54687265 		.ascii	"Thread3\000"
 2712      61643300 
 2713              	.LASF82:
 2714 03e3 54687265 		.ascii	"Thread4\000"
 2714      61643400 
 2715              	.LASF81:
 2716 03eb 54687265 		.ascii	"Thread5\000"
 2716      61643500 
 2717              	.LASF54:
 2718 03f3 74687265 		.ascii	"thread_config_t\000"
 2718      61645F63 
 2718      6F6E6669 
 2718      675F7400 
 2719              	.LASF49:
 2720 0403 6E696C5F 		.ascii	"nil_thread\000"
 2720      74687265 
 2720      616400
 2721              	.LASF1:
 2722 040e 7369676E 		.ascii	"signed char\000"
 2722      65642063 
 2722      68617200 
 2723              	.LASF111:
 2724 041a 7372632F 		.ascii	"src/main.c\000"
ARM GAS  /tmp/ccCMkwph.s 			page 53


 2724      6D61696E 
 2724      2E6300
 2725              	.LASF6:
 2726 0425 73686F72 		.ascii	"short unsigned int\000"
 2726      7420756E 
 2726      7369676E 
 2726      65642069 
 2726      6E7400
 2727              	.LASF48:
 2728 0438 73746B61 		.ascii	"stkalign_t\000"
 2728      6C69676E 
 2728      5F7400
 2729              	.LASF110:
 2730 0443 474E5520 		.ascii	"GNU C 4.7.3 20130312 (release) [ARM/embedded-4_7-br"
 2730      4320342E 
 2730      372E3320 
 2730      32303133 
 2730      30333132 
 2731 0476 616E6368 		.ascii	"anch revision 196615]\000"
 2731      20726576 
 2731      6973696F 
 2731      6E203139 
 2731      36363135 
 2732              	.LASF64:
 2733 048c 63757272 		.ascii	"current\000"
 2733      656E7400 
 2734              	.LASF76:
 2735 0494 4C434B52 		.ascii	"LCKR\000"
 2735      00
 2736              		.ident	"GCC: (GNU Tools for ARM Embedded Processors) 4.7.3 20130312 (release) [ARM/embedded-4_7-br
ARM GAS  /tmp/ccCMkwph.s 			page 54


DEFINED SYMBOLS
                            *ABS*:00000000 main.c
     /tmp/ccCMkwph.s:18     .text.Thread5:00000000 $t
     /tmp/ccCMkwph.s:23     .text.Thread5:00000000 Thread5
     /tmp/ccCMkwph.s:41     .text.Thread4:00000000 $t
     /tmp/ccCMkwph.s:46     .text.Thread4:00000000 Thread4
     /tmp/ccCMkwph.s:66     .text.Thread3:00000000 $t
     /tmp/ccCMkwph.s:71     .text.Thread3:00000000 Thread3
     /tmp/ccCMkwph.s:88     .text.Thread2:00000000 $t
     /tmp/ccCMkwph.s:93     .text.Thread2:00000000 Thread2
     /tmp/ccCMkwph.s:110    .text.Thread1:00000000 $t
     /tmp/ccCMkwph.s:115    .text.Thread1:00000000 Thread1
     /tmp/ccCMkwph.s:132    .text.Thread0:00000000 $t
     /tmp/ccCMkwph.s:137    .text.Thread0:00000000 Thread0
     /tmp/ccCMkwph.s:209    .text.Thread0:0000005c $d
     /tmp/ccCMkwph.s:218    .text.startup.main:00000000 $t
     /tmp/ccCMkwph.s:223    .text.startup.main:00000000 main
     /tmp/ccCMkwph.s:250    .text.startup.main:00000018 $d
     /tmp/ccCMkwph.s:301    .rodata.nil_thd_configs:00000000 nil_thd_configs
     /tmp/ccCMkwph.s:295    .bss.waThread5:00000000 waThread5
     /tmp/ccCMkwph.s:289    .bss.waThread4:00000000 waThread4
     /tmp/ccCMkwph.s:283    .bss.waThread3:00000000 waThread3
     /tmp/ccCMkwph.s:277    .bss.waThread2:00000000 waThread2
     /tmp/ccCMkwph.s:271    .bss.waThread1:00000000 waThread1
     /tmp/ccCMkwph.s:265    .bss.waThread0:00000000 waThread0
     /tmp/ccCMkwph.s:262    .bss.waThread0:00000000 $d
     /tmp/ccCMkwph.s:268    .bss.waThread1:00000000 $d
     /tmp/ccCMkwph.s:274    .bss.waThread2:00000000 $d
     /tmp/ccCMkwph.s:280    .bss.waThread3:00000000 $d
     /tmp/ccCMkwph.s:286    .bss.waThread4:00000000 $d
     /tmp/ccCMkwph.s:292    .bss.waThread5:00000000 $d
     /tmp/ccCMkwph.s:298    .rodata.nil_thd_configs:00000000 $d
                     .debug_frame:00000010 $d

UNDEFINED SYMBOLS
startSerialCom
startAdc
startSensors
startIgnition
startDisplay
startLight
serDbg
WWDG_SetPrescaler
WWDG_SetWindowValue
WWDG_Enable
chThdSleep
WWDG_SetCounter
halInit
settingsInit
usartInit
chSysInit
