ARM GAS  /tmp/ccmKV0BV.s 			page 1


   1              		.cpu cortex-m0
   2              		.fpu softvfp
   3              		.eabi_attribute 20, 1
   4              		.eabi_attribute 21, 1
   5              		.eabi_attribute 23, 3
   6              		.eabi_attribute 24, 1
   7              		.eabi_attribute 25, 1
   8              		.eabi_attribute 26, 1
   9              		.eabi_attribute 30, 4
  10              		.eabi_attribute 34, 0
  11              		.eabi_attribute 18, 4
  12              		.code	16
  13              		.file	"menu.c"
  14              		.text
  15              	.Ltext0:
  16              		.cfi_sections	.debug_frame
  17              		.section	.text.drawMenu,"ax",%progbits
  18              		.align	1
  19              		.global	drawMenu
  20              		.code	16
  21              		.thumb_func
  22              		.type	drawMenu, %function
  23              	drawMenu:
  24              	.LFB77:
  25              		.file 1 "src/menu.c"
  26              		.loc 1 31 0
  27              		.cfi_startproc
  28              	.LVL0:
  29 0000 F0B5     		push	{r4, r5, r6, r7, lr}
  30              	.LCFI0:
  31              		.cfi_def_cfa_offset 20
  32              		.cfi_offset 4, -20
  33              		.cfi_offset 5, -16
  34              		.cfi_offset 6, -12
  35              		.cfi_offset 7, -8
  36              		.cfi_offset 14, -4
  37 0002 87B0     		sub	sp, sp, #28
  38              	.LCFI1:
  39              		.cfi_def_cfa_offset 48
  40              		.loc 1 31 0
  41 0004 061C     		mov	r6, r0
  42 0006 0491     		str	r1, [sp, #16]
  43              		.loc 1 34 0
  44 0008 FFF7FEFF 		bl	ssd1306ClearScreen
  45              	.LVL1:
  46              		.loc 1 35 0
  47 000c 2E4C     		ldr	r4, .L18
  48 000e 0020     		mov	r0, #0
  49 0010 6168     		ldr	r1, [r4, #4]
  50 0012 2368     		ldr	r3, [r4]
  51 0014 0091     		str	r1, [sp]
  52 0016 3268     		ldr	r2, [r6]
  53 0018 011C     		mov	r1, r0
  54 001a FFF7FEFF 		bl	ssd1306DrawString
  55              	.LVL2:
  56              		.loc 1 37 0
  57 001e 0025     		mov	r5, #0
ARM GAS  /tmp/ccmKV0BV.s 			page 2


  58              	.LVL3:
  59              	.L2:
  60              		.loc 1 37 0 is_stmt 0 discriminator 1
  61 0020 B288     		ldrh	r2, [r6, #4]
  62 0022 0623     		mov	r3, #6
  63 0024 052A     		cmp	r2, #5
  64 0026 00DC     		bgt	.L11
  65 0028 531C     		add	r3, r2, #1
  66              	.L11:
  67              		.loc 1 37 0 discriminator 3
  68 002a 9D42     		cmp	r5, r3
  69 002c 4ADA     		bge	.L1
  70              	.L12:
  71              		.loc 1 30 0 is_stmt 1
  72 002e EF00     		lsl	r7, r5, #3
  73              		.loc 1 40 0
  74 0030 6A46     		mov	r2, sp
  75 0032 1021     		mov	r1, #16
  76              		.loc 1 30 0
  77 0034 781B     		sub	r0, r7, r5
  78              		.loc 1 40 0
  79 0036 8B5A     		ldrh	r3, [r1, r2]
  80              		.loc 1 30 0
  81 0038 0130     		add	r0, r0, #1
  82 003a C7B2     		uxtb	r7, r0
  83              	.LVL4:
  84              		.loc 1 40 0
  85 003c 18B2     		sxth	r0, r3
  86              	.LVL5:
  87 003e 0528     		cmp	r0, #5
  88 0040 00DA     		bge	.L4
  89 0042 0523     		mov	r3, #5
  90              	.L4:
  91 0044 1AB2     		sxth	r2, r3
  92 0046 9542     		cmp	r5, r2
  93 0048 3CDC     		bgt	.L1
  94              		.loc 1 44 0
  95 004a 0499     		ldr	r1, [sp, #16]
  96 004c 0529     		cmp	r1, #5
  97 004e 10DC     		bgt	.L5
  98              		.loc 1 46 0
  99 0050 A942     		cmp	r1, r5
 100 0052 07D1     		bne	.L6
 101              		.loc 1 46 0 is_stmt 0 discriminator 1
 102 0054 6068     		ldr	r0, [r4, #4]
 103 0056 2368     		ldr	r3, [r4]
 104 0058 0090     		str	r0, [sp]
 105 005a 391C     		mov	r1, r7
 106 005c 0020     		mov	r0, #0
 107 005e 3E22     		mov	r2, #62
 108 0060 FFF7FEFF 		bl	ssd1306DrawChar
 109              	.LVL6:
 110              	.L6:
 111              		.loc 1 47 0 is_stmt 1
 112 0064 B388     		ldrh	r3, [r6, #4]
 113 0066 049A     		ldr	r2, [sp, #16]
 114 0068 9A42     		cmp	r2, r3
ARM GAS  /tmp/ccmKV0BV.s 			page 3


 115 006a 15DC     		bgt	.L16
 116              	.L7:
 117              		.loc 1 53 0
 118 006c 0C22     		mov	r2, #12
 119 006e 6A43     		mul	r2, r5
 120 0070 1CE0     		b	.L15
 121              	.L5:
 122              		.loc 1 58 0
 123 0072 0498     		ldr	r0, [sp, #16]
 124 0074 049A     		ldr	r2, [sp, #16]
 125 0076 0538     		sub	r0, r0, #5
 126 0078 2B18     		add	r3, r5, r0
 127 007a 0393     		str	r3, [sp, #12]
 128 007c 9A42     		cmp	r2, r3
 129 007e 07D1     		bne	.L9
 130              		.loc 1 58 0 is_stmt 0 discriminator 1
 131 0080 6168     		ldr	r1, [r4, #4]
 132 0082 2368     		ldr	r3, [r4]
 133 0084 0091     		str	r1, [sp]
 134 0086 0020     		mov	r0, #0
 135 0088 391C     		mov	r1, r7
 136 008a 3E22     		mov	r2, #62
 137 008c FFF7FEFF 		bl	ssd1306DrawChar
 138              	.LVL7:
 139              	.L9:
 140              		.loc 1 59 0 is_stmt 1
 141 0090 B088     		ldrh	r0, [r6, #4]
 142 0092 049B     		ldr	r3, [sp, #16]
 143 0094 8342     		cmp	r3, r0
 144 0096 06DD     		ble	.L10
 145              	.L16:
 146              		.loc 1 61 0
 147 0098 6368     		ldr	r3, [r4, #4]
 148 009a 0720     		mov	r0, #7
 149 009c 0093     		str	r3, [sp]
 150 009e 391C     		mov	r1, r7
 151 00a0 2368     		ldr	r3, [r4]
 152 00a2 0A4A     		ldr	r2, .L18+4
 153 00a4 09E0     		b	.L14
 154              	.L10:
 155              		.loc 1 65 0
 156 00a6 0399     		ldr	r1, [sp, #12]
 157 00a8 0C22     		mov	r2, #12
 158 00aa 4A43     		mul	r2, r1
 159              	.L15:
 160 00ac B168     		ldr	r1, [r6, #8]
 161 00ae 6068     		ldr	r0, [r4, #4]
 162 00b0 2368     		ldr	r3, [r4]
 163 00b2 5258     		ldr	r2, [r2, r1]
 164 00b4 0090     		str	r0, [sp]
 165 00b6 391C     		mov	r1, r7
 166 00b8 0720     		mov	r0, #7
 167              	.LVL8:
 168              	.L14:
 169              		.loc 1 37 0
 170 00ba 0135     		add	r5, r5, #1
 171              	.LVL9:
ARM GAS  /tmp/ccmKV0BV.s 			page 4


 172              		.loc 1 65 0
 173 00bc FFF7FEFF 		bl	ssd1306DrawString
 174              	.LVL10:
 175              		.loc 1 37 0
 176 00c0 EDB2     		uxtb	r5, r5
 177              	.LVL11:
 178 00c2 ADE7     		b	.L2
 179              	.LVL12:
 180              	.L1:
 181              		.loc 1 71 0
 182 00c4 07B0     		add	sp, sp, #28
 183              		@ sp needed for prologue
 184              	.LVL13:
 185              	.LVL14:
 186 00c6 F0BD     		pop	{r4, r5, r6, r7, pc}
 187              	.L19:
 188              		.align	2
 189              	.L18:
 190 00c8 00000000 		.word	Font_System5x8
 191 00cc 00000000 		.word	.LC1
 192              		.cfi_endproc
 193              	.LFE77:
 194              		.size	drawMenu, .-drawMenu
 195              		.section	.text.openMenu,"ax",%progbits
 196              		.align	1
 197              		.global	openMenu
 198              		.code	16
 199              		.thumb_func
 200              		.type	openMenu, %function
 201              	openMenu:
 202              	.LFB78:
 203              		.loc 1 75 0
 204              		.cfi_startproc
 205              	.LVL15:
 206 0000 70B5     		push	{r4, r5, r6, lr}
 207              	.LCFI2:
 208              		.cfi_def_cfa_offset 16
 209              		.cfi_offset 4, -16
 210              		.cfi_offset 5, -12
 211              		.cfi_offset 6, -8
 212              		.cfi_offset 14, -4
 213              		.loc 1 75 0
 214 0002 051C     		mov	r5, r0
 215              		.loc 1 78 0
 216 0004 FA20     		mov	r0, #250
 217              	.LVL16:
 218 0006 FFF7FEFF 		bl	chThdSleep
 219              	.LVL17:
 220              		.loc 1 79 0
 221 000a 281C     		mov	r0, r5
 222 000c 0021     		mov	r1, #0
 223 000e FFF7FEFF 		bl	drawMenu
 224              	.LVL18:
 225              		.loc 1 76 0
 226 0012 0024     		mov	r4, #0
 227              	.LVL19:
 228              	.L29:
ARM GAS  /tmp/ccmKV0BV.s 			page 5


 229              		.loc 1 82 0
 230 0014 1C4B     		ldr	r3, .L36
 231 0016 1A69     		ldr	r2, [r3, #16]
 232 0018 1104     		lsl	r1, r2, #16
 233 001a 07D4     		bmi	.L21
 234              		.loc 1 84 0
 235 001c 631E     		sub	r3, r4, #1
 236              	.LVL20:
 237              		.loc 1 85 0
 238 001e DCB2     		uxtb	r4, r3
 239 0020 1A06     		lsl	r2, r3, #24
 240 0022 11D5     		bpl	.L35
 241              		.loc 1 87 0
 242 0024 2E79     		ldrb	r6, [r5, #4]
 243 0026 0136     		add	r6, r6, #1
 244 0028 F4B2     		uxtb	r4, r6
 245              	.LVL21:
 246 002a 0DE0     		b	.L35
 247              	.LVL22:
 248              	.L21:
 249              		.loc 1 91 0
 250 002c 1869     		ldr	r0, [r3, #16]
 251 002e 4104     		lsl	r1, r0, #17
 252 0030 0CD4     		bmi	.L24
 253              		.loc 1 93 0
 254 0032 0134     		add	r4, r4, #1
 255              	.LVL23:
 256              		.loc 1 94 0
 257 0034 A988     		ldrh	r1, [r5, #4]
 258              		.loc 1 93 0
 259 0036 E6B2     		uxtb	r6, r4
 260              		.loc 1 94 0
 261 0038 72B2     		sxtb	r2, r6
 262 003a 0131     		add	r1, r1, #1
 263              		.loc 1 96 0
 264 003c D40F     		lsr	r4, r2, #31
 265              	.LVL24:
 266 003e C817     		asr	r0, r1, #31
 267 0040 9142     		cmp	r1, r2
 268 0042 4441     		adc	r4, r4, r0
 269 0044 6442     		neg	r4, r4
 270 0046 3440     		and	r4, r6
 271              	.L35:
 272              	.LVL25:
 273              		.loc 1 98 0
 274 0048 61B2     		sxtb	r1, r4
 275 004a 15E0     		b	.L34
 276              	.L24:
 277              		.loc 1 100 0
 278 004c 1969     		ldr	r1, [r3, #16]
 279 004e 8A04     		lsl	r2, r1, #18
 280 0050 15D4     		bmi	.L23
 281              		.loc 1 102 0
 282 0052 AB88     		ldrh	r3, [r5, #4]
 283 0054 66B2     		sxtb	r6, r4
 284 0056 9E42     		cmp	r6, r3
 285 0058 15DC     		bgt	.L20
ARM GAS  /tmp/ccmKV0BV.s 			page 6


 286              		.loc 1 106 0
 287 005a 0C22     		mov	r2, #12
 288 005c 7243     		mul	r2, r6
 289 005e A868     		ldr	r0, [r5, #8]
 290 0060 8118     		add	r1, r0, r2
 291 0062 4B68     		ldr	r3, [r1, #4]
 292 0064 002B     		cmp	r3, #0
 293 0066 01D0     		beq	.L27
 294              		.loc 1 108 0
 295 0068 9847     		blx	r3
 296              	.LVL26:
 297 006a 04E0     		b	.L28
 298              	.L27:
 299              		.loc 1 110 0
 300 006c 8868     		ldr	r0, [r1, #8]
 301 006e 0028     		cmp	r0, #0
 302 0070 01D0     		beq	.L28
 303              		.loc 1 112 0
 304 0072 FFF7FEFF 		bl	openMenu
 305              	.LVL27:
 306              	.L28:
 307              		.loc 1 114 0
 308 0076 311C     		mov	r1, r6
 309              	.LVL28:
 310              	.L34:
 311 0078 281C     		mov	r0, r5
 312 007a FFF7FEFF 		bl	drawMenu
 313              	.LVL29:
 314              	.L23:
 315              		.loc 1 116 0
 316 007e 0348     		ldr	r0, .L36+4
 317 0080 FFF7FEFF 		bl	chThdSleep
 318              	.LVL30:
 319              		.loc 1 117 0
 320 0084 C6E7     		b	.L29
 321              	.L20:
 322              		.loc 1 120 0
 323              		@ sp needed for prologue
 324              	.LVL31:
 325              	.LVL32:
 326 0086 70BD     		pop	{r4, r5, r6, pc}
 327              	.L37:
 328              		.align	2
 329              	.L36:
 330 0088 00080048 		.word	1207961600
 331 008c E2040000 		.word	1250
 332              		.cfi_endproc
 333              	.LFE78:
 334              		.size	openMenu, .-openMenu
 335              		.section	.rodata.str1.1,"aMS",%progbits,1
 336              	.LC1:
 337 0000 476F2042 		.ascii	"Go Back\000"
 337      61636B00 
 338              		.text
 339              	.Letext0:
 340              		.file 2 "./os/nil/include/nil.h"
 341              		.file 3 "/media/data/src/x-tools/gcc-arm-none-eabi-4_7-2013q1/bin/../lib/gcc/arm-none-eabi/4.7.3/.
ARM GAS  /tmp/ccmKV0BV.s 			page 7


 342              		.file 4 "./os/nil/ports/ARMCMx/compilers/GCC/niltypes.h"
 343              		.file 5 "./os/nil/ports/ARMCMx/nilcore.h"
 344              		.file 6 "./os/nil/ports/ARMCMx/nilcore_v6m.h"
 345              		.file 7 "inc/smallfonts.h"
 346              		.file 8 "./os/hal/ports/STM32/GPIOv2/pal_lld.h"
 347              		.file 9 "inc/menu.h"
 348              		.file 10 "inc/ssd1306.h"