ARM GAS  /tmp/ccSOf3P8.s 			page 1


   1              		.cpu cortex-m0
   2              		.fpu softvfp
   3              		.eabi_attribute 20, 1
   4              		.eabi_attribute 21, 1
   5              		.eabi_attribute 23, 3
   6              		.eabi_attribute 24, 1
   7              		.eabi_attribute 25, 1
   8              		.eabi_attribute 26, 1
   9              		.eabi_attribute 30, 4
  10              		.eabi_attribute 34, 0
  11              		.eabi_attribute 18, 4
  12              		.code	16
  13              		.file	"nil.c"
  14              		.text
  15              	.Ltext0:
  16              		.cfi_sections	.debug_frame
  17              		.section	.text.chSysInit,"ax",%progbits
  18              		.align	1
  19              		.global	chSysInit
  20              		.code	16
  21              		.thumb_func
  22              		.type	chSysInit, %function
  23              	chSysInit:
  24              	.LFB45:
  25              		.file 1 "./os/nil/src/nil.c"
  26              		.loc 1 71 0
  27              		.cfi_startproc
  28              	.LVL0:
  29              	.LBB137:
  30              	.LBB138:
  31              	.LBB139:
  32              		.file 2 "./os/ext/CMSIS/include/core_cm0.h"
  33              		.loc 2 585 0
  34 0000 0F4B     		ldr	r3, .L5
  35 0002 104A     		ldr	r2, .L5+4
  36 0004 196A     		ldr	r1, [r3, #32]
  37              	.LBE139:
  38              	.LBE138:
  39              	.LBE137:
  40              		.loc 1 71 0
  41 0006 10B5     		push	{r4, lr}
  42              	.LCFI0:
  43              		.cfi_def_cfa_offset 8
  44              		.cfi_offset 4, -8
  45              		.cfi_offset 14, -4
  46              	.LBB144:
  47              	.LBB142:
  48              	.LBB140:
  49              		.loc 2 585 0
  50 0008 0A40     		and	r2, r1
  51 000a 1A62     		str	r2, [r3, #32]
  52              	.LVL1:
  53 000c 0023     		mov	r3, #0
  54              	.LVL2:
  55              	.L2:
  56              		.loc 1 71 0
  57 000e 0E48     		ldr	r0, .L5+8
ARM GAS  /tmp/ccSOf3P8.s 			page 2


  58              	.LBE140:
  59              	.LBE142:
  60              	.LBE144:
  61 0010 0E49     		ldr	r1, .L5+12
  62              	.LBB145:
  63              	.LBB143:
  64              	.LBB141:
  65 0012 1818     		add	r0, r3, r0
  66              	.LBE141:
  67              	.LBE143:
  68              	.LBE145:
  69              		.loc 1 87 0
  70 0014 4268     		ldr	r2, [r0, #4]
  71              		.loc 1 71 0
  72 0016 CC18     		add	r4, r1, r3
  73              		.loc 1 87 0
  74 0018 243A     		sub	r2, r2, #36
  75 001a E260     		str	r2, [r4, #12]
  76 001c C468     		ldr	r4, [r0, #12]
  77 001e 0069     		ldr	r0, [r0, #16]
  78 0020 1461     		str	r4, [r2, #16]
  79 0022 0B4C     		ldr	r4, .L5+16
  80 0024 1433     		add	r3, r3, #20
  81 0026 5061     		str	r0, [r2, #20]
  82 0028 1462     		str	r4, [r2, #32]
  83              		.loc 1 81 0
  84 002a 782B     		cmp	r3, #120
  85 002c EFD1     		bne	.L2
  86              		.loc 1 105 0
  87 002e 081C     		mov	r0, r1
  88 0030 0C30     		add	r0, r0, #12
  89 0032 4860     		str	r0, [r1, #4]
  90 0034 0860     		str	r0, [r1]
  91              		.loc 1 106 0
  92 0036 8431     		add	r1, r1, #132
  93 0038 FFF7FEFF 		bl	_port_switch
  94              	.LVL3:
  95              	.LBB146:
  96              	.LBB147:
  97              	.LBB148:
  98              		.file 3 "./os/ext/CMSIS/include/core_cmFunc.h"
  99              		.loc 3 331 0
 100              	@ 331 "./os/ext/CMSIS/include/core_cmFunc.h" 1
 101 003c 62B6     		cpsie i
 102              	@ 0 "" 2
 103              		.code	16
 104              	.LBE148:
 105              	.LBE147:
 106              	.LBE146:
 107              		.loc 1 110 0
 108              		@ sp needed for prologue
 109 003e 10BD     		pop	{r4, pc}
 110              	.L6:
 111              		.align	2
 112              	.L5:
 113 0040 00ED00E0 		.word	-536810240
 114 0044 FFFF00FF 		.word	-16711681
ARM GAS  /tmp/ccSOf3P8.s 			page 3


 115 0048 00000000 		.word	nil_thd_configs
 116 004c 00000000 		.word	.LANCHOR0
 117 0050 00000000 		.word	_port_thread_start
 118              		.cfi_endproc
 119              	.LFE45:
 120              		.size	chSysInit, .-chSysInit
 121              		.section	.text.chSysHalt,"ax",%progbits
 122              		.align	1
 123              		.global	chSysHalt
 124              		.code	16
 125              		.thumb_func
 126              		.type	chSysHalt, %function
 127              	chSysHalt:
 128              	.LFB46:
 129              		.loc 1 122 0
 130              		.cfi_startproc
 131              	.LVL4:
 132 0000 00B5     		push	{lr}
 133              	.LCFI1:
 134              		.cfi_def_cfa_offset 4
 135              		.cfi_offset 14, -4
 136              	.LBB149:
 137              	.LBB150:
 138              	.LBB151:
 139              		.loc 3 342 0
 140              	@ 342 "./os/ext/CMSIS/include/core_cmFunc.h" 1
 141 0002 72B6     		cpsid i
 142              	@ 0 "" 2
 143              		.code	16
 144              	.L8:
 145 0004 FEE7     		b	.L8
 146              	.LBE151:
 147              	.LBE150:
 148              	.LBE149:
 149              		.cfi_endproc
 150              	.LFE46:
 151              		.size	chSysHalt, .-chSysHalt
 152              		.section	.text.chSysGetStatusAndLockX,"ax",%progbits
 153              		.align	1
 154              		.global	chSysGetStatusAndLockX
 155              		.code	16
 156              		.thumb_func
 157              		.type	chSysGetStatusAndLockX, %function
 158              	chSysGetStatusAndLockX:
 159              	.LFB48:
 160              		.loc 1 235 0
 161              		.cfi_startproc
 162 0000 00B5     		push	{lr}
 163              	.LCFI2:
 164              		.cfi_def_cfa_offset 4
 165              		.cfi_offset 14, -4
 166              	.LBB168:
 167              	.LBB169:
 168              	.LBB170:
 169              		.loc 3 482 0
 170              	@ 482 "./os/ext/CMSIS/include/core_cmFunc.h" 1
 171 0002 EFF31080 		MRS r0, primask
ARM GAS  /tmp/ccSOf3P8.s 			page 4


 172              	@ 0 "" 2
 173              	.LVL5:
 174              		.code	16
 175              	.LBE170:
 176              	.LBE169:
 177              	.LBE168:
 178              		.loc 1 238 0
 179 0006 C307     		lsl	r3, r0, #31
 180 0008 02D4     		bmi	.L10
 181              	.LBB171:
 182              	.LBB172:
 183              	.LBB173:
 184              	.LBB174:
 185              		.loc 3 383 0
 186              	@ 383 "./os/ext/CMSIS/include/core_cmFunc.h" 1
 187 000a EFF30583 		MRS r3, ipsr
 188              	@ 0 "" 2
 189              		.code	16
 190              	.LBE174:
 191              	.LBE173:
 192              	.LBE172:
 193              	.LBE171:
 194              	.LBB175:
 195              	.LBB176:
 196              	.LBB177:
 197              	.LBB178:
 198              		.loc 3 342 0
 199              	@ 342 "./os/ext/CMSIS/include/core_cmFunc.h" 1
 200 000e 72B6     		cpsid i
 201              	@ 0 "" 2
 202              		.code	16
 203              	.L10:
 204              	.LBE178:
 205              	.LBE177:
 206              	.LBE176:
 207              	.LBE175:
 208              		.loc 1 245 0
 209              		@ sp needed for prologue
 210 0010 00BD     		pop	{pc}
 211              		.cfi_endproc
 212              	.LFE48:
 213              		.size	chSysGetStatusAndLockX, .-chSysGetStatusAndLockX
 214              		.section	.text.chSchReadyI,"ax",%progbits
 215              		.align	1
 216              		.global	chSchReadyI
 217              		.code	16
 218              		.thumb_func
 219              		.type	chSchReadyI, %function
 220              	chSchReadyI:
 221              	.LFB50:
 222              		.loc 1 276 0
 223              		.cfi_startproc
 224              	.LVL6:
 225              		.loc 1 285 0
 226 0000 0023     		mov	r3, #0
 227              		.loc 1 284 0
 228 0002 8160     		str	r1, [r0, #8]
ARM GAS  /tmp/ccSOf3P8.s 			page 5


 229              		.loc 1 287 0
 230 0004 0449     		ldr	r1, .L14
 231              	.LVL7:
 232              		.loc 1 285 0
 233 0006 0371     		strb	r3, [r0, #4]
 234              		.loc 1 287 0
 235 0008 4A68     		ldr	r2, [r1, #4]
 236              		.loc 1 276 0
 237 000a 00B5     		push	{lr}
 238              	.LCFI3:
 239              		.cfi_def_cfa_offset 4
 240              		.cfi_offset 14, -4
 241              		.loc 1 286 0
 242 000c 8381     		strh	r3, [r0, #12]
 243              		.loc 1 287 0
 244 000e 9042     		cmp	r0, r2
 245 0010 00D2     		bcs	.L13
 246              		.loc 1 288 0
 247 0012 4860     		str	r0, [r1, #4]
 248              	.L13:
 249              		.loc 1 290 0
 250              		@ sp needed for prologue
 251 0014 00BD     		pop	{pc}
 252              	.L15:
 253 0016 C046     		.align	2
 254              	.L14:
 255 0018 00000000 		.word	.LANCHOR0
 256              		.cfi_endproc
 257              	.LFE50:
 258              		.size	chSchReadyI, .-chSchReadyI
 259              		.section	.text.chSysTimerHandlerI,"ax",%progbits
 260              		.align	1
 261              		.global	chSysTimerHandlerI
 262              		.code	16
 263              		.thumb_func
 264              		.type	chSysTimerHandlerI, %function
 265              	chSysTimerHandlerI:
 266              	.LFB47:
 267              		.loc 1 148 0
 268              		.cfi_startproc
 269              	.LVL8:
 270 0000 38B5     		push	{r3, r4, r5, lr}
 271              	.LCFI4:
 272              		.cfi_def_cfa_offset 16
 273              		.cfi_offset 3, -16
 274              		.cfi_offset 4, -12
 275              		.cfi_offset 5, -8
 276              		.cfi_offset 14, -4
 277              		.loc 1 152 0
 278 0002 144B     		ldr	r3, .L25
 279 0004 1A89     		ldrh	r2, [r3, #8]
 280              		.loc 1 151 0
 281 0006 1C1C     		mov	r4, r3
 282              		.loc 1 152 0
 283 0008 0132     		add	r2, r2, #1
 284 000a 1A81     		strh	r2, [r3, #8]
 285              		.loc 1 151 0
ARM GAS  /tmp/ccSOf3P8.s 			page 6


 286 000c 0C34     		add	r4, r4, #12
 287 000e 1D1C     		mov	r5, r3
 288              	.LVL9:
 289              	.L22:
 290              		.loc 1 155 0
 291 0010 A089     		ldrh	r0, [r4, #12]
 292 0012 0028     		cmp	r0, #0
 293 0014 15D0     		beq	.L18
 294              		.loc 1 160 0
 295 0016 A189     		ldrh	r1, [r4, #12]
 296 0018 0139     		sub	r1, r1, #1
 297 001a 8AB2     		uxth	r2, r1
 298 001c A281     		strh	r2, [r4, #12]
 299 001e 002A     		cmp	r2, #0
 300 0020 0FD1     		bne	.L18
 301              		.loc 1 163 0
 302 0022 2379     		ldrb	r3, [r4, #4]
 303 0024 032B     		cmp	r3, #3
 304 0026 03D1     		bne	.L20
 305              		.loc 1 164 0
 306 0028 A068     		ldr	r0, [r4, #8]
 307 002a 0268     		ldr	r2, [r0]
 308 002c 0132     		add	r2, r2, #1
 309 002e 02E0     		b	.L24
 310              	.L20:
 311              		.loc 1 165 0
 312 0030 022B     		cmp	r3, #2
 313 0032 01D1     		bne	.L21
 314              		.loc 1 166 0
 315 0034 A068     		ldr	r0, [r4, #8]
 316              	.L24:
 317 0036 0260     		str	r2, [r0]
 318              	.L21:
 319              		.loc 1 167 0
 320 0038 0121     		mov	r1, #1
 321 003a 201C     		mov	r0, r4
 322 003c 4942     		neg	r1, r1
 323 003e FFF7FEFF 		bl	chSchReadyI
 324              	.LVL10:
 325              	.L18:
 326              	.LBB179:
 327              	.LBB180:
 328              	.LBB181:
 329              	.LBB182:
 330              		.loc 3 331 0
 331              	@ 331 "./os/ext/CMSIS/include/core_cmFunc.h" 1
 332 0042 62B6     		cpsie i
 333              	@ 0 "" 2
 334              		.code	16
 335              	.LBE182:
 336              	.LBE181:
 337              	.LBE180:
 338              	.LBE179:
 339              		.loc 1 173 0
 340 0044 1434     		add	r4, r4, #20
 341              	.LVL11:
 342              	.LBB183:
ARM GAS  /tmp/ccSOf3P8.s 			page 7


 343              	.LBB184:
 344              	.LBB185:
 345              	.LBB186:
 346              		.loc 3 342 0
 347              	@ 342 "./os/ext/CMSIS/include/core_cmFunc.h" 1
 348 0046 72B6     		cpsid i
 349              	@ 0 "" 2
 350              		.code	16
 351              	.LBE186:
 352              	.LBE185:
 353              	.LBE184:
 354              	.LBE183:
 355              		.loc 1 148 0
 356 0048 2A1C     		mov	r2, r5
 357 004a 8432     		add	r2, r2, #132
 358              		.loc 1 175 0
 359 004c 9442     		cmp	r4, r2
 360 004e DFD1     		bne	.L22
 361              		.loc 1 220 0
 362              		@ sp needed for prologue
 363              	.LVL12:
 364 0050 38BD     		pop	{r3, r4, r5, pc}
 365              	.L26:
 366 0052 C046     		.align	2
 367              	.L25:
 368 0054 00000000 		.word	.LANCHOR0
 369              		.cfi_endproc
 370              	.LFE47:
 371              		.size	chSysTimerHandlerI, .-chSysTimerHandlerI
 372              		.section	.text.chSchRescheduleS,"ax",%progbits
 373              		.align	1
 374              		.global	chSchRescheduleS
 375              		.code	16
 376              		.thumb_func
 377              		.type	chSchRescheduleS, %function
 378              	chSchRescheduleS:
 379              	.LFB51:
 380              		.loc 1 297 0
 381              		.cfi_startproc
 382 0000 08B5     		push	{r3, lr}
 383              	.LCFI5:
 384              		.cfi_def_cfa_offset 8
 385              		.cfi_offset 3, -8
 386              		.cfi_offset 14, -4
 387              		.loc 1 299 0
 388 0002 044B     		ldr	r3, .L29
 389 0004 1968     		ldr	r1, [r3]
 390 0006 5868     		ldr	r0, [r3, #4]
 391 0008 8142     		cmp	r1, r0
 392 000a 02D0     		beq	.L27
 393              	.LVL13:
 394              	.LBB187:
 395              		.loc 1 302 0
 396 000c 1860     		str	r0, [r3]
 397              		.loc 1 308 0
 398 000e FFF7FEFF 		bl	_port_switch
 399              	.LVL14:
ARM GAS  /tmp/ccSOf3P8.s 			page 8


 400              	.L27:
 401              	.LBE187:
 402              		.loc 1 310 0
 403              		@ sp needed for prologue
 404 0012 08BD     		pop	{r3, pc}
 405              	.L30:
 406              		.align	2
 407              	.L29:
 408 0014 00000000 		.word	.LANCHOR0
 409              		.cfi_endproc
 410              	.LFE51:
 411              		.size	chSchRescheduleS, .-chSchRescheduleS
 412              		.section	.text.chSysRestoreStatusX,"ax",%progbits
 413              		.align	1
 414              		.global	chSysRestoreStatusX
 415              		.code	16
 416              		.thumb_func
 417              		.type	chSysRestoreStatusX, %function
 418              	chSysRestoreStatusX:
 419              	.LFB49:
 420              		.loc 1 256 0
 421              		.cfi_startproc
 422              	.LVL15:
 423 0000 08B5     		push	{r3, lr}
 424              	.LCFI6:
 425              		.cfi_def_cfa_offset 8
 426              		.cfi_offset 3, -8
 427              		.cfi_offset 14, -4
 428              		.loc 1 258 0
 429 0002 C307     		lsl	r3, r0, #31
 430 0004 06D4     		bmi	.L31
 431              	.LBB201:
 432              	.LBB202:
 433              	.LBB203:
 434              	.LBB204:
 435              		.loc 3 383 0
 436              	@ 383 "./os/ext/CMSIS/include/core_cmFunc.h" 1
 437 0006 EFF30583 		MRS r3, ipsr
 438              	@ 0 "" 2
 439              	.LVL16:
 440              		.code	16
 441              	.LBE204:
 442              	.LBE203:
 443              		.file 4 "./os/nil/ports/ARMCMx/nilcore_v6m.h"
 444              		.loc 4 314 0
 445 000a D805     		lsl	r0, r3, #23
 446              	.LVL17:
 447              	.LBE202:
 448              	.LBE201:
 449              		.loc 1 259 0
 450 000c 01D1     		bne	.L34
 451              	.L33:
 452              		.loc 1 262 0
 453 000e FFF7FEFF 		bl	chSchRescheduleS
 454              	.LVL18:
 455              	.L34:
 456              	.LBB205:
ARM GAS  /tmp/ccSOf3P8.s 			page 9


 457              	.LBB206:
 458              	.LBB207:
 459              		.loc 3 331 0
 460              	@ 331 "./os/ext/CMSIS/include/core_cmFunc.h" 1
 461 0012 62B6     		cpsie i
 462              	@ 0 "" 2
 463              		.code	16
 464              	.L31:
 465              	.LBE207:
 466              	.LBE206:
 467              	.LBE205:
 468              		.loc 1 266 0
 469              		@ sp needed for prologue
 470 0014 08BD     		pop	{r3, pc}
 471              		.cfi_endproc
 472              	.LFE49:
 473              		.size	chSysRestoreStatusX, .-chSysRestoreStatusX
 474              		.section	.text.chSchGoSleepTimeoutS,"ax",%progbits
 475              		.align	1
 476              		.global	chSchGoSleepTimeoutS
 477              		.code	16
 478              		.thumb_func
 479              		.type	chSchGoSleepTimeoutS, %function
 480              	chSchGoSleepTimeoutS:
 481              	.LFB52:
 482              		.loc 1 329 0
 483              		.cfi_startproc
 484              	.LVL19:
 485 0000 10B5     		push	{r4, lr}
 486              	.LCFI7:
 487              		.cfi_def_cfa_offset 8
 488              		.cfi_offset 4, -8
 489              		.cfi_offset 14, -4
 490              		.loc 1 330 0
 491 0002 094C     		ldr	r4, .L39
 492 0004 2368     		ldr	r3, [r4]
 493              	.LVL20:
 494              		.loc 1 336 0
 495 0006 1871     		strb	r0, [r3, #4]
 496              		.loc 1 374 0
 497 0008 201C     		mov	r0, r4
 498              	.LVL21:
 499              		.loc 1 370 0
 500 000a 9981     		strh	r1, [r3, #12]
 501              	.LVL22:
 502              		.loc 1 374 0
 503 000c 0C30     		add	r0, r0, #12
 504              	.LVL23:
 505              	.L37:
 506              		.loc 1 377 0
 507 000e 0279     		ldrb	r2, [r0, #4]
 508 0010 002A     		cmp	r2, #0
 509 0012 07D1     		bne	.L36
 510              		.loc 1 384 0
 511 0014 191C     		mov	r1, r3
 512              	.LVL24:
 513              		.loc 1 378 0
ARM GAS  /tmp/ccSOf3P8.s 			page 10


 514 0016 6060     		str	r0, [r4, #4]
 515 0018 2060     		str	r0, [r4]
 516              		.loc 1 384 0
 517 001a FFF7FEFF 		bl	_port_switch
 518              	.LVL25:
 519              		.loc 1 385 0
 520 001e 2068     		ldr	r0, [r4]
 521              		.loc 1 393 0
 522              		@ sp needed for prologue
 523              		.loc 1 385 0
 524 0020 8068     		ldr	r0, [r0, #8]
 525              		.loc 1 393 0
 526 0022 10BD     		pop	{r4, pc}
 527              	.LVL26:
 528              	.L36:
 529              		.loc 1 389 0
 530 0024 1430     		add	r0, r0, #20
 531              	.LVL27:
 532              		.loc 1 392 0
 533 0026 F2E7     		b	.L37
 534              	.L40:
 535              		.align	2
 536              	.L39:
 537 0028 00000000 		.word	.LANCHOR0
 538              		.cfi_endproc
 539              	.LFE52:
 540              		.size	chSchGoSleepTimeoutS, .-chSchGoSleepTimeoutS
 541              		.section	.text.chThdSuspendTimeoutS,"ax",%progbits
 542              		.align	1
 543              		.global	chThdSuspendTimeoutS
 544              		.code	16
 545              		.thumb_func
 546              		.type	chThdSuspendTimeoutS, %function
 547              	chThdSuspendTimeoutS:
 548              	.LFB53:
 549              		.loc 1 409 0
 550              		.cfi_startproc
 551              	.LVL28:
 552 0000 08B5     		push	{r3, lr}
 553              	.LCFI8:
 554              		.cfi_def_cfa_offset 8
 555              		.cfi_offset 3, -8
 556              		.cfi_offset 14, -4
 557              		.loc 1 413 0
 558 0002 044B     		ldr	r3, .L42
 559              		.loc 1 416 0
 560              		@ sp needed for prologue
 561              		.loc 1 413 0
 562 0004 1A68     		ldr	r2, [r3]
 563 0006 0260     		str	r2, [r0]
 564              		.loc 1 414 0
 565 0008 1B68     		ldr	r3, [r3]
 566 000a 9860     		str	r0, [r3, #8]
 567              		.loc 1 415 0
 568 000c 0220     		mov	r0, #2
 569              	.LVL29:
 570 000e FFF7FEFF 		bl	chSchGoSleepTimeoutS
ARM GAS  /tmp/ccSOf3P8.s 			page 11


 571              	.LVL30:
 572              		.loc 1 416 0
 573 0012 08BD     		pop	{r3, pc}
 574              	.L43:
 575              		.align	2
 576              	.L42:
 577 0014 00000000 		.word	.LANCHOR0
 578              		.cfi_endproc
 579              	.LFE53:
 580              		.size	chThdSuspendTimeoutS, .-chThdSuspendTimeoutS
 581              		.section	.text.chThdResumeI,"ax",%progbits
 582              		.align	1
 583              		.global	chThdResumeI
 584              		.code	16
 585              		.thumb_func
 586              		.type	chThdResumeI, %function
 587              	chThdResumeI:
 588              	.LFB54:
 589              		.loc 1 428 0
 590              		.cfi_startproc
 591              	.LVL31:
 592 0000 08B5     		push	{r3, lr}
 593              	.LCFI9:
 594              		.cfi_def_cfa_offset 8
 595              		.cfi_offset 3, -8
 596              		.cfi_offset 14, -4
 597              		.loc 1 428 0
 598 0002 031C     		mov	r3, r0
 599              		.loc 1 430 0
 600 0004 0068     		ldr	r0, [r0]
 601              	.LVL32:
 602 0006 0028     		cmp	r0, #0
 603 0008 03D0     		beq	.L44
 604              	.LVL33:
 605              	.LBB208:
 606              		.loc 1 435 0
 607 000a 0022     		mov	r2, #0
 608 000c 1A60     		str	r2, [r3]
 609              		.loc 1 436 0
 610 000e FFF7FEFF 		bl	chSchReadyI
 611              	.LVL34:
 612              	.L44:
 613              	.LBE208:
 614              		.loc 1 438 0
 615              		@ sp needed for prologue
 616 0012 08BD     		pop	{r3, pc}
 617              		.cfi_endproc
 618              	.LFE54:
 619              		.size	chThdResumeI, .-chThdResumeI
 620              		.section	.text.chThdSleep,"ax",%progbits
 621              		.align	1
 622              		.global	chThdSleep
 623              		.code	16
 624              		.thumb_func
 625              		.type	chThdSleep, %function
 626              	chThdSleep:
 627              	.LFB55:
ARM GAS  /tmp/ccSOf3P8.s 			page 12


 628              		.loc 1 447 0
 629              		.cfi_startproc
 630              	.LVL35:
 631 0000 08B5     		push	{r3, lr}
 632              	.LCFI10:
 633              		.cfi_def_cfa_offset 8
 634              		.cfi_offset 3, -8
 635              		.cfi_offset 14, -4
 636              		.loc 1 447 0
 637 0002 011C     		mov	r1, r0
 638              	.LBB209:
 639              	.LBB210:
 640              	.LBB211:
 641              		.loc 3 342 0
 642              	@ 342 "./os/ext/CMSIS/include/core_cmFunc.h" 1
 643 0004 72B6     		cpsid i
 644              	@ 0 "" 2
 645              		.code	16
 646              	.LBE211:
 647              	.LBE210:
 648              	.LBE209:
 649              		.loc 1 450 0
 650 0006 0120     		mov	r0, #1
 651              	.LVL36:
 652 0008 FFF7FEFF 		bl	chSchGoSleepTimeoutS
 653              	.LVL37:
 654              	.LBB212:
 655              	.LBB213:
 656              	.LBB214:
 657              		.loc 3 331 0
 658              	@ 331 "./os/ext/CMSIS/include/core_cmFunc.h" 1
 659 000c 62B6     		cpsie i
 660              	@ 0 "" 2
 661              		.code	16
 662              	.LBE214:
 663              	.LBE213:
 664              	.LBE212:
 665              		.loc 1 452 0
 666              		@ sp needed for prologue
 667 000e 08BD     		pop	{r3, pc}
 668              		.cfi_endproc
 669              	.LFE55:
 670              		.size	chThdSleep, .-chThdSleep
 671              		.section	.text.chThdSleepUntil,"ax",%progbits
 672              		.align	1
 673              		.global	chThdSleepUntil
 674              		.code	16
 675              		.thumb_func
 676              		.type	chThdSleepUntil, %function
 677              	chThdSleepUntil:
 678              	.LFB56:
 679              		.loc 1 462 0
 680              		.cfi_startproc
 681              	.LVL38:
 682 0000 08B5     		push	{r3, lr}
 683              	.LCFI11:
 684              		.cfi_def_cfa_offset 8
ARM GAS  /tmp/ccSOf3P8.s 			page 13


 685              		.cfi_offset 3, -8
 686              		.cfi_offset 14, -4
 687              	.LBB215:
 688              	.LBB216:
 689              	.LBB217:
 690              		.loc 3 342 0
 691              	@ 342 "./os/ext/CMSIS/include/core_cmFunc.h" 1
 692 0002 72B6     		cpsid i
 693              	@ 0 "" 2
 694              		.code	16
 695              	.LBE217:
 696              	.LBE216:
 697              	.LBE215:
 698              		.loc 1 465 0
 699 0004 044B     		ldr	r3, .L51
 700 0006 1989     		ldrh	r1, [r3, #8]
 701 0008 401A     		sub	r0, r0, r1
 702              	.LVL39:
 703 000a 81B2     		uxth	r1, r0
 704 000c 0120     		mov	r0, #1
 705 000e FFF7FEFF 		bl	chSchGoSleepTimeoutS
 706              	.LVL40:
 707              	.LBB218:
 708              	.LBB219:
 709              	.LBB220:
 710              		.loc 3 331 0
 711              	@ 331 "./os/ext/CMSIS/include/core_cmFunc.h" 1
 712 0012 62B6     		cpsie i
 713              	@ 0 "" 2
 714              		.code	16
 715              	.LBE220:
 716              	.LBE219:
 717              	.LBE218:
 718              		.loc 1 467 0
 719              		@ sp needed for prologue
 720 0014 08BD     		pop	{r3, pc}
 721              	.L52:
 722 0016 C046     		.align	2
 723              	.L51:
 724 0018 00000000 		.word	.LANCHOR0
 725              		.cfi_endproc
 726              	.LFE56:
 727              		.size	chThdSleepUntil, .-chThdSleepUntil
 728              		.section	.text.chVTIsTimeWithinX,"ax",%progbits
 729              		.align	1
 730              		.global	chVTIsTimeWithinX
 731              		.code	16
 732              		.thumb_func
 733              		.type	chVTIsTimeWithinX, %function
 734              	chVTIsTimeWithinX:
 735              	.LFB57:
 736              		.loc 1 483 0
 737              		.cfi_startproc
 738              	.LVL41:
 739 0000 10B5     		push	{r4, lr}
 740              	.LCFI12:
 741              		.cfi_def_cfa_offset 8
ARM GAS  /tmp/ccSOf3P8.s 			page 14


 742              		.cfi_offset 4, -8
 743              		.cfi_offset 14, -4
 744 0002 0123     		mov	r3, #1
 745              		.loc 1 485 0
 746 0004 8A42     		cmp	r2, r1
 747 0006 03D9     		bls	.L54
 748              		.loc 1 485 0 is_stmt 0 discriminator 1
 749 0008 0024     		mov	r4, #0
 750 000a 8842     		cmp	r0, r1
 751 000c 06D3     		bcc	.L57
 752 000e 02E0     		b	.L60
 753              	.L54:
 754              		.loc 1 486 0 is_stmt 1
 755 0010 1C1C     		mov	r4, r3
 756 0012 8842     		cmp	r0, r1
 757 0014 02D2     		bcs	.L57
 758              	.L60:
 759              		.loc 1 486 0 is_stmt 0 discriminator 2
 760 0016 9042     		cmp	r0, r2
 761 0018 8041     		sbc	r0, r0, r0
 762              	.LVL42:
 763 001a 4442     		neg	r4, r0
 764              	.L57:
 765              		.loc 1 485 0 is_stmt 1
 766 001c 2340     		and	r3, r4
 767 001e D8B2     		uxtb	r0, r3
 768              		.loc 1 487 0
 769              		@ sp needed for prologue
 770 0020 10BD     		pop	{r4, pc}
 771              		.cfi_endproc
 772              	.LFE57:
 773              		.size	chVTIsTimeWithinX, .-chVTIsTimeWithinX
 774              		.section	.text.chSemWaitTimeoutS,"ax",%progbits
 775              		.align	1
 776              		.global	chSemWaitTimeoutS
 777              		.code	16
 778              		.thumb_func
 779              		.type	chSemWaitTimeoutS, %function
 780              	chSemWaitTimeoutS:
 781              	.LFB59:
 782              		.loc 1 536 0
 783              		.cfi_startproc
 784              	.LVL43:
 785 0000 08B5     		push	{r3, lr}
 786              	.LCFI13:
 787              		.cfi_def_cfa_offset 8
 788              		.cfi_offset 3, -8
 789              		.cfi_offset 14, -4
 790              		.loc 1 540 0
 791 0002 0368     		ldr	r3, [r0]
 792              	.LVL44:
 793              		.loc 1 541 0
 794 0004 002B     		cmp	r3, #0
 795 0006 0BDC     		bgt	.L62
 796              		.loc 1 542 0
 797 0008 094A     		ldr	r2, .L65
 798 000a 9142     		cmp	r1, r2
ARM GAS  /tmp/ccSOf3P8.s 			page 15


 799 000c 0CD0     		beq	.L64
 800              		.loc 1 544 0
 801 000e 013B     		sub	r3, r3, #1
 802              	.LVL45:
 803 0010 0360     		str	r3, [r0]
 804              		.loc 1 545 0
 805 0012 084B     		ldr	r3, .L65+4
 806              	.LVL46:
 807 0014 1A68     		ldr	r2, [r3]
 808 0016 9060     		str	r0, [r2, #8]
 809              		.loc 1 546 0
 810 0018 0320     		mov	r0, #3
 811              	.LVL47:
 812 001a FFF7FEFF 		bl	chSchGoSleepTimeoutS
 813              	.LVL48:
 814 001e 05E0     		b	.L63
 815              	.LVL49:
 816              	.L62:
 817              		.loc 1 548 0
 818 0020 013B     		sub	r3, r3, #1
 819              	.LVL50:
 820 0022 0360     		str	r3, [r0]
 821              		.loc 1 549 0
 822 0024 0020     		mov	r0, #0
 823              	.LVL51:
 824 0026 01E0     		b	.L63
 825              	.LVL52:
 826              	.L64:
 827              		.loc 1 543 0
 828 0028 0120     		mov	r0, #1
 829              	.LVL53:
 830 002a 4042     		neg	r0, r0
 831              	.LVL54:
 832              	.L63:
 833              		.loc 1 550 0
 834              		@ sp needed for prologue
 835 002c 08BD     		pop	{r3, pc}
 836              	.L66:
 837 002e C046     		.align	2
 838              	.L65:
 839 0030 FFFF0000 		.word	65535
 840 0034 00000000 		.word	.LANCHOR0
 841              		.cfi_endproc
 842              	.LFE59:
 843              		.size	chSemWaitTimeoutS, .-chSemWaitTimeoutS
 844              		.section	.text.chSemWaitTimeout,"ax",%progbits
 845              		.align	1
 846              		.global	chSemWaitTimeout
 847              		.code	16
 848              		.thumb_func
 849              		.type	chSemWaitTimeout, %function
 850              	chSemWaitTimeout:
 851              	.LFB58:
 852              		.loc 1 508 0
 853              		.cfi_startproc
 854              	.LVL55:
 855 0000 08B5     		push	{r3, lr}
ARM GAS  /tmp/ccSOf3P8.s 			page 16


 856              	.LCFI14:
 857              		.cfi_def_cfa_offset 8
 858              		.cfi_offset 3, -8
 859              		.cfi_offset 14, -4
 860              	.LBB221:
 861              	.LBB222:
 862              	.LBB223:
 863              		.loc 3 342 0
 864              	@ 342 "./os/ext/CMSIS/include/core_cmFunc.h" 1
 865 0002 72B6     		cpsid i
 866              	@ 0 "" 2
 867              		.code	16
 868              	.LBE223:
 869              	.LBE222:
 870              	.LBE221:
 871              		.loc 1 512 0
 872 0004 FFF7FEFF 		bl	chSemWaitTimeoutS
 873              	.LVL56:
 874              	.LBB224:
 875              	.LBB225:
 876              	.LBB226:
 877              		.loc 3 331 0
 878              	@ 331 "./os/ext/CMSIS/include/core_cmFunc.h" 1
 879 0008 62B6     		cpsie i
 880              	@ 0 "" 2
 881              		.code	16
 882              	.LBE226:
 883              	.LBE225:
 884              	.LBE224:
 885              		.loc 1 515 0
 886              		@ sp needed for prologue
 887 000a 08BD     		pop	{r3, pc}
 888              		.cfi_endproc
 889              	.LFE58:
 890              		.size	chSemWaitTimeout, .-chSemWaitTimeout
 891              		.section	.text.chSemSignalI,"ax",%progbits
 892              		.align	1
 893              		.global	chSemSignalI
 894              		.code	16
 895              		.thumb_func
 896              		.type	chSemSignalI, %function
 897              	chSemSignalI:
 898              	.LFB61:
 899              		.loc 1 582 0
 900              		.cfi_startproc
 901              	.LVL57:
 902 0000 08B5     		push	{r3, lr}
 903              	.LCFI15:
 904              		.cfi_def_cfa_offset 8
 905              		.cfi_offset 3, -8
 906              		.cfi_offset 14, -4
 907              		.loc 1 584 0
 908 0002 0368     		ldr	r3, [r0]
 909              		.loc 1 582 0
 910 0004 021C     		mov	r2, r0
 911              		.loc 1 584 0
 912 0006 0133     		add	r3, r3, #1
ARM GAS  /tmp/ccSOf3P8.s 			page 17


 913 0008 0360     		str	r3, [r0]
 914 000a 002B     		cmp	r3, #0
 915 000c 0BDC     		bgt	.L68
 916 000e 0023     		mov	r3, #0
 917              	.LVL58:
 918              	.L70:
 919              		.loc 1 582 0
 920 0010 0549     		ldr	r1, .L72
 921 0012 081C     		mov	r0, r1
 922 0014 0C30     		add	r0, r0, #12
 923 0016 C018     		add	r0, r0, r3
 924 0018 1433     		add	r3, r3, #20
 925              	.LBB227:
 926              		.loc 1 588 0
 927 001a 5958     		ldr	r1, [r3, r1]
 928 001c 9142     		cmp	r1, r2
 929 001e F7D1     		bne	.L70
 930              		.loc 1 592 0
 931 0020 0021     		mov	r1, #0
 932 0022 FFF7FEFF 		bl	chSchReadyI
 933              	.LVL59:
 934              	.L68:
 935              	.LBE227:
 936              		.loc 1 601 0
 937              		@ sp needed for prologue
 938 0026 08BD     		pop	{r3, pc}
 939              	.L73:
 940              		.align	2
 941              	.L72:
 942 0028 00000000 		.word	.LANCHOR0
 943              		.cfi_endproc
 944              	.LFE61:
 945              		.size	chSemSignalI, .-chSemSignalI
 946              		.section	.text.chSemSignal,"ax",%progbits
 947              		.align	1
 948              		.global	chSemSignal
 949              		.code	16
 950              		.thumb_func
 951              		.type	chSemSignal, %function
 952              	chSemSignal:
 953              	.LFB60:
 954              		.loc 1 563 0
 955              		.cfi_startproc
 956              	.LVL60:
 957 0000 08B5     		push	{r3, lr}
 958              	.LCFI16:
 959              		.cfi_def_cfa_offset 8
 960              		.cfi_offset 3, -8
 961              		.cfi_offset 14, -4
 962              	.LBB228:
 963              	.LBB229:
 964              	.LBB230:
 965              		.loc 3 342 0
 966              	@ 342 "./os/ext/CMSIS/include/core_cmFunc.h" 1
 967 0002 72B6     		cpsid i
 968              	@ 0 "" 2
 969              		.code	16
ARM GAS  /tmp/ccSOf3P8.s 			page 18


 970              	.LBE230:
 971              	.LBE229:
 972              	.LBE228:
 973              		.loc 1 566 0
 974 0004 FFF7FEFF 		bl	chSemSignalI
 975              	.LVL61:
 976              		.loc 1 567 0
 977 0008 FFF7FEFF 		bl	chSchRescheduleS
 978              	.LVL62:
 979              	.LBB231:
 980              	.LBB232:
 981              	.LBB233:
 982              		.loc 3 331 0
 983              	@ 331 "./os/ext/CMSIS/include/core_cmFunc.h" 1
 984 000c 62B6     		cpsie i
 985              	@ 0 "" 2
 986              		.code	16
 987              	.LBE233:
 988              	.LBE232:
 989              	.LBE231:
 990              		.loc 1 569 0
 991              		@ sp needed for prologue
 992 000e 08BD     		pop	{r3, pc}
 993              		.cfi_endproc
 994              	.LFE60:
 995              		.size	chSemSignal, .-chSemSignal
 996              		.section	.text.chSemResetI,"ax",%progbits
 997              		.align	1
 998              		.global	chSemResetI
 999              		.code	16
 1000              		.thumb_func
 1001              		.type	chSemResetI, %function
 1002              	chSemResetI:
 1003              	.LFB63:
 1004              		.loc 1 643 0
 1005              		.cfi_startproc
 1006              	.LVL63:
 1007 0000 70B5     		push	{r4, r5, r6, lr}
 1008              	.LCFI17:
 1009              		.cfi_def_cfa_offset 16
 1010              		.cfi_offset 4, -16
 1011              		.cfi_offset 5, -12
 1012              		.cfi_offset 6, -8
 1013              		.cfi_offset 14, -4
 1014              		.loc 1 649 0
 1015 0002 094C     		ldr	r4, .L80
 1016              		.loc 1 647 0
 1017 0004 0568     		ldr	r5, [r0]
 1018              	.LVL64:
 1019              		.loc 1 643 0
 1020 0006 061C     		mov	r6, r0
 1021              		.loc 1 648 0
 1022 0008 0160     		str	r1, [r0]
 1023              	.LVL65:
 1024              		.loc 1 649 0
 1025 000a 0C34     		add	r4, r4, #12
 1026              	.LVL66:
ARM GAS  /tmp/ccSOf3P8.s 			page 19


 1027              	.L76:
 1028              		.loc 1 650 0 discriminator 1
 1029 000c 002D     		cmp	r5, #0
 1030 000e 0ADA     		bge	.L79
 1031              	.L78:
 1032              		.loc 1 652 0
 1033 0010 A368     		ldr	r3, [r4, #8]
 1034 0012 B342     		cmp	r3, r6
 1035 0014 05D1     		bne	.L77
 1036              		.loc 1 657 0
 1037 0016 0221     		mov	r1, #2
 1038 0018 201C     		mov	r0, r4
 1039 001a 4942     		neg	r1, r1
 1040              		.loc 1 656 0
 1041 001c 0135     		add	r5, r5, #1
 1042              	.LVL67:
 1043              		.loc 1 657 0
 1044 001e FFF7FEFF 		bl	chSchReadyI
 1045              	.LVL68:
 1046              	.L77:
 1047              		.loc 1 659 0
 1048 0022 1434     		add	r4, r4, #20
 1049              	.LVL69:
 1050 0024 F2E7     		b	.L76
 1051              	.L79:
 1052              		.loc 1 664 0
 1053              		@ sp needed for prologue
 1054              	.LVL70:
 1055              	.LVL71:
 1056              	.LVL72:
 1057 0026 70BD     		pop	{r4, r5, r6, pc}
 1058              	.L81:
 1059              		.align	2
 1060              	.L80:
 1061 0028 00000000 		.word	.LANCHOR0
 1062              		.cfi_endproc
 1063              	.LFE63:
 1064              		.size	chSemResetI, .-chSemResetI
 1065              		.section	.text.chSemReset,"ax",%progbits
 1066              		.align	1
 1067              		.global	chSemReset
 1068              		.code	16
 1069              		.thumb_func
 1070              		.type	chSemReset, %function
 1071              	chSemReset:
 1072              	.LFB62:
 1073              		.loc 1 619 0
 1074              		.cfi_startproc
 1075              	.LVL73:
 1076 0000 08B5     		push	{r3, lr}
 1077              	.LCFI18:
 1078              		.cfi_def_cfa_offset 8
 1079              		.cfi_offset 3, -8
 1080              		.cfi_offset 14, -4
 1081              	.LBB234:
 1082              	.LBB235:
 1083              	.LBB236:
ARM GAS  /tmp/ccSOf3P8.s 			page 20


 1084              		.loc 3 342 0
 1085              	@ 342 "./os/ext/CMSIS/include/core_cmFunc.h" 1
 1086 0002 72B6     		cpsid i
 1087              	@ 0 "" 2
 1088              		.code	16
 1089              	.LBE236:
 1090              	.LBE235:
 1091              	.LBE234:
 1092              		.loc 1 622 0
 1093 0004 FFF7FEFF 		bl	chSemResetI
 1094              	.LVL74:
 1095              		.loc 1 623 0
 1096 0008 FFF7FEFF 		bl	chSchRescheduleS
 1097              	.LVL75:
 1098              	.LBB237:
 1099              	.LBB238:
 1100              	.LBB239:
 1101              		.loc 3 331 0
 1102              	@ 331 "./os/ext/CMSIS/include/core_cmFunc.h" 1
 1103 000c 62B6     		cpsie i
 1104              	@ 0 "" 2
 1105              		.code	16
 1106              	.LBE239:
 1107              	.LBE238:
 1108              	.LBE237:
 1109              		.loc 1 625 0
 1110              		@ sp needed for prologue
 1111 000e 08BD     		pop	{r3, pc}
 1112              		.cfi_endproc
 1113              	.LFE62:
 1114              		.size	chSemReset, .-chSemReset
 1115              		.section	.text.chEvtSignalI,"ax",%progbits
 1116              		.align	1
 1117              		.global	chEvtSignalI
 1118              		.code	16
 1119              		.thumb_func
 1120              		.type	chEvtSignalI, %function
 1121              	chEvtSignalI:
 1122              	.LFB65:
 1123              		.loc 1 694 0
 1124              		.cfi_startproc
 1125              	.LVL76:
 1126 0000 08B5     		push	{r3, lr}
 1127              	.LCFI19:
 1128              		.cfi_def_cfa_offset 8
 1129              		.cfi_offset 3, -8
 1130              		.cfi_offset 14, -4
 1131              		.loc 1 696 0
 1132 0002 0369     		ldr	r3, [r0, #16]
 1133              		.loc 1 697 0
 1134 0004 0279     		ldrb	r2, [r0, #4]
 1135              		.loc 1 696 0
 1136 0006 1943     		orr	r1, r3
 1137              	.LVL77:
 1138 0008 0161     		str	r1, [r0, #16]
 1139              		.loc 1 697 0
 1140 000a 042A     		cmp	r2, #4
ARM GAS  /tmp/ccSOf3P8.s 			page 21


 1141 000c 05D1     		bne	.L83
 1142              		.loc 1 697 0 is_stmt 0 discriminator 1
 1143 000e 8368     		ldr	r3, [r0, #8]
 1144 0010 0B42     		tst	r3, r1
 1145 0012 02D0     		beq	.L83
 1146              		.loc 1 698 0 is_stmt 1
 1147 0014 0021     		mov	r1, #0
 1148 0016 FFF7FEFF 		bl	chSchReadyI
 1149              	.LVL78:
 1150              	.L83:
 1151              		.loc 1 699 0
 1152              		@ sp needed for prologue
 1153 001a 08BD     		pop	{r3, pc}
 1154              		.cfi_endproc
 1155              	.LFE65:
 1156              		.size	chEvtSignalI, .-chEvtSignalI
 1157              		.section	.text.chEvtSignal,"ax",%progbits
 1158              		.align	1
 1159              		.global	chEvtSignal
 1160              		.code	16
 1161              		.thumb_func
 1162              		.type	chEvtSignal, %function
 1163              	chEvtSignal:
 1164              	.LFB64:
 1165              		.loc 1 674 0
 1166              		.cfi_startproc
 1167              	.LVL79:
 1168 0000 08B5     		push	{r3, lr}
 1169              	.LCFI20:
 1170              		.cfi_def_cfa_offset 8
 1171              		.cfi_offset 3, -8
 1172              		.cfi_offset 14, -4
 1173              	.LBB240:
 1174              	.LBB241:
 1175              	.LBB242:
 1176              		.loc 3 342 0
 1177              	@ 342 "./os/ext/CMSIS/include/core_cmFunc.h" 1
 1178 0002 72B6     		cpsid i
 1179              	@ 0 "" 2
 1180              		.code	16
 1181              	.LBE242:
 1182              	.LBE241:
 1183              	.LBE240:
 1184              		.loc 1 677 0
 1185 0004 FFF7FEFF 		bl	chEvtSignalI
 1186              	.LVL80:
 1187              		.loc 1 678 0
 1188 0008 FFF7FEFF 		bl	chSchRescheduleS
 1189              	.LVL81:
 1190              	.LBB243:
 1191              	.LBB244:
 1192              	.LBB245:
 1193              		.loc 3 331 0
 1194              	@ 331 "./os/ext/CMSIS/include/core_cmFunc.h" 1
 1195 000c 62B6     		cpsie i
 1196              	@ 0 "" 2
 1197              		.code	16
ARM GAS  /tmp/ccSOf3P8.s 			page 22


 1198              	.LBE245:
 1199              	.LBE244:
 1200              	.LBE243:
 1201              		.loc 1 680 0
 1202              		@ sp needed for prologue
 1203 000e 08BD     		pop	{r3, pc}
 1204              		.cfi_endproc
 1205              	.LFE64:
 1206              		.size	chEvtSignal, .-chEvtSignal
 1207              		.section	.text.chEvtWaitAnyTimeout,"ax",%progbits
 1208              		.align	1
 1209              		.global	chEvtWaitAnyTimeout
 1210              		.code	16
 1211              		.thumb_func
 1212              		.type	chEvtWaitAnyTimeout, %function
 1213              	chEvtWaitAnyTimeout:
 1214              	.LFB66:
 1215              		.loc 1 719 0
 1216              		.cfi_startproc
 1217              	.LVL82:
 1218              		.loc 1 720 0
 1219 0000 0C4B     		ldr	r3, .L95
 1220              		.loc 1 719 0
 1221 0002 70B5     		push	{r4, r5, r6, lr}
 1222              	.LCFI21:
 1223              		.cfi_def_cfa_offset 16
 1224              		.cfi_offset 4, -16
 1225              		.cfi_offset 5, -12
 1226              		.cfi_offset 6, -8
 1227              		.cfi_offset 14, -4
 1228              		.loc 1 719 0
 1229 0004 061C     		mov	r6, r0
 1230              		.loc 1 720 0
 1231 0006 1C68     		ldr	r4, [r3]
 1232              	.LVL83:
 1233              	.LBB246:
 1234              	.LBB247:
 1235              	.LBB248:
 1236              		.loc 3 342 0
 1237              	@ 342 "./os/ext/CMSIS/include/core_cmFunc.h" 1
 1238 0008 72B6     		cpsid i
 1239              	@ 0 "" 2
 1240              		.code	16
 1241              	.LBE248:
 1242              	.LBE247:
 1243              	.LBE246:
 1244              		.loc 1 725 0
 1245 000a 2569     		ldr	r5, [r4, #16]
 1246 000c 0540     		and	r5, r0
 1247              	.LVL84:
 1248 000e 0AD1     		bne	.L90
 1249              		.loc 1 726 0
 1250 0010 0948     		ldr	r0, .L95+4
 1251              	.LVL85:
 1252 0012 8142     		cmp	r1, r0
 1253 0014 0AD0     		beq	.L94
 1254              	.L91:
ARM GAS  /tmp/ccSOf3P8.s 			page 23


 1255              		.loc 1 730 0
 1256 0016 A660     		str	r6, [r4, #8]
 1257              		.loc 1 731 0
 1258 0018 0420     		mov	r0, #4
 1259 001a FFF7FEFF 		bl	chSchGoSleepTimeoutS
 1260              	.LVL86:
 1261 001e 0028     		cmp	r0, #0
 1262 0020 04DB     		blt	.L94
 1263              	.L93:
 1264              		.loc 1 735 0
 1265 0022 2569     		ldr	r5, [r4, #16]
 1266              	.LVL87:
 1267 0024 3540     		and	r5, r6
 1268              	.LVL88:
 1269              	.L90:
 1270              		.loc 1 737 0
 1271 0026 2169     		ldr	r1, [r4, #16]
 1272 0028 A943     		bic	r1, r5
 1273 002a 2161     		str	r1, [r4, #16]
 1274              	.L94:
 1275              	.LBB249:
 1276              	.LBB250:
 1277              	.LBB251:
 1278              		.loc 3 331 0
 1279              	@ 331 "./os/ext/CMSIS/include/core_cmFunc.h" 1
 1280 002c 62B6     		cpsie i
 1281              	@ 0 "" 2
 1282              		.code	16
 1283              	.LBE251:
 1284              	.LBE250:
 1285              	.LBE249:
 1286              		.loc 1 741 0
 1287 002e 281C     		mov	r0, r5
 1288              		@ sp needed for prologue
 1289              	.LVL89:
 1290              	.LVL90:
 1291              	.LVL91:
 1292 0030 70BD     		pop	{r4, r5, r6, pc}
 1293              	.L96:
 1294 0032 C046     		.align	2
 1295              	.L95:
 1296 0034 00000000 		.word	.LANCHOR0
 1297 0038 FFFF0000 		.word	65535
 1298              		.cfi_endproc
 1299              	.LFE66:
 1300              		.size	chEvtWaitAnyTimeout, .-chEvtWaitAnyTimeout
 1301              		.global	nil
 1302              		.section	.bss.nil,"aw",%nobits
 1303              		.align	2
 1304              		.set	.LANCHOR0,. + 0
 1305              		.type	nil, %object
 1306              		.size	nil, 152
 1307              	nil:
 1308 0000 00000000 		.space	152
 1308      00000000 
 1308      00000000 
 1308      00000000 
ARM GAS  /tmp/ccSOf3P8.s 			page 24


 1308      00000000 
 1309              		.text
 1310              	.Letext0:
 1311              		.file 5 "./os/nil/include/nil.h"
 1312              		.file 6 "/media/data/src/x-tools/gcc-arm-none-eabi-4_7-2013q1/bin/../lib/gcc/arm-none-eabi/4.7.3/.
 1313              		.file 7 "./os/nil/ports/ARMCMx/compilers/GCC/niltypes.h"
 1314              		.file 8 "./os/ext/CMSIS/ST/stm32f0xx.h"
 1315              		.file 9 "./os/nil/ports/ARMCMx/nilcore.h"