ARM GAS  /tmp/ccZFdxz8.s 			page 1


   1              		.cpu cortex-m0
   2              		.fpu softvfp
   3              		.eabi_attribute 20, 1
   4              		.eabi_attribute 21, 1
   5              		.eabi_attribute 23, 3
   6              		.eabi_attribute 24, 1
   7              		.eabi_attribute 25, 1
   8              		.eabi_attribute 26, 1
   9              		.eabi_attribute 30, 4
  10              		.eabi_attribute 34, 0
  11              		.eabi_attribute 18, 4
  12              		.code	16
  13              		.file	"nvic.c"
  14              		.text
  15              	.Ltext0:
  16              		.cfi_sections	.debug_frame
  17              		.section	.text.nvicEnableVector,"ax",%progbits
  18              		.align	1
  19              		.global	nvicEnableVector
  20              		.code	16
  21              		.thumb_func
  22              		.type	nvicEnableVector, %function
  23              	nvicEnableVector:
  24              	.LFB77:
  25              		.file 1 "./os/hal/ports/common/ARMCMx/nvic.c"
  26              		.loc 1 58 0
  27              		.cfi_startproc
  28              	.LVL0:
  29              		.loc 1 60 0
  30 0000 021C     		mov	r2, r0
  31 0002 094B     		ldr	r3, .L2
  32 0004 C032     		add	r2, r2, #192
  33 0006 8901     		lsl	r1, r1, #6
  34              	.LVL1:
  35 0008 9200     		lsl	r2, r2, #2
  36 000a D150     		str	r1, [r2, r3]
  37              		.loc 1 61 0
  38 000c 1F21     		mov	r1, #31
  39 000e 4211     		asr	r2, r0, #5
  40 0010 0840     		and	r0, r1
  41              	.LVL2:
  42 0012 0121     		mov	r1, #1
  43 0014 8140     		lsl	r1, r1, r0
  44 0016 081C     		mov	r0, r1
  45 0018 111C     		mov	r1, r2
  46 001a 6031     		add	r1, r1, #96
  47 001c 8900     		lsl	r1, r1, #2
  48              		.loc 1 62 0
  49 001e 9200     		lsl	r2, r2, #2
  50              		.loc 1 61 0
  51 0020 C850     		str	r0, [r1, r3]
  52              		.loc 1 63 0
  53              		@ sp needed for prologue
  54              		.loc 1 62 0
  55 0022 D050     		str	r0, [r2, r3]
  56              		.loc 1 63 0
  57 0024 7047     		bx	lr
ARM GAS  /tmp/ccZFdxz8.s 			page 2


  58              	.L3:
  59 0026 C046     		.align	2
  60              	.L2:
  61 0028 00E100E0 		.word	-536813312
  62              		.cfi_endproc
  63              	.LFE77:
  64              		.size	nvicEnableVector, .-nvicEnableVector
  65              		.section	.text.nvicDisableVector,"ax",%progbits
  66              		.align	1
  67              		.global	nvicDisableVector
  68              		.code	16
  69              		.thumb_func
  70              		.type	nvicDisableVector, %function
  71              	nvicDisableVector:
  72              	.LFB78:
  73              		.loc 1 71 0
  74              		.cfi_startproc
  75              	.LVL3:
  76              		.loc 1 73 0
  77 0000 1F21     		mov	r1, #31
  78 0002 0140     		and	r1, r0
  79 0004 0123     		mov	r3, #1
  80 0006 4211     		asr	r2, r0, #5
  81 0008 8B40     		lsl	r3, r3, r1
  82 000a 191C     		mov	r1, r3
  83 000c 2032     		add	r2, r2, #32
  84 000e 044B     		ldr	r3, .L5
  85 0010 9200     		lsl	r2, r2, #2
  86              		.loc 1 74 0
  87 0012 C030     		add	r0, r0, #192
  88              	.LVL4:
  89              		.loc 1 73 0
  90 0014 D150     		str	r1, [r2, r3]
  91              		.loc 1 74 0
  92 0016 8000     		lsl	r0, r0, #2
  93 0018 0021     		mov	r1, #0
  94 001a C150     		str	r1, [r0, r3]
  95              		.loc 1 75 0
  96              		@ sp needed for prologue
  97 001c 7047     		bx	lr
  98              	.L6:
  99 001e C046     		.align	2
 100              	.L5:
 101 0020 00E100E0 		.word	-536813312
 102              		.cfi_endproc
 103              	.LFE78:
 104              		.size	nvicDisableVector, .-nvicDisableVector
 105              		.section	.text.nvicSetSystemHandlerPriority,"ax",%progbits
 106              		.align	1
 107              		.global	nvicSetSystemHandlerPriority
 108              		.code	16
 109              		.thumb_func
 110              		.type	nvicSetSystemHandlerPriority, %function
 111              	nvicSetSystemHandlerPriority:
 112              	.LFB79:
 113              		.loc 1 84 0
 114              		.cfi_startproc
ARM GAS  /tmp/ccZFdxz8.s 			page 3


 115              	.LVL5:
 116              		.loc 1 86 0
 117 0000 0F23     		mov	r3, #15
 118 0002 1840     		and	r0, r3
 119              	.LVL6:
 120 0004 024A     		ldr	r2, .L8
 121 0006 8000     		lsl	r0, r0, #2
 122 0008 8901     		lsl	r1, r1, #6
 123              	.LVL7:
 124 000a 8318     		add	r3, r0, r2
 125 000c 5960     		str	r1, [r3, #4]
 126              		.loc 1 87 0
 127              		@ sp needed for prologue
 128 000e 7047     		bx	lr
 129              	.L9:
 130              		.align	2
 131              	.L8:
 132 0010 08ED00E0 		.word	-536810232
 133              		.cfi_endproc
 134              	.LFE79:
 135              		.size	nvicSetSystemHandlerPriority, .-nvicSetSystemHandlerPriority
 136              		.text
 137              	.Letext0:
 138              		.file 2 "/media/data/src/x-tools/gcc-arm-none-eabi-4_7-2013q1/bin/../lib/gcc/arm-none-eabi/4.7.3/.
 139              		.file 3 "./os/nil/include/nil.h"
 140              		.file 4 "./os/nil/ports/ARMCMx/compilers/GCC/niltypes.h"
 141              		.file 5 "./os/ext/CMSIS/ST/stm32f0xx.h"
 142              		.file 6 "./os/ext/CMSIS/include/core_cm0.h"
 143              		.file 7 "./os/nil/ports/ARMCMx/nilcore.h"
 144              		.file 8 "./os/nil/ports/ARMCMx/nilcore_v6m.h"
 145              		.section	.debug_info,"",%progbits
 146              	.Ldebug_info0:
 147 0000 1E060000 		.4byte	0x61e
 148 0004 0200     		.2byte	0x2
 149 0006 00000000 		.4byte	.Ldebug_abbrev0
 150 000a 04       		.byte	0x4
 151 000b 01       		.uleb128 0x1
 152 000c 67030000 		.4byte	.LASF94
 153 0010 01       		.byte	0x1
 154 0011 C4020000 		.4byte	.LASF95
 155 0015 9D010000 		.4byte	.LASF96
 156 0019 00000000 		.4byte	.Ldebug_ranges0+0
 157 001d 00000000 		.4byte	0
 158 0021 00000000 		.4byte	0
 159 0025 00000000 		.4byte	.Ldebug_line0
 160 0029 02       		.uleb128 0x2
 161 002a 04       		.byte	0x4
 162 002b 05       		.byte	0x5
 163 002c 696E7400 		.ascii	"int\000"
 164 0030 03       		.uleb128 0x3
 165 0031 04       		.byte	0x4
 166 0032 07       		.byte	0x7
 167 0033 5A020000 		.4byte	.LASF0
 168 0037 03       		.uleb128 0x3
 169 0038 01       		.byte	0x1
 170 0039 06       		.byte	0x6
 171 003a 19010000 		.4byte	.LASF1
ARM GAS  /tmp/ccZFdxz8.s 			page 4


 172 003e 04       		.uleb128 0x4
 173 003f F0000000 		.4byte	.LASF4
 174 0043 02       		.byte	0x2
 175 0044 2A       		.byte	0x2a
 176 0045 49000000 		.4byte	0x49
 177 0049 03       		.uleb128 0x3
 178 004a 01       		.byte	0x1
 179 004b 08       		.byte	0x8
 180 004c 8F010000 		.4byte	.LASF2
 181 0050 03       		.uleb128 0x3
 182 0051 02       		.byte	0x2
 183 0052 05       		.byte	0x5
 184 0053 4B000000 		.4byte	.LASF3
 185 0057 04       		.uleb128 0x4
 186 0058 67020000 		.4byte	.LASF5
 187 005c 02       		.byte	0x2
 188 005d 36       		.byte	0x36
 189 005e 62000000 		.4byte	0x62
 190 0062 03       		.uleb128 0x3
 191 0063 02       		.byte	0x2
 192 0064 07       		.byte	0x7
 193 0065 B1020000 		.4byte	.LASF6
 194 0069 04       		.uleb128 0x4
 195 006a F7020000 		.4byte	.LASF7
 196 006e 02       		.byte	0x2
 197 006f 4F       		.byte	0x4f
 198 0070 74000000 		.4byte	0x74
 199 0074 03       		.uleb128 0x3
 200 0075 04       		.byte	0x4
 201 0076 05       		.byte	0x5
 202 0077 81010000 		.4byte	.LASF8
 203 007b 04       		.uleb128 0x4
 204 007c 51020000 		.4byte	.LASF9
 205 0080 02       		.byte	0x2
 206 0081 50       		.byte	0x50
 207 0082 86000000 		.4byte	0x86
 208 0086 03       		.uleb128 0x3
 209 0087 04       		.byte	0x4
 210 0088 07       		.byte	0x7
 211 0089 55030000 		.4byte	.LASF10
 212 008d 03       		.uleb128 0x3
 213 008e 08       		.byte	0x8
 214 008f 05       		.byte	0x5
 215 0090 45010000 		.4byte	.LASF11
 216 0094 03       		.uleb128 0x3
 217 0095 08       		.byte	0x8
 218 0096 07       		.byte	0x7
 219 0097 35020000 		.4byte	.LASF12
 220 009b 05       		.uleb128 0x5
 221 009c 95000000 		.4byte	.LASF75
 222 00a0 14       		.byte	0x14
 223 00a1 03       		.byte	0x3
 224 00a2 1E01     		.2byte	0x11e
 225 00a4 F3000000 		.4byte	0xf3
 226 00a8 06       		.uleb128 0x6
 227 00a9 8A010000 		.4byte	.LASF13
 228 00ad 03       		.byte	0x3
ARM GAS  /tmp/ccZFdxz8.s 			page 5


 229 00ae 1F01     		.2byte	0x11f
 230 00b0 0A050000 		.4byte	0x50a
 231 00b4 02       		.byte	0x2
 232 00b5 23       		.byte	0x23
 233 00b6 00       		.uleb128 0
 234 00b7 06       		.uleb128 0x6
 235 00b8 30000000 		.4byte	.LASF14
 236 00bc 03       		.byte	0x3
 237 00bd 2001     		.2byte	0x120
 238 00bf F3000000 		.4byte	0xf3
 239 00c3 02       		.byte	0x2
 240 00c4 23       		.byte	0x23
 241 00c5 04       		.uleb128 0x4
 242 00c6 07       		.uleb128 0x7
 243 00c7 753100   		.ascii	"u1\000"
 244 00ca 03       		.byte	0x3
 245 00cb 2B01     		.2byte	0x12b
 246 00cd BA040000 		.4byte	0x4ba
 247 00d1 02       		.byte	0x2
 248 00d2 23       		.byte	0x23
 249 00d3 08       		.uleb128 0x8
 250 00d4 06       		.uleb128 0x6
 251 00d5 7D040000 		.4byte	.LASF15
 252 00d9 03       		.byte	0x3
 253 00da 2C01     		.2byte	0x12c
 254 00dc 10050000 		.4byte	0x510
 255 00e0 02       		.byte	0x2
 256 00e1 23       		.byte	0x23
 257 00e2 0C       		.uleb128 0xc
 258 00e3 06       		.uleb128 0x6
 259 00e4 3A030000 		.4byte	.LASF16
 260 00e8 03       		.byte	0x3
 261 00e9 2F01     		.2byte	0x12f
 262 00eb 09010000 		.4byte	0x109
 263 00ef 02       		.byte	0x2
 264 00f0 23       		.byte	0x23
 265 00f1 10       		.uleb128 0x10
 266 00f2 00       		.byte	0
 267 00f3 04       		.uleb128 0x4
 268 00f4 1E040000 		.4byte	.LASF17
 269 00f8 04       		.byte	0x4
 270 00f9 37       		.byte	0x37
 271 00fa 3E000000 		.4byte	0x3e
 272 00fe 04       		.uleb128 0x4
 273 00ff 72040000 		.4byte	.LASF18
 274 0103 04       		.byte	0x4
 275 0104 38       		.byte	0x38
 276 0105 69000000 		.4byte	0x69
 277 0109 04       		.uleb128 0x4
 278 010a 89000000 		.4byte	.LASF19
 279 010e 04       		.byte	0x4
 280 010f 39       		.byte	0x39
 281 0110 7B000000 		.4byte	0x7b
 282 0114 04       		.uleb128 0x4
 283 0115 09030000 		.4byte	.LASF20
 284 0119 04       		.byte	0x4
 285 011a 3A       		.byte	0x3a
ARM GAS  /tmp/ccZFdxz8.s 			page 6


 286 011b 69000000 		.4byte	0x69
 287 011f 08       		.uleb128 0x8
 288 0120 84000000 		.4byte	.LASF97
 289 0124 01       		.byte	0x1
 290 0125 05       		.byte	0x5
 291 0126 AF       		.byte	0xaf
 292 0127 F8010000 		.4byte	0x1f8
 293 012b 09       		.uleb128 0x9
 294 012c B0030000 		.4byte	.LASF21
 295 0130 72       		.sleb128 -14
 296 0131 09       		.uleb128 0x9
 297 0132 75000000 		.4byte	.LASF22
 298 0136 73       		.sleb128 -13
 299 0137 09       		.uleb128 0x9
 300 0138 22030000 		.4byte	.LASF23
 301 013c 7B       		.sleb128 -5
 302 013d 09       		.uleb128 0x9
 303 013e 75010000 		.4byte	.LASF24
 304 0142 7E       		.sleb128 -2
 305 0143 09       		.uleb128 0x9
 306 0144 E3000000 		.4byte	.LASF25
 307 0148 7F       		.sleb128 -1
 308 0149 09       		.uleb128 0x9
 309 014a 25010000 		.4byte	.LASF26
 310 014e 00       		.sleb128 0
 311 014f 09       		.uleb128 0x9
 312 0150 BA010000 		.4byte	.LASF27
 313 0154 01       		.sleb128 1
 314 0155 09       		.uleb128 0x9
 315 0156 6C010000 		.4byte	.LASF28
 316 015a 02       		.sleb128 2
 317 015b 09       		.uleb128 0x9
 318 015c 02010000 		.4byte	.LASF29
 319 0160 03       		.sleb128 3
 320 0161 09       		.uleb128 0x9
 321 0162 09000000 		.4byte	.LASF30
 322 0166 04       		.sleb128 4
 323 0167 09       		.uleb128 0x9
 324 0168 28020000 		.4byte	.LASF31
 325 016c 05       		.sleb128 5
 326 016d 09       		.uleb128 0x9
 327 016e 15030000 		.4byte	.LASF32
 328 0172 06       		.sleb128 6
 329 0173 09       		.uleb128 0x9
 330 0174 FD030000 		.4byte	.LASF33
 331 0178 07       		.sleb128 7
 332 0179 09       		.uleb128 0x9
 333 017a E9030000 		.4byte	.LASF34
 334 017e 08       		.sleb128 8
 335 017f 09       		.uleb128 0x9
 336 0180 1D000000 		.4byte	.LASF35
 337 0184 09       		.sleb128 9
 338 0185 09       		.uleb128 0x9
 339 0186 C3010000 		.4byte	.LASF36
 340 018a 0A       		.sleb128 10
 341 018b 09       		.uleb128 0x9
 342 018c 53040000 		.4byte	.LASF37
ARM GAS  /tmp/ccZFdxz8.s 			page 7


 343 0190 0B       		.sleb128 11
 344 0191 09       		.uleb128 0x9
 345 0192 97020000 		.4byte	.LASF38
 346 0196 0C       		.sleb128 12
 347 0197 09       		.uleb128 0x9
 348 0198 C4030000 		.4byte	.LASF39
 349 019c 0D       		.sleb128 13
 350 019d 09       		.uleb128 0x9
 351 019e E8010000 		.4byte	.LASF40
 352 01a2 0E       		.sleb128 14
 353 01a3 09       		.uleb128 0x9
 354 01a4 D8010000 		.4byte	.LASF41
 355 01a8 0F       		.sleb128 15
 356 01a9 09       		.uleb128 0x9
 357 01aa 68040000 		.4byte	.LASF42
 358 01ae 10       		.sleb128 16
 359 01af 09       		.uleb128 0x9
 360 01b0 C2000000 		.4byte	.LASF43
 361 01b4 11       		.sleb128 17
 362 01b5 09       		.uleb128 0x9
 363 01b6 A6020000 		.4byte	.LASF44
 364 01ba 13       		.sleb128 19
 365 01bb 09       		.uleb128 0x9
 366 01bc 40000000 		.4byte	.LASF45
 367 01c0 14       		.sleb128 20
 368 01c1 09       		.uleb128 0x9
 369 01c2 7B020000 		.4byte	.LASF46
 370 01c6 15       		.sleb128 21
 371 01c7 09       		.uleb128 0x9
 372 01c8 12000000 		.4byte	.LASF47
 373 01cc 16       		.sleb128 22
 374 01cd 09       		.uleb128 0x9
 375 01ce F8000000 		.4byte	.LASF48
 376 01d2 17       		.sleb128 23
 377 01d3 09       		.uleb128 0x9
 378 01d4 30040000 		.4byte	.LASF49
 379 01d8 18       		.sleb128 24
 380 01d9 09       		.uleb128 0x9
 381 01da A0000000 		.4byte	.LASF50
 382 01de 19       		.sleb128 25
 383 01df 09       		.uleb128 0x9
 384 01e0 FF020000 		.4byte	.LASF51
 385 01e4 1A       		.sleb128 26
 386 01e5 09       		.uleb128 0x9
 387 01e6 60010000 		.4byte	.LASF52
 388 01ea 1B       		.sleb128 27
 389 01eb 09       		.uleb128 0x9
 390 01ec F1030000 		.4byte	.LASF53
 391 01f0 1C       		.sleb128 28
 392 01f1 09       		.uleb128 0x9
 393 01f2 4A040000 		.4byte	.LASF54
 394 01f6 1E       		.sleb128 30
 395 01f7 00       		.byte	0
 396 01f8 04       		.uleb128 0x4
 397 01f9 36000000 		.4byte	.LASF55
 398 01fd 05       		.byte	0x5
 399 01fe F0       		.byte	0xf0
ARM GAS  /tmp/ccZFdxz8.s 			page 8


 400 01ff 1F010000 		.4byte	0x11f
 401 0203 0A       		.uleb128 0xa
 402 0204 2003     		.2byte	0x320
 403 0206 06       		.byte	0x6
 404 0207 1801     		.2byte	0x118
 405 0209 AB020000 		.4byte	0x2ab
 406 020d 06       		.uleb128 0x6
 407 020e 2B030000 		.4byte	.LASF56
 408 0212 06       		.byte	0x6
 409 0213 1A01     		.2byte	0x11a
 410 0215 C2020000 		.4byte	0x2c2
 411 0219 02       		.byte	0x2
 412 021a 23       		.byte	0x23
 413 021b 00       		.uleb128 0
 414 021c 06       		.uleb128 0x6
 415 021d B8000000 		.4byte	.LASF57
 416 0221 06       		.byte	0x6
 417 0222 1B01     		.2byte	0x11b
 418 0224 C7020000 		.4byte	0x2c7
 419 0228 02       		.byte	0x2
 420 0229 23       		.byte	0x23
 421 022a 04       		.uleb128 0x4
 422 022b 06       		.uleb128 0x6
 423 022c 76020000 		.4byte	.LASF58
 424 0230 06       		.byte	0x6
 425 0231 1C01     		.2byte	0x11c
 426 0233 D7020000 		.4byte	0x2d7
 427 0237 03       		.byte	0x3
 428 0238 23       		.byte	0x23
 429 0239 8001     		.uleb128 0x80
 430 023b 06       		.uleb128 0x6
 431 023c 3C010000 		.4byte	.LASF59
 432 0240 06       		.byte	0x6
 433 0241 1D01     		.2byte	0x11d
 434 0243 C7020000 		.4byte	0x2c7
 435 0247 03       		.byte	0x3
 436 0248 23       		.byte	0x23
 437 0249 8401     		.uleb128 0x84
 438 024b 06       		.uleb128 0x6
 439 024c 5E000000 		.4byte	.LASF60
 440 0250 06       		.byte	0x6
 441 0251 1E01     		.2byte	0x11e
 442 0253 DC020000 		.4byte	0x2dc
 443 0257 03       		.byte	0x3
 444 0258 23       		.byte	0x23
 445 0259 8002     		.uleb128 0x100
 446 025b 06       		.uleb128 0x6
 447 025c D9000000 		.4byte	.LASF61
 448 0260 06       		.byte	0x6
 449 0261 1F01     		.2byte	0x11f
 450 0263 C7020000 		.4byte	0x2c7
 451 0267 03       		.byte	0x3
 452 0268 23       		.byte	0x23
 453 0269 8402     		.uleb128 0x104
 454 026b 06       		.uleb128 0x6
 455 026c 23020000 		.4byte	.LASF62
 456 0270 06       		.byte	0x6
ARM GAS  /tmp/ccZFdxz8.s 			page 9


 457 0271 2001     		.2byte	0x120
 458 0273 E1020000 		.4byte	0x2e1
 459 0277 03       		.byte	0x3
 460 0278 23       		.byte	0x23
 461 0279 8003     		.uleb128 0x180
 462 027b 06       		.uleb128 0x6
 463 027c 41030000 		.4byte	.LASF63
 464 0280 06       		.byte	0x6
 465 0281 2101     		.2byte	0x121
 466 0283 C7020000 		.4byte	0x2c7
 467 0287 03       		.byte	0x3
 468 0288 23       		.byte	0x23
 469 0289 8403     		.uleb128 0x184
 470 028b 06       		.uleb128 0x6
 471 028c 4B030000 		.4byte	.LASF64
 472 0290 06       		.byte	0x6
 473 0291 2201     		.2byte	0x122
 474 0293 E6020000 		.4byte	0x2e6
 475 0297 03       		.byte	0x3
 476 0298 23       		.byte	0x23
 477 0299 8004     		.uleb128 0x200
 478 029b 07       		.uleb128 0x7
 479 029c 495000   		.ascii	"IP\000"
 480 029f 06       		.byte	0x6
 481 02a0 2301     		.2byte	0x123
 482 02a2 06030000 		.4byte	0x306
 483 02a6 03       		.byte	0x3
 484 02a7 23       		.byte	0x23
 485 02a8 8006     		.uleb128 0x300
 486 02aa 00       		.byte	0
 487 02ab 0B       		.uleb128 0xb
 488 02ac 7B000000 		.4byte	0x7b
 489 02b0 BB020000 		.4byte	0x2bb
 490 02b4 0C       		.uleb128 0xc
 491 02b5 BB020000 		.4byte	0x2bb
 492 02b9 00       		.byte	0
 493 02ba 00       		.byte	0
 494 02bb 03       		.uleb128 0x3
 495 02bc 04       		.byte	0x4
 496 02bd 07       		.byte	0x7
 497 02be 55000000 		.4byte	.LASF65
 498 02c2 0D       		.uleb128 0xd
 499 02c3 AB020000 		.4byte	0x2ab
 500 02c7 0B       		.uleb128 0xb
 501 02c8 7B000000 		.4byte	0x7b
 502 02cc D7020000 		.4byte	0x2d7
 503 02d0 0C       		.uleb128 0xc
 504 02d1 BB020000 		.4byte	0x2bb
 505 02d5 1E       		.byte	0x1e
 506 02d6 00       		.byte	0
 507 02d7 0D       		.uleb128 0xd
 508 02d8 AB020000 		.4byte	0x2ab
 509 02dc 0D       		.uleb128 0xd
 510 02dd AB020000 		.4byte	0x2ab
 511 02e1 0D       		.uleb128 0xd
 512 02e2 AB020000 		.4byte	0x2ab
 513 02e6 0B       		.uleb128 0xb
ARM GAS  /tmp/ccZFdxz8.s 			page 10


 514 02e7 7B000000 		.4byte	0x7b
 515 02eb F6020000 		.4byte	0x2f6
 516 02ef 0C       		.uleb128 0xc
 517 02f0 BB020000 		.4byte	0x2bb
 518 02f4 3F       		.byte	0x3f
 519 02f5 00       		.byte	0
 520 02f6 0B       		.uleb128 0xb
 521 02f7 7B000000 		.4byte	0x7b
 522 02fb 06030000 		.4byte	0x306
 523 02ff 0C       		.uleb128 0xc
 524 0300 BB020000 		.4byte	0x2bb
 525 0304 07       		.byte	0x7
 526 0305 00       		.byte	0
 527 0306 0D       		.uleb128 0xd
 528 0307 F6020000 		.4byte	0x2f6
 529 030b 0E       		.uleb128 0xe
 530 030c 19020000 		.4byte	.LASF66
 531 0310 06       		.byte	0x6
 532 0311 2401     		.2byte	0x124
 533 0313 03020000 		.4byte	0x203
 534 0317 0F       		.uleb128 0xf
 535 0318 28       		.byte	0x28
 536 0319 06       		.byte	0x6
 537 031a 3101     		.2byte	0x131
 538 031c A8030000 		.4byte	0x3a8
 539 0320 06       		.uleb128 0x6
 540 0321 B2000000 		.4byte	.LASF67
 541 0325 06       		.byte	0x6
 542 0326 3301     		.2byte	0x133
 543 0328 A8030000 		.4byte	0x3a8
 544 032c 02       		.byte	0x2
 545 032d 23       		.byte	0x23
 546 032e 00       		.uleb128 0
 547 032f 06       		.uleb128 0x6
 548 0330 37010000 		.4byte	.LASF68
 549 0334 06       		.byte	0x6
 550 0335 3401     		.2byte	0x134
 551 0337 AD030000 		.4byte	0x3ad
 552 033b 02       		.byte	0x2
 553 033c 23       		.byte	0x23
 554 033d 04       		.uleb128 0x4
 555 033e 06       		.uleb128 0x6
 556 033f B8000000 		.4byte	.LASF57
 557 0343 06       		.byte	0x6
 558 0344 3501     		.2byte	0x135
 559 0346 7B000000 		.4byte	0x7b
 560 034a 02       		.byte	0x2
 561 034b 23       		.byte	0x23
 562 034c 08       		.uleb128 0x8
 563 034d 06       		.uleb128 0x6
 564 034e E2010000 		.4byte	.LASF69
 565 0352 06       		.byte	0x6
 566 0353 3601     		.2byte	0x136
 567 0355 AD030000 		.4byte	0x3ad
 568 0359 02       		.byte	0x2
 569 035a 23       		.byte	0x23
 570 035b 0C       		.uleb128 0xc
ARM GAS  /tmp/ccZFdxz8.s 			page 11


 571 035c 07       		.uleb128 0x7
 572 035d 53435200 		.ascii	"SCR\000"
 573 0361 06       		.byte	0x6
 574 0362 3701     		.2byte	0x137
 575 0364 AD030000 		.4byte	0x3ad
 576 0368 02       		.byte	0x2
 577 0369 23       		.byte	0x23
 578 036a 10       		.uleb128 0x10
 579 036b 07       		.uleb128 0x7
 580 036c 43435200 		.ascii	"CCR\000"
 581 0370 06       		.byte	0x6
 582 0371 3801     		.2byte	0x138
 583 0373 AD030000 		.4byte	0x3ad
 584 0377 02       		.byte	0x2
 585 0378 23       		.byte	0x23
 586 0379 14       		.uleb128 0x14
 587 037a 06       		.uleb128 0x6
 588 037b 30030000 		.4byte	.LASF70
 589 037f 06       		.byte	0x6
 590 0380 3901     		.2byte	0x139
 591 0382 7B000000 		.4byte	0x7b
 592 0386 02       		.byte	0x2
 593 0387 23       		.byte	0x23
 594 0388 18       		.uleb128 0x18
 595 0389 07       		.uleb128 0x7
 596 038a 53485000 		.ascii	"SHP\000"
 597 038e 06       		.byte	0x6
 598 038f 3A01     		.2byte	0x13a
 599 0391 C2030000 		.4byte	0x3c2
 600 0395 02       		.byte	0x2
 601 0396 23       		.byte	0x23
 602 0397 1C       		.uleb128 0x1c
 603 0398 06       		.uleb128 0x6
 604 0399 70020000 		.4byte	.LASF71
 605 039d 06       		.byte	0x6
 606 039e 3B01     		.2byte	0x13b
 607 03a0 AD030000 		.4byte	0x3ad
 608 03a4 02       		.byte	0x2
 609 03a5 23       		.byte	0x23
 610 03a6 24       		.uleb128 0x24
 611 03a7 00       		.byte	0
 612 03a8 10       		.uleb128 0x10
 613 03a9 AD030000 		.4byte	0x3ad
 614 03ad 0D       		.uleb128 0xd
 615 03ae 7B000000 		.4byte	0x7b
 616 03b2 0B       		.uleb128 0xb
 617 03b3 7B000000 		.4byte	0x7b
 618 03b7 C2030000 		.4byte	0x3c2
 619 03bb 0C       		.uleb128 0xc
 620 03bc BB020000 		.4byte	0x2bb
 621 03c0 01       		.byte	0x1
 622 03c1 00       		.byte	0
 623 03c2 0D       		.uleb128 0xd
 624 03c3 B2030000 		.4byte	0x3b2
 625 03c7 0E       		.uleb128 0xe
 626 03c8 00000000 		.4byte	.LASF72
 627 03cc 06       		.byte	0x6
ARM GAS  /tmp/ccZFdxz8.s 			page 12


 628 03cd 3C01     		.2byte	0x13c
 629 03cf 17030000 		.4byte	0x317
 630 03d3 04       		.uleb128 0x4
 631 03d4 E8020000 		.4byte	.LASF73
 632 03d8 07       		.byte	0x7
 633 03d9 77       		.byte	0x77
 634 03da 57000000 		.4byte	0x57
 635 03de 04       		.uleb128 0x4
 636 03df D0000000 		.4byte	.LASF74
 637 03e3 07       		.byte	0x7
 638 03e4 7D       		.byte	0x7d
 639 03e5 E9030000 		.4byte	0x3e9
 640 03e9 11       		.uleb128 0x11
 641 03ea 04       		.byte	0x4
 642 03eb 12       		.uleb128 0x12
 643 03ec DD030000 		.4byte	.LASF76
 644 03f0 24       		.byte	0x24
 645 03f1 08       		.byte	0x8
 646 03f2 A4       		.byte	0xa4
 647 03f3 6F040000 		.4byte	0x46f
 648 03f7 13       		.uleb128 0x13
 649 03f8 723800   		.ascii	"r8\000"
 650 03fb 08       		.byte	0x8
 651 03fc A5       		.byte	0xa5
 652 03fd DE030000 		.4byte	0x3de
 653 0401 02       		.byte	0x2
 654 0402 23       		.byte	0x23
 655 0403 00       		.uleb128 0
 656 0404 13       		.uleb128 0x13
 657 0405 723900   		.ascii	"r9\000"
 658 0408 08       		.byte	0x8
 659 0409 A6       		.byte	0xa6
 660 040a DE030000 		.4byte	0x3de
 661 040e 02       		.byte	0x2
 662 040f 23       		.byte	0x23
 663 0410 04       		.uleb128 0x4
 664 0411 13       		.uleb128 0x13
 665 0412 72313000 		.ascii	"r10\000"
 666 0416 08       		.byte	0x8
 667 0417 A7       		.byte	0xa7
 668 0418 DE030000 		.4byte	0x3de
 669 041c 02       		.byte	0x2
 670 041d 23       		.byte	0x23
 671 041e 08       		.uleb128 0x8
 672 041f 13       		.uleb128 0x13
 673 0420 72313100 		.ascii	"r11\000"
 674 0424 08       		.byte	0x8
 675 0425 A8       		.byte	0xa8
 676 0426 DE030000 		.4byte	0x3de
 677 042a 02       		.byte	0x2
 678 042b 23       		.byte	0x23
 679 042c 0C       		.uleb128 0xc
 680 042d 13       		.uleb128 0x13
 681 042e 723400   		.ascii	"r4\000"
 682 0431 08       		.byte	0x8
 683 0432 A9       		.byte	0xa9
 684 0433 DE030000 		.4byte	0x3de
ARM GAS  /tmp/ccZFdxz8.s 			page 13


 685 0437 02       		.byte	0x2
 686 0438 23       		.byte	0x23
 687 0439 10       		.uleb128 0x10
 688 043a 13       		.uleb128 0x13
 689 043b 723500   		.ascii	"r5\000"
 690 043e 08       		.byte	0x8
 691 043f AA       		.byte	0xaa
 692 0440 DE030000 		.4byte	0x3de
 693 0444 02       		.byte	0x2
 694 0445 23       		.byte	0x23
 695 0446 14       		.uleb128 0x14
 696 0447 13       		.uleb128 0x13
 697 0448 723600   		.ascii	"r6\000"
 698 044b 08       		.byte	0x8
 699 044c AB       		.byte	0xab
 700 044d DE030000 		.4byte	0x3de
 701 0451 02       		.byte	0x2
 702 0452 23       		.byte	0x23
 703 0453 18       		.uleb128 0x18
 704 0454 13       		.uleb128 0x13
 705 0455 723700   		.ascii	"r7\000"
 706 0458 08       		.byte	0x8
 707 0459 AC       		.byte	0xac
 708 045a DE030000 		.4byte	0x3de
 709 045e 02       		.byte	0x2
 710 045f 23       		.byte	0x23
 711 0460 1C       		.uleb128 0x1c
 712 0461 13       		.uleb128 0x13
 713 0462 6C7200   		.ascii	"lr\000"
 714 0465 08       		.byte	0x8
 715 0466 AD       		.byte	0xad
 716 0467 DE030000 		.4byte	0x3de
 717 046b 02       		.byte	0x2
 718 046c 23       		.byte	0x23
 719 046d 20       		.uleb128 0x20
 720 046e 00       		.byte	0
 721 046f 04       		.uleb128 0x4
 722 0470 27040000 		.4byte	.LASF77
 723 0474 03       		.byte	0x3
 724 0475 F3       		.byte	0xf3
 725 0476 EB030000 		.4byte	0x3eb
 726 047a 14       		.uleb128 0x14
 727 047b 04       		.byte	0x4
 728 047c 03       		.byte	0x3
 729 047d F8       		.byte	0xf8
 730 047e 91040000 		.4byte	0x491
 731 0482 13       		.uleb128 0x13
 732 0483 636E7400 		.ascii	"cnt\000"
 733 0487 03       		.byte	0x3
 734 0488 F9       		.byte	0xf9
 735 0489 91040000 		.4byte	0x491
 736 048d 02       		.byte	0x2
 737 048e 23       		.byte	0x23
 738 048f 00       		.uleb128 0
 739 0490 00       		.byte	0
 740 0491 0D       		.uleb128 0xd
 741 0492 14010000 		.4byte	0x114
ARM GAS  /tmp/ccZFdxz8.s 			page 14


 742 0496 04       		.uleb128 0x4
 743 0497 0D010000 		.4byte	.LASF78
 744 049b 03       		.byte	0x3
 745 049c FA       		.byte	0xfa
 746 049d 7A040000 		.4byte	0x47a
 747 04a1 03       		.uleb128 0x3
 748 04a2 01       		.byte	0x1
 749 04a3 08       		.byte	0x8
 750 04a4 F2020000 		.4byte	.LASF79
 751 04a8 0E       		.uleb128 0xe
 752 04a9 0B040000 		.4byte	.LASF80
 753 04ad 03       		.byte	0x3
 754 04ae 1901     		.2byte	0x119
 755 04b0 B4040000 		.4byte	0x4b4
 756 04b4 15       		.uleb128 0x15
 757 04b5 04       		.byte	0x4
 758 04b6 9B000000 		.4byte	0x9b
 759 04ba 16       		.uleb128 0x16
 760 04bb 04       		.byte	0x4
 761 04bc 03       		.byte	0x3
 762 04bd 2301     		.2byte	0x123
 763 04bf FE040000 		.4byte	0x4fe
 764 04c3 17       		.uleb128 0x17
 765 04c4 6D736700 		.ascii	"msg\000"
 766 04c8 03       		.byte	0x3
 767 04c9 2401     		.2byte	0x124
 768 04cb FE000000 		.4byte	0xfe
 769 04cf 17       		.uleb128 0x17
 770 04d0 7000     		.ascii	"p\000"
 771 04d2 03       		.byte	0x3
 772 04d3 2501     		.2byte	0x125
 773 04d5 E9030000 		.4byte	0x3e9
 774 04d9 17       		.uleb128 0x17
 775 04da 74727000 		.ascii	"trp\000"
 776 04de 03       		.byte	0x3
 777 04df 2601     		.2byte	0x126
 778 04e1 FE040000 		.4byte	0x4fe
 779 04e5 18       		.uleb128 0x18
 780 04e6 4C020000 		.4byte	.LASF81
 781 04ea 03       		.byte	0x3
 782 04eb 2701     		.2byte	0x127
 783 04ed 04050000 		.4byte	0x504
 784 04f1 18       		.uleb128 0x18
 785 04f2 12020000 		.4byte	.LASF82
 786 04f6 03       		.byte	0x3
 787 04f7 2901     		.2byte	0x129
 788 04f9 09010000 		.4byte	0x109
 789 04fd 00       		.byte	0
 790 04fe 15       		.uleb128 0x15
 791 04ff 04       		.byte	0x4
 792 0500 A8040000 		.4byte	0x4a8
 793 0504 15       		.uleb128 0x15
 794 0505 04       		.byte	0x4
 795 0506 96040000 		.4byte	0x496
 796 050a 15       		.uleb128 0x15
 797 050b 04       		.byte	0x4
 798 050c 6F040000 		.4byte	0x46f
ARM GAS  /tmp/ccZFdxz8.s 			page 15


 799 0510 0D       		.uleb128 0xd
 800 0511 D3030000 		.4byte	0x3d3
 801 0515 0F       		.uleb128 0xf
 802 0516 98       		.byte	0x98
 803 0517 03       		.byte	0x3
 804 0518 3D01     		.2byte	0x13d
 805 051a 5B050000 		.4byte	0x55b
 806 051e 06       		.uleb128 0x6
 807 051f 42040000 		.4byte	.LASF83
 808 0523 03       		.byte	0x3
 809 0524 4101     		.2byte	0x141
 810 0526 B4040000 		.4byte	0x4b4
 811 052a 02       		.byte	0x2
 812 052b 23       		.byte	0x23
 813 052c 00       		.uleb128 0
 814 052d 06       		.uleb128 0x6
 815 052e 85040000 		.4byte	.LASF84
 816 0532 03       		.byte	0x3
 817 0533 4701     		.2byte	0x147
 818 0535 B4040000 		.4byte	0x4b4
 819 0539 02       		.byte	0x2
 820 053a 23       		.byte	0x23
 821 053b 04       		.uleb128 0x4
 822 053c 06       		.uleb128 0x6
 823 053d 2F010000 		.4byte	.LASF85
 824 0541 03       		.byte	0x3
 825 0542 4C01     		.2byte	0x14c
 826 0544 D3030000 		.4byte	0x3d3
 827 0548 02       		.byte	0x2
 828 0549 23       		.byte	0x23
 829 054a 08       		.uleb128 0x8
 830 054b 06       		.uleb128 0x6
 831 054c 3A040000 		.4byte	.LASF86
 832 0550 03       		.byte	0x3
 833 0551 5B01     		.2byte	0x15b
 834 0553 5B050000 		.4byte	0x55b
 835 0557 02       		.byte	0x2
 836 0558 23       		.byte	0x23
 837 0559 0C       		.uleb128 0xc
 838 055a 00       		.byte	0
 839 055b 0B       		.uleb128 0xb
 840 055c 9B000000 		.4byte	0x9b
 841 0560 6B050000 		.4byte	0x56b
 842 0564 0C       		.uleb128 0xc
 843 0565 BB020000 		.4byte	0x2bb
 844 0569 06       		.byte	0x6
 845 056a 00       		.byte	0
 846 056b 0E       		.uleb128 0xe
 847 056c 53010000 		.4byte	.LASF87
 848 0570 03       		.byte	0x3
 849 0571 6401     		.2byte	0x164
 850 0573 15050000 		.4byte	0x515
 851 0577 03       		.uleb128 0x3
 852 0578 01       		.byte	0x1
 853 0579 02       		.byte	0x2
 854 057a 0F030000 		.4byte	.LASF88
 855 057e 19       		.uleb128 0x19
ARM GAS  /tmp/ccZFdxz8.s 			page 16


 856 057f 01       		.byte	0x1
 857 0580 86020000 		.4byte	.LASF90
 858 0584 01       		.byte	0x1
 859 0585 3A       		.byte	0x3a
 860 0586 01       		.byte	0x1
 861 0587 00000000 		.4byte	.LFB77
 862 058b 2C000000 		.4byte	.LFE77
 863 058f 02       		.byte	0x2
 864 0590 7D       		.byte	0x7d
 865 0591 00       		.sleb128 0
 866 0592 01       		.byte	0x1
 867 0593 B4050000 		.4byte	0x5b4
 868 0597 1A       		.uleb128 0x1a
 869 0598 6E00     		.ascii	"n\000"
 870 059a 01       		.byte	0x1
 871 059b 3A       		.byte	0x3a
 872 059c F8010000 		.4byte	0x1f8
 873 05a0 00000000 		.4byte	.LLST0
 874 05a4 1B       		.uleb128 0x1b
 875 05a5 78040000 		.4byte	.LASF89
 876 05a9 01       		.byte	0x1
 877 05aa 3A       		.byte	0x3a
 878 05ab 7B000000 		.4byte	0x7b
 879 05af 21000000 		.4byte	.LLST1
 880 05b3 00       		.byte	0
 881 05b4 19       		.uleb128 0x19
 882 05b5 01       		.byte	0x1
 883 05b6 63000000 		.4byte	.LASF91
 884 05ba 01       		.byte	0x1
 885 05bb 47       		.byte	0x47
 886 05bc 01       		.byte	0x1
 887 05bd 00000000 		.4byte	.LFB78
 888 05c1 24000000 		.4byte	.LFE78
 889 05c5 02       		.byte	0x2
 890 05c6 7D       		.byte	0x7d
 891 05c7 00       		.sleb128 0
 892 05c8 01       		.byte	0x1
 893 05c9 DB050000 		.4byte	0x5db
 894 05cd 1A       		.uleb128 0x1a
 895 05ce 6E00     		.ascii	"n\000"
 896 05d0 01       		.byte	0x1
 897 05d1 47       		.byte	0x47
 898 05d2 F8010000 		.4byte	0x1f8
 899 05d6 42000000 		.4byte	.LLST2
 900 05da 00       		.byte	0
 901 05db 19       		.uleb128 0x19
 902 05dc 01       		.byte	0x1
 903 05dd F5010000 		.4byte	.LASF92
 904 05e1 01       		.byte	0x1
 905 05e2 54       		.byte	0x54
 906 05e3 01       		.byte	0x1
 907 05e4 00000000 		.4byte	.LFB79
 908 05e8 14000000 		.4byte	.LFE79
 909 05ec 02       		.byte	0x2
 910 05ed 7D       		.byte	0x7d
 911 05ee 00       		.sleb128 0
 912 05ef 01       		.byte	0x1
ARM GAS  /tmp/ccZFdxz8.s 			page 17


 913 05f0 13060000 		.4byte	0x613
 914 05f4 1B       		.uleb128 0x1b
 915 05f5 AA000000 		.4byte	.LASF93
 916 05f9 01       		.byte	0x1
 917 05fa 54       		.byte	0x54
 918 05fb F8010000 		.4byte	0x1f8
 919 05ff 63000000 		.4byte	.LLST3
 920 0603 1B       		.uleb128 0x1b
 921 0604 78040000 		.4byte	.LASF89
 922 0608 01       		.byte	0x1
 923 0609 54       		.byte	0x54
 924 060a 7B000000 		.4byte	0x7b
 925 060e 84000000 		.4byte	.LLST4
 926 0612 00       		.byte	0
 927 0613 1C       		.uleb128 0x1c
 928 0614 6E696C00 		.ascii	"nil\000"
 929 0618 03       		.byte	0x3
 930 0619 F602     		.2byte	0x2f6
 931 061b 6B050000 		.4byte	0x56b
 932 061f 01       		.byte	0x1
 933 0620 01       		.byte	0x1
 934 0621 00       		.byte	0
 935              		.section	.debug_abbrev,"",%progbits
 936              	.Ldebug_abbrev0:
 937 0000 01       		.uleb128 0x1
 938 0001 11       		.uleb128 0x11
 939 0002 01       		.byte	0x1
 940 0003 25       		.uleb128 0x25
 941 0004 0E       		.uleb128 0xe
 942 0005 13       		.uleb128 0x13
 943 0006 0B       		.uleb128 0xb
 944 0007 03       		.uleb128 0x3
 945 0008 0E       		.uleb128 0xe
 946 0009 1B       		.uleb128 0x1b
 947 000a 0E       		.uleb128 0xe
 948 000b 55       		.uleb128 0x55
 949 000c 06       		.uleb128 0x6
 950 000d 11       		.uleb128 0x11
 951 000e 01       		.uleb128 0x1
 952 000f 52       		.uleb128 0x52
 953 0010 01       		.uleb128 0x1
 954 0011 10       		.uleb128 0x10
 955 0012 06       		.uleb128 0x6
 956 0013 00       		.byte	0
 957 0014 00       		.byte	0
 958 0015 02       		.uleb128 0x2
 959 0016 24       		.uleb128 0x24
 960 0017 00       		.byte	0
 961 0018 0B       		.uleb128 0xb
 962 0019 0B       		.uleb128 0xb
 963 001a 3E       		.uleb128 0x3e
 964 001b 0B       		.uleb128 0xb
 965 001c 03       		.uleb128 0x3
 966 001d 08       		.uleb128 0x8
 967 001e 00       		.byte	0
 968 001f 00       		.byte	0
 969 0020 03       		.uleb128 0x3
ARM GAS  /tmp/ccZFdxz8.s 			page 18


 970 0021 24       		.uleb128 0x24
 971 0022 00       		.byte	0
 972 0023 0B       		.uleb128 0xb
 973 0024 0B       		.uleb128 0xb
 974 0025 3E       		.uleb128 0x3e
 975 0026 0B       		.uleb128 0xb
 976 0027 03       		.uleb128 0x3
 977 0028 0E       		.uleb128 0xe
 978 0029 00       		.byte	0
 979 002a 00       		.byte	0
 980 002b 04       		.uleb128 0x4
 981 002c 16       		.uleb128 0x16
 982 002d 00       		.byte	0
 983 002e 03       		.uleb128 0x3
 984 002f 0E       		.uleb128 0xe
 985 0030 3A       		.uleb128 0x3a
 986 0031 0B       		.uleb128 0xb
 987 0032 3B       		.uleb128 0x3b
 988 0033 0B       		.uleb128 0xb
 989 0034 49       		.uleb128 0x49
 990 0035 13       		.uleb128 0x13
 991 0036 00       		.byte	0
 992 0037 00       		.byte	0
 993 0038 05       		.uleb128 0x5
 994 0039 13       		.uleb128 0x13
 995 003a 01       		.byte	0x1
 996 003b 03       		.uleb128 0x3
 997 003c 0E       		.uleb128 0xe
 998 003d 0B       		.uleb128 0xb
 999 003e 0B       		.uleb128 0xb
 1000 003f 3A       		.uleb128 0x3a
 1001 0040 0B       		.uleb128 0xb
 1002 0041 3B       		.uleb128 0x3b
 1003 0042 05       		.uleb128 0x5
 1004 0043 01       		.uleb128 0x1
 1005 0044 13       		.uleb128 0x13
 1006 0045 00       		.byte	0
 1007 0046 00       		.byte	0
 1008 0047 06       		.uleb128 0x6
 1009 0048 0D       		.uleb128 0xd
 1010 0049 00       		.byte	0
 1011 004a 03       		.uleb128 0x3
 1012 004b 0E       		.uleb128 0xe
 1013 004c 3A       		.uleb128 0x3a
 1014 004d 0B       		.uleb128 0xb
 1015 004e 3B       		.uleb128 0x3b
 1016 004f 05       		.uleb128 0x5
 1017 0050 49       		.uleb128 0x49
 1018 0051 13       		.uleb128 0x13
 1019 0052 38       		.uleb128 0x38
 1020 0053 0A       		.uleb128 0xa
 1021 0054 00       		.byte	0
 1022 0055 00       		.byte	0
 1023 0056 07       		.uleb128 0x7
 1024 0057 0D       		.uleb128 0xd
 1025 0058 00       		.byte	0
 1026 0059 03       		.uleb128 0x3
ARM GAS  /tmp/ccZFdxz8.s 			page 19


 1027 005a 08       		.uleb128 0x8
 1028 005b 3A       		.uleb128 0x3a
 1029 005c 0B       		.uleb128 0xb
 1030 005d 3B       		.uleb128 0x3b
 1031 005e 05       		.uleb128 0x5
 1032 005f 49       		.uleb128 0x49
 1033 0060 13       		.uleb128 0x13
 1034 0061 38       		.uleb128 0x38
 1035 0062 0A       		.uleb128 0xa
 1036 0063 00       		.byte	0
 1037 0064 00       		.byte	0
 1038 0065 08       		.uleb128 0x8
 1039 0066 04       		.uleb128 0x4
 1040 0067 01       		.byte	0x1
 1041 0068 03       		.uleb128 0x3
 1042 0069 0E       		.uleb128 0xe
 1043 006a 0B       		.uleb128 0xb
 1044 006b 0B       		.uleb128 0xb
 1045 006c 3A       		.uleb128 0x3a
 1046 006d 0B       		.uleb128 0xb
 1047 006e 3B       		.uleb128 0x3b
 1048 006f 0B       		.uleb128 0xb
 1049 0070 01       		.uleb128 0x1
 1050 0071 13       		.uleb128 0x13
 1051 0072 00       		.byte	0
 1052 0073 00       		.byte	0
 1053 0074 09       		.uleb128 0x9
 1054 0075 28       		.uleb128 0x28
 1055 0076 00       		.byte	0
 1056 0077 03       		.uleb128 0x3
 1057 0078 0E       		.uleb128 0xe
 1058 0079 1C       		.uleb128 0x1c
 1059 007a 0D       		.uleb128 0xd
 1060 007b 00       		.byte	0
 1061 007c 00       		.byte	0
 1062 007d 0A       		.uleb128 0xa
 1063 007e 13       		.uleb128 0x13
 1064 007f 01       		.byte	0x1
 1065 0080 0B       		.uleb128 0xb
 1066 0081 05       		.uleb128 0x5
 1067 0082 3A       		.uleb128 0x3a
 1068 0083 0B       		.uleb128 0xb
 1069 0084 3B       		.uleb128 0x3b
 1070 0085 05       		.uleb128 0x5
 1071 0086 01       		.uleb128 0x1
 1072 0087 13       		.uleb128 0x13
 1073 0088 00       		.byte	0
 1074 0089 00       		.byte	0
 1075 008a 0B       		.uleb128 0xb
 1076 008b 01       		.uleb128 0x1
 1077 008c 01       		.byte	0x1
 1078 008d 49       		.uleb128 0x49
 1079 008e 13       		.uleb128 0x13
 1080 008f 01       		.uleb128 0x1
 1081 0090 13       		.uleb128 0x13
 1082 0091 00       		.byte	0
 1083 0092 00       		.byte	0
ARM GAS  /tmp/ccZFdxz8.s 			page 20


 1084 0093 0C       		.uleb128 0xc
 1085 0094 21       		.uleb128 0x21
 1086 0095 00       		.byte	0
 1087 0096 49       		.uleb128 0x49
 1088 0097 13       		.uleb128 0x13
 1089 0098 2F       		.uleb128 0x2f
 1090 0099 0B       		.uleb128 0xb
 1091 009a 00       		.byte	0
 1092 009b 00       		.byte	0
 1093 009c 0D       		.uleb128 0xd
 1094 009d 35       		.uleb128 0x35
 1095 009e 00       		.byte	0
 1096 009f 49       		.uleb128 0x49
 1097 00a0 13       		.uleb128 0x13
 1098 00a1 00       		.byte	0
 1099 00a2 00       		.byte	0
 1100 00a3 0E       		.uleb128 0xe
 1101 00a4 16       		.uleb128 0x16
 1102 00a5 00       		.byte	0
 1103 00a6 03       		.uleb128 0x3
 1104 00a7 0E       		.uleb128 0xe
 1105 00a8 3A       		.uleb128 0x3a
 1106 00a9 0B       		.uleb128 0xb
 1107 00aa 3B       		.uleb128 0x3b
 1108 00ab 05       		.uleb128 0x5
 1109 00ac 49       		.uleb128 0x49
 1110 00ad 13       		.uleb128 0x13
 1111 00ae 00       		.byte	0
 1112 00af 00       		.byte	0
 1113 00b0 0F       		.uleb128 0xf
 1114 00b1 13       		.uleb128 0x13
 1115 00b2 01       		.byte	0x1
 1116 00b3 0B       		.uleb128 0xb
 1117 00b4 0B       		.uleb128 0xb
 1118 00b5 3A       		.uleb128 0x3a
 1119 00b6 0B       		.uleb128 0xb
 1120 00b7 3B       		.uleb128 0x3b
 1121 00b8 05       		.uleb128 0x5
 1122 00b9 01       		.uleb128 0x1
 1123 00ba 13       		.uleb128 0x13
 1124 00bb 00       		.byte	0
 1125 00bc 00       		.byte	0
 1126 00bd 10       		.uleb128 0x10
 1127 00be 26       		.uleb128 0x26
 1128 00bf 00       		.byte	0
 1129 00c0 49       		.uleb128 0x49
 1130 00c1 13       		.uleb128 0x13
 1131 00c2 00       		.byte	0
 1132 00c3 00       		.byte	0
 1133 00c4 11       		.uleb128 0x11
 1134 00c5 0F       		.uleb128 0xf
 1135 00c6 00       		.byte	0
 1136 00c7 0B       		.uleb128 0xb
 1137 00c8 0B       		.uleb128 0xb
 1138 00c9 00       		.byte	0
 1139 00ca 00       		.byte	0
 1140 00cb 12       		.uleb128 0x12
ARM GAS  /tmp/ccZFdxz8.s 			page 21


 1141 00cc 13       		.uleb128 0x13
 1142 00cd 01       		.byte	0x1
 1143 00ce 03       		.uleb128 0x3
 1144 00cf 0E       		.uleb128 0xe
 1145 00d0 0B       		.uleb128 0xb
 1146 00d1 0B       		.uleb128 0xb
 1147 00d2 3A       		.uleb128 0x3a
 1148 00d3 0B       		.uleb128 0xb
 1149 00d4 3B       		.uleb128 0x3b
 1150 00d5 0B       		.uleb128 0xb
 1151 00d6 01       		.uleb128 0x1
 1152 00d7 13       		.uleb128 0x13
 1153 00d8 00       		.byte	0
 1154 00d9 00       		.byte	0
 1155 00da 13       		.uleb128 0x13
 1156 00db 0D       		.uleb128 0xd
 1157 00dc 00       		.byte	0
 1158 00dd 03       		.uleb128 0x3
 1159 00de 08       		.uleb128 0x8
 1160 00df 3A       		.uleb128 0x3a
 1161 00e0 0B       		.uleb128 0xb
 1162 00e1 3B       		.uleb128 0x3b
 1163 00e2 0B       		.uleb128 0xb
 1164 00e3 49       		.uleb128 0x49
 1165 00e4 13       		.uleb128 0x13
 1166 00e5 38       		.uleb128 0x38
 1167 00e6 0A       		.uleb128 0xa
 1168 00e7 00       		.byte	0
 1169 00e8 00       		.byte	0
 1170 00e9 14       		.uleb128 0x14
 1171 00ea 13       		.uleb128 0x13
 1172 00eb 01       		.byte	0x1
 1173 00ec 0B       		.uleb128 0xb
 1174 00ed 0B       		.uleb128 0xb
 1175 00ee 3A       		.uleb128 0x3a
 1176 00ef 0B       		.uleb128 0xb
 1177 00f0 3B       		.uleb128 0x3b
 1178 00f1 0B       		.uleb128 0xb
 1179 00f2 01       		.uleb128 0x1
 1180 00f3 13       		.uleb128 0x13
 1181 00f4 00       		.byte	0
 1182 00f5 00       		.byte	0
 1183 00f6 15       		.uleb128 0x15
 1184 00f7 0F       		.uleb128 0xf
 1185 00f8 00       		.byte	0
 1186 00f9 0B       		.uleb128 0xb
 1187 00fa 0B       		.uleb128 0xb
 1188 00fb 49       		.uleb128 0x49
 1189 00fc 13       		.uleb128 0x13
 1190 00fd 00       		.byte	0
 1191 00fe 00       		.byte	0
 1192 00ff 16       		.uleb128 0x16
 1193 0100 17       		.uleb128 0x17
 1194 0101 01       		.byte	0x1
 1195 0102 0B       		.uleb128 0xb
 1196 0103 0B       		.uleb128 0xb
 1197 0104 3A       		.uleb128 0x3a
ARM GAS  /tmp/ccZFdxz8.s 			page 22


 1198 0105 0B       		.uleb128 0xb
 1199 0106 3B       		.uleb128 0x3b
 1200 0107 05       		.uleb128 0x5
 1201 0108 01       		.uleb128 0x1
 1202 0109 13       		.uleb128 0x13
 1203 010a 00       		.byte	0
 1204 010b 00       		.byte	0
 1205 010c 17       		.uleb128 0x17
 1206 010d 0D       		.uleb128 0xd
 1207 010e 00       		.byte	0
 1208 010f 03       		.uleb128 0x3
 1209 0110 08       		.uleb128 0x8
 1210 0111 3A       		.uleb128 0x3a
 1211 0112 0B       		.uleb128 0xb
 1212 0113 3B       		.uleb128 0x3b
 1213 0114 05       		.uleb128 0x5
 1214 0115 49       		.uleb128 0x49
 1215 0116 13       		.uleb128 0x13
 1216 0117 00       		.byte	0
 1217 0118 00       		.byte	0
 1218 0119 18       		.uleb128 0x18
 1219 011a 0D       		.uleb128 0xd
 1220 011b 00       		.byte	0
 1221 011c 03       		.uleb128 0x3
 1222 011d 0E       		.uleb128 0xe
 1223 011e 3A       		.uleb128 0x3a
 1224 011f 0B       		.uleb128 0xb
 1225 0120 3B       		.uleb128 0x3b
 1226 0121 05       		.uleb128 0x5
 1227 0122 49       		.uleb128 0x49
 1228 0123 13       		.uleb128 0x13
 1229 0124 00       		.byte	0
 1230 0125 00       		.byte	0
 1231 0126 19       		.uleb128 0x19
 1232 0127 2E       		.uleb128 0x2e
 1233 0128 01       		.byte	0x1
 1234 0129 3F       		.uleb128 0x3f
 1235 012a 0C       		.uleb128 0xc
 1236 012b 03       		.uleb128 0x3
 1237 012c 0E       		.uleb128 0xe
 1238 012d 3A       		.uleb128 0x3a
 1239 012e 0B       		.uleb128 0xb
 1240 012f 3B       		.uleb128 0x3b
 1241 0130 0B       		.uleb128 0xb
 1242 0131 27       		.uleb128 0x27
 1243 0132 0C       		.uleb128 0xc
 1244 0133 11       		.uleb128 0x11
 1245 0134 01       		.uleb128 0x1
 1246 0135 12       		.uleb128 0x12
 1247 0136 01       		.uleb128 0x1
 1248 0137 40       		.uleb128 0x40
 1249 0138 0A       		.uleb128 0xa
 1250 0139 9742     		.uleb128 0x2117
 1251 013b 0C       		.uleb128 0xc
 1252 013c 01       		.uleb128 0x1
 1253 013d 13       		.uleb128 0x13
 1254 013e 00       		.byte	0
ARM GAS  /tmp/ccZFdxz8.s 			page 23


 1255 013f 00       		.byte	0
 1256 0140 1A       		.uleb128 0x1a
 1257 0141 05       		.uleb128 0x5
 1258 0142 00       		.byte	0
 1259 0143 03       		.uleb128 0x3
 1260 0144 08       		.uleb128 0x8
 1261 0145 3A       		.uleb128 0x3a
 1262 0146 0B       		.uleb128 0xb
 1263 0147 3B       		.uleb128 0x3b
 1264 0148 0B       		.uleb128 0xb
 1265 0149 49       		.uleb128 0x49
 1266 014a 13       		.uleb128 0x13
 1267 014b 02       		.uleb128 0x2
 1268 014c 06       		.uleb128 0x6
 1269 014d 00       		.byte	0
 1270 014e 00       		.byte	0
 1271 014f 1B       		.uleb128 0x1b
 1272 0150 05       		.uleb128 0x5
 1273 0151 00       		.byte	0
 1274 0152 03       		.uleb128 0x3
 1275 0153 0E       		.uleb128 0xe
 1276 0154 3A       		.uleb128 0x3a
 1277 0155 0B       		.uleb128 0xb
 1278 0156 3B       		.uleb128 0x3b
 1279 0157 0B       		.uleb128 0xb
 1280 0158 49       		.uleb128 0x49
 1281 0159 13       		.uleb128 0x13
 1282 015a 02       		.uleb128 0x2
 1283 015b 06       		.uleb128 0x6
 1284 015c 00       		.byte	0
 1285 015d 00       		.byte	0
 1286 015e 1C       		.uleb128 0x1c
 1287 015f 34       		.uleb128 0x34
 1288 0160 00       		.byte	0
 1289 0161 03       		.uleb128 0x3
 1290 0162 08       		.uleb128 0x8
 1291 0163 3A       		.uleb128 0x3a
 1292 0164 0B       		.uleb128 0xb
 1293 0165 3B       		.uleb128 0x3b
 1294 0166 05       		.uleb128 0x5
 1295 0167 49       		.uleb128 0x49
 1296 0168 13       		.uleb128 0x13
 1297 0169 3F       		.uleb128 0x3f
 1298 016a 0C       		.uleb128 0xc
 1299 016b 3C       		.uleb128 0x3c
 1300 016c 0C       		.uleb128 0xc
 1301 016d 00       		.byte	0
 1302 016e 00       		.byte	0
 1303 016f 00       		.byte	0
 1304              		.section	.debug_loc,"",%progbits
 1305              	.Ldebug_loc0:
 1306              	.LLST0:
 1307 0000 00000000 		.4byte	.LVL0
 1308 0004 12000000 		.4byte	.LVL2
 1309 0008 0100     		.2byte	0x1
 1310 000a 50       		.byte	0x50
 1311 000b 12000000 		.4byte	.LVL2
ARM GAS  /tmp/ccZFdxz8.s 			page 24


 1312 000f 2C000000 		.4byte	.LFE77
 1313 0013 0400     		.2byte	0x4
 1314 0015 F3       		.byte	0xf3
 1315 0016 01       		.uleb128 0x1
 1316 0017 50       		.byte	0x50
 1317 0018 9F       		.byte	0x9f
 1318 0019 00000000 		.4byte	0
 1319 001d 00000000 		.4byte	0
 1320              	.LLST1:
 1321 0021 00000000 		.4byte	.LVL0
 1322 0025 08000000 		.4byte	.LVL1
 1323 0029 0100     		.2byte	0x1
 1324 002b 51       		.byte	0x51
 1325 002c 08000000 		.4byte	.LVL1
 1326 0030 2C000000 		.4byte	.LFE77
 1327 0034 0400     		.2byte	0x4
 1328 0036 F3       		.byte	0xf3
 1329 0037 01       		.uleb128 0x1
 1330 0038 51       		.byte	0x51
 1331 0039 9F       		.byte	0x9f
 1332 003a 00000000 		.4byte	0
 1333 003e 00000000 		.4byte	0
 1334              	.LLST2:
 1335 0042 00000000 		.4byte	.LVL3
 1336 0046 14000000 		.4byte	.LVL4
 1337 004a 0100     		.2byte	0x1
 1338 004c 50       		.byte	0x50
 1339 004d 14000000 		.4byte	.LVL4
 1340 0051 24000000 		.4byte	.LFE78
 1341 0055 0400     		.2byte	0x4
 1342 0057 F3       		.byte	0xf3
 1343 0058 01       		.uleb128 0x1
 1344 0059 50       		.byte	0x50
 1345 005a 9F       		.byte	0x9f
 1346 005b 00000000 		.4byte	0
 1347 005f 00000000 		.4byte	0
 1348              	.LLST3:
 1349 0063 00000000 		.4byte	.LVL5
 1350 0067 04000000 		.4byte	.LVL6
 1351 006b 0100     		.2byte	0x1
 1352 006d 50       		.byte	0x50
 1353 006e 04000000 		.4byte	.LVL6
 1354 0072 14000000 		.4byte	.LFE79
 1355 0076 0400     		.2byte	0x4
 1356 0078 F3       		.byte	0xf3
 1357 0079 01       		.uleb128 0x1
 1358 007a 50       		.byte	0x50
 1359 007b 9F       		.byte	0x9f
 1360 007c 00000000 		.4byte	0
 1361 0080 00000000 		.4byte	0
 1362              	.LLST4:
 1363 0084 00000000 		.4byte	.LVL5
 1364 0088 0A000000 		.4byte	.LVL7
 1365 008c 0100     		.2byte	0x1
 1366 008e 51       		.byte	0x51
 1367 008f 0A000000 		.4byte	.LVL7
 1368 0093 14000000 		.4byte	.LFE79
ARM GAS  /tmp/ccZFdxz8.s 			page 25


 1369 0097 0400     		.2byte	0x4
 1370 0099 F3       		.byte	0xf3
 1371 009a 01       		.uleb128 0x1
 1372 009b 51       		.byte	0x51
 1373 009c 9F       		.byte	0x9f
 1374 009d 00000000 		.4byte	0
 1375 00a1 00000000 		.4byte	0
 1376              		.section	.debug_aranges,"",%progbits
 1377 0000 2C000000 		.4byte	0x2c
 1378 0004 0200     		.2byte	0x2
 1379 0006 00000000 		.4byte	.Ldebug_info0
 1380 000a 04       		.byte	0x4
 1381 000b 00       		.byte	0
 1382 000c 0000     		.2byte	0
 1383 000e 0000     		.2byte	0
 1384 0010 00000000 		.4byte	.LFB77
 1385 0014 2C000000 		.4byte	.LFE77-.LFB77
 1386 0018 00000000 		.4byte	.LFB78
 1387 001c 24000000 		.4byte	.LFE78-.LFB78
 1388 0020 00000000 		.4byte	.LFB79
 1389 0024 14000000 		.4byte	.LFE79-.LFB79
 1390 0028 00000000 		.4byte	0
 1391 002c 00000000 		.4byte	0
 1392              		.section	.debug_ranges,"",%progbits
 1393              	.Ldebug_ranges0:
 1394 0000 00000000 		.4byte	.LFB77
 1395 0004 2C000000 		.4byte	.LFE77
 1396 0008 00000000 		.4byte	.LFB78
 1397 000c 24000000 		.4byte	.LFE78
 1398 0010 00000000 		.4byte	.LFB79
 1399 0014 14000000 		.4byte	.LFE79
 1400 0018 00000000 		.4byte	0
 1401 001c 00000000 		.4byte	0
 1402              		.section	.debug_line,"",%progbits
 1403              	.Ldebug_line0:
 1404 0000 C9010000 		.section	.debug_str,"MS",%progbits,1
 1404      02008601 
 1404      00000201 
 1404      FB0E0D00 
 1404      01010101 
 1405              	.LASF72:
 1406 0000 5343425F 		.ascii	"SCB_Type\000"
 1406      54797065 
 1406      00
 1407              	.LASF30:
 1408 0009 5243435F 		.ascii	"RCC_IRQn\000"
 1408      4952516E 
 1408      00
 1409              	.LASF47:
 1410 0012 54494D31 		.ascii	"TIM17_IRQn\000"
 1410      375F4952 
 1410      516E00
 1411              	.LASF35:
 1412 001d 444D4131 		.ascii	"DMA1_Channel1_IRQn\000"
 1412      5F436861 
 1412      6E6E656C 
 1412      315F4952 
ARM GAS  /tmp/ccZFdxz8.s 			page 26


 1412      516E00
 1413              	.LASF14:
 1414 0030 73746174 		.ascii	"state\000"
 1414      6500
 1415              	.LASF55:
 1416 0036 4952516E 		.ascii	"IRQn_Type\000"
 1416      5F547970 
 1416      6500
 1417              	.LASF45:
 1418 0040 54494D31 		.ascii	"TIM15_IRQn\000"
 1418      355F4952 
 1418      516E00
 1419              	.LASF3:
 1420 004b 73686F72 		.ascii	"short int\000"
 1420      7420696E 
 1420      7400
 1421              	.LASF65:
 1422 0055 73697A65 		.ascii	"sizetype\000"
 1422      74797065 
 1422      00
 1423              	.LASF60:
 1424 005e 49535052 		.ascii	"ISPR\000"
 1424      00
 1425              	.LASF91:
 1426 0063 6E766963 		.ascii	"nvicDisableVector\000"
 1426      44697361 
 1426      626C6556 
 1426      6563746F 
 1426      7200
 1427              	.LASF22:
 1428 0075 48617264 		.ascii	"HardFault_IRQn\000"
 1428      4661756C 
 1428      745F4952 
 1428      516E00
 1429              	.LASF97:
 1430 0084 4952516E 		.ascii	"IRQn\000"
 1430      00
 1431              	.LASF19:
 1432 0089 6576656E 		.ascii	"eventmask_t\000"
 1432      746D6173 
 1432      6B5F7400 
 1433              	.LASF75:
 1434 0095 6E696C5F 		.ascii	"nil_thread\000"
 1434      74687265 
 1434      616400
 1435              	.LASF50:
 1436 00a0 53504931 		.ascii	"SPI1_IRQn\000"
 1436      5F495251 
 1436      6E00
 1437              	.LASF93:
 1438 00aa 68616E64 		.ascii	"handler\000"
 1438      6C657200 
 1439              	.LASF67:
 1440 00b2 43505549 		.ascii	"CPUID\000"
 1440      4400
 1441              	.LASF57:
 1442 00b8 52455345 		.ascii	"RESERVED0\000"
ARM GAS  /tmp/ccZFdxz8.s 			page 27


 1442      52564544 
 1442      3000
 1443              	.LASF43:
 1444 00c2 54494D36 		.ascii	"TIM6_DAC_IRQn\000"
 1444      5F444143 
 1444      5F495251 
 1444      6E00
 1445              	.LASF74:
 1446 00d0 72656761 		.ascii	"regarm_t\000"
 1446      726D5F74 
 1446      00
 1447              	.LASF61:
 1448 00d9 52455345 		.ascii	"RESERVED2\000"
 1448      52564544 
 1448      3200
 1449              	.LASF25:
 1450 00e3 53797354 		.ascii	"SysTick_IRQn\000"
 1450      69636B5F 
 1450      4952516E 
 1450      00
 1451              	.LASF4:
 1452 00f0 75696E74 		.ascii	"uint8_t\000"
 1452      385F7400 
 1453              	.LASF48:
 1454 00f8 49324331 		.ascii	"I2C1_IRQn\000"
 1454      5F495251 
 1454      6E00
 1455              	.LASF29:
 1456 0102 464C4153 		.ascii	"FLASH_IRQn\000"
 1456      485F4952 
 1456      516E00
 1457              	.LASF78:
 1458 010d 73656D61 		.ascii	"semaphore_t\000"
 1458      70686F72 
 1458      655F7400 
 1459              	.LASF1:
 1460 0119 7369676E 		.ascii	"signed char\000"
 1460      65642063 
 1460      68617200 
 1461              	.LASF26:
 1462 0125 57574447 		.ascii	"WWDG_IRQn\000"
 1462      5F495251 
 1462      6E00
 1463              	.LASF85:
 1464 012f 73797374 		.ascii	"systime\000"
 1464      696D6500 
 1465              	.LASF68:
 1466 0137 49435352 		.ascii	"ICSR\000"
 1466      00
 1467              	.LASF59:
 1468 013c 52534552 		.ascii	"RSERVED1\000"
 1468      56454431 
 1468      00
 1469              	.LASF11:
 1470 0145 6C6F6E67 		.ascii	"long long int\000"
 1470      206C6F6E 
 1470      6720696E 
ARM GAS  /tmp/ccZFdxz8.s 			page 28


 1470      7400
 1471              	.LASF87:
 1472 0153 6E696C5F 		.ascii	"nil_system_t\000"
 1472      73797374 
 1472      656D5F74 
 1472      00
 1473              	.LASF52:
 1474 0160 55534152 		.ascii	"USART1_IRQn\000"
 1474      54315F49 
 1474      52516E00 
 1475              	.LASF28:
 1476 016c 5254435F 		.ascii	"RTC_IRQn\000"
 1476      4952516E 
 1476      00
 1477              	.LASF24:
 1478 0175 50656E64 		.ascii	"PendSV_IRQn\000"
 1478      53565F49 
 1478      52516E00 
 1479              	.LASF8:
 1480 0181 6C6F6E67 		.ascii	"long int\000"
 1480      20696E74 
 1480      00
 1481              	.LASF13:
 1482 018a 63747870 		.ascii	"ctxp\000"
 1482      00
 1483              	.LASF2:
 1484 018f 756E7369 		.ascii	"unsigned char\000"
 1484      676E6564 
 1484      20636861 
 1484      7200
 1485              	.LASF96:
 1486 019d 2F6D6564 		.ascii	"/media/data/src/OpenTCS/code\000"
 1486      69612F64 
 1486      6174612F 
 1486      7372632F 
 1486      4F70656E 
 1487              	.LASF27:
 1488 01ba 5056445F 		.ascii	"PVD_IRQn\000"
 1488      4952516E 
 1488      00
 1489              	.LASF36:
 1490 01c3 444D4131 		.ascii	"DMA1_Channel2_3_IRQn\000"
 1490      5F436861 
 1490      6E6E656C 
 1490      325F335F 
 1490      4952516E 
 1491              	.LASF41:
 1492 01d8 54494D32 		.ascii	"TIM2_IRQn\000"
 1492      5F495251 
 1492      6E00
 1493              	.LASF69:
 1494 01e2 41495243 		.ascii	"AIRCR\000"
 1494      5200
 1495              	.LASF40:
 1496 01e8 54494D31 		.ascii	"TIM1_CC_IRQn\000"
 1496      5F43435F 
 1496      4952516E 
ARM GAS  /tmp/ccZFdxz8.s 			page 29


 1496      00
 1497              	.LASF92:
 1498 01f5 6E766963 		.ascii	"nvicSetSystemHandlerPriority\000"
 1498      53657453 
 1498      79737465 
 1498      6D48616E 
 1498      646C6572 
 1499              	.LASF82:
 1500 0212 65776D61 		.ascii	"ewmask\000"
 1500      736B00
 1501              	.LASF66:
 1502 0219 4E564943 		.ascii	"NVIC_Type\000"
 1502      5F547970 
 1502      6500
 1503              	.LASF62:
 1504 0223 49435052 		.ascii	"ICPR\000"
 1504      00
 1505              	.LASF31:
 1506 0228 45585449 		.ascii	"EXTI0_1_IRQn\000"
 1506      305F315F 
 1506      4952516E 
 1506      00
 1507              	.LASF12:
 1508 0235 6C6F6E67 		.ascii	"long long unsigned int\000"
 1508      206C6F6E 
 1508      6720756E 
 1508      7369676E 
 1508      65642069 
 1509              	.LASF81:
 1510 024c 73656D70 		.ascii	"semp\000"
 1510      00
 1511              	.LASF9:
 1512 0251 75696E74 		.ascii	"uint32_t\000"
 1512      33325F74 
 1512      00
 1513              	.LASF0:
 1514 025a 756E7369 		.ascii	"unsigned int\000"
 1514      676E6564 
 1514      20696E74 
 1514      00
 1515              	.LASF5:
 1516 0267 75696E74 		.ascii	"uint16_t\000"
 1516      31365F74 
 1516      00
 1517              	.LASF71:
 1518 0270 53484353 		.ascii	"SHCSR\000"
 1518      5200
 1519              	.LASF58:
 1520 0276 49434552 		.ascii	"ICER\000"
 1520      00
 1521              	.LASF46:
 1522 027b 54494D31 		.ascii	"TIM16_IRQn\000"
 1522      365F4952 
 1522      516E00
 1523              	.LASF90:
 1524 0286 6E766963 		.ascii	"nvicEnableVector\000"
 1524      456E6162 
ARM GAS  /tmp/ccZFdxz8.s 			page 30


 1524      6C655665 
 1524      63746F72 
 1524      00
 1525              	.LASF38:
 1526 0297 41444331 		.ascii	"ADC1_COMP_IRQn\000"
 1526      5F434F4D 
 1526      505F4952 
 1526      516E00
 1527              	.LASF44:
 1528 02a6 54494D31 		.ascii	"TIM14_IRQn\000"
 1528      345F4952 
 1528      516E00
 1529              	.LASF6:
 1530 02b1 73686F72 		.ascii	"short unsigned int\000"
 1530      7420756E 
 1530      7369676E 
 1530      65642069 
 1530      6E7400
 1531              	.LASF95:
 1532 02c4 2E2F6F73 		.ascii	"./os/hal/ports/common/ARMCMx/nvic.c\000"
 1532      2F68616C 
 1532      2F706F72 
 1532      74732F63 
 1532      6F6D6D6F 
 1533              	.LASF73:
 1534 02e8 73797374 		.ascii	"systime_t\000"
 1534      696D655F 
 1534      7400
 1535              	.LASF79:
 1536 02f2 63686172 		.ascii	"char\000"
 1536      00
 1537              	.LASF7:
 1538 02f7 696E7433 		.ascii	"int32_t\000"
 1538      325F7400 
 1539              	.LASF51:
 1540 02ff 53504932 		.ascii	"SPI2_IRQn\000"
 1540      5F495251 
 1540      6E00
 1541              	.LASF20:
 1542 0309 636E745F 		.ascii	"cnt_t\000"
 1542      7400
 1543              	.LASF88:
 1544 030f 5F426F6F 		.ascii	"_Bool\000"
 1544      6C00
 1545              	.LASF32:
 1546 0315 45585449 		.ascii	"EXTI2_3_IRQn\000"
 1546      325F335F 
 1546      4952516E 
 1546      00
 1547              	.LASF23:
 1548 0322 5356435F 		.ascii	"SVC_IRQn\000"
 1548      4952516E 
 1548      00
 1549              	.LASF56:
 1550 032b 49534552 		.ascii	"ISER\000"
 1550      00
 1551              	.LASF70:
ARM GAS  /tmp/ccZFdxz8.s 			page 31


 1552 0330 52455345 		.ascii	"RESERVED1\000"
 1552      52564544 
 1552      3100
 1553              	.LASF16:
 1554 033a 65706D61 		.ascii	"epmask\000"
 1554      736B00
 1555              	.LASF63:
 1556 0341 52455345 		.ascii	"RESERVED3\000"
 1556      52564544 
 1556      3300
 1557              	.LASF64:
 1558 034b 52455345 		.ascii	"RESERVED4\000"
 1558      52564544 
 1558      3400
 1559              	.LASF10:
 1560 0355 6C6F6E67 		.ascii	"long unsigned int\000"
 1560      20756E73 
 1560      69676E65 
 1560      6420696E 
 1560      7400
 1561              	.LASF94:
 1562 0367 474E5520 		.ascii	"GNU C 4.7.3 20130312 (release) [ARM/embedded-4_7-br"
 1562      4320342E 
 1562      372E3320 
 1562      32303133 
 1562      30333132 
 1563 039a 616E6368 		.ascii	"anch revision 196615]\000"
 1563      20726576 
 1563      6973696F 
 1563      6E203139 
 1563      36363135 
 1564              	.LASF21:
 1565 03b0 4E6F6E4D 		.ascii	"NonMaskableInt_IRQn\000"
 1565      61736B61 
 1565      626C6549 
 1565      6E745F49 
 1565      52516E00 
 1566              	.LASF39:
 1567 03c4 54494D31 		.ascii	"TIM1_BRK_UP_TRG_COM_IRQn\000"
 1567      5F42524B 
 1567      5F55505F 
 1567      5452475F 
 1567      434F4D5F 
 1568              	.LASF76:
 1569 03dd 706F7274 		.ascii	"port_intctx\000"
 1569      5F696E74 
 1569      63747800 
 1570              	.LASF34:
 1571 03e9 54535F49 		.ascii	"TS_IRQn\000"
 1571      52516E00 
 1572              	.LASF53:
 1573 03f1 55534152 		.ascii	"USART2_IRQn\000"
 1573      54325F49 
 1573      52516E00 
 1574              	.LASF33:
 1575 03fd 45585449 		.ascii	"EXTI4_15_IRQn\000"
 1575      345F3135 
ARM GAS  /tmp/ccZFdxz8.s 			page 32


 1575      5F495251 
 1575      6E00
 1576              	.LASF80:
 1577 040b 74687265 		.ascii	"thread_reference_t\000"
 1577      61645F72 
 1577      65666572 
 1577      656E6365 
 1577      5F7400
 1578              	.LASF17:
 1579 041e 74737461 		.ascii	"tstate_t\000"
 1579      74655F74 
 1579      00
 1580              	.LASF77:
 1581 0427 696E7463 		.ascii	"intctx_t\000"
 1581      74785F74 
 1581      00
 1582              	.LASF49:
 1583 0430 49324332 		.ascii	"I2C2_IRQn\000"
 1583      5F495251 
 1583      6E00
 1584              	.LASF86:
 1585 043a 74687265 		.ascii	"threads\000"
 1585      61647300 
 1586              	.LASF83:
 1587 0442 63757272 		.ascii	"current\000"
 1587      656E7400 
 1588              	.LASF54:
 1589 044a 4345435F 		.ascii	"CEC_IRQn\000"
 1589      4952516E 
 1589      00
 1590              	.LASF37:
 1591 0453 444D4131 		.ascii	"DMA1_Channel4_5_IRQn\000"
 1591      5F436861 
 1591      6E6E656C 
 1591      345F355F 
 1591      4952516E 
 1592              	.LASF42:
 1593 0468 54494D33 		.ascii	"TIM3_IRQn\000"
 1593      5F495251 
 1593      6E00
 1594              	.LASF18:
 1595 0472 6D73675F 		.ascii	"msg_t\000"
 1595      7400
 1596              	.LASF89:
 1597 0478 7072696F 		.ascii	"prio\000"
 1597      00
 1598              	.LASF15:
 1599 047d 74696D65 		.ascii	"timeout\000"
 1599      6F757400 
 1600              	.LASF84:
 1601 0485 6E657874 		.ascii	"next\000"
 1601      00
 1602              		.ident	"GCC: (GNU Tools for ARM Embedded Processors) 4.7.3 20130312 (release) [ARM/embedded-4_7-br
ARM GAS  /tmp/ccZFdxz8.s 			page 33


DEFINED SYMBOLS
                            *ABS*:00000000 nvic.c
     /tmp/ccZFdxz8.s:18     .text.nvicEnableVector:00000000 $t
     /tmp/ccZFdxz8.s:23     .text.nvicEnableVector:00000000 nvicEnableVector
     /tmp/ccZFdxz8.s:61     .text.nvicEnableVector:00000028 $d
     /tmp/ccZFdxz8.s:66     .text.nvicDisableVector:00000000 $t
     /tmp/ccZFdxz8.s:71     .text.nvicDisableVector:00000000 nvicDisableVector
     /tmp/ccZFdxz8.s:101    .text.nvicDisableVector:00000020 $d
     /tmp/ccZFdxz8.s:106    .text.nvicSetSystemHandlerPriority:00000000 $t
     /tmp/ccZFdxz8.s:111    .text.nvicSetSystemHandlerPriority:00000000 nvicSetSystemHandlerPriority
     /tmp/ccZFdxz8.s:132    .text.nvicSetSystemHandlerPriority:00000010 $d
                     .debug_frame:00000010 $d

NO UNDEFINED SYMBOLS
