ARM GAS  /tmp/ccnqwe41.s 			page 1


   1              		.cpu cortex-m0
   2              		.fpu softvfp
   3              		.eabi_attribute 20, 1
   4              		.eabi_attribute 21, 1
   5              		.eabi_attribute 23, 3
   6              		.eabi_attribute 24, 1
   7              		.eabi_attribute 25, 1
   8              		.eabi_attribute 26, 1
   9              		.eabi_attribute 30, 4
  10              		.eabi_attribute 34, 0
  11              		.eabi_attribute 18, 4
  12              		.code	16
  13              		.file	"osal.c"
  14              		.text
  15              	.Ltext0:
  16              		.cfi_sections	.debug_frame
  17              		.section	.text.osalQueueWakeupOneI,"ax",%progbits
  18              		.align	1
  19              		.global	osalQueueWakeupOneI
  20              		.code	16
  21              		.thumb_func
  22              		.type	osalQueueWakeupOneI, %function
  23              	osalQueueWakeupOneI:
  24              	.LFB71:
  25              		.file 1 "./os/nil/osal/osal.c"
  26              		.loc 1 63 0
  27              		.cfi_startproc
  28              	.LVL0:
  29              		.loc 1 66 0
  30 0000 0368     		ldr	r3, [r0]
  31              		.loc 1 63 0
  32 0002 10B5     		push	{r4, lr}
  33              	.LCFI0:
  34              		.cfi_def_cfa_offset 8
  35              		.cfi_offset 4, -8
  36              		.cfi_offset 14, -4
  37              		.loc 1 63 0
  38 0004 021C     		mov	r2, r0
  39              		.loc 1 66 0
  40 0006 002B     		cmp	r3, #0
  41 0008 0BDA     		bge	.L1
  42 000a 0023     		mov	r3, #0
  43              	.LVL1:
  44              	.L3:
  45              		.loc 1 63 0
  46 000c 054C     		ldr	r4, .L6
  47 000e 201C     		mov	r0, r4
  48              	.LBB2:
  49 0010 1C19     		add	r4, r3, r4
  50              		.loc 1 70 0
  51 0012 6469     		ldr	r4, [r4, #20]
  52              	.LBE2:
  53              		.loc 1 63 0
  54 0014 0C30     		add	r0, r0, #12
  55 0016 C018     		add	r0, r0, r3
  56 0018 1433     		add	r3, r3, #20
  57              	.LBB3:
ARM GAS  /tmp/ccnqwe41.s 			page 2


  58              		.loc 1 70 0
  59 001a 9442     		cmp	r4, r2
  60 001c F6D1     		bne	.L3
  61              		.loc 1 74 0
  62 001e FFF7FEFF 		bl	chSchReadyI
  63              	.LVL2:
  64              	.L1:
  65              	.LBE3:
  66              		.loc 1 83 0
  67              		@ sp needed for prologue
  68 0022 10BD     		pop	{r4, pc}
  69              	.L7:
  70              		.align	2
  71              	.L6:
  72 0024 00000000 		.word	nil
  73              		.cfi_endproc
  74              	.LFE71:
  75              		.size	osalQueueWakeupOneI, .-osalQueueWakeupOneI
  76              		.section	.text.osalQueueWakeupAllI,"ax",%progbits
  77              		.align	1
  78              		.global	osalQueueWakeupAllI
  79              		.code	16
  80              		.thumb_func
  81              		.type	osalQueueWakeupAllI, %function
  82              	osalQueueWakeupAllI:
  83              	.LFB72:
  84              		.loc 1 93 0
  85              		.cfi_startproc
  86              	.LVL3:
  87 0000 F8B5     		push	{r3, r4, r5, r6, r7, lr}
  88              	.LCFI1:
  89              		.cfi_def_cfa_offset 24
  90              		.cfi_offset 3, -24
  91              		.cfi_offset 4, -20
  92              		.cfi_offset 5, -16
  93              		.cfi_offset 6, -12
  94              		.cfi_offset 7, -8
  95              		.cfi_offset 14, -4
  96              		.loc 1 99 0
  97 0002 0023     		mov	r3, #0
  98              		.loc 1 100 0
  99 0004 084C     		ldr	r4, .L13
 100              		.loc 1 98 0
 101 0006 0568     		ldr	r5, [r0]
 102              	.LVL4:
 103              		.loc 1 93 0
 104 0008 061C     		mov	r6, r0
 105 000a 0F1C     		mov	r7, r1
 106              		.loc 1 99 0
 107 000c 0360     		str	r3, [r0]
 108              	.LVL5:
 109              	.L9:
 110              		.loc 1 101 0 discriminator 1
 111 000e 002D     		cmp	r5, #0
 112 0010 09DA     		bge	.L12
 113              	.L11:
 114              		.loc 1 103 0
ARM GAS  /tmp/ccnqwe41.s 			page 3


 115 0012 A068     		ldr	r0, [r4, #8]
 116 0014 B042     		cmp	r0, r6
 117 0016 04D1     		bne	.L10
 118              		.loc 1 108 0
 119 0018 201C     		mov	r0, r4
 120 001a 391C     		mov	r1, r7
 121              		.loc 1 107 0
 122 001c 0135     		add	r5, r5, #1
 123              	.LVL6:
 124              		.loc 1 108 0
 125 001e FFF7FEFF 		bl	chSchReadyI
 126              	.LVL7:
 127              	.L10:
 128              		.loc 1 110 0
 129 0022 1434     		add	r4, r4, #20
 130              	.LVL8:
 131 0024 F3E7     		b	.L9
 132              	.L12:
 133              		.loc 1 115 0
 134              		@ sp needed for prologue
 135              	.LVL9:
 136              	.LVL10:
 137              	.LVL11:
 138              	.LVL12:
 139 0026 F8BD     		pop	{r3, r4, r5, r6, r7, pc}
 140              	.L14:
 141              		.align	2
 142              	.L13:
 143 0028 0C000000 		.word	nil+12
 144              		.cfi_endproc
 145              	.LFE72:
 146              		.size	osalQueueWakeupAllI, .-osalQueueWakeupAllI
 147              		.text
 148              	.Letext0:
 149              		.file 2 "/media/data/src/x-tools/gcc-arm-none-eabi-4_7-2013q1/bin/../lib/gcc/arm-none-eabi/4.7.3/.
 150              		.file 3 "./os/nil/include/nil.h"
 151              		.file 4 "./os/nil/ports/ARMCMx/compilers/GCC/niltypes.h"
 152              		.file 5 "./os/nil/ports/ARMCMx/nilcore.h"
 153              		.file 6 "./os/nil/ports/ARMCMx/nilcore_v6m.h"
 154              		.file 7 "./os/nil/osal/osal.h"
 155              		.section	.debug_info,"",%progbits
 156              	.Ldebug_info0:
 157 0000 F3030000 		.4byte	0x3f3
 158 0004 0200     		.2byte	0x2
 159 0006 00000000 		.4byte	.Ldebug_abbrev0
 160 000a 04       		.byte	0x4
 161 000b 01       		.uleb128 0x1
 162 000c CE000000 		.4byte	.LASF40
 163 0010 01       		.byte	0x1
 164 0011 01020000 		.4byte	.LASF41
 165 0015 B1000000 		.4byte	.LASF42
 166 0019 18000000 		.4byte	.Ldebug_ranges0+0x18
 167 001d 00000000 		.4byte	0
 168 0021 00000000 		.4byte	0
 169 0025 00000000 		.4byte	.Ldebug_line0
 170 0029 02       		.uleb128 0x2
 171 002a 04       		.byte	0x4
ARM GAS  /tmp/ccnqwe41.s 			page 4


 172 002b 05       		.byte	0x5
 173 002c 696E7400 		.ascii	"int\000"
 174 0030 03       		.uleb128 0x3
 175 0031 04       		.byte	0x4
 176 0032 07       		.byte	0x7
 177 0033 16020000 		.4byte	.LASF0
 178 0037 03       		.uleb128 0x3
 179 0038 01       		.byte	0x1
 180 0039 06       		.byte	0x6
 181 003a 2C010000 		.4byte	.LASF1
 182 003e 04       		.uleb128 0x4
 183 003f 71000000 		.4byte	.LASF4
 184 0043 02       		.byte	0x2
 185 0044 2A       		.byte	0x2a
 186 0045 49000000 		.4byte	0x49
 187 0049 03       		.uleb128 0x3
 188 004a 01       		.byte	0x1
 189 004b 08       		.byte	0x8
 190 004c 17010000 		.4byte	.LASF2
 191 0050 03       		.uleb128 0x3
 192 0051 02       		.byte	0x2
 193 0052 05       		.byte	0x5
 194 0053 31000000 		.4byte	.LASF3
 195 0057 04       		.uleb128 0x4
 196 0058 58010000 		.4byte	.LASF5
 197 005c 02       		.byte	0x2
 198 005d 36       		.byte	0x36
 199 005e 62000000 		.4byte	0x62
 200 0062 03       		.uleb128 0x3
 201 0063 02       		.byte	0x2
 202 0064 07       		.byte	0x7
 203 0065 7D010000 		.4byte	.LASF6
 204 0069 04       		.uleb128 0x4
 205 006a 9F010000 		.4byte	.LASF7
 206 006e 02       		.byte	0x2
 207 006f 4F       		.byte	0x4f
 208 0070 74000000 		.4byte	0x74
 209 0074 03       		.uleb128 0x3
 210 0075 04       		.byte	0x4
 211 0076 05       		.byte	0x5
 212 0077 A3000000 		.4byte	.LASF8
 213 007b 04       		.uleb128 0x4
 214 007c 4F010000 		.4byte	.LASF9
 215 0080 02       		.byte	0x2
 216 0081 50       		.byte	0x50
 217 0082 86000000 		.4byte	0x86
 218 0086 03       		.uleb128 0x3
 219 0087 04       		.byte	0x4
 220 0088 07       		.byte	0x7
 221 0089 AD010000 		.4byte	.LASF10
 222 008d 03       		.uleb128 0x3
 223 008e 08       		.byte	0x8
 224 008f 05       		.byte	0x5
 225 0090 95000000 		.4byte	.LASF11
 226 0094 03       		.uleb128 0x3
 227 0095 08       		.byte	0x8
 228 0096 07       		.byte	0x7
ARM GAS  /tmp/ccnqwe41.s 			page 5


 229 0097 38010000 		.4byte	.LASF12
 230 009b 05       		.uleb128 0x5
 231 009c 5D000000 		.4byte	.LASF24
 232 00a0 14       		.byte	0x14
 233 00a1 03       		.byte	0x3
 234 00a2 1E01     		.2byte	0x11e
 235 00a4 F3000000 		.4byte	0xf3
 236 00a8 06       		.uleb128 0x6
 237 00a9 AC000000 		.4byte	.LASF13
 238 00ad 03       		.byte	0x3
 239 00ae 1F01     		.2byte	0x11f
 240 00b0 5D020000 		.4byte	0x25d
 241 00b4 02       		.byte	0x2
 242 00b5 23       		.byte	0x23
 243 00b6 00       		.uleb128 0
 244 00b7 06       		.uleb128 0x6
 245 00b8 2B000000 		.4byte	.LASF14
 246 00bc 03       		.byte	0x3
 247 00bd 2001     		.2byte	0x120
 248 00bf F3000000 		.4byte	0xf3
 249 00c3 02       		.byte	0x2
 250 00c4 23       		.byte	0x23
 251 00c5 04       		.uleb128 0x4
 252 00c6 07       		.uleb128 0x7
 253 00c7 753100   		.ascii	"u1\000"
 254 00ca 03       		.byte	0x3
 255 00cb 2B01     		.2byte	0x12b
 256 00cd 0D020000 		.4byte	0x20d
 257 00d1 02       		.byte	0x2
 258 00d2 23       		.byte	0x23
 259 00d3 08       		.uleb128 0x8
 260 00d4 06       		.uleb128 0x6
 261 00d5 29020000 		.4byte	.LASF15
 262 00d9 03       		.byte	0x3
 263 00da 2C01     		.2byte	0x12c
 264 00dc 63020000 		.4byte	0x263
 265 00e0 02       		.byte	0x2
 266 00e1 23       		.byte	0x23
 267 00e2 0C       		.uleb128 0xc
 268 00e3 06       		.uleb128 0x6
 269 00e4 10000000 		.4byte	.LASF16
 270 00e8 03       		.byte	0x3
 271 00e9 2F01     		.2byte	0x12f
 272 00eb 09010000 		.4byte	0x109
 273 00ef 02       		.byte	0x2
 274 00f0 23       		.byte	0x23
 275 00f1 10       		.uleb128 0x10
 276 00f2 00       		.byte	0
 277 00f3 04       		.uleb128 0x4
 278 00f4 EF010000 		.4byte	.LASF17
 279 00f8 04       		.byte	0x4
 280 00f9 37       		.byte	0x37
 281 00fa 3E000000 		.4byte	0x3e
 282 00fe 04       		.uleb128 0x4
 283 00ff 23020000 		.4byte	.LASF18
 284 0103 04       		.byte	0x4
 285 0104 38       		.byte	0x38
ARM GAS  /tmp/ccnqwe41.s 			page 6


 286 0105 69000000 		.4byte	0x69
 287 0109 04       		.uleb128 0x4
 288 010a 51000000 		.4byte	.LASF19
 289 010e 04       		.byte	0x4
 290 010f 39       		.byte	0x39
 291 0110 7B000000 		.4byte	0x7b
 292 0114 04       		.uleb128 0x4
 293 0115 A7010000 		.4byte	.LASF20
 294 0119 04       		.byte	0x4
 295 011a 3A       		.byte	0x3a
 296 011b 69000000 		.4byte	0x69
 297 011f 03       		.uleb128 0x3
 298 0120 04       		.byte	0x4
 299 0121 07       		.byte	0x7
 300 0122 3B000000 		.4byte	.LASF21
 301 0126 04       		.uleb128 0x4
 302 0127 90010000 		.4byte	.LASF22
 303 012b 05       		.byte	0x5
 304 012c 77       		.byte	0x77
 305 012d 57000000 		.4byte	0x57
 306 0131 04       		.uleb128 0x4
 307 0132 68000000 		.4byte	.LASF23
 308 0136 05       		.byte	0x5
 309 0137 7D       		.byte	0x7d
 310 0138 3C010000 		.4byte	0x13c
 311 013c 08       		.uleb128 0x8
 312 013d 04       		.byte	0x4
 313 013e 09       		.uleb128 0x9
 314 013f CB010000 		.4byte	.LASF25
 315 0143 24       		.byte	0x24
 316 0144 06       		.byte	0x6
 317 0145 A4       		.byte	0xa4
 318 0146 C2010000 		.4byte	0x1c2
 319 014a 0A       		.uleb128 0xa
 320 014b 723800   		.ascii	"r8\000"
 321 014e 06       		.byte	0x6
 322 014f A5       		.byte	0xa5
 323 0150 31010000 		.4byte	0x131
 324 0154 02       		.byte	0x2
 325 0155 23       		.byte	0x23
 326 0156 00       		.uleb128 0
 327 0157 0A       		.uleb128 0xa
 328 0158 723900   		.ascii	"r9\000"
 329 015b 06       		.byte	0x6
 330 015c A6       		.byte	0xa6
 331 015d 31010000 		.4byte	0x131
 332 0161 02       		.byte	0x2
 333 0162 23       		.byte	0x23
 334 0163 04       		.uleb128 0x4
 335 0164 0A       		.uleb128 0xa
 336 0165 72313000 		.ascii	"r10\000"
 337 0169 06       		.byte	0x6
 338 016a A7       		.byte	0xa7
 339 016b 31010000 		.4byte	0x131
 340 016f 02       		.byte	0x2
 341 0170 23       		.byte	0x23
 342 0171 08       		.uleb128 0x8
ARM GAS  /tmp/ccnqwe41.s 			page 7


 343 0172 0A       		.uleb128 0xa
 344 0173 72313100 		.ascii	"r11\000"
 345 0177 06       		.byte	0x6
 346 0178 A8       		.byte	0xa8
 347 0179 31010000 		.4byte	0x131
 348 017d 02       		.byte	0x2
 349 017e 23       		.byte	0x23
 350 017f 0C       		.uleb128 0xc
 351 0180 0A       		.uleb128 0xa
 352 0181 723400   		.ascii	"r4\000"
 353 0184 06       		.byte	0x6
 354 0185 A9       		.byte	0xa9
 355 0186 31010000 		.4byte	0x131
 356 018a 02       		.byte	0x2
 357 018b 23       		.byte	0x23
 358 018c 10       		.uleb128 0x10
 359 018d 0A       		.uleb128 0xa
 360 018e 723500   		.ascii	"r5\000"
 361 0191 06       		.byte	0x6
 362 0192 AA       		.byte	0xaa
 363 0193 31010000 		.4byte	0x131
 364 0197 02       		.byte	0x2
 365 0198 23       		.byte	0x23
 366 0199 14       		.uleb128 0x14
 367 019a 0A       		.uleb128 0xa
 368 019b 723600   		.ascii	"r6\000"
 369 019e 06       		.byte	0x6
 370 019f AB       		.byte	0xab
 371 01a0 31010000 		.4byte	0x131
 372 01a4 02       		.byte	0x2
 373 01a5 23       		.byte	0x23
 374 01a6 18       		.uleb128 0x18
 375 01a7 0A       		.uleb128 0xa
 376 01a8 723700   		.ascii	"r7\000"
 377 01ab 06       		.byte	0x6
 378 01ac AC       		.byte	0xac
 379 01ad 31010000 		.4byte	0x131
 380 01b1 02       		.byte	0x2
 381 01b2 23       		.byte	0x23
 382 01b3 1C       		.uleb128 0x1c
 383 01b4 0A       		.uleb128 0xa
 384 01b5 6C7200   		.ascii	"lr\000"
 385 01b8 06       		.byte	0x6
 386 01b9 AD       		.byte	0xad
 387 01ba 31010000 		.4byte	0x131
 388 01be 02       		.byte	0x2
 389 01bf 23       		.byte	0x23
 390 01c0 20       		.uleb128 0x20
 391 01c1 00       		.byte	0
 392 01c2 04       		.uleb128 0x4
 393 01c3 F8010000 		.4byte	.LASF26
 394 01c7 03       		.byte	0x3
 395 01c8 F3       		.byte	0xf3
 396 01c9 3E010000 		.4byte	0x13e
 397 01cd 0B       		.uleb128 0xb
 398 01ce 04       		.byte	0x4
 399 01cf 03       		.byte	0x3
ARM GAS  /tmp/ccnqwe41.s 			page 8


 400 01d0 F8       		.byte	0xf8
 401 01d1 E4010000 		.4byte	0x1e4
 402 01d5 0A       		.uleb128 0xa
 403 01d6 636E7400 		.ascii	"cnt\000"
 404 01da 03       		.byte	0x3
 405 01db F9       		.byte	0xf9
 406 01dc E4010000 		.4byte	0x1e4
 407 01e0 02       		.byte	0x2
 408 01e1 23       		.byte	0x23
 409 01e2 00       		.uleb128 0
 410 01e3 00       		.byte	0
 411 01e4 0C       		.uleb128 0xc
 412 01e5 14010000 		.4byte	0x114
 413 01e9 04       		.uleb128 0x4
 414 01ea 79000000 		.4byte	.LASF27
 415 01ee 03       		.byte	0x3
 416 01ef FA       		.byte	0xfa
 417 01f0 CD010000 		.4byte	0x1cd
 418 01f4 03       		.uleb128 0x3
 419 01f5 01       		.byte	0x1
 420 01f6 08       		.byte	0x8
 421 01f7 9A010000 		.4byte	.LASF28
 422 01fb 0D       		.uleb128 0xd
 423 01fc DC010000 		.4byte	.LASF29
 424 0200 03       		.byte	0x3
 425 0201 1901     		.2byte	0x119
 426 0203 07020000 		.4byte	0x207
 427 0207 0E       		.uleb128 0xe
 428 0208 04       		.byte	0x4
 429 0209 9B000000 		.4byte	0x9b
 430 020d 0F       		.uleb128 0xf
 431 020e 04       		.byte	0x4
 432 020f 03       		.byte	0x3
 433 0210 2301     		.2byte	0x123
 434 0212 51020000 		.4byte	0x251
 435 0216 10       		.uleb128 0x10
 436 0217 6D736700 		.ascii	"msg\000"
 437 021b 03       		.byte	0x3
 438 021c 2401     		.2byte	0x124
 439 021e FE000000 		.4byte	0xfe
 440 0222 10       		.uleb128 0x10
 441 0223 7000     		.ascii	"p\000"
 442 0225 03       		.byte	0x3
 443 0226 2501     		.2byte	0x125
 444 0228 3C010000 		.4byte	0x13c
 445 022c 10       		.uleb128 0x10
 446 022d 74727000 		.ascii	"trp\000"
 447 0231 03       		.byte	0x3
 448 0232 2601     		.2byte	0x126
 449 0234 51020000 		.4byte	0x251
 450 0238 11       		.uleb128 0x11
 451 0239 D7010000 		.4byte	.LASF30
 452 023d 03       		.byte	0x3
 453 023e 2701     		.2byte	0x127
 454 0240 57020000 		.4byte	0x257
 455 0244 11       		.uleb128 0x11
 456 0245 25010000 		.4byte	.LASF31
ARM GAS  /tmp/ccnqwe41.s 			page 9


 457 0249 03       		.byte	0x3
 458 024a 2901     		.2byte	0x129
 459 024c 09010000 		.4byte	0x109
 460 0250 00       		.byte	0
 461 0251 0E       		.uleb128 0xe
 462 0252 04       		.byte	0x4
 463 0253 FB010000 		.4byte	0x1fb
 464 0257 0E       		.uleb128 0xe
 465 0258 04       		.byte	0x4
 466 0259 E9010000 		.4byte	0x1e9
 467 025d 0E       		.uleb128 0xe
 468 025e 04       		.byte	0x4
 469 025f C2010000 		.4byte	0x1c2
 470 0263 0C       		.uleb128 0xc
 471 0264 26010000 		.4byte	0x126
 472 0268 12       		.uleb128 0x12
 473 0269 98       		.byte	0x98
 474 026a 03       		.byte	0x3
 475 026b 3D01     		.2byte	0x13d
 476 026d AE020000 		.4byte	0x2ae
 477 0271 06       		.uleb128 0x6
 478 0272 61010000 		.4byte	.LASF32
 479 0276 03       		.byte	0x3
 480 0277 4101     		.2byte	0x141
 481 0279 07020000 		.4byte	0x207
 482 027d 02       		.byte	0x2
 483 027e 23       		.byte	0x23
 484 027f 00       		.uleb128 0
 485 0280 06       		.uleb128 0x6
 486 0281 31020000 		.4byte	.LASF33
 487 0285 03       		.byte	0x3
 488 0286 4701     		.2byte	0x147
 489 0288 07020000 		.4byte	0x207
 490 028c 02       		.byte	0x2
 491 028d 23       		.byte	0x23
 492 028e 04       		.uleb128 0x4
 493 028f 06       		.uleb128 0x6
 494 0290 85000000 		.4byte	.LASF34
 495 0294 03       		.byte	0x3
 496 0295 4C01     		.2byte	0x14c
 497 0297 26010000 		.4byte	0x126
 498 029b 02       		.byte	0x2
 499 029c 23       		.byte	0x23
 500 029d 08       		.uleb128 0x8
 501 029e 06       		.uleb128 0x6
 502 029f 8D000000 		.4byte	.LASF35
 503 02a3 03       		.byte	0x3
 504 02a4 5B01     		.2byte	0x15b
 505 02a6 AE020000 		.4byte	0x2ae
 506 02aa 02       		.byte	0x2
 507 02ab 23       		.byte	0x23
 508 02ac 0C       		.uleb128 0xc
 509 02ad 00       		.byte	0
 510 02ae 13       		.uleb128 0x13
 511 02af 9B000000 		.4byte	0x9b
 512 02b3 BE020000 		.4byte	0x2be
 513 02b7 14       		.uleb128 0x14
ARM GAS  /tmp/ccnqwe41.s 			page 10


 514 02b8 1F010000 		.4byte	0x11f
 515 02bc 06       		.byte	0x6
 516 02bd 00       		.byte	0
 517 02be 0D       		.uleb128 0xd
 518 02bf 44000000 		.4byte	.LASF36
 519 02c3 03       		.byte	0x3
 520 02c4 6401     		.2byte	0x164
 521 02c6 68020000 		.4byte	0x268
 522 02ca 0B       		.uleb128 0xb
 523 02cb 04       		.byte	0x4
 524 02cc 07       		.byte	0x7
 525 02cd DF       		.byte	0xdf
 526 02ce E1020000 		.4byte	0x2e1
 527 02d2 0A       		.uleb128 0xa
 528 02d3 73656D00 		.ascii	"sem\000"
 529 02d7 07       		.byte	0x7
 530 02d8 E0       		.byte	0xe0
 531 02d9 E9010000 		.4byte	0x1e9
 532 02dd 02       		.byte	0x2
 533 02de 23       		.byte	0x23
 534 02df 00       		.uleb128 0
 535 02e0 00       		.byte	0
 536 02e1 04       		.uleb128 0x4
 537 02e2 00000000 		.4byte	.LASF37
 538 02e6 07       		.byte	0x7
 539 02e7 E1       		.byte	0xe1
 540 02e8 CA020000 		.4byte	0x2ca
 541 02ec 15       		.uleb128 0x15
 542 02ed 01       		.byte	0x1
 543 02ee 69010000 		.4byte	.LASF38
 544 02f2 01       		.byte	0x1
 545 02f3 3F       		.byte	0x3f
 546 02f4 01       		.byte	0x1
 547 02f5 00000000 		.4byte	.LFB71
 548 02f9 28000000 		.4byte	.LFE71
 549 02fd 00000000 		.4byte	.LLST0
 550 0301 01       		.byte	0x1
 551 0302 4E030000 		.4byte	0x34e
 552 0306 16       		.uleb128 0x16
 553 0307 74717000 		.ascii	"tqp\000"
 554 030b 01       		.byte	0x1
 555 030c 3F       		.byte	0x3f
 556 030d 4E030000 		.4byte	0x34e
 557 0311 20000000 		.4byte	.LLST1
 558 0315 16       		.uleb128 0x16
 559 0316 6D736700 		.ascii	"msg\000"
 560 031a 01       		.byte	0x1
 561 031b 3F       		.byte	0x3f
 562 031c FE000000 		.4byte	0xfe
 563 0320 4C000000 		.4byte	.LLST2
 564 0324 17       		.uleb128 0x17
 565 0325 737000   		.ascii	"sp\000"
 566 0328 01       		.byte	0x1
 567 0329 40       		.byte	0x40
 568 032a 57020000 		.4byte	0x257
 569 032e 20000000 		.4byte	.LLST1
 570 0332 18       		.uleb128 0x18
ARM GAS  /tmp/ccnqwe41.s 			page 11


 571 0333 00000000 		.4byte	.Ldebug_ranges0+0
 572 0337 19       		.uleb128 0x19
 573 0338 747200   		.ascii	"tr\000"
 574 033b 01       		.byte	0x1
 575 033c 43       		.byte	0x43
 576 033d FB010000 		.4byte	0x1fb
 577 0341 01       		.byte	0x1
 578 0342 50       		.byte	0x50
 579 0343 1A       		.uleb128 0x1a
 580 0344 22000000 		.4byte	.LVL2
 581 0348 DC030000 		.4byte	0x3dc
 582 034c 00       		.byte	0
 583 034d 00       		.byte	0
 584 034e 0E       		.uleb128 0xe
 585 034f 04       		.byte	0x4
 586 0350 E1020000 		.4byte	0x2e1
 587 0354 15       		.uleb128 0x15
 588 0355 01       		.byte	0x1
 589 0356 17000000 		.4byte	.LASF39
 590 035a 01       		.byte	0x1
 591 035b 5D       		.byte	0x5d
 592 035c 01       		.byte	0x1
 593 035d 00000000 		.4byte	.LFB72
 594 0361 2C000000 		.4byte	.LFE72
 595 0365 6D000000 		.4byte	.LLST4
 596 0369 01       		.byte	0x1
 597 036a CE030000 		.4byte	0x3ce
 598 036e 16       		.uleb128 0x16
 599 036f 74717000 		.ascii	"tqp\000"
 600 0373 01       		.byte	0x1
 601 0374 5D       		.byte	0x5d
 602 0375 4E030000 		.4byte	0x34e
 603 0379 8D000000 		.4byte	.LLST5
 604 037d 16       		.uleb128 0x16
 605 037e 6D736700 		.ascii	"msg\000"
 606 0382 01       		.byte	0x1
 607 0383 5D       		.byte	0x5d
 608 0384 FE000000 		.4byte	0xfe
 609 0388 B9000000 		.4byte	.LLST6
 610 038c 17       		.uleb128 0x17
 611 038d 737000   		.ascii	"sp\000"
 612 0390 01       		.byte	0x1
 613 0391 5E       		.byte	0x5e
 614 0392 57020000 		.4byte	0x257
 615 0396 8D000000 		.4byte	.LLST5
 616 039a 17       		.uleb128 0x17
 617 039b 747200   		.ascii	"tr\000"
 618 039e 01       		.byte	0x1
 619 039f 5F       		.byte	0x5f
 620 03a0 FB010000 		.4byte	0x1fb
 621 03a4 E5000000 		.4byte	.LLST8
 622 03a8 17       		.uleb128 0x17
 623 03a9 636E7400 		.ascii	"cnt\000"
 624 03ad 01       		.byte	0x1
 625 03ae 60       		.byte	0x60
 626 03af 14010000 		.4byte	0x114
 627 03b3 F8000000 		.4byte	.LLST9
ARM GAS  /tmp/ccnqwe41.s 			page 12


 628 03b7 1B       		.uleb128 0x1b
 629 03b8 22000000 		.4byte	.LVL7
 630 03bc DC030000 		.4byte	0x3dc
 631 03c0 1C       		.uleb128 0x1c
 632 03c1 01       		.byte	0x1
 633 03c2 51       		.byte	0x51
 634 03c3 02       		.byte	0x2
 635 03c4 77       		.byte	0x77
 636 03c5 00       		.sleb128 0
 637 03c6 1C       		.uleb128 0x1c
 638 03c7 01       		.byte	0x1
 639 03c8 50       		.byte	0x50
 640 03c9 02       		.byte	0x2
 641 03ca 74       		.byte	0x74
 642 03cb 00       		.sleb128 0
 643 03cc 00       		.byte	0
 644 03cd 00       		.byte	0
 645 03ce 1D       		.uleb128 0x1d
 646 03cf 6E696C00 		.ascii	"nil\000"
 647 03d3 03       		.byte	0x3
 648 03d4 F602     		.2byte	0x2f6
 649 03d6 BE020000 		.4byte	0x2be
 650 03da 01       		.byte	0x1
 651 03db 01       		.byte	0x1
 652 03dc 1E       		.uleb128 0x1e
 653 03dd 01       		.byte	0x1
 654 03de BF010000 		.4byte	.LASF43
 655 03e2 03       		.byte	0x3
 656 03e3 0203     		.2byte	0x302
 657 03e5 01       		.byte	0x1
 658 03e6 07020000 		.4byte	0x207
 659 03ea 01       		.byte	0x1
 660 03eb 1F       		.uleb128 0x1f
 661 03ec 07020000 		.4byte	0x207
 662 03f0 1F       		.uleb128 0x1f
 663 03f1 FE000000 		.4byte	0xfe
 664 03f5 00       		.byte	0
 665 03f6 00       		.byte	0
 666              		.section	.debug_abbrev,"",%progbits
 667              	.Ldebug_abbrev0:
 668 0000 01       		.uleb128 0x1
 669 0001 11       		.uleb128 0x11
 670 0002 01       		.byte	0x1
 671 0003 25       		.uleb128 0x25
 672 0004 0E       		.uleb128 0xe
 673 0005 13       		.uleb128 0x13
 674 0006 0B       		.uleb128 0xb
 675 0007 03       		.uleb128 0x3
 676 0008 0E       		.uleb128 0xe
 677 0009 1B       		.uleb128 0x1b
 678 000a 0E       		.uleb128 0xe
 679 000b 55       		.uleb128 0x55
 680 000c 06       		.uleb128 0x6
 681 000d 11       		.uleb128 0x11
 682 000e 01       		.uleb128 0x1
 683 000f 52       		.uleb128 0x52
 684 0010 01       		.uleb128 0x1
ARM GAS  /tmp/ccnqwe41.s 			page 13


 685 0011 10       		.uleb128 0x10
 686 0012 06       		.uleb128 0x6
 687 0013 00       		.byte	0
 688 0014 00       		.byte	0
 689 0015 02       		.uleb128 0x2
 690 0016 24       		.uleb128 0x24
 691 0017 00       		.byte	0
 692 0018 0B       		.uleb128 0xb
 693 0019 0B       		.uleb128 0xb
 694 001a 3E       		.uleb128 0x3e
 695 001b 0B       		.uleb128 0xb
 696 001c 03       		.uleb128 0x3
 697 001d 08       		.uleb128 0x8
 698 001e 00       		.byte	0
 699 001f 00       		.byte	0
 700 0020 03       		.uleb128 0x3
 701 0021 24       		.uleb128 0x24
 702 0022 00       		.byte	0
 703 0023 0B       		.uleb128 0xb
 704 0024 0B       		.uleb128 0xb
 705 0025 3E       		.uleb128 0x3e
 706 0026 0B       		.uleb128 0xb
 707 0027 03       		.uleb128 0x3
 708 0028 0E       		.uleb128 0xe
 709 0029 00       		.byte	0
 710 002a 00       		.byte	0
 711 002b 04       		.uleb128 0x4
 712 002c 16       		.uleb128 0x16
 713 002d 00       		.byte	0
 714 002e 03       		.uleb128 0x3
 715 002f 0E       		.uleb128 0xe
 716 0030 3A       		.uleb128 0x3a
 717 0031 0B       		.uleb128 0xb
 718 0032 3B       		.uleb128 0x3b
 719 0033 0B       		.uleb128 0xb
 720 0034 49       		.uleb128 0x49
 721 0035 13       		.uleb128 0x13
 722 0036 00       		.byte	0
 723 0037 00       		.byte	0
 724 0038 05       		.uleb128 0x5
 725 0039 13       		.uleb128 0x13
 726 003a 01       		.byte	0x1
 727 003b 03       		.uleb128 0x3
 728 003c 0E       		.uleb128 0xe
 729 003d 0B       		.uleb128 0xb
 730 003e 0B       		.uleb128 0xb
 731 003f 3A       		.uleb128 0x3a
 732 0040 0B       		.uleb128 0xb
 733 0041 3B       		.uleb128 0x3b
 734 0042 05       		.uleb128 0x5
 735 0043 01       		.uleb128 0x1
 736 0044 13       		.uleb128 0x13
 737 0045 00       		.byte	0
 738 0046 00       		.byte	0
 739 0047 06       		.uleb128 0x6
 740 0048 0D       		.uleb128 0xd
 741 0049 00       		.byte	0
ARM GAS  /tmp/ccnqwe41.s 			page 14


 742 004a 03       		.uleb128 0x3
 743 004b 0E       		.uleb128 0xe
 744 004c 3A       		.uleb128 0x3a
 745 004d 0B       		.uleb128 0xb
 746 004e 3B       		.uleb128 0x3b
 747 004f 05       		.uleb128 0x5
 748 0050 49       		.uleb128 0x49
 749 0051 13       		.uleb128 0x13
 750 0052 38       		.uleb128 0x38
 751 0053 0A       		.uleb128 0xa
 752 0054 00       		.byte	0
 753 0055 00       		.byte	0
 754 0056 07       		.uleb128 0x7
 755 0057 0D       		.uleb128 0xd
 756 0058 00       		.byte	0
 757 0059 03       		.uleb128 0x3
 758 005a 08       		.uleb128 0x8
 759 005b 3A       		.uleb128 0x3a
 760 005c 0B       		.uleb128 0xb
 761 005d 3B       		.uleb128 0x3b
 762 005e 05       		.uleb128 0x5
 763 005f 49       		.uleb128 0x49
 764 0060 13       		.uleb128 0x13
 765 0061 38       		.uleb128 0x38
 766 0062 0A       		.uleb128 0xa
 767 0063 00       		.byte	0
 768 0064 00       		.byte	0
 769 0065 08       		.uleb128 0x8
 770 0066 0F       		.uleb128 0xf
 771 0067 00       		.byte	0
 772 0068 0B       		.uleb128 0xb
 773 0069 0B       		.uleb128 0xb
 774 006a 00       		.byte	0
 775 006b 00       		.byte	0
 776 006c 09       		.uleb128 0x9
 777 006d 13       		.uleb128 0x13
 778 006e 01       		.byte	0x1
 779 006f 03       		.uleb128 0x3
 780 0070 0E       		.uleb128 0xe
 781 0071 0B       		.uleb128 0xb
 782 0072 0B       		.uleb128 0xb
 783 0073 3A       		.uleb128 0x3a
 784 0074 0B       		.uleb128 0xb
 785 0075 3B       		.uleb128 0x3b
 786 0076 0B       		.uleb128 0xb
 787 0077 01       		.uleb128 0x1
 788 0078 13       		.uleb128 0x13
 789 0079 00       		.byte	0
 790 007a 00       		.byte	0
 791 007b 0A       		.uleb128 0xa
 792 007c 0D       		.uleb128 0xd
 793 007d 00       		.byte	0
 794 007e 03       		.uleb128 0x3
 795 007f 08       		.uleb128 0x8
 796 0080 3A       		.uleb128 0x3a
 797 0081 0B       		.uleb128 0xb
 798 0082 3B       		.uleb128 0x3b
ARM GAS  /tmp/ccnqwe41.s 			page 15


 799 0083 0B       		.uleb128 0xb
 800 0084 49       		.uleb128 0x49
 801 0085 13       		.uleb128 0x13
 802 0086 38       		.uleb128 0x38
 803 0087 0A       		.uleb128 0xa
 804 0088 00       		.byte	0
 805 0089 00       		.byte	0
 806 008a 0B       		.uleb128 0xb
 807 008b 13       		.uleb128 0x13
 808 008c 01       		.byte	0x1
 809 008d 0B       		.uleb128 0xb
 810 008e 0B       		.uleb128 0xb
 811 008f 3A       		.uleb128 0x3a
 812 0090 0B       		.uleb128 0xb
 813 0091 3B       		.uleb128 0x3b
 814 0092 0B       		.uleb128 0xb
 815 0093 01       		.uleb128 0x1
 816 0094 13       		.uleb128 0x13
 817 0095 00       		.byte	0
 818 0096 00       		.byte	0
 819 0097 0C       		.uleb128 0xc
 820 0098 35       		.uleb128 0x35
 821 0099 00       		.byte	0
 822 009a 49       		.uleb128 0x49
 823 009b 13       		.uleb128 0x13
 824 009c 00       		.byte	0
 825 009d 00       		.byte	0
 826 009e 0D       		.uleb128 0xd
 827 009f 16       		.uleb128 0x16
 828 00a0 00       		.byte	0
 829 00a1 03       		.uleb128 0x3
 830 00a2 0E       		.uleb128 0xe
 831 00a3 3A       		.uleb128 0x3a
 832 00a4 0B       		.uleb128 0xb
 833 00a5 3B       		.uleb128 0x3b
 834 00a6 05       		.uleb128 0x5
 835 00a7 49       		.uleb128 0x49
 836 00a8 13       		.uleb128 0x13
 837 00a9 00       		.byte	0
 838 00aa 00       		.byte	0
 839 00ab 0E       		.uleb128 0xe
 840 00ac 0F       		.uleb128 0xf
 841 00ad 00       		.byte	0
 842 00ae 0B       		.uleb128 0xb
 843 00af 0B       		.uleb128 0xb
 844 00b0 49       		.uleb128 0x49
 845 00b1 13       		.uleb128 0x13
 846 00b2 00       		.byte	0
 847 00b3 00       		.byte	0
 848 00b4 0F       		.uleb128 0xf
 849 00b5 17       		.uleb128 0x17
 850 00b6 01       		.byte	0x1
 851 00b7 0B       		.uleb128 0xb
 852 00b8 0B       		.uleb128 0xb
 853 00b9 3A       		.uleb128 0x3a
 854 00ba 0B       		.uleb128 0xb
 855 00bb 3B       		.uleb128 0x3b
ARM GAS  /tmp/ccnqwe41.s 			page 16


 856 00bc 05       		.uleb128 0x5
 857 00bd 01       		.uleb128 0x1
 858 00be 13       		.uleb128 0x13
 859 00bf 00       		.byte	0
 860 00c0 00       		.byte	0
 861 00c1 10       		.uleb128 0x10
 862 00c2 0D       		.uleb128 0xd
 863 00c3 00       		.byte	0
 864 00c4 03       		.uleb128 0x3
 865 00c5 08       		.uleb128 0x8
 866 00c6 3A       		.uleb128 0x3a
 867 00c7 0B       		.uleb128 0xb
 868 00c8 3B       		.uleb128 0x3b
 869 00c9 05       		.uleb128 0x5
 870 00ca 49       		.uleb128 0x49
 871 00cb 13       		.uleb128 0x13
 872 00cc 00       		.byte	0
 873 00cd 00       		.byte	0
 874 00ce 11       		.uleb128 0x11
 875 00cf 0D       		.uleb128 0xd
 876 00d0 00       		.byte	0
 877 00d1 03       		.uleb128 0x3
 878 00d2 0E       		.uleb128 0xe
 879 00d3 3A       		.uleb128 0x3a
 880 00d4 0B       		.uleb128 0xb
 881 00d5 3B       		.uleb128 0x3b
 882 00d6 05       		.uleb128 0x5
 883 00d7 49       		.uleb128 0x49
 884 00d8 13       		.uleb128 0x13
 885 00d9 00       		.byte	0
 886 00da 00       		.byte	0
 887 00db 12       		.uleb128 0x12
 888 00dc 13       		.uleb128 0x13
 889 00dd 01       		.byte	0x1
 890 00de 0B       		.uleb128 0xb
 891 00df 0B       		.uleb128 0xb
 892 00e0 3A       		.uleb128 0x3a
 893 00e1 0B       		.uleb128 0xb
 894 00e2 3B       		.uleb128 0x3b
 895 00e3 05       		.uleb128 0x5
 896 00e4 01       		.uleb128 0x1
 897 00e5 13       		.uleb128 0x13
 898 00e6 00       		.byte	0
 899 00e7 00       		.byte	0
 900 00e8 13       		.uleb128 0x13
 901 00e9 01       		.uleb128 0x1
 902 00ea 01       		.byte	0x1
 903 00eb 49       		.uleb128 0x49
 904 00ec 13       		.uleb128 0x13
 905 00ed 01       		.uleb128 0x1
 906 00ee 13       		.uleb128 0x13
 907 00ef 00       		.byte	0
 908 00f0 00       		.byte	0
 909 00f1 14       		.uleb128 0x14
 910 00f2 21       		.uleb128 0x21
 911 00f3 00       		.byte	0
 912 00f4 49       		.uleb128 0x49
ARM GAS  /tmp/ccnqwe41.s 			page 17


 913 00f5 13       		.uleb128 0x13
 914 00f6 2F       		.uleb128 0x2f
 915 00f7 0B       		.uleb128 0xb
 916 00f8 00       		.byte	0
 917 00f9 00       		.byte	0
 918 00fa 15       		.uleb128 0x15
 919 00fb 2E       		.uleb128 0x2e
 920 00fc 01       		.byte	0x1
 921 00fd 3F       		.uleb128 0x3f
 922 00fe 0C       		.uleb128 0xc
 923 00ff 03       		.uleb128 0x3
 924 0100 0E       		.uleb128 0xe
 925 0101 3A       		.uleb128 0x3a
 926 0102 0B       		.uleb128 0xb
 927 0103 3B       		.uleb128 0x3b
 928 0104 0B       		.uleb128 0xb
 929 0105 27       		.uleb128 0x27
 930 0106 0C       		.uleb128 0xc
 931 0107 11       		.uleb128 0x11
 932 0108 01       		.uleb128 0x1
 933 0109 12       		.uleb128 0x12
 934 010a 01       		.uleb128 0x1
 935 010b 40       		.uleb128 0x40
 936 010c 06       		.uleb128 0x6
 937 010d 9742     		.uleb128 0x2117
 938 010f 0C       		.uleb128 0xc
 939 0110 01       		.uleb128 0x1
 940 0111 13       		.uleb128 0x13
 941 0112 00       		.byte	0
 942 0113 00       		.byte	0
 943 0114 16       		.uleb128 0x16
 944 0115 05       		.uleb128 0x5
 945 0116 00       		.byte	0
 946 0117 03       		.uleb128 0x3
 947 0118 08       		.uleb128 0x8
 948 0119 3A       		.uleb128 0x3a
 949 011a 0B       		.uleb128 0xb
 950 011b 3B       		.uleb128 0x3b
 951 011c 0B       		.uleb128 0xb
 952 011d 49       		.uleb128 0x49
 953 011e 13       		.uleb128 0x13
 954 011f 02       		.uleb128 0x2
 955 0120 06       		.uleb128 0x6
 956 0121 00       		.byte	0
 957 0122 00       		.byte	0
 958 0123 17       		.uleb128 0x17
 959 0124 34       		.uleb128 0x34
 960 0125 00       		.byte	0
 961 0126 03       		.uleb128 0x3
 962 0127 08       		.uleb128 0x8
 963 0128 3A       		.uleb128 0x3a
 964 0129 0B       		.uleb128 0xb
 965 012a 3B       		.uleb128 0x3b
 966 012b 0B       		.uleb128 0xb
 967 012c 49       		.uleb128 0x49
 968 012d 13       		.uleb128 0x13
 969 012e 02       		.uleb128 0x2
ARM GAS  /tmp/ccnqwe41.s 			page 18


 970 012f 06       		.uleb128 0x6
 971 0130 00       		.byte	0
 972 0131 00       		.byte	0
 973 0132 18       		.uleb128 0x18
 974 0133 0B       		.uleb128 0xb
 975 0134 01       		.byte	0x1
 976 0135 55       		.uleb128 0x55
 977 0136 06       		.uleb128 0x6
 978 0137 00       		.byte	0
 979 0138 00       		.byte	0
 980 0139 19       		.uleb128 0x19
 981 013a 34       		.uleb128 0x34
 982 013b 00       		.byte	0
 983 013c 03       		.uleb128 0x3
 984 013d 08       		.uleb128 0x8
 985 013e 3A       		.uleb128 0x3a
 986 013f 0B       		.uleb128 0xb
 987 0140 3B       		.uleb128 0x3b
 988 0141 0B       		.uleb128 0xb
 989 0142 49       		.uleb128 0x49
 990 0143 13       		.uleb128 0x13
 991 0144 02       		.uleb128 0x2
 992 0145 0A       		.uleb128 0xa
 993 0146 00       		.byte	0
 994 0147 00       		.byte	0
 995 0148 1A       		.uleb128 0x1a
 996 0149 898201   		.uleb128 0x4109
 997 014c 00       		.byte	0
 998 014d 11       		.uleb128 0x11
 999 014e 01       		.uleb128 0x1
 1000 014f 31       		.uleb128 0x31
 1001 0150 13       		.uleb128 0x13
 1002 0151 00       		.byte	0
 1003 0152 00       		.byte	0
 1004 0153 1B       		.uleb128 0x1b
 1005 0154 898201   		.uleb128 0x4109
 1006 0157 01       		.byte	0x1
 1007 0158 11       		.uleb128 0x11
 1008 0159 01       		.uleb128 0x1
 1009 015a 31       		.uleb128 0x31
 1010 015b 13       		.uleb128 0x13
 1011 015c 00       		.byte	0
 1012 015d 00       		.byte	0
 1013 015e 1C       		.uleb128 0x1c
 1014 015f 8A8201   		.uleb128 0x410a
 1015 0162 00       		.byte	0
 1016 0163 02       		.uleb128 0x2
 1017 0164 0A       		.uleb128 0xa
 1018 0165 9142     		.uleb128 0x2111
 1019 0167 0A       		.uleb128 0xa
 1020 0168 00       		.byte	0
 1021 0169 00       		.byte	0
 1022 016a 1D       		.uleb128 0x1d
 1023 016b 34       		.uleb128 0x34
 1024 016c 00       		.byte	0
 1025 016d 03       		.uleb128 0x3
 1026 016e 08       		.uleb128 0x8
ARM GAS  /tmp/ccnqwe41.s 			page 19


 1027 016f 3A       		.uleb128 0x3a
 1028 0170 0B       		.uleb128 0xb
 1029 0171 3B       		.uleb128 0x3b
 1030 0172 05       		.uleb128 0x5
 1031 0173 49       		.uleb128 0x49
 1032 0174 13       		.uleb128 0x13
 1033 0175 3F       		.uleb128 0x3f
 1034 0176 0C       		.uleb128 0xc
 1035 0177 3C       		.uleb128 0x3c
 1036 0178 0C       		.uleb128 0xc
 1037 0179 00       		.byte	0
 1038 017a 00       		.byte	0
 1039 017b 1E       		.uleb128 0x1e
 1040 017c 2E       		.uleb128 0x2e
 1041 017d 01       		.byte	0x1
 1042 017e 3F       		.uleb128 0x3f
 1043 017f 0C       		.uleb128 0xc
 1044 0180 03       		.uleb128 0x3
 1045 0181 0E       		.uleb128 0xe
 1046 0182 3A       		.uleb128 0x3a
 1047 0183 0B       		.uleb128 0xb
 1048 0184 3B       		.uleb128 0x3b
 1049 0185 05       		.uleb128 0x5
 1050 0186 27       		.uleb128 0x27
 1051 0187 0C       		.uleb128 0xc
 1052 0188 49       		.uleb128 0x49
 1053 0189 13       		.uleb128 0x13
 1054 018a 3C       		.uleb128 0x3c
 1055 018b 0C       		.uleb128 0xc
 1056 018c 00       		.byte	0
 1057 018d 00       		.byte	0
 1058 018e 1F       		.uleb128 0x1f
 1059 018f 05       		.uleb128 0x5
 1060 0190 00       		.byte	0
 1061 0191 49       		.uleb128 0x49
 1062 0192 13       		.uleb128 0x13
 1063 0193 00       		.byte	0
 1064 0194 00       		.byte	0
 1065 0195 00       		.byte	0
 1066              		.section	.debug_loc,"",%progbits
 1067              	.Ldebug_loc0:
 1068              	.LLST0:
 1069 0000 00000000 		.4byte	.LFB71
 1070 0004 04000000 		.4byte	.LCFI0
 1071 0008 0200     		.2byte	0x2
 1072 000a 7D       		.byte	0x7d
 1073 000b 00       		.sleb128 0
 1074 000c 04000000 		.4byte	.LCFI0
 1075 0010 28000000 		.4byte	.LFE71
 1076 0014 0200     		.2byte	0x2
 1077 0016 7D       		.byte	0x7d
 1078 0017 08       		.sleb128 8
 1079 0018 00000000 		.4byte	0
 1080 001c 00000000 		.4byte	0
 1081              	.LLST1:
 1082 0020 00000000 		.4byte	.LVL0
 1083 0024 0C000000 		.4byte	.LVL1
ARM GAS  /tmp/ccnqwe41.s 			page 20


 1084 0028 0100     		.2byte	0x1
 1085 002a 50       		.byte	0x50
 1086 002b 0C000000 		.4byte	.LVL1
 1087 002f 21000000 		.4byte	.LVL2-1
 1088 0033 0100     		.2byte	0x1
 1089 0035 52       		.byte	0x52
 1090 0036 21000000 		.4byte	.LVL2-1
 1091 003a 28000000 		.4byte	.LFE71
 1092 003e 0400     		.2byte	0x4
 1093 0040 F3       		.byte	0xf3
 1094 0041 01       		.uleb128 0x1
 1095 0042 50       		.byte	0x50
 1096 0043 9F       		.byte	0x9f
 1097 0044 00000000 		.4byte	0
 1098 0048 00000000 		.4byte	0
 1099              	.LLST2:
 1100 004c 00000000 		.4byte	.LVL0
 1101 0050 21000000 		.4byte	.LVL2-1
 1102 0054 0100     		.2byte	0x1
 1103 0056 51       		.byte	0x51
 1104 0057 21000000 		.4byte	.LVL2-1
 1105 005b 28000000 		.4byte	.LFE71
 1106 005f 0400     		.2byte	0x4
 1107 0061 F3       		.byte	0xf3
 1108 0062 01       		.uleb128 0x1
 1109 0063 51       		.byte	0x51
 1110 0064 9F       		.byte	0x9f
 1111 0065 00000000 		.4byte	0
 1112 0069 00000000 		.4byte	0
 1113              	.LLST4:
 1114 006d 00000000 		.4byte	.LFB72
 1115 0071 02000000 		.4byte	.LCFI1
 1116 0075 0200     		.2byte	0x2
 1117 0077 7D       		.byte	0x7d
 1118 0078 00       		.sleb128 0
 1119 0079 02000000 		.4byte	.LCFI1
 1120 007d 2C000000 		.4byte	.LFE72
 1121 0081 0200     		.2byte	0x2
 1122 0083 7D       		.byte	0x7d
 1123 0084 18       		.sleb128 24
 1124 0085 00000000 		.4byte	0
 1125 0089 00000000 		.4byte	0
 1126              	.LLST5:
 1127 008d 00000000 		.4byte	.LVL3
 1128 0091 0E000000 		.4byte	.LVL5
 1129 0095 0100     		.2byte	0x1
 1130 0097 50       		.byte	0x50
 1131 0098 0E000000 		.4byte	.LVL5
 1132 009c 26000000 		.4byte	.LVL11
 1133 00a0 0100     		.2byte	0x1
 1134 00a2 56       		.byte	0x56
 1135 00a3 26000000 		.4byte	.LVL11
 1136 00a7 2C000000 		.4byte	.LFE72
 1137 00ab 0400     		.2byte	0x4
 1138 00ad F3       		.byte	0xf3
 1139 00ae 01       		.uleb128 0x1
 1140 00af 50       		.byte	0x50
ARM GAS  /tmp/ccnqwe41.s 			page 21


 1141 00b0 9F       		.byte	0x9f
 1142 00b1 00000000 		.4byte	0
 1143 00b5 00000000 		.4byte	0
 1144              	.LLST6:
 1145 00b9 00000000 		.4byte	.LVL3
 1146 00bd 0E000000 		.4byte	.LVL5
 1147 00c1 0100     		.2byte	0x1
 1148 00c3 51       		.byte	0x51
 1149 00c4 0E000000 		.4byte	.LVL5
 1150 00c8 26000000 		.4byte	.LVL12
 1151 00cc 0100     		.2byte	0x1
 1152 00ce 57       		.byte	0x57
 1153 00cf 26000000 		.4byte	.LVL12
 1154 00d3 2C000000 		.4byte	.LFE72
 1155 00d7 0400     		.2byte	0x4
 1156 00d9 F3       		.byte	0xf3
 1157 00da 01       		.uleb128 0x1
 1158 00db 51       		.byte	0x51
 1159 00dc 9F       		.byte	0x9f
 1160 00dd 00000000 		.4byte	0
 1161 00e1 00000000 		.4byte	0
 1162              	.LLST8:
 1163 00e5 0E000000 		.4byte	.LVL5
 1164 00e9 26000000 		.4byte	.LVL9
 1165 00ed 0100     		.2byte	0x1
 1166 00ef 54       		.byte	0x54
 1167 00f0 00000000 		.4byte	0
 1168 00f4 00000000 		.4byte	0
 1169              	.LLST9:
 1170 00f8 08000000 		.4byte	.LVL4
 1171 00fc 26000000 		.4byte	.LVL10
 1172 0100 0100     		.2byte	0x1
 1173 0102 55       		.byte	0x55
 1174 0103 00000000 		.4byte	0
 1175 0107 00000000 		.4byte	0
 1176              		.section	.debug_aranges,"",%progbits
 1177 0000 24000000 		.4byte	0x24
 1178 0004 0200     		.2byte	0x2
 1179 0006 00000000 		.4byte	.Ldebug_info0
 1180 000a 04       		.byte	0x4
 1181 000b 00       		.byte	0
 1182 000c 0000     		.2byte	0
 1183 000e 0000     		.2byte	0
 1184 0010 00000000 		.4byte	.LFB71
 1185 0014 28000000 		.4byte	.LFE71-.LFB71
 1186 0018 00000000 		.4byte	.LFB72
 1187 001c 2C000000 		.4byte	.LFE72-.LFB72
 1188 0020 00000000 		.4byte	0
 1189 0024 00000000 		.4byte	0
 1190              		.section	.debug_ranges,"",%progbits
 1191              	.Ldebug_ranges0:
 1192 0000 10000000 		.4byte	.LBB2
 1193 0004 14000000 		.4byte	.LBE2
 1194 0008 1A000000 		.4byte	.LBB3
 1195 000c 22000000 		.4byte	.LBE3
 1196 0010 00000000 		.4byte	0
 1197 0014 00000000 		.4byte	0
ARM GAS  /tmp/ccnqwe41.s 			page 22


 1198 0018 00000000 		.4byte	.LFB71
 1199 001c 28000000 		.4byte	.LFE71
 1200 0020 00000000 		.4byte	.LFB72
 1201 0024 2C000000 		.4byte	.LFE72
 1202 0028 00000000 		.4byte	0
 1203 002c 00000000 		.4byte	0
 1204              		.section	.debug_line,"",%progbits
 1205              	.Ldebug_line0:
 1206 0000 7E010000 		.section	.debug_str,"MS",%progbits,1
 1206      02003B01 
 1206      00000201 
 1206      FB0E0D00 
 1206      01010101 
 1207              	.LASF37:
 1208 0000 74687265 		.ascii	"threads_queue_t\000"
 1208      6164735F 
 1208      71756575 
 1208      655F7400 
 1209              	.LASF16:
 1210 0010 65706D61 		.ascii	"epmask\000"
 1210      736B00
 1211              	.LASF39:
 1212 0017 6F73616C 		.ascii	"osalQueueWakeupAllI\000"
 1212      51756575 
 1212      6557616B 
 1212      65757041 
 1212      6C6C4900 
 1213              	.LASF14:
 1214 002b 73746174 		.ascii	"state\000"
 1214      6500
 1215              	.LASF3:
 1216 0031 73686F72 		.ascii	"short int\000"
 1216      7420696E 
 1216      7400
 1217              	.LASF21:
 1218 003b 73697A65 		.ascii	"sizetype\000"
 1218      74797065 
 1218      00
 1219              	.LASF36:
 1220 0044 6E696C5F 		.ascii	"nil_system_t\000"
 1220      73797374 
 1220      656D5F74 
 1220      00
 1221              	.LASF19:
 1222 0051 6576656E 		.ascii	"eventmask_t\000"
 1222      746D6173 
 1222      6B5F7400 
 1223              	.LASF24:
 1224 005d 6E696C5F 		.ascii	"nil_thread\000"
 1224      74687265 
 1224      616400
 1225              	.LASF23:
 1226 0068 72656761 		.ascii	"regarm_t\000"
 1226      726D5F74 
 1226      00
 1227              	.LASF4:
 1228 0071 75696E74 		.ascii	"uint8_t\000"
ARM GAS  /tmp/ccnqwe41.s 			page 23


 1228      385F7400 
 1229              	.LASF27:
 1230 0079 73656D61 		.ascii	"semaphore_t\000"
 1230      70686F72 
 1230      655F7400 
 1231              	.LASF34:
 1232 0085 73797374 		.ascii	"systime\000"
 1232      696D6500 
 1233              	.LASF35:
 1234 008d 74687265 		.ascii	"threads\000"
 1234      61647300 
 1235              	.LASF11:
 1236 0095 6C6F6E67 		.ascii	"long long int\000"
 1236      206C6F6E 
 1236      6720696E 
 1236      7400
 1237              	.LASF8:
 1238 00a3 6C6F6E67 		.ascii	"long int\000"
 1238      20696E74 
 1238      00
 1239              	.LASF13:
 1240 00ac 63747870 		.ascii	"ctxp\000"
 1240      00
 1241              	.LASF42:
 1242 00b1 2F6D6564 		.ascii	"/media/data/src/OpenTCS/code\000"
 1242      69612F64 
 1242      6174612F 
 1242      7372632F 
 1242      4F70656E 
 1243              	.LASF40:
 1244 00ce 474E5520 		.ascii	"GNU C 4.7.3 20130312 (release) [ARM/embedded-4_7-br"
 1244      4320342E 
 1244      372E3320 
 1244      32303133 
 1244      30333132 
 1245 0101 616E6368 		.ascii	"anch revision 196615]\000"
 1245      20726576 
 1245      6973696F 
 1245      6E203139 
 1245      36363135 
 1246              	.LASF2:
 1247 0117 756E7369 		.ascii	"unsigned char\000"
 1247      676E6564 
 1247      20636861 
 1247      7200
 1248              	.LASF31:
 1249 0125 65776D61 		.ascii	"ewmask\000"
 1249      736B00
 1250              	.LASF1:
 1251 012c 7369676E 		.ascii	"signed char\000"
 1251      65642063 
 1251      68617200 
 1252              	.LASF12:
 1253 0138 6C6F6E67 		.ascii	"long long unsigned int\000"
 1253      206C6F6E 
 1253      6720756E 
 1253      7369676E 
ARM GAS  /tmp/ccnqwe41.s 			page 24


 1253      65642069 
 1254              	.LASF9:
 1255 014f 75696E74 		.ascii	"uint32_t\000"
 1255      33325F74 
 1255      00
 1256              	.LASF5:
 1257 0158 75696E74 		.ascii	"uint16_t\000"
 1257      31365F74 
 1257      00
 1258              	.LASF32:
 1259 0161 63757272 		.ascii	"current\000"
 1259      656E7400 
 1260              	.LASF38:
 1261 0169 6F73616C 		.ascii	"osalQueueWakeupOneI\000"
 1261      51756575 
 1261      6557616B 
 1261      6575704F 
 1261      6E654900 
 1262              	.LASF6:
 1263 017d 73686F72 		.ascii	"short unsigned int\000"
 1263      7420756E 
 1263      7369676E 
 1263      65642069 
 1263      6E7400
 1264              	.LASF22:
 1265 0190 73797374 		.ascii	"systime_t\000"
 1265      696D655F 
 1265      7400
 1266              	.LASF28:
 1267 019a 63686172 		.ascii	"char\000"
 1267      00
 1268              	.LASF7:
 1269 019f 696E7433 		.ascii	"int32_t\000"
 1269      325F7400 
 1270              	.LASF20:
 1271 01a7 636E745F 		.ascii	"cnt_t\000"
 1271      7400
 1272              	.LASF10:
 1273 01ad 6C6F6E67 		.ascii	"long unsigned int\000"
 1273      20756E73 
 1273      69676E65 
 1273      6420696E 
 1273      7400
 1274              	.LASF43:
 1275 01bf 63685363 		.ascii	"chSchReadyI\000"
 1275      68526561 
 1275      64794900 
 1276              	.LASF25:
 1277 01cb 706F7274 		.ascii	"port_intctx\000"
 1277      5F696E74 
 1277      63747800 
 1278              	.LASF30:
 1279 01d7 73656D70 		.ascii	"semp\000"
 1279      00
 1280              	.LASF29:
 1281 01dc 74687265 		.ascii	"thread_reference_t\000"
 1281      61645F72 
ARM GAS  /tmp/ccnqwe41.s 			page 25


 1281      65666572 
 1281      656E6365 
 1281      5F7400
 1282              	.LASF17:
 1283 01ef 74737461 		.ascii	"tstate_t\000"
 1283      74655F74 
 1283      00
 1284              	.LASF26:
 1285 01f8 696E7463 		.ascii	"intctx_t\000"
 1285      74785F74 
 1285      00
 1286              	.LASF41:
 1287 0201 2E2F6F73 		.ascii	"./os/nil/osal/osal.c\000"
 1287      2F6E696C 
 1287      2F6F7361 
 1287      6C2F6F73 
 1287      616C2E63 
 1288              	.LASF0:
 1289 0216 756E7369 		.ascii	"unsigned int\000"
 1289      676E6564 
 1289      20696E74 
 1289      00
 1290              	.LASF18:
 1291 0223 6D73675F 		.ascii	"msg_t\000"
 1291      7400
 1292              	.LASF15:
 1293 0229 74696D65 		.ascii	"timeout\000"
 1293      6F757400 
 1294              	.LASF33:
 1295 0231 6E657874 		.ascii	"next\000"
 1295      00
 1296              		.ident	"GCC: (GNU Tools for ARM Embedded Processors) 4.7.3 20130312 (release) [ARM/embedded-4_7-br
ARM GAS  /tmp/ccnqwe41.s 			page 26


DEFINED SYMBOLS
                            *ABS*:00000000 osal.c
     /tmp/ccnqwe41.s:18     .text.osalQueueWakeupOneI:00000000 $t
     /tmp/ccnqwe41.s:23     .text.osalQueueWakeupOneI:00000000 osalQueueWakeupOneI
     /tmp/ccnqwe41.s:72     .text.osalQueueWakeupOneI:00000024 $d
     /tmp/ccnqwe41.s:77     .text.osalQueueWakeupAllI:00000000 $t
     /tmp/ccnqwe41.s:82     .text.osalQueueWakeupAllI:00000000 osalQueueWakeupAllI
     /tmp/ccnqwe41.s:143    .text.osalQueueWakeupAllI:00000028 $d
                     .debug_frame:00000010 $d

UNDEFINED SYMBOLS
chSchReadyI
nil
