ARM GAS  /tmp/ccnqwe41.s 			page 1


   1              		.cpu cortex-m0
   2              		.fpu softvfp
   3              		.eabi_attribute 20, 1
   4              		.eabi_attribute 21, 1
   5              		.eabi_attribute 23, 3
   6              		.eabi_attribute 24, 1
   7              		.eabi_attribute 25, 1
   8              		.eabi_attribute 26, 1
   9              		.eabi_attribute 30, 4
  10              		.eabi_attribute 34, 0
  11              		.eabi_attribute 18, 4
  12              		.code	16
  13              		.file	"osal.c"
  14              		.text
  15              	.Ltext0:
  16              		.cfi_sections	.debug_frame
  17              		.section	.text.osalQueueWakeupOneI,"ax",%progbits
  18              		.align	1
  19              		.global	osalQueueWakeupOneI
  20              		.code	16
  21              		.thumb_func
  22              		.type	osalQueueWakeupOneI, %function
  23              	osalQueueWakeupOneI:
  24              	.LFB71:
  25              		.file 1 "./os/nil/osal/osal.c"
  26              		.loc 1 63 0
  27              		.cfi_startproc
  28              	.LVL0:
  29              		.loc 1 66 0
  30 0000 0368     		ldr	r3, [r0]
  31              		.loc 1 63 0
  32 0002 10B5     		push	{r4, lr}
  33              	.LCFI0:
  34              		.cfi_def_cfa_offset 8
  35              		.cfi_offset 4, -8
  36              		.cfi_offset 14, -4
  37              		.loc 1 63 0
  38 0004 021C     		mov	r2, r0
  39              		.loc 1 66 0
  40 0006 002B     		cmp	r3, #0
  41 0008 0BDA     		bge	.L1
  42 000a 0023     		mov	r3, #0
  43              	.LVL1:
  44              	.L3:
  45              		.loc 1 63 0
  46 000c 054C     		ldr	r4, .L6
  47 000e 201C     		mov	r0, r4
  48              	.LBB2:
  49 0010 1C19     		add	r4, r3, r4
  50              		.loc 1 70 0
  51 0012 6469     		ldr	r4, [r4, #20]
  52              	.LBE2:
  53              		.loc 1 63 0
  54 0014 0C30     		add	r0, r0, #12
  55 0016 C018     		add	r0, r0, r3
  56 0018 1433     		add	r3, r3, #20
  57              	.LBB3:
ARM GAS  /tmp/ccnqwe41.s 			page 2


  58              		.loc 1 70 0
  59 001a 9442     		cmp	r4, r2
  60 001c F6D1     		bne	.L3
  61              		.loc 1 74 0
  62 001e FFF7FEFF 		bl	chSchReadyI
  63              	.LVL2:
  64              	.L1:
  65              	.LBE3:
  66              		.loc 1 83 0
  67              		@ sp needed for prologue
  68 0022 10BD     		pop	{r4, pc}
  69              	.L7:
  70              		.align	2
  71              	.L6:
  72 0024 00000000 		.word	nil
  73              		.cfi_endproc
  74              	.LFE71:
  75              		.size	osalQueueWakeupOneI, .-osalQueueWakeupOneI
  76              		.section	.text.osalQueueWakeupAllI,"ax",%progbits
  77              		.align	1
  78              		.global	osalQueueWakeupAllI
  79              		.code	16
  80              		.thumb_func
  81              		.type	osalQueueWakeupAllI, %function
  82              	osalQueueWakeupAllI:
  83              	.LFB72:
  84              		.loc 1 93 0
  85              		.cfi_startproc
  86              	.LVL3:
  87 0000 F8B5     		push	{r3, r4, r5, r6, r7, lr}
  88              	.LCFI1:
  89              		.cfi_def_cfa_offset 24
  90              		.cfi_offset 3, -24
  91              		.cfi_offset 4, -20
  92              		.cfi_offset 5, -16
  93              		.cfi_offset 6, -12
  94              		.cfi_offset 7, -8
  95              		.cfi_offset 14, -4
  96              		.loc 1 99 0
  97 0002 0023     		mov	r3, #0
  98              		.loc 1 100 0
  99 0004 084C     		ldr	r4, .L13
 100              		.loc 1 98 0
 101 0006 0568     		ldr	r5, [r0]
 102              	.LVL4:
 103              		.loc 1 93 0
 104 0008 061C     		mov	r6, r0
 105 000a 0F1C     		mov	r7, r1
 106              		.loc 1 99 0
 107 000c 0360     		str	r3, [r0]
 108              	.LVL5:
 109              	.L9:
 110              		.loc 1 101 0 discriminator 1
 111 000e 002D     		cmp	r5, #0
 112 0010 09DA     		bge	.L12
 113              	.L11:
 114              		.loc 1 103 0
ARM GAS  /tmp/ccnqwe41.s 			page 3


 115 0012 A068     		ldr	r0, [r4, #8]
 116 0014 B042     		cmp	r0, r6
 117 0016 04D1     		bne	.L10
 118              		.loc 1 108 0
 119 0018 201C     		mov	r0, r4
 120 001a 391C     		mov	r1, r7
 121              		.loc 1 107 0
 122 001c 0135     		add	r5, r5, #1
 123              	.LVL6:
 124              		.loc 1 108 0
 125 001e FFF7FEFF 		bl	chSchReadyI
 126              	.LVL7:
 127              	.L10:
 128              		.loc 1 110 0
 129 0022 1434     		add	r4, r4, #20
 130              	.LVL8:
 131 0024 F3E7     		b	.L9
 132              	.L12:
 133              		.loc 1 115 0
 134              		@ sp needed for prologue
 135              	.LVL9:
 136              	.LVL10:
 137              	.LVL11:
 138              	.LVL12:
 139 0026 F8BD     		pop	{r3, r4, r5, r6, r7, pc}
 140              	.L14:
 141              		.align	2
 142              	.L13:
 143 0028 0C000000 		.word	nil+12
 144              		.cfi_endproc
 145              	.LFE72:
 146              		.size	osalQueueWakeupAllI, .-osalQueueWakeupAllI
 147              		.text
 148              	.Letext0:
 149              		.file 2 "/media/data/src/x-tools/gcc-arm-none-eabi-4_7-2013q1/bin/../lib/gcc/arm-none-eabi/4.7.3/.
 150              		.file 3 "./os/nil/include/nil.h"
 151              		.file 4 "./os/nil/ports/ARMCMx/compilers/GCC/niltypes.h"
 152              		.file 5 "./os/nil/ports/ARMCMx/nilcore.h"
 153              		.file 6 "./os/nil/ports/ARMCMx/nilcore_v6m.h"
 154              		.file 7 "./os/nil/osal/osal.h"