ARM GAS  /tmp/ccdPBZWv.s 			page 1


   1              		.cpu cortex-m0
   2              		.fpu softvfp
   3              		.eabi_attribute 20, 1
   4              		.eabi_attribute 21, 1
   5              		.eabi_attribute 23, 3
   6              		.eabi_attribute 24, 1
   7              		.eabi_attribute 25, 1
   8              		.eabi_attribute 26, 1
   9              		.eabi_attribute 30, 4
  10              		.eabi_attribute 34, 0
  11              		.eabi_attribute 18, 4
  12              		.code	16
  13              		.file	"pal.c"
  14              		.text
  15              	.Ltext0:
  16              		.cfi_sections	.debug_frame
  17              		.section	.text.palReadBus,"ax",%progbits
  18              		.align	1
  19              		.global	palReadBus
  20              		.code	16
  21              		.thumb_func
  22              		.type	palReadBus, %function
  23              	palReadBus:
  24              	.LFB77:
  25              		.file 1 "./os/hal/src/pal.c"
  26              		.loc 1 69 0
  27              		.cfi_startproc
  28              	.LVL0:
  29              		.loc 1 73 0
  30 0000 0368     		ldr	r3, [r0]
  31 0002 8268     		ldr	r2, [r0, #8]
  32 0004 1969     		ldr	r1, [r3, #16]
  33 0006 4068     		ldr	r0, [r0, #4]
  34              	.LVL1:
  35 0008 D140     		lsr	r1, r1, r2
  36 000a 0840     		and	r0, r1
  37              		.loc 1 74 0
  38              		@ sp needed for prologue
  39 000c 7047     		bx	lr
  40              		.cfi_endproc
  41              	.LFE77:
  42              		.size	palReadBus, .-palReadBus
  43              		.section	.text.palWriteBus,"ax",%progbits
  44              		.align	1
  45              		.global	palWriteBus
  46              		.code	16
  47              		.thumb_func
  48              		.type	palWriteBus, %function
  49              	palWriteBus:
  50              	.LFB78:
  51              		.loc 1 94 0
  52              		.cfi_startproc
  53              	.LVL2:
  54              		.loc 1 98 0
  55 0000 4268     		ldr	r2, [r0, #4]
  56 0002 8368     		ldr	r3, [r0, #8]
  57              		.loc 1 94 0
ARM GAS  /tmp/ccdPBZWv.s 			page 2


  58 0004 30B5     		push	{r4, r5, lr}
  59              	.LCFI0:
  60              		.cfi_def_cfa_offset 12
  61              		.cfi_offset 4, -12
  62              		.cfi_offset 5, -8
  63              		.cfi_offset 14, -4
  64              		.loc 1 98 0
  65 0006 0468     		ldr	r4, [r0]
  66 0008 151C     		mov	r5, r2
  67 000a 181C     		mov	r0, r3
  68              	.LVL3:
  69 000c 8D43     		bic	r5, r1
  70 000e 1030     		add	r0, r0, #16
  71 0010 1140     		and	r1, r2
  72              	.LVL4:
  73 0012 8540     		lsl	r5, r5, r0
  74 0014 9940     		lsl	r1, r1, r3
  75 0016 2943     		orr	r1, r5
  76 0018 A161     		str	r1, [r4, #24]
  77              		.loc 1 99 0
  78              		@ sp needed for prologue
  79 001a 30BD     		pop	{r4, r5, pc}
  80              		.cfi_endproc
  81              	.LFE78:
  82              		.size	palWriteBus, .-palWriteBus
  83              		.section	.text.palSetBusMode,"ax",%progbits
  84              		.align	1
  85              		.global	palSetBusMode
  86              		.code	16
  87              		.thumb_func
  88              		.type	palSetBusMode, %function
  89              	palSetBusMode:
  90              	.LFB79:
  91              		.loc 1 117 0
  92              		.cfi_startproc
  93              	.LVL5:
  94 0000 08B5     		push	{r3, lr}
  95              	.LCFI1:
  96              		.cfi_def_cfa_offset 8
  97              		.cfi_offset 3, -8
  98              		.cfi_offset 14, -4
  99              		.loc 1 117 0
 100 0002 031C     		mov	r3, r0
 101 0004 0A1C     		mov	r2, r1
 102              		.loc 1 121 0
 103 0006 5968     		ldr	r1, [r3, #4]
 104              	.LVL6:
 105 0008 9B68     		ldr	r3, [r3, #8]
 106 000a 0068     		ldr	r0, [r0]
 107              	.LVL7:
 108 000c 9940     		lsl	r1, r1, r3
 109 000e FFF7FEFF 		bl	_pal_lld_setgroupmode
 110              	.LVL8:
 111              		.loc 1 122 0
 112              		@ sp needed for prologue
 113 0012 08BD     		pop	{r3, pc}
 114              		.cfi_endproc
ARM GAS  /tmp/ccdPBZWv.s 			page 3


 115              	.LFE79:
 116              		.size	palSetBusMode, .-palSetBusMode
 117              		.text
 118              	.Letext0:
 119              		.file 2 "/media/data/src/x-tools/gcc-arm-none-eabi-4_7-2013q1/bin/../lib/gcc/arm-none-eabi/4.7.3/.
 120              		.file 3 "./os/nil/include/nil.h"
 121              		.file 4 "./os/nil/ports/ARMCMx/compilers/GCC/niltypes.h"
 122              		.file 5 "./os/nil/ports/ARMCMx/nilcore.h"
 123              		.file 6 "./os/nil/ports/ARMCMx/nilcore_v6m.h"
 124              		.file 7 "./os/hal/ports/STM32/GPIOv2/pal_lld.h"
 125              		.file 8 "./os/hal/include/pal.h"