ARM GAS  /tmp/ccnDAJii.s 			page 1


   1              		.cpu cortex-m0
   2              		.fpu softvfp
   3              		.eabi_attribute 20, 1
   4              		.eabi_attribute 21, 1
   5              		.eabi_attribute 23, 3
   6              		.eabi_attribute 24, 1
   7              		.eabi_attribute 25, 1
   8              		.eabi_attribute 26, 1
   9              		.eabi_attribute 30, 4
  10              		.eabi_attribute 34, 0
  11              		.eabi_attribute 18, 4
  12              		.code	16
  13              		.file	"pal_lld.c"
  14              		.text
  15              	.Ltext0:
  16              		.cfi_sections	.debug_frame
  17              		.section	.text.initgpio,"ax",%progbits
  18              		.align	1
  19              		.code	16
  20              		.thumb_func
  21              		.type	initgpio, %function
  22              	initgpio:
  23              	.LFB77:
  24              		.file 1 "./os/hal/ports/STM32/GPIOv2/pal_lld.c"
  25              		.loc 1 76 0
  26              		.cfi_startproc
  27              	.LVL0:
  28              		.loc 1 78 0
  29 0000 4B68     		ldr	r3, [r1, #4]
  30              		.loc 1 79 0
  31 0002 8A68     		ldr	r2, [r1, #8]
  32              		.loc 1 78 0
  33 0004 4360     		str	r3, [r0, #4]
  34              		.loc 1 80 0
  35 0006 CB68     		ldr	r3, [r1, #12]
  36              		.loc 1 79 0
  37 0008 8260     		str	r2, [r0, #8]
  38              		.loc 1 81 0
  39 000a 0A69     		ldr	r2, [r1, #16]
  40              		.loc 1 80 0
  41 000c C360     		str	r3, [r0, #12]
  42              		.loc 1 81 0
  43 000e 4261     		str	r2, [r0, #20]
  44              		.loc 1 82 0
  45 0010 4B69     		ldr	r3, [r1, #20]
  46              		.loc 1 83 0
  47 0012 8A69     		ldr	r2, [r1, #24]
  48              		.loc 1 84 0
  49 0014 0968     		ldr	r1, [r1]
  50              	.LVL1:
  51              		.loc 1 82 0
  52 0016 0362     		str	r3, [r0, #32]
  53              		.loc 1 85 0
  54              		@ sp needed for prologue
  55              		.loc 1 83 0
  56 0018 4262     		str	r2, [r0, #36]
  57              		.loc 1 84 0
ARM GAS  /tmp/ccnDAJii.s 			page 2


  58 001a 0160     		str	r1, [r0]
  59              		.loc 1 85 0
  60 001c 7047     		bx	lr
  61              		.cfi_endproc
  62              	.LFE77:
  63              		.size	initgpio, .-initgpio
  64              		.section	.text._pal_lld_init,"ax",%progbits
  65              		.align	1
  66              		.global	_pal_lld_init
  67              		.code	16
  68              		.thumb_func
  69              		.type	_pal_lld_init, %function
  70              	_pal_lld_init:
  71              	.LFB78:
  72              		.loc 1 103 0
  73              		.cfi_startproc
  74              	.LVL2:
  75              		.loc 1 112 0
  76 0000 104B     		ldr	r3, .L3
  77 0002 BC22     		mov	r2, #188
  78 0004 5969     		ldr	r1, [r3, #20]
  79              		.loc 1 103 0
  80 0006 10B5     		push	{r4, lr}
  81              	.LCFI0:
  82              		.cfi_def_cfa_offset 8
  83              		.cfi_offset 4, -8
  84              		.cfi_offset 14, -4
  85              		.loc 1 103 0
  86 0008 041C     		mov	r4, r0
  87              		.loc 1 112 0
  88 000a D003     		lsl	r0, r2, #15
  89              	.LVL3:
  90 000c 0843     		orr	r0, r1
  91 000e 5861     		str	r0, [r3, #20]
  92              		.loc 1 123 0
  93 0010 9023     		mov	r3, #144
  94 0012 D805     		lsl	r0, r3, #23
  95 0014 211C     		mov	r1, r4
  96 0016 FFF7FEFF 		bl	initgpio
  97              	.LVL4:
  98              		.loc 1 124 0
  99 001a 211C     		mov	r1, r4
 100 001c 1C31     		add	r1, r1, #28
 101 001e 0A48     		ldr	r0, .L3+4
 102 0020 FFF7FEFF 		bl	initgpio
 103              	.LVL5:
 104              		.loc 1 125 0
 105 0024 211C     		mov	r1, r4
 106 0026 3831     		add	r1, r1, #56
 107 0028 0848     		ldr	r0, .L3+8
 108 002a FFF7FEFF 		bl	initgpio
 109              	.LVL6:
 110              		.loc 1 126 0
 111 002e 211C     		mov	r1, r4
 112 0030 5431     		add	r1, r1, #84
 113 0032 0748     		ldr	r0, .L3+12
 114 0034 FFF7FEFF 		bl	initgpio
ARM GAS  /tmp/ccnDAJii.s 			page 3


 115              	.LVL7:
 116              		.loc 1 131 0
 117 0038 211C     		mov	r1, r4
 118 003a 7031     		add	r1, r1, #112
 119 003c 0548     		ldr	r0, .L3+16
 120 003e FFF7FEFF 		bl	initgpio
 121              	.LVL8:
 122              		.loc 1 142 0
 123              		@ sp needed for prologue
 124              	.LVL9:
 125 0042 10BD     		pop	{r4, pc}
 126              	.L4:
 127              		.align	2
 128              	.L3:
 129 0044 00100240 		.word	1073876992
 130 0048 00040048 		.word	1207960576
 131 004c 00080048 		.word	1207961600
 132 0050 000C0048 		.word	1207962624
 133 0054 00140048 		.word	1207964672
 134              		.cfi_endproc
 135              	.LFE78:
 136              		.size	_pal_lld_init, .-_pal_lld_init
 137              		.section	.text._pal_lld_setgroupmode,"ax",%progbits
 138              		.align	1
 139              		.global	_pal_lld_setgroupmode
 140              		.code	16
 141              		.thumb_func
 142              		.type	_pal_lld_setgroupmode, %function
 143              	_pal_lld_setgroupmode:
 144              	.LFB79:
 145              		.loc 1 160 0
 146              		.cfi_startproc
 147              	.LVL10:
 148 0000 F0B5     		push	{r4, r5, r6, r7, lr}
 149              	.LCFI1:
 150              		.cfi_def_cfa_offset 20
 151              		.cfi_offset 4, -20
 152              		.cfi_offset 5, -16
 153              		.cfi_offset 6, -12
 154              		.cfi_offset 7, -8
 155              		.cfi_offset 14, -4
 156              		.loc 1 162 0
 157 0002 0323     		mov	r3, #3
 158 0004 1340     		and	r3, r2
 159              		.loc 1 163 0
 160 0006 5607     		lsl	r6, r2, #29
 161              		.loc 1 164 0
 162 0008 D506     		lsl	r5, r2, #27
 163              		.loc 1 165 0
 164 000a 5406     		lsl	r4, r2, #25
 165              		.loc 1 166 0
 166 000c 5205     		lsl	r2, r2, #21
 167              	.LVL11:
 168              		.loc 1 160 0
 169 000e 85B0     		sub	sp, sp, #20
 170              	.LCFI2:
 171              		.cfi_def_cfa_offset 40
ARM GAS  /tmp/ccnDAJii.s 			page 4


 172              		.loc 1 166 0
 173 0010 170F     		lsr	r7, r2, #28
 174              		.loc 1 162 0
 175 0012 0293     		str	r3, [sp, #8]
 176              	.LVL12:
 177              		.loc 1 163 0
 178 0014 F60F     		lsr	r6, r6, #31
 179              	.LVL13:
 180              		.loc 1 164 0
 181 0016 AD0F     		lsr	r5, r5, #30
 182              	.LVL14:
 183              		.loc 1 165 0
 184 0018 A40F     		lsr	r4, r4, #30
 185              	.LVL15:
 186              		.loc 1 166 0
 187 001a 0397     		str	r7, [sp, #12]
 188              	.LVL16:
 189              		.loc 1 167 0
 190 001c 0023     		mov	r3, #0
 191              	.LVL17:
 192              	.L10:
 193              		.loc 1 169 0
 194 001e CA07     		lsl	r2, r1, #31
 195 0020 2ED5     		bpl	.L6
 196              	.LBB2:
 197              		.loc 1 172 0
 198 0022 0722     		mov	r2, #7
 199 0024 1A40     		and	r2, r3
 200 0026 9700     		lsl	r7, r2, #2
 201 0028 039A     		ldr	r2, [sp, #12]
 202 002a BA40     		lsl	r2, r2, r7
 203 002c 0192     		str	r2, [sp, #4]
 204              	.LVL18:
 205              		.loc 1 173 0
 206 002e 0F22     		mov	r2, #15
 207              	.LVL19:
 208 0030 BA40     		lsl	r2, r2, r7
 209              	.LVL20:
 210 0032 D743     		mvn	r7, r2
 211              		.loc 1 174 0
 212 0034 072B     		cmp	r3, #7
 213 0036 05D8     		bhi	.L7
 214              		.loc 1 175 0
 215 0038 026A     		ldr	r2, [r0, #32]
 216              	.LVL21:
 217 003a 1740     		and	r7, r2
 218              	.LVL22:
 219 003c 019A     		ldr	r2, [sp, #4]
 220 003e 1743     		orr	r7, r2
 221 0040 0762     		str	r7, [r0, #32]
 222 0042 04E0     		b	.L8
 223              	.LVL23:
 224              	.L7:
 225              		.loc 1 177 0
 226 0044 426A     		ldr	r2, [r0, #36]
 227              	.LVL24:
 228 0046 1740     		and	r7, r2
ARM GAS  /tmp/ccnDAJii.s 			page 5


 229              	.LVL25:
 230 0048 019A     		ldr	r2, [sp, #4]
 231 004a 1743     		orr	r7, r2
 232 004c 4762     		str	r7, [r0, #36]
 233              	.L8:
 234              	.LVL26:
 235              		.loc 1 179 0
 236 004e 4268     		ldr	r2, [r0, #4]
 237              		.loc 1 178 0
 238 0050 0127     		mov	r7, #1
 239 0052 9F40     		lsl	r7, r7, r3
 240              	.LVL27:
 241              		.loc 1 179 0
 242 0054 BA43     		bic	r2, r7
 243 0056 3243     		orr	r2, r6
 244 0058 4260     		str	r2, [r0, #4]
 245              	.LVL28:
 246              		.loc 1 181 0
 247 005a 8268     		ldr	r2, [r0, #8]
 248              		.loc 1 158 0
 249 005c 5F00     		lsl	r7, r3, #1
 250              	.LVL29:
 251              		.loc 1 181 0
 252 005e 0192     		str	r2, [sp, #4]
 253              		.loc 1 180 0
 254 0060 0322     		mov	r2, #3
 255 0062 BA40     		lsl	r2, r2, r7
 256              	.LVL30:
 257              		.loc 1 181 0
 258 0064 D743     		mvn	r7, r2
 259 0066 019A     		ldr	r2, [sp, #4]
 260              	.LVL31:
 261 0068 3A40     		and	r2, r7
 262 006a 2A43     		orr	r2, r5
 263 006c 8260     		str	r2, [r0, #8]
 264              		.loc 1 182 0
 265 006e C268     		ldr	r2, [r0, #12]
 266 0070 3A40     		and	r2, r7
 267 0072 2243     		orr	r2, r4
 268 0074 C260     		str	r2, [r0, #12]
 269              		.loc 1 183 0
 270 0076 0268     		ldr	r2, [r0]
 271 0078 1740     		and	r7, r2
 272              	.LVL32:
 273 007a 029A     		ldr	r2, [sp, #8]
 274 007c 1743     		orr	r7, r2
 275 007e 0760     		str	r7, [r0]
 276              	.LVL33:
 277              	.L6:
 278              	.LBE2:
 279              		.loc 1 185 0
 280 0080 4908     		lsr	r1, r1, #1
 281              	.LVL34:
 282              		.loc 1 186 0
 283 0082 07D0     		beq	.L5
 284              		.loc 1 191 0
 285 0084 029F     		ldr	r7, [sp, #8]
ARM GAS  /tmp/ccnDAJii.s 			page 6


 286              		.loc 1 188 0
 287 0086 7600     		lsl	r6, r6, #1
 288              	.LVL35:
 289              		.loc 1 191 0
 290 0088 BA00     		lsl	r2, r7, #2
 291              		.loc 1 189 0
 292 008a AD00     		lsl	r5, r5, #2
 293              	.LVL36:
 294              		.loc 1 190 0
 295 008c A400     		lsl	r4, r4, #2
 296              	.LVL37:
 297              		.loc 1 191 0
 298 008e 0292     		str	r2, [sp, #8]
 299              	.LVL38:
 300              		.loc 1 192 0
 301 0090 0133     		add	r3, r3, #1
 302              	.LVL39:
 303              		.loc 1 193 0
 304 0092 C4E7     		b	.L10
 305              	.LVL40:
 306              	.L5:
 307              		.loc 1 194 0
 308 0094 05B0     		add	sp, sp, #20
 309              		@ sp needed for prologue
 310              	.LVL41:
 311              	.LVL42:
 312              	.LVL43:
 313 0096 F0BD     		pop	{r4, r5, r6, r7, pc}
 314              		.cfi_endproc
 315              	.LFE79:
 316              		.size	_pal_lld_setgroupmode, .-_pal_lld_setgroupmode
 317              		.text
 318              	.Letext0:
 319              		.file 2 "/media/data/src/x-tools/gcc-arm-none-eabi-4_7-2013q1/bin/../lib/gcc/arm-none-eabi/4.7.3/.
 320              		.file 3 "./os/nil/include/nil.h"
 321              		.file 4 "./os/nil/ports/ARMCMx/compilers/GCC/niltypes.h"
 322              		.file 5 "./os/ext/CMSIS/ST/stm32f0xx.h"
 323              		.file 6 "./os/nil/ports/ARMCMx/nilcore.h"
 324              		.file 7 "./os/nil/ports/ARMCMx/nilcore_v6m.h"
 325              		.file 8 "./os/hal/ports/STM32/GPIOv2/pal_lld.h"