ARM GAS  /tmp/ccnDAJii.s 			page 1


   1              		.cpu cortex-m0
   2              		.fpu softvfp
   3              		.eabi_attribute 20, 1
   4              		.eabi_attribute 21, 1
   5              		.eabi_attribute 23, 3
   6              		.eabi_attribute 24, 1
   7              		.eabi_attribute 25, 1
   8              		.eabi_attribute 26, 1
   9              		.eabi_attribute 30, 4
  10              		.eabi_attribute 34, 0
  11              		.eabi_attribute 18, 4
  12              		.code	16
  13              		.file	"pal_lld.c"
  14              		.text
  15              	.Ltext0:
  16              		.cfi_sections	.debug_frame
  17              		.section	.text.initgpio,"ax",%progbits
  18              		.align	1
  19              		.code	16
  20              		.thumb_func
  21              		.type	initgpio, %function
  22              	initgpio:
  23              	.LFB77:
  24              		.file 1 "./os/hal/ports/STM32/GPIOv2/pal_lld.c"
  25              		.loc 1 76 0
  26              		.cfi_startproc
  27              	.LVL0:
  28              		.loc 1 78 0
  29 0000 4B68     		ldr	r3, [r1, #4]
  30              		.loc 1 79 0
  31 0002 8A68     		ldr	r2, [r1, #8]
  32              		.loc 1 78 0
  33 0004 4360     		str	r3, [r0, #4]
  34              		.loc 1 80 0
  35 0006 CB68     		ldr	r3, [r1, #12]
  36              		.loc 1 79 0
  37 0008 8260     		str	r2, [r0, #8]
  38              		.loc 1 81 0
  39 000a 0A69     		ldr	r2, [r1, #16]
  40              		.loc 1 80 0
  41 000c C360     		str	r3, [r0, #12]
  42              		.loc 1 81 0
  43 000e 4261     		str	r2, [r0, #20]
  44              		.loc 1 82 0
  45 0010 4B69     		ldr	r3, [r1, #20]
  46              		.loc 1 83 0
  47 0012 8A69     		ldr	r2, [r1, #24]
  48              		.loc 1 84 0
  49 0014 0968     		ldr	r1, [r1]
  50              	.LVL1:
  51              		.loc 1 82 0
  52 0016 0362     		str	r3, [r0, #32]
  53              		.loc 1 85 0
  54              		@ sp needed for prologue
  55              		.loc 1 83 0
  56 0018 4262     		str	r2, [r0, #36]
  57              		.loc 1 84 0
ARM GAS  /tmp/ccnDAJii.s 			page 2


  58 001a 0160     		str	r1, [r0]
  59              		.loc 1 85 0
  60 001c 7047     		bx	lr
  61              		.cfi_endproc
  62              	.LFE77:
  63              		.size	initgpio, .-initgpio
  64              		.section	.text._pal_lld_init,"ax",%progbits
  65              		.align	1
  66              		.global	_pal_lld_init
  67              		.code	16
  68              		.thumb_func
  69              		.type	_pal_lld_init, %function
  70              	_pal_lld_init:
  71              	.LFB78:
  72              		.loc 1 103 0
  73              		.cfi_startproc
  74              	.LVL2:
  75              		.loc 1 112 0
  76 0000 104B     		ldr	r3, .L3
  77 0002 BC22     		mov	r2, #188
  78 0004 5969     		ldr	r1, [r3, #20]
  79              		.loc 1 103 0
  80 0006 10B5     		push	{r4, lr}
  81              	.LCFI0:
  82              		.cfi_def_cfa_offset 8
  83              		.cfi_offset 4, -8
  84              		.cfi_offset 14, -4
  85              		.loc 1 103 0
  86 0008 041C     		mov	r4, r0
  87              		.loc 1 112 0
  88 000a D003     		lsl	r0, r2, #15
  89              	.LVL3:
  90 000c 0843     		orr	r0, r1
  91 000e 5861     		str	r0, [r3, #20]
  92              		.loc 1 123 0
  93 0010 9023     		mov	r3, #144
  94 0012 D805     		lsl	r0, r3, #23
  95 0014 211C     		mov	r1, r4
  96 0016 FFF7FEFF 		bl	initgpio
  97              	.LVL4:
  98              		.loc 1 124 0
  99 001a 211C     		mov	r1, r4
 100 001c 1C31     		add	r1, r1, #28
 101 001e 0A48     		ldr	r0, .L3+4
 102 0020 FFF7FEFF 		bl	initgpio
 103              	.LVL5:
 104              		.loc 1 125 0
 105 0024 211C     		mov	r1, r4
 106 0026 3831     		add	r1, r1, #56
 107 0028 0848     		ldr	r0, .L3+8
 108 002a FFF7FEFF 		bl	initgpio
 109              	.LVL6:
 110              		.loc 1 126 0
 111 002e 211C     		mov	r1, r4
 112 0030 5431     		add	r1, r1, #84
 113 0032 0748     		ldr	r0, .L3+12
 114 0034 FFF7FEFF 		bl	initgpio
ARM GAS  /tmp/ccnDAJii.s 			page 3


 115              	.LVL7:
 116              		.loc 1 131 0
 117 0038 211C     		mov	r1, r4
 118 003a 7031     		add	r1, r1, #112
 119 003c 0548     		ldr	r0, .L3+16
 120 003e FFF7FEFF 		bl	initgpio
 121              	.LVL8:
 122              		.loc 1 142 0
 123              		@ sp needed for prologue
 124              	.LVL9:
 125 0042 10BD     		pop	{r4, pc}
 126              	.L4:
 127              		.align	2
 128              	.L3:
 129 0044 00100240 		.word	1073876992
 130 0048 00040048 		.word	1207960576
 131 004c 00080048 		.word	1207961600
 132 0050 000C0048 		.word	1207962624
 133 0054 00140048 		.word	1207964672
 134              		.cfi_endproc
 135              	.LFE78:
 136              		.size	_pal_lld_init, .-_pal_lld_init
 137              		.section	.text._pal_lld_setgroupmode,"ax",%progbits
 138              		.align	1
 139              		.global	_pal_lld_setgroupmode
 140              		.code	16
 141              		.thumb_func
 142              		.type	_pal_lld_setgroupmode, %function
 143              	_pal_lld_setgroupmode:
 144              	.LFB79:
 145              		.loc 1 160 0
 146              		.cfi_startproc
 147              	.LVL10:
 148 0000 F0B5     		push	{r4, r5, r6, r7, lr}
 149              	.LCFI1:
 150              		.cfi_def_cfa_offset 20
 151              		.cfi_offset 4, -20
 152              		.cfi_offset 5, -16
 153              		.cfi_offset 6, -12
 154              		.cfi_offset 7, -8
 155              		.cfi_offset 14, -4
 156              		.loc 1 162 0
 157 0002 0323     		mov	r3, #3
 158 0004 1340     		and	r3, r2
 159              		.loc 1 163 0
 160 0006 5607     		lsl	r6, r2, #29
 161              		.loc 1 164 0
 162 0008 D506     		lsl	r5, r2, #27
 163              		.loc 1 165 0
 164 000a 5406     		lsl	r4, r2, #25
 165              		.loc 1 166 0
 166 000c 5205     		lsl	r2, r2, #21
 167              	.LVL11:
 168              		.loc 1 160 0
 169 000e 85B0     		sub	sp, sp, #20
 170              	.LCFI2:
 171              		.cfi_def_cfa_offset 40
ARM GAS  /tmp/ccnDAJii.s 			page 4


 172              		.loc 1 166 0
 173 0010 170F     		lsr	r7, r2, #28
 174              		.loc 1 162 0
 175 0012 0293     		str	r3, [sp, #8]
 176              	.LVL12:
 177              		.loc 1 163 0
 178 0014 F60F     		lsr	r6, r6, #31
 179              	.LVL13:
 180              		.loc 1 164 0
 181 0016 AD0F     		lsr	r5, r5, #30
 182              	.LVL14:
 183              		.loc 1 165 0
 184 0018 A40F     		lsr	r4, r4, #30
 185              	.LVL15:
 186              		.loc 1 166 0
 187 001a 0397     		str	r7, [sp, #12]
 188              	.LVL16:
 189              		.loc 1 167 0
 190 001c 0023     		mov	r3, #0
 191              	.LVL17:
 192              	.L10:
 193              		.loc 1 169 0
 194 001e CA07     		lsl	r2, r1, #31
 195 0020 2ED5     		bpl	.L6
 196              	.LBB2:
 197              		.loc 1 172 0
 198 0022 0722     		mov	r2, #7
 199 0024 1A40     		and	r2, r3
 200 0026 9700     		lsl	r7, r2, #2
 201 0028 039A     		ldr	r2, [sp, #12]
 202 002a BA40     		lsl	r2, r2, r7
 203 002c 0192     		str	r2, [sp, #4]
 204              	.LVL18:
 205              		.loc 1 173 0
 206 002e 0F22     		mov	r2, #15
 207              	.LVL19:
 208 0030 BA40     		lsl	r2, r2, r7
 209              	.LVL20:
 210 0032 D743     		mvn	r7, r2
 211              		.loc 1 174 0
 212 0034 072B     		cmp	r3, #7
 213 0036 05D8     		bhi	.L7
 214              		.loc 1 175 0
 215 0038 026A     		ldr	r2, [r0, #32]
 216              	.LVL21:
 217 003a 1740     		and	r7, r2
 218              	.LVL22:
 219 003c 019A     		ldr	r2, [sp, #4]
 220 003e 1743     		orr	r7, r2
 221 0040 0762     		str	r7, [r0, #32]
 222 0042 04E0     		b	.L8
 223              	.LVL23:
 224              	.L7:
 225              		.loc 1 177 0
 226 0044 426A     		ldr	r2, [r0, #36]
 227              	.LVL24:
 228 0046 1740     		and	r7, r2
ARM GAS  /tmp/ccnDAJii.s 			page 5


 229              	.LVL25:
 230 0048 019A     		ldr	r2, [sp, #4]
 231 004a 1743     		orr	r7, r2
 232 004c 4762     		str	r7, [r0, #36]
 233              	.L8:
 234              	.LVL26:
 235              		.loc 1 179 0
 236 004e 4268     		ldr	r2, [r0, #4]
 237              		.loc 1 178 0
 238 0050 0127     		mov	r7, #1
 239 0052 9F40     		lsl	r7, r7, r3
 240              	.LVL27:
 241              		.loc 1 179 0
 242 0054 BA43     		bic	r2, r7
 243 0056 3243     		orr	r2, r6
 244 0058 4260     		str	r2, [r0, #4]
 245              	.LVL28:
 246              		.loc 1 181 0
 247 005a 8268     		ldr	r2, [r0, #8]
 248              		.loc 1 158 0
 249 005c 5F00     		lsl	r7, r3, #1
 250              	.LVL29:
 251              		.loc 1 181 0
 252 005e 0192     		str	r2, [sp, #4]
 253              		.loc 1 180 0
 254 0060 0322     		mov	r2, #3
 255 0062 BA40     		lsl	r2, r2, r7
 256              	.LVL30:
 257              		.loc 1 181 0
 258 0064 D743     		mvn	r7, r2
 259 0066 019A     		ldr	r2, [sp, #4]
 260              	.LVL31:
 261 0068 3A40     		and	r2, r7
 262 006a 2A43     		orr	r2, r5
 263 006c 8260     		str	r2, [r0, #8]
 264              		.loc 1 182 0
 265 006e C268     		ldr	r2, [r0, #12]
 266 0070 3A40     		and	r2, r7
 267 0072 2243     		orr	r2, r4
 268 0074 C260     		str	r2, [r0, #12]
 269              		.loc 1 183 0
 270 0076 0268     		ldr	r2, [r0]
 271 0078 1740     		and	r7, r2
 272              	.LVL32:
 273 007a 029A     		ldr	r2, [sp, #8]
 274 007c 1743     		orr	r7, r2
 275 007e 0760     		str	r7, [r0]
 276              	.LVL33:
 277              	.L6:
 278              	.LBE2:
 279              		.loc 1 185 0
 280 0080 4908     		lsr	r1, r1, #1
 281              	.LVL34:
 282              		.loc 1 186 0
 283 0082 07D0     		beq	.L5
 284              		.loc 1 191 0
 285 0084 029F     		ldr	r7, [sp, #8]
ARM GAS  /tmp/ccnDAJii.s 			page 6


 286              		.loc 1 188 0
 287 0086 7600     		lsl	r6, r6, #1
 288              	.LVL35:
 289              		.loc 1 191 0
 290 0088 BA00     		lsl	r2, r7, #2
 291              		.loc 1 189 0
 292 008a AD00     		lsl	r5, r5, #2
 293              	.LVL36:
 294              		.loc 1 190 0
 295 008c A400     		lsl	r4, r4, #2
 296              	.LVL37:
 297              		.loc 1 191 0
 298 008e 0292     		str	r2, [sp, #8]
 299              	.LVL38:
 300              		.loc 1 192 0
 301 0090 0133     		add	r3, r3, #1
 302              	.LVL39:
 303              		.loc 1 193 0
 304 0092 C4E7     		b	.L10
 305              	.LVL40:
 306              	.L5:
 307              		.loc 1 194 0
 308 0094 05B0     		add	sp, sp, #20
 309              		@ sp needed for prologue
 310              	.LVL41:
 311              	.LVL42:
 312              	.LVL43:
 313 0096 F0BD     		pop	{r4, r5, r6, r7, pc}
 314              		.cfi_endproc
 315              	.LFE79:
 316              		.size	_pal_lld_setgroupmode, .-_pal_lld_setgroupmode
 317              		.text
 318              	.Letext0:
 319              		.file 2 "/media/data/src/x-tools/gcc-arm-none-eabi-4_7-2013q1/bin/../lib/gcc/arm-none-eabi/4.7.3/.
 320              		.file 3 "./os/nil/include/nil.h"
 321              		.file 4 "./os/nil/ports/ARMCMx/compilers/GCC/niltypes.h"
 322              		.file 5 "./os/ext/CMSIS/ST/stm32f0xx.h"
 323              		.file 6 "./os/nil/ports/ARMCMx/nilcore.h"
 324              		.file 7 "./os/nil/ports/ARMCMx/nilcore_v6m.h"
 325              		.file 8 "./os/hal/ports/STM32/GPIOv2/pal_lld.h"
 326              		.section	.debug_info,"",%progbits
 327              	.Ldebug_info0:
 328 0000 98070000 		.4byte	0x798
 329 0004 0200     		.2byte	0x2
 330 0006 00000000 		.4byte	.Ldebug_abbrev0
 331 000a 04       		.byte	0x4
 332 000b 01       		.uleb128 0x1
 333 000c B1010000 		.4byte	.LASF84
 334 0010 01       		.byte	0x1
 335 0011 13010000 		.4byte	.LASF85
 336 0015 94010000 		.4byte	.LASF86
 337 0019 00000000 		.4byte	.Ldebug_ranges0+0
 338 001d 00000000 		.4byte	0
 339 0021 00000000 		.4byte	0
 340 0025 00000000 		.4byte	.Ldebug_line0
 341 0029 02       		.uleb128 0x2
 342 002a 04       		.byte	0x4
ARM GAS  /tmp/ccnDAJii.s 			page 7


 343 002b 05       		.byte	0x5
 344 002c 696E7400 		.ascii	"int\000"
 345 0030 03       		.uleb128 0x3
 346 0031 04       		.byte	0x4
 347 0032 07       		.byte	0x7
 348 0033 3A020000 		.4byte	.LASF0
 349 0037 03       		.uleb128 0x3
 350 0038 01       		.byte	0x1
 351 0039 06       		.byte	0x6
 352 003a DA000000 		.4byte	.LASF1
 353 003e 04       		.uleb128 0x4
 354 003f B7000000 		.4byte	.LASF4
 355 0043 02       		.byte	0x2
 356 0044 2A       		.byte	0x2a
 357 0045 49000000 		.4byte	0x49
 358 0049 03       		.uleb128 0x3
 359 004a 01       		.byte	0x1
 360 004b 08       		.byte	0x8
 361 004c 05020000 		.4byte	.LASF2
 362 0050 03       		.uleb128 0x3
 363 0051 02       		.byte	0x2
 364 0052 05       		.byte	0x5
 365 0053 47000000 		.4byte	.LASF3
 366 0057 04       		.uleb128 0x4
 367 0058 A8020000 		.4byte	.LASF5
 368 005c 02       		.byte	0x2
 369 005d 36       		.byte	0x36
 370 005e 62000000 		.4byte	0x62
 371 0062 03       		.uleb128 0x3
 372 0063 02       		.byte	0x2
 373 0064 07       		.byte	0x7
 374 0065 74020000 		.4byte	.LASF6
 375 0069 04       		.uleb128 0x4
 376 006a B1020000 		.4byte	.LASF7
 377 006e 02       		.byte	0x2
 378 006f 4F       		.byte	0x4f
 379 0070 74000000 		.4byte	0x74
 380 0074 03       		.uleb128 0x3
 381 0075 04       		.byte	0x4
 382 0076 05       		.byte	0x5
 383 0077 57010000 		.4byte	.LASF8
 384 007b 04       		.uleb128 0x4
 385 007c 31020000 		.4byte	.LASF9
 386 0080 02       		.byte	0x2
 387 0081 50       		.byte	0x50
 388 0082 86000000 		.4byte	0x86
 389 0086 03       		.uleb128 0x3
 390 0087 04       		.byte	0x4
 391 0088 07       		.byte	0x7
 392 0089 F7020000 		.4byte	.LASF10
 393 008d 03       		.uleb128 0x3
 394 008e 08       		.byte	0x8
 395 008f 05       		.byte	0x5
 396 0090 05010000 		.4byte	.LASF11
 397 0094 03       		.uleb128 0x3
 398 0095 08       		.byte	0x8
 399 0096 07       		.byte	0x7
ARM GAS  /tmp/ccnDAJii.s 			page 8


 400 0097 1A020000 		.4byte	.LASF12
 401 009b 05       		.uleb128 0x5
 402 009c 7F000000 		.4byte	.LASF35
 403 00a0 14       		.byte	0x14
 404 00a1 03       		.byte	0x3
 405 00a2 1E01     		.2byte	0x11e
 406 00a4 F3000000 		.4byte	0xf3
 407 00a8 06       		.uleb128 0x6
 408 00a9 94020000 		.4byte	.LASF13
 409 00ad 03       		.byte	0x3
 410 00ae 1F01     		.2byte	0x11f
 411 00b0 49030000 		.4byte	0x349
 412 00b4 02       		.byte	0x2
 413 00b5 23       		.byte	0x23
 414 00b6 00       		.uleb128 0
 415 00b7 06       		.uleb128 0x6
 416 00b8 38000000 		.4byte	.LASF14
 417 00bc 03       		.byte	0x3
 418 00bd 2001     		.2byte	0x120
 419 00bf F3000000 		.4byte	0xf3
 420 00c3 02       		.byte	0x2
 421 00c4 23       		.byte	0x23
 422 00c5 04       		.uleb128 0x4
 423 00c6 07       		.uleb128 0x7
 424 00c7 753100   		.ascii	"u1\000"
 425 00ca 03       		.byte	0x3
 426 00cb 2B01     		.2byte	0x12b
 427 00cd F9020000 		.4byte	0x2f9
 428 00d1 02       		.byte	0x2
 429 00d2 23       		.byte	0x23
 430 00d3 08       		.uleb128 0x8
 431 00d4 06       		.uleb128 0x6
 432 00d5 D6020000 		.4byte	.LASF15
 433 00d9 03       		.byte	0x3
 434 00da 2C01     		.2byte	0x12c
 435 00dc 4F030000 		.4byte	0x34f
 436 00e0 02       		.byte	0x2
 437 00e1 23       		.byte	0x23
 438 00e2 0C       		.uleb128 0xc
 439 00e3 06       		.uleb128 0x6
 440 00e4 E8020000 		.4byte	.LASF16
 441 00e8 03       		.byte	0x3
 442 00e9 2F01     		.2byte	0x12f
 443 00eb 09010000 		.4byte	0x109
 444 00ef 02       		.byte	0x2
 445 00f0 23       		.byte	0x23
 446 00f1 10       		.uleb128 0x10
 447 00f2 00       		.byte	0
 448 00f3 04       		.uleb128 0x4
 449 00f4 38030000 		.4byte	.LASF17
 450 00f8 04       		.byte	0x4
 451 00f9 37       		.byte	0x37
 452 00fa 3E000000 		.4byte	0x3e
 453 00fe 04       		.uleb128 0x4
 454 00ff 6B030000 		.4byte	.LASF18
 455 0103 04       		.byte	0x4
 456 0104 38       		.byte	0x38
ARM GAS  /tmp/ccnDAJii.s 			page 9


 457 0105 69000000 		.4byte	0x69
 458 0109 04       		.uleb128 0x4
 459 010a 8A000000 		.4byte	.LASF19
 460 010e 04       		.byte	0x4
 461 010f 39       		.byte	0x39
 462 0110 7B000000 		.4byte	0x7b
 463 0114 04       		.uleb128 0x4
 464 0115 B9020000 		.4byte	.LASF20
 465 0119 04       		.byte	0x4
 466 011a 3A       		.byte	0x3a
 467 011b 69000000 		.4byte	0x69
 468 011f 03       		.uleb128 0x3
 469 0120 04       		.byte	0x4
 470 0121 07       		.byte	0x7
 471 0122 5E000000 		.4byte	.LASF21
 472 0126 08       		.uleb128 0x8
 473 0127 7B000000 		.4byte	0x7b
 474 012b 09       		.uleb128 0x9
 475 012c 38       		.byte	0x38
 476 012d 05       		.byte	0x5
 477 012e F701     		.2byte	0x1f7
 478 0130 06020000 		.4byte	0x206
 479 0134 07       		.uleb128 0x7
 480 0135 435200   		.ascii	"CR\000"
 481 0138 05       		.byte	0x5
 482 0139 F901     		.2byte	0x1f9
 483 013b 26010000 		.4byte	0x126
 484 013f 02       		.byte	0x2
 485 0140 23       		.byte	0x23
 486 0141 00       		.uleb128 0
 487 0142 06       		.uleb128 0x6
 488 0143 A2000000 		.4byte	.LASF22
 489 0147 05       		.byte	0x5
 490 0148 FA01     		.2byte	0x1fa
 491 014a 26010000 		.4byte	0x126
 492 014e 02       		.byte	0x2
 493 014f 23       		.byte	0x23
 494 0150 04       		.uleb128 0x4
 495 0151 07       		.uleb128 0x7
 496 0152 43495200 		.ascii	"CIR\000"
 497 0156 05       		.byte	0x5
 498 0157 FB01     		.2byte	0x1fb
 499 0159 26010000 		.4byte	0x126
 500 015d 02       		.byte	0x2
 501 015e 23       		.byte	0x23
 502 015f 08       		.uleb128 0x8
 503 0160 06       		.uleb128 0x6
 504 0161 85010000 		.4byte	.LASF23
 505 0165 05       		.byte	0x5
 506 0166 FC01     		.2byte	0x1fc
 507 0168 26010000 		.4byte	0x126
 508 016c 02       		.byte	0x2
 509 016d 23       		.byte	0x23
 510 016e 0C       		.uleb128 0xc
 511 016f 06       		.uleb128 0x6
 512 0170 07000000 		.4byte	.LASF24
 513 0174 05       		.byte	0x5
ARM GAS  /tmp/ccnDAJii.s 			page 10


 514 0175 FD01     		.2byte	0x1fd
 515 0177 26010000 		.4byte	0x126
 516 017b 02       		.byte	0x2
 517 017c 23       		.byte	0x23
 518 017d 10       		.uleb128 0x10
 519 017e 06       		.uleb128 0x6
 520 017f 78010000 		.4byte	.LASF25
 521 0183 05       		.byte	0x5
 522 0184 FE01     		.2byte	0x1fe
 523 0186 26010000 		.4byte	0x126
 524 018a 02       		.byte	0x2
 525 018b 23       		.byte	0x23
 526 018c 14       		.uleb128 0x14
 527 018d 06       		.uleb128 0x6
 528 018e E6000000 		.4byte	.LASF26
 529 0192 05       		.byte	0x5
 530 0193 FF01     		.2byte	0x1ff
 531 0195 26010000 		.4byte	0x126
 532 0199 02       		.byte	0x2
 533 019a 23       		.byte	0x23
 534 019b 18       		.uleb128 0x18
 535 019c 06       		.uleb128 0x6
 536 019d BF000000 		.4byte	.LASF27
 537 01a1 05       		.byte	0x5
 538 01a2 0002     		.2byte	0x200
 539 01a4 26010000 		.4byte	0x126
 540 01a8 02       		.byte	0x2
 541 01a9 23       		.byte	0x23
 542 01aa 1C       		.uleb128 0x1c
 543 01ab 06       		.uleb128 0x6
 544 01ac 67000000 		.4byte	.LASF28
 545 01b0 05       		.byte	0x5
 546 01b1 0102     		.2byte	0x201
 547 01b3 26010000 		.4byte	0x126
 548 01b7 02       		.byte	0x2
 549 01b8 23       		.byte	0x23
 550 01b9 20       		.uleb128 0x20
 551 01ba 07       		.uleb128 0x7
 552 01bb 43535200 		.ascii	"CSR\000"
 553 01bf 05       		.byte	0x5
 554 01c0 0202     		.2byte	0x202
 555 01c2 26010000 		.4byte	0x126
 556 01c6 02       		.byte	0x2
 557 01c7 23       		.byte	0x23
 558 01c8 24       		.uleb128 0x24
 559 01c9 06       		.uleb128 0x6
 560 01ca 41030000 		.4byte	.LASF29
 561 01ce 05       		.byte	0x5
 562 01cf 0302     		.2byte	0x203
 563 01d1 26010000 		.4byte	0x126
 564 01d5 02       		.byte	0x2
 565 01d6 23       		.byte	0x23
 566 01d7 28       		.uleb128 0x28
 567 01d8 06       		.uleb128 0x6
 568 01d9 47020000 		.4byte	.LASF30
 569 01dd 05       		.byte	0x5
 570 01de 0402     		.2byte	0x204
ARM GAS  /tmp/ccnDAJii.s 			page 11


 571 01e0 26010000 		.4byte	0x126
 572 01e4 02       		.byte	0x2
 573 01e5 23       		.byte	0x23
 574 01e6 2C       		.uleb128 0x2c
 575 01e7 06       		.uleb128 0x6
 576 01e8 4D020000 		.4byte	.LASF31
 577 01ec 05       		.byte	0x5
 578 01ed 0502     		.2byte	0x205
 579 01ef 26010000 		.4byte	0x126
 580 01f3 02       		.byte	0x2
 581 01f4 23       		.byte	0x23
 582 01f5 30       		.uleb128 0x30
 583 01f6 07       		.uleb128 0x7
 584 01f7 43523200 		.ascii	"CR2\000"
 585 01fb 05       		.byte	0x5
 586 01fc 0602     		.2byte	0x206
 587 01fe 26010000 		.4byte	0x126
 588 0202 02       		.byte	0x2
 589 0203 23       		.byte	0x23
 590 0204 34       		.uleb128 0x34
 591 0205 00       		.byte	0
 592 0206 0A       		.uleb128 0xa
 593 0207 67010000 		.4byte	.LASF32
 594 020b 05       		.byte	0x5
 595 020c 0702     		.2byte	0x207
 596 020e 2B010000 		.4byte	0x12b
 597 0212 04       		.uleb128 0x4
 598 0213 99020000 		.4byte	.LASF33
 599 0217 06       		.byte	0x6
 600 0218 77       		.byte	0x77
 601 0219 57000000 		.4byte	0x57
 602 021d 04       		.uleb128 0x4
 603 021e A7000000 		.4byte	.LASF34
 604 0222 06       		.byte	0x6
 605 0223 7D       		.byte	0x7d
 606 0224 28020000 		.4byte	0x228
 607 0228 0B       		.uleb128 0xb
 608 0229 04       		.byte	0x4
 609 022a 0C       		.uleb128 0xc
 610 022b 09030000 		.4byte	.LASF36
 611 022f 24       		.byte	0x24
 612 0230 07       		.byte	0x7
 613 0231 A4       		.byte	0xa4
 614 0232 AE020000 		.4byte	0x2ae
 615 0236 0D       		.uleb128 0xd
 616 0237 723800   		.ascii	"r8\000"
 617 023a 07       		.byte	0x7
 618 023b A5       		.byte	0xa5
 619 023c 1D020000 		.4byte	0x21d
 620 0240 02       		.byte	0x2
 621 0241 23       		.byte	0x23
 622 0242 00       		.uleb128 0
 623 0243 0D       		.uleb128 0xd
 624 0244 723900   		.ascii	"r9\000"
 625 0247 07       		.byte	0x7
 626 0248 A6       		.byte	0xa6
 627 0249 1D020000 		.4byte	0x21d
ARM GAS  /tmp/ccnDAJii.s 			page 12


 628 024d 02       		.byte	0x2
 629 024e 23       		.byte	0x23
 630 024f 04       		.uleb128 0x4
 631 0250 0D       		.uleb128 0xd
 632 0251 72313000 		.ascii	"r10\000"
 633 0255 07       		.byte	0x7
 634 0256 A7       		.byte	0xa7
 635 0257 1D020000 		.4byte	0x21d
 636 025b 02       		.byte	0x2
 637 025c 23       		.byte	0x23
 638 025d 08       		.uleb128 0x8
 639 025e 0D       		.uleb128 0xd
 640 025f 72313100 		.ascii	"r11\000"
 641 0263 07       		.byte	0x7
 642 0264 A8       		.byte	0xa8
 643 0265 1D020000 		.4byte	0x21d
 644 0269 02       		.byte	0x2
 645 026a 23       		.byte	0x23
 646 026b 0C       		.uleb128 0xc
 647 026c 0D       		.uleb128 0xd
 648 026d 723400   		.ascii	"r4\000"
 649 0270 07       		.byte	0x7
 650 0271 A9       		.byte	0xa9
 651 0272 1D020000 		.4byte	0x21d
 652 0276 02       		.byte	0x2
 653 0277 23       		.byte	0x23
 654 0278 10       		.uleb128 0x10
 655 0279 0D       		.uleb128 0xd
 656 027a 723500   		.ascii	"r5\000"
 657 027d 07       		.byte	0x7
 658 027e AA       		.byte	0xaa
 659 027f 1D020000 		.4byte	0x21d
 660 0283 02       		.byte	0x2
 661 0284 23       		.byte	0x23
 662 0285 14       		.uleb128 0x14
 663 0286 0D       		.uleb128 0xd
 664 0287 723600   		.ascii	"r6\000"
 665 028a 07       		.byte	0x7
 666 028b AB       		.byte	0xab
 667 028c 1D020000 		.4byte	0x21d
 668 0290 02       		.byte	0x2
 669 0291 23       		.byte	0x23
 670 0292 18       		.uleb128 0x18
 671 0293 0D       		.uleb128 0xd
 672 0294 723700   		.ascii	"r7\000"
 673 0297 07       		.byte	0x7
 674 0298 AC       		.byte	0xac
 675 0299 1D020000 		.4byte	0x21d
 676 029d 02       		.byte	0x2
 677 029e 23       		.byte	0x23
 678 029f 1C       		.uleb128 0x1c
 679 02a0 0D       		.uleb128 0xd
 680 02a1 6C7200   		.ascii	"lr\000"
 681 02a4 07       		.byte	0x7
 682 02a5 AD       		.byte	0xad
 683 02a6 1D020000 		.4byte	0x21d
 684 02aa 02       		.byte	0x2
ARM GAS  /tmp/ccnDAJii.s 			page 13


 685 02ab 23       		.byte	0x23
 686 02ac 20       		.uleb128 0x20
 687 02ad 00       		.byte	0
 688 02ae 04       		.uleb128 0x4
 689 02af 49030000 		.4byte	.LASF37
 690 02b3 03       		.byte	0x3
 691 02b4 F3       		.byte	0xf3
 692 02b5 2A020000 		.4byte	0x22a
 693 02b9 0E       		.uleb128 0xe
 694 02ba 04       		.byte	0x4
 695 02bb 03       		.byte	0x3
 696 02bc F8       		.byte	0xf8
 697 02bd D0020000 		.4byte	0x2d0
 698 02c1 0D       		.uleb128 0xd
 699 02c2 636E7400 		.ascii	"cnt\000"
 700 02c6 03       		.byte	0x3
 701 02c7 F9       		.byte	0xf9
 702 02c8 D0020000 		.4byte	0x2d0
 703 02cc 02       		.byte	0x2
 704 02cd 23       		.byte	0x23
 705 02ce 00       		.uleb128 0
 706 02cf 00       		.byte	0
 707 02d0 08       		.uleb128 0x8
 708 02d1 14010000 		.4byte	0x114
 709 02d5 04       		.uleb128 0x4
 710 02d6 C7000000 		.4byte	.LASF38
 711 02da 03       		.byte	0x3
 712 02db FA       		.byte	0xfa
 713 02dc B9020000 		.4byte	0x2b9
 714 02e0 03       		.uleb128 0x3
 715 02e1 01       		.byte	0x1
 716 02e2 08       		.byte	0x8
 717 02e3 A3020000 		.4byte	.LASF39
 718 02e7 0A       		.uleb128 0xa
 719 02e8 20030000 		.4byte	.LASF40
 720 02ec 03       		.byte	0x3
 721 02ed 1901     		.2byte	0x119
 722 02ef F3020000 		.4byte	0x2f3
 723 02f3 0F       		.uleb128 0xf
 724 02f4 04       		.byte	0x4
 725 02f5 9B000000 		.4byte	0x9b
 726 02f9 10       		.uleb128 0x10
 727 02fa 04       		.byte	0x4
 728 02fb 03       		.byte	0x3
 729 02fc 2301     		.2byte	0x123
 730 02fe 3D030000 		.4byte	0x33d
 731 0302 11       		.uleb128 0x11
 732 0303 6D736700 		.ascii	"msg\000"
 733 0307 03       		.byte	0x3
 734 0308 2401     		.2byte	0x124
 735 030a FE000000 		.4byte	0xfe
 736 030e 11       		.uleb128 0x11
 737 030f 7000     		.ascii	"p\000"
 738 0311 03       		.byte	0x3
 739 0312 2501     		.2byte	0x125
 740 0314 28020000 		.4byte	0x228
 741 0318 11       		.uleb128 0x11
ARM GAS  /tmp/ccnDAJii.s 			page 14


 742 0319 74727000 		.ascii	"trp\000"
 743 031d 03       		.byte	0x3
 744 031e 2601     		.2byte	0x126
 745 0320 3D030000 		.4byte	0x33d
 746 0324 12       		.uleb128 0x12
 747 0325 1B030000 		.4byte	.LASF41
 748 0329 03       		.byte	0x3
 749 032a 2701     		.2byte	0x127
 750 032c 43030000 		.4byte	0x343
 751 0330 12       		.uleb128 0x12
 752 0331 13020000 		.4byte	.LASF42
 753 0335 03       		.byte	0x3
 754 0336 2901     		.2byte	0x129
 755 0338 09010000 		.4byte	0x109
 756 033c 00       		.byte	0
 757 033d 0F       		.uleb128 0xf
 758 033e 04       		.byte	0x4
 759 033f E7020000 		.4byte	0x2e7
 760 0343 0F       		.uleb128 0xf
 761 0344 04       		.byte	0x4
 762 0345 D5020000 		.4byte	0x2d5
 763 0349 0F       		.uleb128 0xf
 764 034a 04       		.byte	0x4
 765 034b AE020000 		.4byte	0x2ae
 766 034f 08       		.uleb128 0x8
 767 0350 12020000 		.4byte	0x212
 768 0354 09       		.uleb128 0x9
 769 0355 98       		.byte	0x98
 770 0356 03       		.byte	0x3
 771 0357 3D01     		.2byte	0x13d
 772 0359 9A030000 		.4byte	0x39a
 773 035d 06       		.uleb128 0x6
 774 035e 5C020000 		.4byte	.LASF43
 775 0362 03       		.byte	0x3
 776 0363 4101     		.2byte	0x141
 777 0365 F3020000 		.4byte	0x2f3
 778 0369 02       		.byte	0x2
 779 036a 23       		.byte	0x23
 780 036b 00       		.uleb128 0
 781 036c 06       		.uleb128 0x6
 782 036d 71030000 		.4byte	.LASF44
 783 0371 03       		.byte	0x3
 784 0372 4701     		.2byte	0x147
 785 0374 F3020000 		.4byte	0x2f3
 786 0378 02       		.byte	0x2
 787 0379 23       		.byte	0x23
 788 037a 04       		.uleb128 0x4
 789 037b 06       		.uleb128 0x6
 790 037c EE000000 		.4byte	.LASF45
 791 0380 03       		.byte	0x3
 792 0381 4C01     		.2byte	0x14c
 793 0383 12020000 		.4byte	0x212
 794 0387 02       		.byte	0x2
 795 0388 23       		.byte	0x23
 796 0389 08       		.uleb128 0x8
 797 038a 06       		.uleb128 0x6
 798 038b F6000000 		.4byte	.LASF46
ARM GAS  /tmp/ccnDAJii.s 			page 15


 799 038f 03       		.byte	0x3
 800 0390 5B01     		.2byte	0x15b
 801 0392 9A030000 		.4byte	0x39a
 802 0396 02       		.byte	0x2
 803 0397 23       		.byte	0x23
 804 0398 0C       		.uleb128 0xc
 805 0399 00       		.byte	0
 806 039a 13       		.uleb128 0x13
 807 039b 9B000000 		.4byte	0x9b
 808 039f AA030000 		.4byte	0x3aa
 809 03a3 14       		.uleb128 0x14
 810 03a4 1F010000 		.4byte	0x11f
 811 03a8 06       		.byte	0x6
 812 03a9 00       		.byte	0
 813 03aa 0A       		.uleb128 0xa
 814 03ab 6C000000 		.4byte	.LASF47
 815 03af 03       		.byte	0x3
 816 03b0 6401     		.2byte	0x164
 817 03b2 54030000 		.4byte	0x354
 818 03b6 03       		.uleb128 0x3
 819 03b7 01       		.byte	0x1
 820 03b8 02       		.byte	0x2
 821 03b9 D0020000 		.4byte	.LASF48
 822 03bd 0E       		.uleb128 0xe
 823 03be 04       		.byte	0x4
 824 03bf 08       		.byte	0x8
 825 03c0 A5       		.byte	0xa5
 826 03c1 E2030000 		.4byte	0x3e2
 827 03c5 0D       		.uleb128 0xd
 828 03c6 73657400 		.ascii	"set\000"
 829 03ca 08       		.byte	0x8
 830 03cb A6       		.byte	0xa6
 831 03cc 57000000 		.4byte	0x57
 832 03d0 02       		.byte	0x2
 833 03d1 23       		.byte	0x23
 834 03d2 00       		.uleb128 0
 835 03d3 15       		.uleb128 0x15
 836 03d4 8E010000 		.4byte	.LASF49
 837 03d8 08       		.byte	0x8
 838 03d9 A7       		.byte	0xa7
 839 03da 57000000 		.4byte	0x57
 840 03de 02       		.byte	0x2
 841 03df 23       		.byte	0x23
 842 03e0 02       		.uleb128 0x2
 843 03e1 00       		.byte	0
 844 03e2 16       		.uleb128 0x16
 845 03e3 04       		.byte	0x4
 846 03e4 08       		.byte	0x8
 847 03e5 A3       		.byte	0xa3
 848 03e6 FD030000 		.4byte	0x3fd
 849 03ea 17       		.uleb128 0x17
 850 03eb 5700     		.ascii	"W\000"
 851 03ed 08       		.byte	0x8
 852 03ee A4       		.byte	0xa4
 853 03ef 7B000000 		.4byte	0x7b
 854 03f3 17       		.uleb128 0x17
 855 03f4 4800     		.ascii	"H\000"
ARM GAS  /tmp/ccnDAJii.s 			page 16


 856 03f6 08       		.byte	0x8
 857 03f7 A8       		.byte	0xa8
 858 03f8 BD030000 		.4byte	0x3bd
 859 03fc 00       		.byte	0
 860 03fd 0E       		.uleb128 0xe
 861 03fe 2C       		.byte	0x2c
 862 03ff 08       		.byte	0x8
 863 0400 9B       		.byte	0x9b
 864 0401 A0040000 		.4byte	0x4a0
 865 0405 15       		.uleb128 0x15
 866 0406 7F010000 		.4byte	.LASF50
 867 040a 08       		.byte	0x8
 868 040b 9D       		.byte	0x9d
 869 040c 26010000 		.4byte	0x126
 870 0410 02       		.byte	0x2
 871 0411 23       		.byte	0x23
 872 0412 00       		.uleb128 0
 873 0413 15       		.uleb128 0x15
 874 0414 D3000000 		.4byte	.LASF51
 875 0418 08       		.byte	0x8
 876 0419 9E       		.byte	0x9e
 877 041a 26010000 		.4byte	0x126
 878 041e 02       		.byte	0x2
 879 041f 23       		.byte	0x23
 880 0420 04       		.uleb128 0x4
 881 0421 15       		.uleb128 0x15
 882 0422 EF020000 		.4byte	.LASF52
 883 0426 08       		.byte	0x8
 884 0427 9F       		.byte	0x9f
 885 0428 26010000 		.4byte	0x126
 886 042c 02       		.byte	0x2
 887 042d 23       		.byte	0x23
 888 042e 08       		.uleb128 0x8
 889 042f 15       		.uleb128 0x15
 890 0430 69020000 		.4byte	.LASF53
 891 0434 08       		.byte	0x8
 892 0435 A0       		.byte	0xa0
 893 0436 26010000 		.4byte	0x126
 894 043a 02       		.byte	0x2
 895 043b 23       		.byte	0x23
 896 043c 0C       		.uleb128 0xc
 897 043d 0D       		.uleb128 0xd
 898 043e 49445200 		.ascii	"IDR\000"
 899 0442 08       		.byte	0x8
 900 0443 A1       		.byte	0xa1
 901 0444 26010000 		.4byte	0x126
 902 0448 02       		.byte	0x2
 903 0449 23       		.byte	0x23
 904 044a 10       		.uleb128 0x10
 905 044b 0D       		.uleb128 0xd
 906 044c 4F445200 		.ascii	"ODR\000"
 907 0450 08       		.byte	0x8
 908 0451 A2       		.byte	0xa2
 909 0452 26010000 		.4byte	0x126
 910 0456 02       		.byte	0x2
 911 0457 23       		.byte	0x23
 912 0458 14       		.uleb128 0x14
ARM GAS  /tmp/ccnDAJii.s 			page 17


 913 0459 15       		.uleb128 0x15
 914 045a 73010000 		.4byte	.LASF54
 915 045e 08       		.byte	0x8
 916 045f A9       		.byte	0xa9
 917 0460 A0040000 		.4byte	0x4a0
 918 0464 02       		.byte	0x2
 919 0465 23       		.byte	0x23
 920 0466 18       		.uleb128 0x18
 921 0467 15       		.uleb128 0x15
 922 0468 66030000 		.4byte	.LASF55
 923 046c 08       		.byte	0x8
 924 046d AA       		.byte	0xaa
 925 046e 26010000 		.4byte	0x126
 926 0472 02       		.byte	0x2
 927 0473 23       		.byte	0x23
 928 0474 1C       		.uleb128 0x1c
 929 0475 15       		.uleb128 0x15
 930 0476 6F020000 		.4byte	.LASF56
 931 047a 08       		.byte	0x8
 932 047b AB       		.byte	0xab
 933 047c 26010000 		.4byte	0x126
 934 0480 02       		.byte	0x2
 935 0481 23       		.byte	0x23
 936 0482 20       		.uleb128 0x20
 937 0483 15       		.uleb128 0x15
 938 0484 64020000 		.4byte	.LASF57
 939 0488 08       		.byte	0x8
 940 0489 AC       		.byte	0xac
 941 048a 26010000 		.4byte	0x126
 942 048e 02       		.byte	0x2
 943 048f 23       		.byte	0x23
 944 0490 24       		.uleb128 0x24
 945 0491 0D       		.uleb128 0xd
 946 0492 42525200 		.ascii	"BRR\000"
 947 0496 08       		.byte	0x8
 948 0497 AD       		.byte	0xad
 949 0498 26010000 		.4byte	0x126
 950 049c 02       		.byte	0x2
 951 049d 23       		.byte	0x23
 952 049e 28       		.uleb128 0x28
 953 049f 00       		.byte	0
 954 04a0 08       		.uleb128 0x8
 955 04a1 E2030000 		.4byte	0x3e2
 956 04a5 04       		.uleb128 0x4
 957 04a6 51000000 		.4byte	.LASF58
 958 04aa 08       		.byte	0x8
 959 04ab AE       		.byte	0xae
 960 04ac FD030000 		.4byte	0x3fd
 961 04b0 0E       		.uleb128 0xe
 962 04b1 1C       		.byte	0x1c
 963 04b2 08       		.byte	0x8
 964 04b3 B3       		.byte	0xb3
 965 04b4 1B050000 		.4byte	0x51b
 966 04b8 15       		.uleb128 0x15
 967 04b9 57030000 		.4byte	.LASF59
 968 04bd 08       		.byte	0x8
 969 04be B5       		.byte	0xb5
ARM GAS  /tmp/ccnDAJii.s 			page 18


 970 04bf 7B000000 		.4byte	0x7b
 971 04c3 02       		.byte	0x2
 972 04c4 23       		.byte	0x23
 973 04c5 00       		.uleb128 0
 974 04c6 15       		.uleb128 0x15
 975 04c7 B0000000 		.4byte	.LASF60
 976 04cb 08       		.byte	0x8
 977 04cc B7       		.byte	0xb7
 978 04cd 7B000000 		.4byte	0x7b
 979 04d1 02       		.byte	0x2
 980 04d2 23       		.byte	0x23
 981 04d3 04       		.uleb128 0x4
 982 04d4 15       		.uleb128 0x15
 983 04d5 4F010000 		.4byte	.LASF61
 984 04d9 08       		.byte	0x8
 985 04da B9       		.byte	0xb9
 986 04db 7B000000 		.4byte	0x7b
 987 04df 02       		.byte	0x2
 988 04e0 23       		.byte	0x23
 989 04e1 08       		.uleb128 0x8
 990 04e2 15       		.uleb128 0x15
 991 04e3 15030000 		.4byte	.LASF62
 992 04e7 08       		.byte	0x8
 993 04e8 BB       		.byte	0xbb
 994 04e9 7B000000 		.4byte	0x7b
 995 04ed 02       		.byte	0x2
 996 04ee 23       		.byte	0x23
 997 04ef 0C       		.uleb128 0xc
 998 04f0 0D       		.uleb128 0xd
 999 04f1 6F647200 		.ascii	"odr\000"
 1000 04f5 08       		.byte	0x8
 1001 04f6 BD       		.byte	0xbd
 1002 04f7 7B000000 		.4byte	0x7b
 1003 04fb 02       		.byte	0x2
 1004 04fc 23       		.byte	0x23
 1005 04fd 10       		.uleb128 0x10
 1006 04fe 15       		.uleb128 0x15
 1007 04ff 52030000 		.4byte	.LASF63
 1008 0503 08       		.byte	0x8
 1009 0504 BF       		.byte	0xbf
 1010 0505 7B000000 		.4byte	0x7b
 1011 0509 02       		.byte	0x2
 1012 050a 23       		.byte	0x23
 1013 050b 14       		.uleb128 0x14
 1014 050c 15       		.uleb128 0x15
 1015 050d 33030000 		.4byte	.LASF64
 1016 0511 08       		.byte	0x8
 1017 0512 C1       		.byte	0xc1
 1018 0513 7B000000 		.4byte	0x7b
 1019 0517 02       		.byte	0x2
 1020 0518 23       		.byte	0x23
 1021 0519 18       		.uleb128 0x18
 1022 051a 00       		.byte	0
 1023 051b 04       		.uleb128 0x4
 1024 051c 1E000000 		.4byte	.LASF65
 1025 0520 08       		.byte	0x8
 1026 0521 C2       		.byte	0xc2
ARM GAS  /tmp/ccnDAJii.s 			page 19


 1027 0522 B0040000 		.4byte	0x4b0
 1028 0526 0E       		.uleb128 0xe
 1029 0527 8C       		.byte	0x8c
 1030 0528 08       		.byte	0x8
 1031 0529 CB       		.byte	0xcb
 1032 052a 75050000 		.4byte	0x575
 1033 052e 15       		.uleb128 0x15
 1034 052f FE000000 		.4byte	.LASF66
 1035 0533 08       		.byte	0x8
 1036 0534 CD       		.byte	0xcd
 1037 0535 1B050000 		.4byte	0x51b
 1038 0539 02       		.byte	0x2
 1039 053a 23       		.byte	0x23
 1040 053b 00       		.uleb128 0
 1041 053c 15       		.uleb128 0x15
 1042 053d C9020000 		.4byte	.LASF67
 1043 0541 08       		.byte	0x8
 1044 0542 CF       		.byte	0xcf
 1045 0543 1B050000 		.4byte	0x51b
 1046 0547 02       		.byte	0x2
 1047 0548 23       		.byte	0x23
 1048 0549 1C       		.uleb128 0x1c
 1049 054a 15       		.uleb128 0x15
 1050 054b 00000000 		.4byte	.LASF68
 1051 054f 08       		.byte	0x8
 1052 0550 D1       		.byte	0xd1
 1053 0551 1B050000 		.4byte	0x51b
 1054 0555 02       		.byte	0x2
 1055 0556 23       		.byte	0x23
 1056 0557 38       		.uleb128 0x38
 1057 0558 15       		.uleb128 0x15
 1058 0559 60010000 		.4byte	.LASF69
 1059 055d 08       		.byte	0x8
 1060 055e D3       		.byte	0xd3
 1061 055f 1B050000 		.4byte	0x51b
 1062 0563 02       		.byte	0x2
 1063 0564 23       		.byte	0x23
 1064 0565 54       		.uleb128 0x54
 1065 0566 15       		.uleb128 0x15
 1066 0567 31000000 		.4byte	.LASF70
 1067 056b 08       		.byte	0x8
 1068 056c DA       		.byte	0xda
 1069 056d 1B050000 		.4byte	0x51b
 1070 0571 02       		.byte	0x2
 1071 0572 23       		.byte	0x23
 1072 0573 70       		.uleb128 0x70
 1073 0574 00       		.byte	0
 1074 0575 04       		.uleb128 0x4
 1075 0576 BF020000 		.4byte	.LASF71
 1076 057a 08       		.byte	0x8
 1077 057b E8       		.byte	0xe8
 1078 057c 26050000 		.4byte	0x526
 1079 0580 04       		.uleb128 0x4
 1080 0581 87020000 		.4byte	.LASF72
 1081 0585 08       		.byte	0x8
 1082 0586 F8       		.byte	0xf8
 1083 0587 7B000000 		.4byte	0x7b
ARM GAS  /tmp/ccnDAJii.s 			page 20


 1084 058b 04       		.uleb128 0x4
 1085 058c 53020000 		.4byte	.LASF73
 1086 0590 08       		.byte	0x8
 1087 0591 FD       		.byte	0xfd
 1088 0592 7B000000 		.4byte	0x7b
 1089 0596 0A       		.uleb128 0xa
 1090 0597 FA010000 		.4byte	.LASF74
 1091 059b 08       		.byte	0x8
 1092 059c 0501     		.2byte	0x105
 1093 059e A2050000 		.4byte	0x5a2
 1094 05a2 0F       		.uleb128 0xf
 1095 05a3 04       		.byte	0x4
 1096 05a4 A5040000 		.4byte	0x4a5
 1097 05a8 18       		.uleb128 0x18
 1098 05a9 3E000000 		.4byte	.LASF87
 1099 05ad 01       		.byte	0x1
 1100 05ae 4C       		.byte	0x4c
 1101 05af 01       		.byte	0x1
 1102 05b0 00000000 		.4byte	.LFB77
 1103 05b4 1E000000 		.4byte	.LFE77
 1104 05b8 02       		.byte	0x2
 1105 05b9 7D       		.byte	0x7d
 1106 05ba 00       		.sleb128 0
 1107 05bb 01       		.byte	0x1
 1108 05bc DD050000 		.4byte	0x5dd
 1109 05c0 19       		.uleb128 0x19
 1110 05c1 79000000 		.4byte	.LASF75
 1111 05c5 01       		.byte	0x1
 1112 05c6 4C       		.byte	0x4c
 1113 05c7 A2050000 		.4byte	0x5a2
 1114 05cb 01       		.byte	0x1
 1115 05cc 50       		.byte	0x50
 1116 05cd 1A       		.uleb128 0x1a
 1117 05ce 9B000000 		.4byte	.LASF76
 1118 05d2 01       		.byte	0x1
 1119 05d3 4C       		.byte	0x4c
 1120 05d4 DD050000 		.4byte	0x5dd
 1121 05d8 00000000 		.4byte	.LLST0
 1122 05dc 00       		.byte	0
 1123 05dd 0F       		.uleb128 0xf
 1124 05de 04       		.byte	0x4
 1125 05df E3050000 		.4byte	0x5e3
 1126 05e3 1B       		.uleb128 0x1b
 1127 05e4 1B050000 		.4byte	0x51b
 1128 05e8 1C       		.uleb128 0x1c
 1129 05e9 01       		.byte	0x1
 1130 05ea 10000000 		.4byte	.LASF77
 1131 05ee 01       		.byte	0x1
 1132 05ef 67       		.byte	0x67
 1133 05f0 01       		.byte	0x1
 1134 05f1 00000000 		.4byte	.LFB78
 1135 05f5 58000000 		.4byte	.LFE78
 1136 05f9 21000000 		.4byte	.LLST1
 1137 05fd 01       		.byte	0x1
 1138 05fe 9F060000 		.4byte	0x69f
 1139 0602 1A       		.uleb128 0x1a
 1140 0603 9B000000 		.4byte	.LASF76
ARM GAS  /tmp/ccnDAJii.s 			page 21


 1141 0607 01       		.byte	0x1
 1142 0608 67       		.byte	0x67
 1143 0609 9F060000 		.4byte	0x69f
 1144 060d 41000000 		.4byte	.LLST2
 1145 0611 1D       		.uleb128 0x1d
 1146 0612 1A000000 		.4byte	.LVL4
 1147 0616 A8050000 		.4byte	0x5a8
 1148 061a 2C060000 		.4byte	0x62c
 1149 061e 1E       		.uleb128 0x1e
 1150 061f 01       		.byte	0x1
 1151 0620 51       		.byte	0x51
 1152 0621 02       		.byte	0x2
 1153 0622 74       		.byte	0x74
 1154 0623 00       		.sleb128 0
 1155 0624 1E       		.uleb128 0x1e
 1156 0625 01       		.byte	0x1
 1157 0626 50       		.byte	0x50
 1158 0627 03       		.byte	0x3
 1159 0628 42       		.byte	0x42
 1160 0629 4A       		.byte	0x4a
 1161 062a 24       		.byte	0x24
 1162 062b 00       		.byte	0
 1163 062c 1D       		.uleb128 0x1d
 1164 062d 24000000 		.4byte	.LVL5
 1165 0631 A8050000 		.4byte	0x5a8
 1166 0635 49060000 		.4byte	0x649
 1167 0639 1E       		.uleb128 0x1e
 1168 063a 01       		.byte	0x1
 1169 063b 51       		.byte	0x51
 1170 063c 02       		.byte	0x2
 1171 063d 74       		.byte	0x74
 1172 063e 1C       		.sleb128 28
 1173 063f 1E       		.uleb128 0x1e
 1174 0640 01       		.byte	0x1
 1175 0641 50       		.byte	0x50
 1176 0642 05       		.byte	0x5
 1177 0643 0C       		.byte	0xc
 1178 0644 00040048 		.4byte	0x48000400
 1179 0648 00       		.byte	0
 1180 0649 1D       		.uleb128 0x1d
 1181 064a 2E000000 		.4byte	.LVL6
 1182 064e A8050000 		.4byte	0x5a8
 1183 0652 66060000 		.4byte	0x666
 1184 0656 1E       		.uleb128 0x1e
 1185 0657 01       		.byte	0x1
 1186 0658 51       		.byte	0x51
 1187 0659 02       		.byte	0x2
 1188 065a 74       		.byte	0x74
 1189 065b 38       		.sleb128 56
 1190 065c 1E       		.uleb128 0x1e
 1191 065d 01       		.byte	0x1
 1192 065e 50       		.byte	0x50
 1193 065f 05       		.byte	0x5
 1194 0660 0C       		.byte	0xc
 1195 0661 00080048 		.4byte	0x48000800
 1196 0665 00       		.byte	0
 1197 0666 1D       		.uleb128 0x1d
ARM GAS  /tmp/ccnDAJii.s 			page 22


 1198 0667 38000000 		.4byte	.LVL7
 1199 066b A8050000 		.4byte	0x5a8
 1200 066f 84060000 		.4byte	0x684
 1201 0673 1E       		.uleb128 0x1e
 1202 0674 01       		.byte	0x1
 1203 0675 51       		.byte	0x51
 1204 0676 03       		.byte	0x3
 1205 0677 74       		.byte	0x74
 1206 0678 D400     		.sleb128 84
 1207 067a 1E       		.uleb128 0x1e
 1208 067b 01       		.byte	0x1
 1209 067c 50       		.byte	0x50
 1210 067d 05       		.byte	0x5
 1211 067e 0C       		.byte	0xc
 1212 067f 000C0048 		.4byte	0x48000c00
 1213 0683 00       		.byte	0
 1214 0684 1F       		.uleb128 0x1f
 1215 0685 42000000 		.4byte	.LVL8
 1216 0689 A8050000 		.4byte	0x5a8
 1217 068d 1E       		.uleb128 0x1e
 1218 068e 01       		.byte	0x1
 1219 068f 51       		.byte	0x51
 1220 0690 03       		.byte	0x3
 1221 0691 74       		.byte	0x74
 1222 0692 F000     		.sleb128 112
 1223 0694 1E       		.uleb128 0x1e
 1224 0695 01       		.byte	0x1
 1225 0696 50       		.byte	0x50
 1226 0697 05       		.byte	0x5
 1227 0698 0C       		.byte	0xc
 1228 0699 00140048 		.4byte	0x48001400
 1229 069d 00       		.byte	0
 1230 069e 00       		.byte	0
 1231 069f 0F       		.uleb128 0xf
 1232 06a0 04       		.byte	0x4
 1233 06a1 A5060000 		.4byte	0x6a5
 1234 06a5 1B       		.uleb128 0x1b
 1235 06a6 75050000 		.4byte	0x575
 1236 06aa 1C       		.uleb128 0x1c
 1237 06ab 01       		.byte	0x1
 1238 06ac 39010000 		.4byte	.LASF78
 1239 06b0 01       		.byte	0x1
 1240 06b1 9E       		.byte	0x9e
 1241 06b2 01       		.byte	0x1
 1242 06b3 00000000 		.4byte	.LFB79
 1243 06b7 98000000 		.4byte	.LFE79
 1244 06bb 6D000000 		.4byte	.LLST3
 1245 06bf 01       		.byte	0x1
 1246 06c0 8D070000 		.4byte	0x78d
 1247 06c4 19       		.uleb128 0x19
 1248 06c5 DE020000 		.4byte	.LASF79
 1249 06c9 01       		.byte	0x1
 1250 06ca 9E       		.byte	0x9e
 1251 06cb 96050000 		.4byte	0x596
 1252 06cf 01       		.byte	0x1
 1253 06d0 50       		.byte	0x50
 1254 06d1 1A       		.uleb128 0x1a
ARM GAS  /tmp/ccnDAJii.s 			page 23


 1255 06d2 76030000 		.4byte	.LASF80
 1256 06d6 01       		.byte	0x1
 1257 06d7 9F       		.byte	0x9f
 1258 06d8 80050000 		.4byte	0x580
 1259 06dc 99000000 		.4byte	.LLST4
 1260 06e0 1A       		.uleb128 0x1a
 1261 06e1 96000000 		.4byte	.LASF81
 1262 06e5 01       		.byte	0x1
 1263 06e6 A0       		.byte	0xa0
 1264 06e7 8B050000 		.4byte	0x58b
 1265 06eb B7000000 		.4byte	.LLST5
 1266 06ef 20       		.uleb128 0x20
 1267 06f0 57030000 		.4byte	.LASF59
 1268 06f4 01       		.byte	0x1
 1269 06f5 A2       		.byte	0xa2
 1270 06f6 7B000000 		.4byte	0x7b
 1271 06fa D8000000 		.4byte	.LLST6
 1272 06fe 20       		.uleb128 0x20
 1273 06ff B0000000 		.4byte	.LASF60
 1274 0703 01       		.byte	0x1
 1275 0704 A3       		.byte	0xa3
 1276 0705 7B000000 		.4byte	0x7b
 1277 0709 0E010000 		.4byte	.LLST7
 1278 070d 20       		.uleb128 0x20
 1279 070e 4F010000 		.4byte	.LASF61
 1280 0712 01       		.byte	0x1
 1281 0713 A4       		.byte	0xa4
 1282 0714 7B000000 		.4byte	0x7b
 1283 0718 21010000 		.4byte	.LLST8
 1284 071c 20       		.uleb128 0x20
 1285 071d 15030000 		.4byte	.LASF62
 1286 0721 01       		.byte	0x1
 1287 0722 A5       		.byte	0xa5
 1288 0723 7B000000 		.4byte	0x7b
 1289 0727 34010000 		.4byte	.LLST9
 1290 072b 20       		.uleb128 0x20
 1291 072c E3020000 		.4byte	.LASF82
 1292 0730 01       		.byte	0x1
 1293 0731 A6       		.byte	0xa6
 1294 0732 7B000000 		.4byte	0x7b
 1295 0736 47010000 		.4byte	.LLST10
 1296 073a 21       		.uleb128 0x21
 1297 073b 62697400 		.ascii	"bit\000"
 1298 073f 01       		.byte	0x1
 1299 0740 A7       		.byte	0xa7
 1300 0741 7B000000 		.4byte	0x7b
 1301 0745 66010000 		.4byte	.LLST11
 1302 0749 22       		.uleb128 0x22
 1303 074a 22000000 		.4byte	.LBB2
 1304 074e 80000000 		.4byte	.LBE2
 1305 0752 20       		.uleb128 0x20
 1306 0753 5D030000 		.4byte	.LASF83
 1307 0757 01       		.byte	0x1
 1308 0758 AA       		.byte	0xaa
 1309 0759 7B000000 		.4byte	0x7b
 1310 075d 85010000 		.4byte	.LLST12
 1311 0761 21       		.uleb128 0x21
ARM GAS  /tmp/ccnDAJii.s 			page 24


 1312 0762 6D3100   		.ascii	"m1\000"
 1313 0765 01       		.byte	0x1
 1314 0766 AA       		.byte	0xaa
 1315 0767 7B000000 		.4byte	0x7b
 1316 076b A4010000 		.4byte	.LLST13
 1317 076f 21       		.uleb128 0x21
 1318 0770 6D3200   		.ascii	"m2\000"
 1319 0773 01       		.byte	0x1
 1320 0774 AA       		.byte	0xaa
 1321 0775 7B000000 		.4byte	0x7b
 1322 0779 D5010000 		.4byte	.LLST14
 1323 077d 21       		.uleb128 0x21
 1324 077e 6D3400   		.ascii	"m4\000"
 1325 0781 01       		.byte	0x1
 1326 0782 AA       		.byte	0xaa
 1327 0783 7B000000 		.4byte	0x7b
 1328 0787 18020000 		.4byte	.LLST15
 1329 078b 00       		.byte	0
 1330 078c 00       		.byte	0
 1331 078d 23       		.uleb128 0x23
 1332 078e 6E696C00 		.ascii	"nil\000"
 1333 0792 03       		.byte	0x3
 1334 0793 F602     		.2byte	0x2f6
 1335 0795 AA030000 		.4byte	0x3aa
 1336 0799 01       		.byte	0x1
 1337 079a 01       		.byte	0x1
 1338 079b 00       		.byte	0
 1339              		.section	.debug_abbrev,"",%progbits
 1340              	.Ldebug_abbrev0:
 1341 0000 01       		.uleb128 0x1
 1342 0001 11       		.uleb128 0x11
 1343 0002 01       		.byte	0x1
 1344 0003 25       		.uleb128 0x25
 1345 0004 0E       		.uleb128 0xe
 1346 0005 13       		.uleb128 0x13
 1347 0006 0B       		.uleb128 0xb
 1348 0007 03       		.uleb128 0x3
 1349 0008 0E       		.uleb128 0xe
 1350 0009 1B       		.uleb128 0x1b
 1351 000a 0E       		.uleb128 0xe
 1352 000b 55       		.uleb128 0x55
 1353 000c 06       		.uleb128 0x6
 1354 000d 11       		.uleb128 0x11
 1355 000e 01       		.uleb128 0x1
 1356 000f 52       		.uleb128 0x52
 1357 0010 01       		.uleb128 0x1
 1358 0011 10       		.uleb128 0x10
 1359 0012 06       		.uleb128 0x6
 1360 0013 00       		.byte	0
 1361 0014 00       		.byte	0
 1362 0015 02       		.uleb128 0x2
 1363 0016 24       		.uleb128 0x24
 1364 0017 00       		.byte	0
 1365 0018 0B       		.uleb128 0xb
 1366 0019 0B       		.uleb128 0xb
 1367 001a 3E       		.uleb128 0x3e
 1368 001b 0B       		.uleb128 0xb
ARM GAS  /tmp/ccnDAJii.s 			page 25


 1369 001c 03       		.uleb128 0x3
 1370 001d 08       		.uleb128 0x8
 1371 001e 00       		.byte	0
 1372 001f 00       		.byte	0
 1373 0020 03       		.uleb128 0x3
 1374 0021 24       		.uleb128 0x24
 1375 0022 00       		.byte	0
 1376 0023 0B       		.uleb128 0xb
 1377 0024 0B       		.uleb128 0xb
 1378 0025 3E       		.uleb128 0x3e
 1379 0026 0B       		.uleb128 0xb
 1380 0027 03       		.uleb128 0x3
 1381 0028 0E       		.uleb128 0xe
 1382 0029 00       		.byte	0
 1383 002a 00       		.byte	0
 1384 002b 04       		.uleb128 0x4
 1385 002c 16       		.uleb128 0x16
 1386 002d 00       		.byte	0
 1387 002e 03       		.uleb128 0x3
 1388 002f 0E       		.uleb128 0xe
 1389 0030 3A       		.uleb128 0x3a
 1390 0031 0B       		.uleb128 0xb
 1391 0032 3B       		.uleb128 0x3b
 1392 0033 0B       		.uleb128 0xb
 1393 0034 49       		.uleb128 0x49
 1394 0035 13       		.uleb128 0x13
 1395 0036 00       		.byte	0
 1396 0037 00       		.byte	0
 1397 0038 05       		.uleb128 0x5
 1398 0039 13       		.uleb128 0x13
 1399 003a 01       		.byte	0x1
 1400 003b 03       		.uleb128 0x3
 1401 003c 0E       		.uleb128 0xe
 1402 003d 0B       		.uleb128 0xb
 1403 003e 0B       		.uleb128 0xb
 1404 003f 3A       		.uleb128 0x3a
 1405 0040 0B       		.uleb128 0xb
 1406 0041 3B       		.uleb128 0x3b
 1407 0042 05       		.uleb128 0x5
 1408 0043 01       		.uleb128 0x1
 1409 0044 13       		.uleb128 0x13
 1410 0045 00       		.byte	0
 1411 0046 00       		.byte	0
 1412 0047 06       		.uleb128 0x6
 1413 0048 0D       		.uleb128 0xd
 1414 0049 00       		.byte	0
 1415 004a 03       		.uleb128 0x3
 1416 004b 0E       		.uleb128 0xe
 1417 004c 3A       		.uleb128 0x3a
 1418 004d 0B       		.uleb128 0xb
 1419 004e 3B       		.uleb128 0x3b
 1420 004f 05       		.uleb128 0x5
 1421 0050 49       		.uleb128 0x49
 1422 0051 13       		.uleb128 0x13
 1423 0052 38       		.uleb128 0x38
 1424 0053 0A       		.uleb128 0xa
 1425 0054 00       		.byte	0
ARM GAS  /tmp/ccnDAJii.s 			page 26


 1426 0055 00       		.byte	0
 1427 0056 07       		.uleb128 0x7
 1428 0057 0D       		.uleb128 0xd
 1429 0058 00       		.byte	0
 1430 0059 03       		.uleb128 0x3
 1431 005a 08       		.uleb128 0x8
 1432 005b 3A       		.uleb128 0x3a
 1433 005c 0B       		.uleb128 0xb
 1434 005d 3B       		.uleb128 0x3b
 1435 005e 05       		.uleb128 0x5
 1436 005f 49       		.uleb128 0x49
 1437 0060 13       		.uleb128 0x13
 1438 0061 38       		.uleb128 0x38
 1439 0062 0A       		.uleb128 0xa
 1440 0063 00       		.byte	0
 1441 0064 00       		.byte	0
 1442 0065 08       		.uleb128 0x8
 1443 0066 35       		.uleb128 0x35
 1444 0067 00       		.byte	0
 1445 0068 49       		.uleb128 0x49
 1446 0069 13       		.uleb128 0x13
 1447 006a 00       		.byte	0
 1448 006b 00       		.byte	0
 1449 006c 09       		.uleb128 0x9
 1450 006d 13       		.uleb128 0x13
 1451 006e 01       		.byte	0x1
 1452 006f 0B       		.uleb128 0xb
 1453 0070 0B       		.uleb128 0xb
 1454 0071 3A       		.uleb128 0x3a
 1455 0072 0B       		.uleb128 0xb
 1456 0073 3B       		.uleb128 0x3b
 1457 0074 05       		.uleb128 0x5
 1458 0075 01       		.uleb128 0x1
 1459 0076 13       		.uleb128 0x13
 1460 0077 00       		.byte	0
 1461 0078 00       		.byte	0
 1462 0079 0A       		.uleb128 0xa
 1463 007a 16       		.uleb128 0x16
 1464 007b 00       		.byte	0
 1465 007c 03       		.uleb128 0x3
 1466 007d 0E       		.uleb128 0xe
 1467 007e 3A       		.uleb128 0x3a
 1468 007f 0B       		.uleb128 0xb
 1469 0080 3B       		.uleb128 0x3b
 1470 0081 05       		.uleb128 0x5
 1471 0082 49       		.uleb128 0x49
 1472 0083 13       		.uleb128 0x13
 1473 0084 00       		.byte	0
 1474 0085 00       		.byte	0
 1475 0086 0B       		.uleb128 0xb
 1476 0087 0F       		.uleb128 0xf
 1477 0088 00       		.byte	0
 1478 0089 0B       		.uleb128 0xb
 1479 008a 0B       		.uleb128 0xb
 1480 008b 00       		.byte	0
 1481 008c 00       		.byte	0
 1482 008d 0C       		.uleb128 0xc
ARM GAS  /tmp/ccnDAJii.s 			page 27


 1483 008e 13       		.uleb128 0x13
 1484 008f 01       		.byte	0x1
 1485 0090 03       		.uleb128 0x3
 1486 0091 0E       		.uleb128 0xe
 1487 0092 0B       		.uleb128 0xb
 1488 0093 0B       		.uleb128 0xb
 1489 0094 3A       		.uleb128 0x3a
 1490 0095 0B       		.uleb128 0xb
 1491 0096 3B       		.uleb128 0x3b
 1492 0097 0B       		.uleb128 0xb
 1493 0098 01       		.uleb128 0x1
 1494 0099 13       		.uleb128 0x13
 1495 009a 00       		.byte	0
 1496 009b 00       		.byte	0
 1497 009c 0D       		.uleb128 0xd
 1498 009d 0D       		.uleb128 0xd
 1499 009e 00       		.byte	0
 1500 009f 03       		.uleb128 0x3
 1501 00a0 08       		.uleb128 0x8
 1502 00a1 3A       		.uleb128 0x3a
 1503 00a2 0B       		.uleb128 0xb
 1504 00a3 3B       		.uleb128 0x3b
 1505 00a4 0B       		.uleb128 0xb
 1506 00a5 49       		.uleb128 0x49
 1507 00a6 13       		.uleb128 0x13
 1508 00a7 38       		.uleb128 0x38
 1509 00a8 0A       		.uleb128 0xa
 1510 00a9 00       		.byte	0
 1511 00aa 00       		.byte	0
 1512 00ab 0E       		.uleb128 0xe
 1513 00ac 13       		.uleb128 0x13
 1514 00ad 01       		.byte	0x1
 1515 00ae 0B       		.uleb128 0xb
 1516 00af 0B       		.uleb128 0xb
 1517 00b0 3A       		.uleb128 0x3a
 1518 00b1 0B       		.uleb128 0xb
 1519 00b2 3B       		.uleb128 0x3b
 1520 00b3 0B       		.uleb128 0xb
 1521 00b4 01       		.uleb128 0x1
 1522 00b5 13       		.uleb128 0x13
 1523 00b6 00       		.byte	0
 1524 00b7 00       		.byte	0
 1525 00b8 0F       		.uleb128 0xf
 1526 00b9 0F       		.uleb128 0xf
 1527 00ba 00       		.byte	0
 1528 00bb 0B       		.uleb128 0xb
 1529 00bc 0B       		.uleb128 0xb
 1530 00bd 49       		.uleb128 0x49
 1531 00be 13       		.uleb128 0x13
 1532 00bf 00       		.byte	0
 1533 00c0 00       		.byte	0
 1534 00c1 10       		.uleb128 0x10
 1535 00c2 17       		.uleb128 0x17
 1536 00c3 01       		.byte	0x1
 1537 00c4 0B       		.uleb128 0xb
 1538 00c5 0B       		.uleb128 0xb
 1539 00c6 3A       		.uleb128 0x3a
ARM GAS  /tmp/ccnDAJii.s 			page 28


 1540 00c7 0B       		.uleb128 0xb
 1541 00c8 3B       		.uleb128 0x3b
 1542 00c9 05       		.uleb128 0x5
 1543 00ca 01       		.uleb128 0x1
 1544 00cb 13       		.uleb128 0x13
 1545 00cc 00       		.byte	0
 1546 00cd 00       		.byte	0
 1547 00ce 11       		.uleb128 0x11
 1548 00cf 0D       		.uleb128 0xd
 1549 00d0 00       		.byte	0
 1550 00d1 03       		.uleb128 0x3
 1551 00d2 08       		.uleb128 0x8
 1552 00d3 3A       		.uleb128 0x3a
 1553 00d4 0B       		.uleb128 0xb
 1554 00d5 3B       		.uleb128 0x3b
 1555 00d6 05       		.uleb128 0x5
 1556 00d7 49       		.uleb128 0x49
 1557 00d8 13       		.uleb128 0x13
 1558 00d9 00       		.byte	0
 1559 00da 00       		.byte	0
 1560 00db 12       		.uleb128 0x12
 1561 00dc 0D       		.uleb128 0xd
 1562 00dd 00       		.byte	0
 1563 00de 03       		.uleb128 0x3
 1564 00df 0E       		.uleb128 0xe
 1565 00e0 3A       		.uleb128 0x3a
 1566 00e1 0B       		.uleb128 0xb
 1567 00e2 3B       		.uleb128 0x3b
 1568 00e3 05       		.uleb128 0x5
 1569 00e4 49       		.uleb128 0x49
 1570 00e5 13       		.uleb128 0x13
 1571 00e6 00       		.byte	0
 1572 00e7 00       		.byte	0
 1573 00e8 13       		.uleb128 0x13
 1574 00e9 01       		.uleb128 0x1
 1575 00ea 01       		.byte	0x1
 1576 00eb 49       		.uleb128 0x49
 1577 00ec 13       		.uleb128 0x13
 1578 00ed 01       		.uleb128 0x1
 1579 00ee 13       		.uleb128 0x13
 1580 00ef 00       		.byte	0
 1581 00f0 00       		.byte	0
 1582 00f1 14       		.uleb128 0x14
 1583 00f2 21       		.uleb128 0x21
 1584 00f3 00       		.byte	0
 1585 00f4 49       		.uleb128 0x49
 1586 00f5 13       		.uleb128 0x13
 1587 00f6 2F       		.uleb128 0x2f
 1588 00f7 0B       		.uleb128 0xb
 1589 00f8 00       		.byte	0
 1590 00f9 00       		.byte	0
 1591 00fa 15       		.uleb128 0x15
 1592 00fb 0D       		.uleb128 0xd
 1593 00fc 00       		.byte	0
 1594 00fd 03       		.uleb128 0x3
 1595 00fe 0E       		.uleb128 0xe
 1596 00ff 3A       		.uleb128 0x3a
ARM GAS  /tmp/ccnDAJii.s 			page 29


 1597 0100 0B       		.uleb128 0xb
 1598 0101 3B       		.uleb128 0x3b
 1599 0102 0B       		.uleb128 0xb
 1600 0103 49       		.uleb128 0x49
 1601 0104 13       		.uleb128 0x13
 1602 0105 38       		.uleb128 0x38
 1603 0106 0A       		.uleb128 0xa
 1604 0107 00       		.byte	0
 1605 0108 00       		.byte	0
 1606 0109 16       		.uleb128 0x16
 1607 010a 17       		.uleb128 0x17
 1608 010b 01       		.byte	0x1
 1609 010c 0B       		.uleb128 0xb
 1610 010d 0B       		.uleb128 0xb
 1611 010e 3A       		.uleb128 0x3a
 1612 010f 0B       		.uleb128 0xb
 1613 0110 3B       		.uleb128 0x3b
 1614 0111 0B       		.uleb128 0xb
 1615 0112 01       		.uleb128 0x1
 1616 0113 13       		.uleb128 0x13
 1617 0114 00       		.byte	0
 1618 0115 00       		.byte	0
 1619 0116 17       		.uleb128 0x17
 1620 0117 0D       		.uleb128 0xd
 1621 0118 00       		.byte	0
 1622 0119 03       		.uleb128 0x3
 1623 011a 08       		.uleb128 0x8
 1624 011b 3A       		.uleb128 0x3a
 1625 011c 0B       		.uleb128 0xb
 1626 011d 3B       		.uleb128 0x3b
 1627 011e 0B       		.uleb128 0xb
 1628 011f 49       		.uleb128 0x49
 1629 0120 13       		.uleb128 0x13
 1630 0121 00       		.byte	0
 1631 0122 00       		.byte	0
 1632 0123 18       		.uleb128 0x18
 1633 0124 2E       		.uleb128 0x2e
 1634 0125 01       		.byte	0x1
 1635 0126 03       		.uleb128 0x3
 1636 0127 0E       		.uleb128 0xe
 1637 0128 3A       		.uleb128 0x3a
 1638 0129 0B       		.uleb128 0xb
 1639 012a 3B       		.uleb128 0x3b
 1640 012b 0B       		.uleb128 0xb
 1641 012c 27       		.uleb128 0x27
 1642 012d 0C       		.uleb128 0xc
 1643 012e 11       		.uleb128 0x11
 1644 012f 01       		.uleb128 0x1
 1645 0130 12       		.uleb128 0x12
 1646 0131 01       		.uleb128 0x1
 1647 0132 40       		.uleb128 0x40
 1648 0133 0A       		.uleb128 0xa
 1649 0134 9742     		.uleb128 0x2117
 1650 0136 0C       		.uleb128 0xc
 1651 0137 01       		.uleb128 0x1
 1652 0138 13       		.uleb128 0x13
 1653 0139 00       		.byte	0
ARM GAS  /tmp/ccnDAJii.s 			page 30


 1654 013a 00       		.byte	0
 1655 013b 19       		.uleb128 0x19
 1656 013c 05       		.uleb128 0x5
 1657 013d 00       		.byte	0
 1658 013e 03       		.uleb128 0x3
 1659 013f 0E       		.uleb128 0xe
 1660 0140 3A       		.uleb128 0x3a
 1661 0141 0B       		.uleb128 0xb
 1662 0142 3B       		.uleb128 0x3b
 1663 0143 0B       		.uleb128 0xb
 1664 0144 49       		.uleb128 0x49
 1665 0145 13       		.uleb128 0x13
 1666 0146 02       		.uleb128 0x2
 1667 0147 0A       		.uleb128 0xa
 1668 0148 00       		.byte	0
 1669 0149 00       		.byte	0
 1670 014a 1A       		.uleb128 0x1a
 1671 014b 05       		.uleb128 0x5
 1672 014c 00       		.byte	0
 1673 014d 03       		.uleb128 0x3
 1674 014e 0E       		.uleb128 0xe
 1675 014f 3A       		.uleb128 0x3a
 1676 0150 0B       		.uleb128 0xb
 1677 0151 3B       		.uleb128 0x3b
 1678 0152 0B       		.uleb128 0xb
 1679 0153 49       		.uleb128 0x49
 1680 0154 13       		.uleb128 0x13
 1681 0155 02       		.uleb128 0x2
 1682 0156 06       		.uleb128 0x6
 1683 0157 00       		.byte	0
 1684 0158 00       		.byte	0
 1685 0159 1B       		.uleb128 0x1b
 1686 015a 26       		.uleb128 0x26
 1687 015b 00       		.byte	0
 1688 015c 49       		.uleb128 0x49
 1689 015d 13       		.uleb128 0x13
 1690 015e 00       		.byte	0
 1691 015f 00       		.byte	0
 1692 0160 1C       		.uleb128 0x1c
 1693 0161 2E       		.uleb128 0x2e
 1694 0162 01       		.byte	0x1
 1695 0163 3F       		.uleb128 0x3f
 1696 0164 0C       		.uleb128 0xc
 1697 0165 03       		.uleb128 0x3
 1698 0166 0E       		.uleb128 0xe
 1699 0167 3A       		.uleb128 0x3a
 1700 0168 0B       		.uleb128 0xb
 1701 0169 3B       		.uleb128 0x3b
 1702 016a 0B       		.uleb128 0xb
 1703 016b 27       		.uleb128 0x27
 1704 016c 0C       		.uleb128 0xc
 1705 016d 11       		.uleb128 0x11
 1706 016e 01       		.uleb128 0x1
 1707 016f 12       		.uleb128 0x12
 1708 0170 01       		.uleb128 0x1
 1709 0171 40       		.uleb128 0x40
 1710 0172 06       		.uleb128 0x6
ARM GAS  /tmp/ccnDAJii.s 			page 31


 1711 0173 9742     		.uleb128 0x2117
 1712 0175 0C       		.uleb128 0xc
 1713 0176 01       		.uleb128 0x1
 1714 0177 13       		.uleb128 0x13
 1715 0178 00       		.byte	0
 1716 0179 00       		.byte	0
 1717 017a 1D       		.uleb128 0x1d
 1718 017b 898201   		.uleb128 0x4109
 1719 017e 01       		.byte	0x1
 1720 017f 11       		.uleb128 0x11
 1721 0180 01       		.uleb128 0x1
 1722 0181 31       		.uleb128 0x31
 1723 0182 13       		.uleb128 0x13
 1724 0183 01       		.uleb128 0x1
 1725 0184 13       		.uleb128 0x13
 1726 0185 00       		.byte	0
 1727 0186 00       		.byte	0
 1728 0187 1E       		.uleb128 0x1e
 1729 0188 8A8201   		.uleb128 0x410a
 1730 018b 00       		.byte	0
 1731 018c 02       		.uleb128 0x2
 1732 018d 0A       		.uleb128 0xa
 1733 018e 9142     		.uleb128 0x2111
 1734 0190 0A       		.uleb128 0xa
 1735 0191 00       		.byte	0
 1736 0192 00       		.byte	0
 1737 0193 1F       		.uleb128 0x1f
 1738 0194 898201   		.uleb128 0x4109
 1739 0197 01       		.byte	0x1
 1740 0198 11       		.uleb128 0x11
 1741 0199 01       		.uleb128 0x1
 1742 019a 31       		.uleb128 0x31
 1743 019b 13       		.uleb128 0x13
 1744 019c 00       		.byte	0
 1745 019d 00       		.byte	0
 1746 019e 20       		.uleb128 0x20
 1747 019f 34       		.uleb128 0x34
 1748 01a0 00       		.byte	0
 1749 01a1 03       		.uleb128 0x3
 1750 01a2 0E       		.uleb128 0xe
 1751 01a3 3A       		.uleb128 0x3a
 1752 01a4 0B       		.uleb128 0xb
 1753 01a5 3B       		.uleb128 0x3b
 1754 01a6 0B       		.uleb128 0xb
 1755 01a7 49       		.uleb128 0x49
 1756 01a8 13       		.uleb128 0x13
 1757 01a9 02       		.uleb128 0x2
 1758 01aa 06       		.uleb128 0x6
 1759 01ab 00       		.byte	0
 1760 01ac 00       		.byte	0
 1761 01ad 21       		.uleb128 0x21
 1762 01ae 34       		.uleb128 0x34
 1763 01af 00       		.byte	0
 1764 01b0 03       		.uleb128 0x3
 1765 01b1 08       		.uleb128 0x8
 1766 01b2 3A       		.uleb128 0x3a
 1767 01b3 0B       		.uleb128 0xb
ARM GAS  /tmp/ccnDAJii.s 			page 32


 1768 01b4 3B       		.uleb128 0x3b
 1769 01b5 0B       		.uleb128 0xb
 1770 01b6 49       		.uleb128 0x49
 1771 01b7 13       		.uleb128 0x13
 1772 01b8 02       		.uleb128 0x2
 1773 01b9 06       		.uleb128 0x6
 1774 01ba 00       		.byte	0
 1775 01bb 00       		.byte	0
 1776 01bc 22       		.uleb128 0x22
 1777 01bd 0B       		.uleb128 0xb
 1778 01be 01       		.byte	0x1
 1779 01bf 11       		.uleb128 0x11
 1780 01c0 01       		.uleb128 0x1
 1781 01c1 12       		.uleb128 0x12
 1782 01c2 01       		.uleb128 0x1
 1783 01c3 00       		.byte	0
 1784 01c4 00       		.byte	0
 1785 01c5 23       		.uleb128 0x23
 1786 01c6 34       		.uleb128 0x34
 1787 01c7 00       		.byte	0
 1788 01c8 03       		.uleb128 0x3
 1789 01c9 08       		.uleb128 0x8
 1790 01ca 3A       		.uleb128 0x3a
 1791 01cb 0B       		.uleb128 0xb
 1792 01cc 3B       		.uleb128 0x3b
 1793 01cd 05       		.uleb128 0x5
 1794 01ce 49       		.uleb128 0x49
 1795 01cf 13       		.uleb128 0x13
 1796 01d0 3F       		.uleb128 0x3f
 1797 01d1 0C       		.uleb128 0xc
 1798 01d2 3C       		.uleb128 0x3c
 1799 01d3 0C       		.uleb128 0xc
 1800 01d4 00       		.byte	0
 1801 01d5 00       		.byte	0
 1802 01d6 00       		.byte	0
 1803              		.section	.debug_loc,"",%progbits
 1804              	.Ldebug_loc0:
 1805              	.LLST0:
 1806 0000 00000000 		.4byte	.LVL0
 1807 0004 16000000 		.4byte	.LVL1
 1808 0008 0100     		.2byte	0x1
 1809 000a 51       		.byte	0x51
 1810 000b 16000000 		.4byte	.LVL1
 1811 000f 1E000000 		.4byte	.LFE77
 1812 0013 0400     		.2byte	0x4
 1813 0015 F3       		.byte	0xf3
 1814 0016 01       		.uleb128 0x1
 1815 0017 51       		.byte	0x51
 1816 0018 9F       		.byte	0x9f
 1817 0019 00000000 		.4byte	0
 1818 001d 00000000 		.4byte	0
 1819              	.LLST1:
 1820 0021 00000000 		.4byte	.LFB78
 1821 0025 08000000 		.4byte	.LCFI0
 1822 0029 0200     		.2byte	0x2
 1823 002b 7D       		.byte	0x7d
 1824 002c 00       		.sleb128 0
ARM GAS  /tmp/ccnDAJii.s 			page 33


 1825 002d 08000000 		.4byte	.LCFI0
 1826 0031 58000000 		.4byte	.LFE78
 1827 0035 0200     		.2byte	0x2
 1828 0037 7D       		.byte	0x7d
 1829 0038 08       		.sleb128 8
 1830 0039 00000000 		.4byte	0
 1831 003d 00000000 		.4byte	0
 1832              	.LLST2:
 1833 0041 00000000 		.4byte	.LVL2
 1834 0045 0C000000 		.4byte	.LVL3
 1835 0049 0100     		.2byte	0x1
 1836 004b 50       		.byte	0x50
 1837 004c 0C000000 		.4byte	.LVL3
 1838 0050 42000000 		.4byte	.LVL9
 1839 0054 0100     		.2byte	0x1
 1840 0056 54       		.byte	0x54
 1841 0057 42000000 		.4byte	.LVL9
 1842 005b 58000000 		.4byte	.LFE78
 1843 005f 0400     		.2byte	0x4
 1844 0061 F3       		.byte	0xf3
 1845 0062 01       		.uleb128 0x1
 1846 0063 50       		.byte	0x50
 1847 0064 9F       		.byte	0x9f
 1848 0065 00000000 		.4byte	0
 1849 0069 00000000 		.4byte	0
 1850              	.LLST3:
 1851 006d 00000000 		.4byte	.LFB79
 1852 0071 02000000 		.4byte	.LCFI1
 1853 0075 0200     		.2byte	0x2
 1854 0077 7D       		.byte	0x7d
 1855 0078 00       		.sleb128 0
 1856 0079 02000000 		.4byte	.LCFI1
 1857 007d 10000000 		.4byte	.LCFI2
 1858 0081 0200     		.2byte	0x2
 1859 0083 7D       		.byte	0x7d
 1860 0084 14       		.sleb128 20
 1861 0085 10000000 		.4byte	.LCFI2
 1862 0089 98000000 		.4byte	.LFE79
 1863 008d 0200     		.2byte	0x2
 1864 008f 7D       		.byte	0x7d
 1865 0090 28       		.sleb128 40
 1866 0091 00000000 		.4byte	0
 1867 0095 00000000 		.4byte	0
 1868              	.LLST4:
 1869 0099 00000000 		.4byte	.LVL10
 1870 009d 82000000 		.4byte	.LVL34
 1871 00a1 0100     		.2byte	0x1
 1872 00a3 51       		.byte	0x51
 1873 00a4 82000000 		.4byte	.LVL34
 1874 00a8 98000000 		.4byte	.LFE79
 1875 00ac 0100     		.2byte	0x1
 1876 00ae 51       		.byte	0x51
 1877 00af 00000000 		.4byte	0
 1878 00b3 00000000 		.4byte	0
 1879              	.LLST5:
 1880 00b7 00000000 		.4byte	.LVL10
 1881 00bb 0E000000 		.4byte	.LVL11
ARM GAS  /tmp/ccnDAJii.s 			page 34


 1882 00bf 0100     		.2byte	0x1
 1883 00c1 52       		.byte	0x52
 1884 00c2 0E000000 		.4byte	.LVL11
 1885 00c6 98000000 		.4byte	.LFE79
 1886 00ca 0400     		.2byte	0x4
 1887 00cc F3       		.byte	0xf3
 1888 00cd 01       		.uleb128 0x1
 1889 00ce 52       		.byte	0x52
 1890 00cf 9F       		.byte	0x9f
 1891 00d0 00000000 		.4byte	0
 1892 00d4 00000000 		.4byte	0
 1893              	.LLST6:
 1894 00d8 14000000 		.4byte	.LVL12
 1895 00dc 1E000000 		.4byte	.LVL17
 1896 00e0 0100     		.2byte	0x1
 1897 00e2 53       		.byte	0x53
 1898 00e3 1E000000 		.4byte	.LVL17
 1899 00e7 90000000 		.4byte	.LVL38
 1900 00eb 0200     		.2byte	0x2
 1901 00ed 91       		.byte	0x91
 1902 00ee 60       		.sleb128 -32
 1903 00ef 90000000 		.4byte	.LVL38
 1904 00f3 94000000 		.4byte	.LVL40
 1905 00f7 0100     		.2byte	0x1
 1906 00f9 52       		.byte	0x52
 1907 00fa 94000000 		.4byte	.LVL40
 1908 00fe 98000000 		.4byte	.LFE79
 1909 0102 0200     		.2byte	0x2
 1910 0104 91       		.byte	0x91
 1911 0105 60       		.sleb128 -32
 1912 0106 00000000 		.4byte	0
 1913 010a 00000000 		.4byte	0
 1914              	.LLST7:
 1915 010e 16000000 		.4byte	.LVL13
 1916 0112 96000000 		.4byte	.LVL43
 1917 0116 0100     		.2byte	0x1
 1918 0118 56       		.byte	0x56
 1919 0119 00000000 		.4byte	0
 1920 011d 00000000 		.4byte	0
 1921              	.LLST8:
 1922 0121 18000000 		.4byte	.LVL14
 1923 0125 96000000 		.4byte	.LVL42
 1924 0129 0100     		.2byte	0x1
 1925 012b 55       		.byte	0x55
 1926 012c 00000000 		.4byte	0
 1927 0130 00000000 		.4byte	0
 1928              	.LLST9:
 1929 0134 1A000000 		.4byte	.LVL15
 1930 0138 96000000 		.4byte	.LVL41
 1931 013c 0100     		.2byte	0x1
 1932 013e 54       		.byte	0x54
 1933 013f 00000000 		.4byte	0
 1934 0143 00000000 		.4byte	0
 1935              	.LLST10:
 1936 0147 1C000000 		.4byte	.LVL16
 1937 014b 1E000000 		.4byte	.LVL17
 1938 014f 0100     		.2byte	0x1
ARM GAS  /tmp/ccnDAJii.s 			page 35


 1939 0151 57       		.byte	0x57
 1940 0152 1E000000 		.4byte	.LVL17
 1941 0156 98000000 		.4byte	.LFE79
 1942 015a 0200     		.2byte	0x2
 1943 015c 91       		.byte	0x91
 1944 015d 64       		.sleb128 -28
 1945 015e 00000000 		.4byte	0
 1946 0162 00000000 		.4byte	0
 1947              	.LLST11:
 1948 0166 1C000000 		.4byte	.LVL16
 1949 016a 1E000000 		.4byte	.LVL17
 1950 016e 0200     		.2byte	0x2
 1951 0170 30       		.byte	0x30
 1952 0171 9F       		.byte	0x9f
 1953 0172 1E000000 		.4byte	.LVL17
 1954 0176 98000000 		.4byte	.LFE79
 1955 017a 0100     		.2byte	0x1
 1956 017c 53       		.byte	0x53
 1957 017d 00000000 		.4byte	0
 1958 0181 00000000 		.4byte	0
 1959              	.LLST12:
 1960 0185 2E000000 		.4byte	.LVL18
 1961 0189 30000000 		.4byte	.LVL19
 1962 018d 0100     		.2byte	0x1
 1963 018f 52       		.byte	0x52
 1964 0190 30000000 		.4byte	.LVL19
 1965 0194 80000000 		.4byte	.LVL33
 1966 0198 0200     		.2byte	0x2
 1967 019a 91       		.byte	0x91
 1968 019b 5C       		.sleb128 -36
 1969 019c 00000000 		.4byte	0
 1970 01a0 00000000 		.4byte	0
 1971              	.LLST13:
 1972 01a4 4E000000 		.4byte	.LVL26
 1973 01a8 54000000 		.4byte	.LVL27
 1974 01ac 0500     		.2byte	0x5
 1975 01ae 31       		.byte	0x31
 1976 01af 73       		.byte	0x73
 1977 01b0 00       		.sleb128 0
 1978 01b1 24       		.byte	0x24
 1979 01b2 9F       		.byte	0x9f
 1980 01b3 54000000 		.4byte	.LVL27
 1981 01b7 5E000000 		.4byte	.LVL29
 1982 01bb 0100     		.2byte	0x1
 1983 01bd 57       		.byte	0x57
 1984 01be 5E000000 		.4byte	.LVL29
 1985 01c2 80000000 		.4byte	.LVL33
 1986 01c6 0500     		.2byte	0x5
 1987 01c8 31       		.byte	0x31
 1988 01c9 73       		.byte	0x73
 1989 01ca 00       		.sleb128 0
 1990 01cb 24       		.byte	0x24
 1991 01cc 9F       		.byte	0x9f
 1992 01cd 00000000 		.4byte	0
 1993 01d1 00000000 		.4byte	0
 1994              	.LLST14:
 1995 01d5 5A000000 		.4byte	.LVL28
ARM GAS  /tmp/ccnDAJii.s 			page 36


 1996 01d9 64000000 		.4byte	.LVL30
 1997 01dd 0700     		.2byte	0x7
 1998 01df 33       		.byte	0x33
 1999 01e0 73       		.byte	0x73
 2000 01e1 00       		.sleb128 0
 2001 01e2 31       		.byte	0x31
 2002 01e3 24       		.byte	0x24
 2003 01e4 24       		.byte	0x24
 2004 01e5 9F       		.byte	0x9f
 2005 01e6 64000000 		.4byte	.LVL30
 2006 01ea 68000000 		.4byte	.LVL31
 2007 01ee 0100     		.2byte	0x1
 2008 01f0 52       		.byte	0x52
 2009 01f1 68000000 		.4byte	.LVL31
 2010 01f5 7A000000 		.4byte	.LVL32
 2011 01f9 0400     		.2byte	0x4
 2012 01fb 77       		.byte	0x77
 2013 01fc 00       		.sleb128 0
 2014 01fd 20       		.byte	0x20
 2015 01fe 9F       		.byte	0x9f
 2016 01ff 7A000000 		.4byte	.LVL32
 2017 0203 80000000 		.4byte	.LVL33
 2018 0207 0700     		.2byte	0x7
 2019 0209 33       		.byte	0x33
 2020 020a 73       		.byte	0x73
 2021 020b 00       		.sleb128 0
 2022 020c 31       		.byte	0x31
 2023 020d 24       		.byte	0x24
 2024 020e 24       		.byte	0x24
 2025 020f 9F       		.byte	0x9f
 2026 0210 00000000 		.4byte	0
 2027 0214 00000000 		.4byte	0
 2028              	.LLST15:
 2029 0218 32000000 		.4byte	.LVL20
 2030 021c 3A000000 		.4byte	.LVL21
 2031 0220 0100     		.2byte	0x1
 2032 0222 52       		.byte	0x52
 2033 0223 3A000000 		.4byte	.LVL21
 2034 0227 3C000000 		.4byte	.LVL22
 2035 022b 0400     		.2byte	0x4
 2036 022d 77       		.byte	0x77
 2037 022e 00       		.sleb128 0
 2038 022f 20       		.byte	0x20
 2039 0230 9F       		.byte	0x9f
 2040 0231 3C000000 		.4byte	.LVL22
 2041 0235 44000000 		.4byte	.LVL23
 2042 0239 0900     		.2byte	0x9
 2043 023b 3F       		.byte	0x3f
 2044 023c 73       		.byte	0x73
 2045 023d 00       		.sleb128 0
 2046 023e 37       		.byte	0x37
 2047 023f 1A       		.byte	0x1a
 2048 0240 32       		.byte	0x32
 2049 0241 24       		.byte	0x24
 2050 0242 24       		.byte	0x24
 2051 0243 9F       		.byte	0x9f
 2052 0244 44000000 		.4byte	.LVL23
ARM GAS  /tmp/ccnDAJii.s 			page 37


 2053 0248 46000000 		.4byte	.LVL24
 2054 024c 0100     		.2byte	0x1
 2055 024e 52       		.byte	0x52
 2056 024f 46000000 		.4byte	.LVL24
 2057 0253 48000000 		.4byte	.LVL25
 2058 0257 0400     		.2byte	0x4
 2059 0259 77       		.byte	0x77
 2060 025a 00       		.sleb128 0
 2061 025b 20       		.byte	0x20
 2062 025c 9F       		.byte	0x9f
 2063 025d 48000000 		.4byte	.LVL25
 2064 0261 80000000 		.4byte	.LVL33
 2065 0265 0900     		.2byte	0x9
 2066 0267 3F       		.byte	0x3f
 2067 0268 73       		.byte	0x73
 2068 0269 00       		.sleb128 0
 2069 026a 37       		.byte	0x37
 2070 026b 1A       		.byte	0x1a
 2071 026c 32       		.byte	0x32
 2072 026d 24       		.byte	0x24
 2073 026e 24       		.byte	0x24
 2074 026f 9F       		.byte	0x9f
 2075 0270 00000000 		.4byte	0
 2076 0274 00000000 		.4byte	0
 2077              		.section	.debug_aranges,"",%progbits
 2078 0000 2C000000 		.4byte	0x2c
 2079 0004 0200     		.2byte	0x2
 2080 0006 00000000 		.4byte	.Ldebug_info0
 2081 000a 04       		.byte	0x4
 2082 000b 00       		.byte	0
 2083 000c 0000     		.2byte	0
 2084 000e 0000     		.2byte	0
 2085 0010 00000000 		.4byte	.LFB77
 2086 0014 1E000000 		.4byte	.LFE77-.LFB77
 2087 0018 00000000 		.4byte	.LFB78
 2088 001c 58000000 		.4byte	.LFE78-.LFB78
 2089 0020 00000000 		.4byte	.LFB79
 2090 0024 98000000 		.4byte	.LFE79-.LFB79
 2091 0028 00000000 		.4byte	0
 2092 002c 00000000 		.4byte	0
 2093              		.section	.debug_ranges,"",%progbits
 2094              	.Ldebug_ranges0:
 2095 0000 00000000 		.4byte	.LFB77
 2096 0004 1E000000 		.4byte	.LFE77
 2097 0008 00000000 		.4byte	.LFB78
 2098 000c 58000000 		.4byte	.LFE78
 2099 0010 00000000 		.4byte	.LFB79
 2100 0014 98000000 		.4byte	.LFE79
 2101 0018 00000000 		.4byte	0
 2102 001c 00000000 		.4byte	0
 2103              		.section	.debug_line,"",%progbits
 2104              	.Ldebug_line0:
 2105 0000 F8010000 		.section	.debug_str,"MS",%progbits,1
 2105      02007001 
 2105      00000201 
 2105      FB0E0D00 
 2105      01010101 
ARM GAS  /tmp/ccnDAJii.s 			page 38


 2106              	.LASF68:
 2107 0000 50434461 		.ascii	"PCData\000"
 2107      746100
 2108              	.LASF24:
 2109 0007 41504231 		.ascii	"APB1RSTR\000"
 2109      52535452 
 2109      00
 2110              	.LASF77:
 2111 0010 5F70616C 		.ascii	"_pal_lld_init\000"
 2111      5F6C6C64 
 2111      5F696E69 
 2111      7400
 2112              	.LASF65:
 2113 001e 73746D33 		.ascii	"stm32_gpio_setup_t\000"
 2113      325F6770 
 2113      696F5F73 
 2113      65747570 
 2113      5F7400
 2114              	.LASF70:
 2115 0031 50464461 		.ascii	"PFData\000"
 2115      746100
 2116              	.LASF14:
 2117 0038 73746174 		.ascii	"state\000"
 2117      6500
 2118              	.LASF87:
 2119 003e 696E6974 		.ascii	"initgpio\000"
 2119      6770696F 
 2119      00
 2120              	.LASF3:
 2121 0047 73686F72 		.ascii	"short int\000"
 2121      7420696E 
 2121      7400
 2122              	.LASF58:
 2123 0051 73746D33 		.ascii	"stm32_gpio_t\000"
 2123      325F6770 
 2123      696F5F74 
 2123      00
 2124              	.LASF21:
 2125 005e 73697A65 		.ascii	"sizetype\000"
 2125      74797065 
 2125      00
 2126              	.LASF28:
 2127 0067 42444352 		.ascii	"BDCR\000"
 2127      00
 2128              	.LASF47:
 2129 006c 6E696C5F 		.ascii	"nil_system_t\000"
 2129      73797374 
 2129      656D5F74 
 2129      00
 2130              	.LASF75:
 2131 0079 6770696F 		.ascii	"gpiop\000"
 2131      7000
 2132              	.LASF35:
 2133 007f 6E696C5F 		.ascii	"nil_thread\000"
 2133      74687265 
 2133      616400
 2134              	.LASF19:
ARM GAS  /tmp/ccnDAJii.s 			page 39


 2135 008a 6576656E 		.ascii	"eventmask_t\000"
 2135      746D6173 
 2135      6B5F7400 
 2136              	.LASF81:
 2137 0096 6D6F6465 		.ascii	"mode\000"
 2137      00
 2138              	.LASF76:
 2139 009b 636F6E66 		.ascii	"config\000"
 2139      696700
 2140              	.LASF22:
 2141 00a2 43464752 		.ascii	"CFGR\000"
 2141      00
 2142              	.LASF34:
 2143 00a7 72656761 		.ascii	"regarm_t\000"
 2143      726D5F74 
 2143      00
 2144              	.LASF60:
 2145 00b0 6F747970 		.ascii	"otyper\000"
 2145      657200
 2146              	.LASF4:
 2147 00b7 75696E74 		.ascii	"uint8_t\000"
 2147      385F7400 
 2148              	.LASF27:
 2149 00bf 41504231 		.ascii	"APB1ENR\000"
 2149      454E5200 
 2150              	.LASF38:
 2151 00c7 73656D61 		.ascii	"semaphore_t\000"
 2151      70686F72 
 2151      655F7400 
 2152              	.LASF51:
 2153 00d3 4F545950 		.ascii	"OTYPER\000"
 2153      455200
 2154              	.LASF1:
 2155 00da 7369676E 		.ascii	"signed char\000"
 2155      65642063 
 2155      68617200 
 2156              	.LASF26:
 2157 00e6 41504232 		.ascii	"APB2ENR\000"
 2157      454E5200 
 2158              	.LASF45:
 2159 00ee 73797374 		.ascii	"systime\000"
 2159      696D6500 
 2160              	.LASF46:
 2161 00f6 74687265 		.ascii	"threads\000"
 2161      61647300 
 2162              	.LASF66:
 2163 00fe 50414461 		.ascii	"PAData\000"
 2163      746100
 2164              	.LASF11:
 2165 0105 6C6F6E67 		.ascii	"long long int\000"
 2165      206C6F6E 
 2165      6720696E 
 2165      7400
 2166              	.LASF85:
 2167 0113 2E2F6F73 		.ascii	"./os/hal/ports/STM32/GPIOv2/pal_lld.c\000"
 2167      2F68616C 
 2167      2F706F72 
ARM GAS  /tmp/ccnDAJii.s 			page 40


 2167      74732F53 
 2167      544D3332 
 2168              	.LASF78:
 2169 0139 5F70616C 		.ascii	"_pal_lld_setgroupmode\000"
 2169      5F6C6C64 
 2169      5F736574 
 2169      67726F75 
 2169      706D6F64 
 2170              	.LASF61:
 2171 014f 6F737065 		.ascii	"ospeedr\000"
 2171      65647200 
 2172              	.LASF8:
 2173 0157 6C6F6E67 		.ascii	"long int\000"
 2173      20696E74 
 2173      00
 2174              	.LASF69:
 2175 0160 50444461 		.ascii	"PDData\000"
 2175      746100
 2176              	.LASF32:
 2177 0167 5243435F 		.ascii	"RCC_TypeDef\000"
 2177      54797065 
 2177      44656600 
 2178              	.LASF54:
 2179 0173 42535252 		.ascii	"BSRR\000"
 2179      00
 2180              	.LASF25:
 2181 0178 41484245 		.ascii	"AHBENR\000"
 2181      4E5200
 2182              	.LASF50:
 2183 017f 4D4F4445 		.ascii	"MODER\000"
 2183      5200
 2184              	.LASF23:
 2185 0185 41504232 		.ascii	"APB2RSTR\000"
 2185      52535452 
 2185      00
 2186              	.LASF49:
 2187 018e 636C6561 		.ascii	"clear\000"
 2187      7200
 2188              	.LASF86:
 2189 0194 2F6D6564 		.ascii	"/media/data/src/OpenTCS/code\000"
 2189      69612F64 
 2189      6174612F 
 2189      7372632F 
 2189      4F70656E 
 2190              	.LASF84:
 2191 01b1 474E5520 		.ascii	"GNU C 4.7.3 20130312 (release) [ARM/embedded-4_7-br"
 2191      4320342E 
 2191      372E3320 
 2191      32303133 
 2191      30333132 
 2192 01e4 616E6368 		.ascii	"anch revision 196615]\000"
 2192      20726576 
 2192      6973696F 
 2192      6E203139 
 2192      36363135 
 2193              	.LASF74:
 2194 01fa 696F706F 		.ascii	"ioportid_t\000"
ARM GAS  /tmp/ccnDAJii.s 			page 41


 2194      72746964 
 2194      5F7400
 2195              	.LASF2:
 2196 0205 756E7369 		.ascii	"unsigned char\000"
 2196      676E6564 
 2196      20636861 
 2196      7200
 2197              	.LASF42:
 2198 0213 65776D61 		.ascii	"ewmask\000"
 2198      736B00
 2199              	.LASF12:
 2200 021a 6C6F6E67 		.ascii	"long long unsigned int\000"
 2200      206C6F6E 
 2200      6720756E 
 2200      7369676E 
 2200      65642069 
 2201              	.LASF9:
 2202 0231 75696E74 		.ascii	"uint32_t\000"
 2202      33325F74 
 2202      00
 2203              	.LASF0:
 2204 023a 756E7369 		.ascii	"unsigned int\000"
 2204      676E6564 
 2204      20696E74 
 2204      00
 2205              	.LASF30:
 2206 0247 43464752 		.ascii	"CFGR2\000"
 2206      3200
 2207              	.LASF31:
 2208 024d 43464752 		.ascii	"CFGR3\000"
 2208      3300
 2209              	.LASF73:
 2210 0253 696F6D6F 		.ascii	"iomode_t\000"
 2210      64655F74 
 2210      00
 2211              	.LASF43:
 2212 025c 63757272 		.ascii	"current\000"
 2212      656E7400 
 2213              	.LASF57:
 2214 0264 41465248 		.ascii	"AFRH\000"
 2214      00
 2215              	.LASF53:
 2216 0269 50555044 		.ascii	"PUPDR\000"
 2216      5200
 2217              	.LASF56:
 2218 026f 4146524C 		.ascii	"AFRL\000"
 2218      00
 2219              	.LASF6:
 2220 0274 73686F72 		.ascii	"short unsigned int\000"
 2220      7420756E 
 2220      7369676E 
 2220      65642069 
 2220      6E7400
 2221              	.LASF72:
 2222 0287 696F706F 		.ascii	"ioportmask_t\000"
 2222      72746D61 
 2222      736B5F74 
ARM GAS  /tmp/ccnDAJii.s 			page 42


 2222      00
 2223              	.LASF13:
 2224 0294 63747870 		.ascii	"ctxp\000"
 2224      00
 2225              	.LASF33:
 2226 0299 73797374 		.ascii	"systime_t\000"
 2226      696D655F 
 2226      7400
 2227              	.LASF39:
 2228 02a3 63686172 		.ascii	"char\000"
 2228      00
 2229              	.LASF5:
 2230 02a8 75696E74 		.ascii	"uint16_t\000"
 2230      31365F74 
 2230      00
 2231              	.LASF7:
 2232 02b1 696E7433 		.ascii	"int32_t\000"
 2232      325F7400 
 2233              	.LASF20:
 2234 02b9 636E745F 		.ascii	"cnt_t\000"
 2234      7400
 2235              	.LASF71:
 2236 02bf 50414C43 		.ascii	"PALConfig\000"
 2236      6F6E6669 
 2236      6700
 2237              	.LASF67:
 2238 02c9 50424461 		.ascii	"PBData\000"
 2238      746100
 2239              	.LASF48:
 2240 02d0 5F426F6F 		.ascii	"_Bool\000"
 2240      6C00
 2241              	.LASF15:
 2242 02d6 74696D65 		.ascii	"timeout\000"
 2242      6F757400 
 2243              	.LASF79:
 2244 02de 706F7274 		.ascii	"port\000"
 2244      00
 2245              	.LASF82:
 2246 02e3 616C7472 		.ascii	"altr\000"
 2246      00
 2247              	.LASF16:
 2248 02e8 65706D61 		.ascii	"epmask\000"
 2248      736B00
 2249              	.LASF52:
 2250 02ef 4F535045 		.ascii	"OSPEEDR\000"
 2250      45445200 
 2251              	.LASF10:
 2252 02f7 6C6F6E67 		.ascii	"long unsigned int\000"
 2252      20756E73 
 2252      69676E65 
 2252      6420696E 
 2252      7400
 2253              	.LASF36:
 2254 0309 706F7274 		.ascii	"port_intctx\000"
 2254      5F696E74 
 2254      63747800 
 2255              	.LASF62:
ARM GAS  /tmp/ccnDAJii.s 			page 43


 2256 0315 70757064 		.ascii	"pupdr\000"
 2256      7200
 2257              	.LASF41:
 2258 031b 73656D70 		.ascii	"semp\000"
 2258      00
 2259              	.LASF40:
 2260 0320 74687265 		.ascii	"thread_reference_t\000"
 2260      61645F72 
 2260      65666572 
 2260      656E6365 
 2260      5F7400
 2261              	.LASF64:
 2262 0333 61667268 		.ascii	"afrh\000"
 2262      00
 2263              	.LASF17:
 2264 0338 74737461 		.ascii	"tstate_t\000"
 2264      74655F74 
 2264      00
 2265              	.LASF29:
 2266 0341 41484252 		.ascii	"AHBRSTR\000"
 2266      53545200 
 2267              	.LASF37:
 2268 0349 696E7463 		.ascii	"intctx_t\000"
 2268      74785F74 
 2268      00
 2269              	.LASF63:
 2270 0352 6166726C 		.ascii	"afrl\000"
 2270      00
 2271              	.LASF59:
 2272 0357 6D6F6465 		.ascii	"moder\000"
 2272      7200
 2273              	.LASF83:
 2274 035d 616C7472 		.ascii	"altrmask\000"
 2274      6D61736B 
 2274      00
 2275              	.LASF55:
 2276 0366 4C434B52 		.ascii	"LCKR\000"
 2276      00
 2277              	.LASF18:
 2278 036b 6D73675F 		.ascii	"msg_t\000"
 2278      7400
 2279              	.LASF44:
 2280 0371 6E657874 		.ascii	"next\000"
 2280      00
 2281              	.LASF80:
 2282 0376 6D61736B 		.ascii	"mask\000"
 2282      00
 2283              		.ident	"GCC: (GNU Tools for ARM Embedded Processors) 4.7.3 20130312 (release) [ARM/embedded-4_7-br
ARM GAS  /tmp/ccnDAJii.s 			page 44


DEFINED SYMBOLS
                            *ABS*:00000000 pal_lld.c
     /tmp/ccnDAJii.s:18     .text.initgpio:00000000 $t
     /tmp/ccnDAJii.s:22     .text.initgpio:00000000 initgpio
     /tmp/ccnDAJii.s:65     .text._pal_lld_init:00000000 $t
     /tmp/ccnDAJii.s:70     .text._pal_lld_init:00000000 _pal_lld_init
     /tmp/ccnDAJii.s:129    .text._pal_lld_init:00000044 $d
     /tmp/ccnDAJii.s:138    .text._pal_lld_setgroupmode:00000000 $t
     /tmp/ccnDAJii.s:143    .text._pal_lld_setgroupmode:00000000 _pal_lld_setgroupmode
                     .debug_frame:00000010 $d

NO UNDEFINED SYMBOLS
