ARM GAS  /tmp/ccgBgJff.s 			page 1


   1              		.cpu cortex-m0
   2              		.fpu softvfp
   3              		.eabi_attribute 20, 1
   4              		.eabi_attribute 21, 1
   5              		.eabi_attribute 23, 3
   6              		.eabi_attribute 24, 1
   7              		.eabi_attribute 25, 1
   8              		.eabi_attribute 26, 1
   9              		.eabi_attribute 30, 4
  10              		.eabi_attribute 34, 0
  11              		.eabi_attribute 18, 4
  12              		.code	16
  13              		.file	"pb_decode.c"
  14              		.text
  15              	.Ltext0:
  16              		.cfi_sections	.debug_frame
  17              		.section	.text.buf_read,"ax",%progbits
  18              		.align	1
  19              		.code	16
  20              		.thumb_func
  21              		.type	buf_read, %function
  22              	buf_read:
  23              	.LFB0:
  24              		.file 1 "src/pb_decode.c"
  25              		.loc 1 40 0
  26              		.cfi_startproc
  27              	.LVL0:
  28 0000 10B5     		push	{r4, lr}
  29              	.LCFI0:
  30              		.cfi_def_cfa_offset 8
  31              		.cfi_offset 4, -8
  32              		.cfi_offset 14, -4
  33              		.loc 1 41 0
  34 0002 4468     		ldr	r4, [r0, #4]
  35              	.LVL1:
  36              		.loc 1 42 0
  37 0004 A318     		add	r3, r4, r2
  38 0006 4360     		str	r3, [r0, #4]
  39              		.loc 1 44 0
  40 0008 0023     		mov	r3, #0
  41 000a 9942     		cmp	r1, r3
  42 000c 05D0     		beq	.L7
  43              	.LVL2:
  44              	.L6:
  45              		.loc 1 46 0 discriminator 1
  46 000e 9342     		cmp	r3, r2
  47 0010 03D0     		beq	.L7
  48              	.L3:
  49              		.loc 1 47 0
  50 0012 E05C     		ldrb	r0, [r4, r3]
  51 0014 C854     		strb	r0, [r1, r3]
  52 0016 0133     		add	r3, r3, #1
  53 0018 F9E7     		b	.L6
  54              	.L7:
  55              		.loc 1 51 0
  56 001a 0120     		mov	r0, #1
  57              		@ sp needed for prologue
ARM GAS  /tmp/ccgBgJff.s 			page 2


  58 001c 10BD     		pop	{r4, pc}
  59              		.cfi_endproc
  60              	.LFE0:
  61              		.size	buf_read, .-buf_read
  62              		.section	.text.pb_field_next,"ax",%progbits
  63              		.align	1
  64              		.code	16
  65              		.thumb_func
  66              		.type	pb_field_next, %function
  67              	pb_field_next:
  68              	.LFB13:
  69              		.loc 1 302 0
  70              		.cfi_startproc
  71              	.LVL3:
  72 0000 30B5     		push	{r4, r5, lr}
  73              	.LCFI1:
  74              		.cfi_def_cfa_offset 12
  75              		.cfi_offset 4, -12
  76              		.cfi_offset 5, -8
  77              		.cfi_offset 14, -4
  78              		.loc 1 304 0
  79 0002 4268     		ldr	r2, [r0, #4]
  80              		.loc 1 302 0
  81 0004 031C     		mov	r3, r0
  82              		.loc 1 306 0
  83 0006 5478     		ldrb	r4, [r2, #1]
  84 0008 0F20     		mov	r0, #15
  85              	.LVL4:
  86 000a 251C     		mov	r5, r4
  87              		.loc 1 304 0
  88 000c 1179     		ldrb	r1, [r2, #4]
  89              	.LVL5:
  90              		.loc 1 306 0
  91 000e 8543     		bic	r5, r0
  92 0010 202D     		cmp	r5, #32
  93 0012 01D1     		bne	.L10
  94              		.loc 1 309 0
  95 0014 5579     		ldrb	r5, [r2, #5]
  96 0016 6943     		mul	r1, r5
  97              	.LVL6:
  98              	.L10:
  99              		.loc 1 312 0
 100 0018 1578     		ldrb	r5, [r2]
 101              		.loc 1 313 0
 102 001a 0020     		mov	r0, #0
 103              		.loc 1 312 0
 104 001c 8542     		cmp	r5, r0
 105 001e 21D0     		beq	.L11
 106              		.loc 1 315 0
 107 0020 3020     		mov	r0, #48
 108 0022 0442     		tst	r4, r0
 109 0024 02D1     		bne	.L12
 110              		.loc 1 316 0
 111 0026 DC68     		ldr	r4, [r3, #12]
 112 0028 0134     		add	r4, r4, #1
 113 002a DC60     		str	r4, [r3, #12]
 114              	.L12:
ARM GAS  /tmp/ccgBgJff.s 			page 3


 115              		.loc 1 319 0
 116 002c 9868     		ldr	r0, [r3, #8]
 117              		.loc 1 318 0
 118 002e 151C     		mov	r5, r2
 119              		.loc 1 319 0
 120 0030 0130     		add	r0, r0, #1
 121              		.loc 1 318 0
 122 0032 0A35     		add	r5, r5, #10
 123              		.loc 1 319 0
 124 0034 9860     		str	r0, [r3, #8]
 125              		.loc 1 318 0
 126 0036 5D60     		str	r5, [r3, #4]
 127              		.loc 1 320 0
 128 0038 927A     		ldrb	r2, [r2, #10]
 129              		.loc 1 303 0
 130 003a 0120     		mov	r0, #1
 131              		.loc 1 320 0
 132 003c 002A     		cmp	r2, #0
 133 003e 07D1     		bne	.L13
 134              		.loc 1 322 0
 135 0040 1968     		ldr	r1, [r3]
 136              	.LVL7:
 137              		.loc 1 325 0
 138 0042 1C69     		ldr	r4, [r3, #16]
 139              		.loc 1 322 0
 140 0044 5960     		str	r1, [r3, #4]
 141              		.loc 1 323 0
 142 0046 9A60     		str	r2, [r3, #8]
 143              		.loc 1 324 0
 144 0048 DA60     		str	r2, [r3, #12]
 145              		.loc 1 325 0
 146 004a 5C61     		str	r4, [r3, #20]
 147              	.LVL8:
 148              		.loc 1 326 0
 149 004c 111C     		mov	r1, r2
 150              		.loc 1 327 0
 151 004e 101C     		mov	r0, r2
 152              	.LVL9:
 153              	.L13:
 154              		.loc 1 330 0
 155 0050 5D68     		ldr	r5, [r3, #4]
 156 0052 5C69     		ldr	r4, [r3, #20]
 157 0054 AA78     		ldrb	r2, [r5, #2]
 158 0056 8918     		add	r1, r1, r2
 159              	.LVL10:
 160 0058 6118     		add	r1, r4, r1
 161 005a 5961     		str	r1, [r3, #20]
 162              		.loc 1 331 0
 163 005c ED78     		ldrb	r5, [r5, #3]
 164 005e 6AB2     		sxtb	r2, r5
 165 0060 8C18     		add	r4, r1, r2
 166 0062 9C61     		str	r4, [r3, #24]
 167              	.LVL11:
 168              	.L11:
 169              		.loc 1 333 0
 170              		@ sp needed for prologue
 171 0064 30BD     		pop	{r4, r5, pc}
ARM GAS  /tmp/ccgBgJff.s 			page 4


 172              		.cfi_endproc
 173              	.LFE13:
 174              		.size	pb_field_next, .-pb_field_next
 175              		.section	.text.pb_message_set_to_defaults,"ax",%progbits
 176              		.align	1
 177              		.code	16
 178              		.thumb_func
 179              		.type	pb_message_set_to_defaults, %function
 180              	pb_message_set_to_defaults:
 181              	.LFB21:
 182              		.loc 1 545 0
 183              		.cfi_startproc
 184              	.LVL12:
 185 0000 30B5     		push	{r4, r5, lr}
 186              	.LCFI2:
 187              		.cfi_def_cfa_offset 12
 188              		.cfi_offset 4, -12
 189              		.cfi_offset 5, -8
 190              		.cfi_offset 14, -4
 191              	.LBB24:
 192              	.LBB25:
 193              		.loc 1 294 0
 194 0002 0023     		mov	r3, #0
 195              	.LBE25:
 196              	.LBE24:
 197              		.loc 1 545 0
 198 0004 89B0     		sub	sp, sp, #36
 199              	.LCFI3:
 200              		.cfi_def_cfa_offset 48
 201              	.LVL13:
 202              	.LBB27:
 203              	.LBB26:
 204              		.loc 1 294 0
 205 0006 0393     		str	r3, [sp, #12]
 206              		.loc 1 295 0
 207 0008 0493     		str	r3, [sp, #16]
 208              		.loc 1 293 0
 209 000a 0290     		str	r0, [sp, #8]
 210 000c 0190     		str	r0, [sp, #4]
 211              		.loc 1 296 0
 212 000e 8278     		ldrb	r2, [r0, #2]
 213              		.loc 1 297 0
 214 0010 0325     		mov	r5, #3
 215              		.loc 1 296 0
 216 0012 8C18     		add	r4, r1, r2
 217 0014 0694     		str	r4, [sp, #24]
 218              		.loc 1 297 0
 219 0016 4057     		ldrsb	r0, [r0, r5]
 220              	.LVL14:
 221              		.loc 1 298 0
 222 0018 0591     		str	r1, [sp, #20]
 223              		.loc 1 297 0
 224 001a 2318     		add	r3, r4, r0
 225 001c 0793     		str	r3, [sp, #28]
 226              	.LVL15:
 227              	.L23:
 228              	.LBE26:
ARM GAS  /tmp/ccgBgJff.s 			page 5


 229              	.LBE27:
 230              	.LBB28:
 231              		.loc 1 553 0
 232 001e 029B     		ldr	r3, [sp, #8]
 233              		.loc 1 555 0
 234 0020 1A78     		ldrb	r2, [r3]
 235              		.loc 1 553 0
 236 0022 5978     		ldrb	r1, [r3, #1]
 237              	.LVL16:
 238              		.loc 1 555 0
 239 0024 002A     		cmp	r2, #0
 240 0026 2FD0     		beq	.L18
 241              		.loc 1 558 0
 242 0028 3F24     		mov	r4, #63
 243 002a 0D1C     		mov	r5, r1
 244 002c A543     		bic	r5, r4
 245 002e 2BD1     		bne	.L18
 246              		.loc 1 561 0
 247 0030 3022     		mov	r2, #48
 248 0032 1140     		and	r1, r2
 249 0034 1029     		cmp	r1, #16
 250 0036 02D1     		bne	.L19
 251              		.loc 1 563 0
 252 0038 0799     		ldr	r1, [sp, #28]
 253 003a 0D70     		strb	r5, [r1]
 254 003c 04E0     		b	.L20
 255              	.L19:
 256              		.loc 1 565 0
 257 003e 2029     		cmp	r1, #32
 258 0040 02D1     		bne	.L20
 259              		.loc 1 567 0
 260 0042 079B     		ldr	r3, [sp, #28]
 261              	.LVL17:
 262 0044 1D60     		str	r5, [r3]
 263              		.loc 1 568 0
 264 0046 1FE0     		b	.L18
 265              	.LVL18:
 266              	.L20:
 267 0048 D979     		ldrb	r1, [r3, #7]
 268              		.loc 1 572 0
 269 004a 5D78     		ldrb	r5, [r3, #1]
 270 004c 9879     		ldrb	r0, [r3, #6]
 271 004e 0F24     		mov	r4, #15
 272              		.loc 1 574 0
 273 0050 0902     		lsl	r1, r1, #8
 274              		.loc 1 572 0
 275 0052 2540     		and	r5, r4
 276 0054 5A7A     		ldrb	r2, [r3, #9]
 277 0056 1C7A     		ldrb	r4, [r3, #8]
 278              		.loc 1 574 0
 279 0058 0843     		orr	r0, r1
 280              		.loc 1 572 0
 281 005a 062D     		cmp	r5, #6
 282 005c 07D1     		bne	.L21
 283              		.loc 1 574 0
 284 005e 2304     		lsl	r3, r4, #16
 285              	.LVL19:
ARM GAS  /tmp/ccgBgJff.s 			page 6


 286 0060 1843     		orr	r0, r3
 287 0062 1406     		lsl	r4, r2, #24
 288 0064 2043     		orr	r0, r4
 289 0066 0699     		ldr	r1, [sp, #24]
 290 0068 FFF7CAFF 		bl	pb_message_set_to_defaults
 291              	.LVL20:
 292 006c 0CE0     		b	.L18
 293              	.LVL21:
 294              	.L21:
 295              		.loc 1 576 0
 296 006e 2504     		lsl	r5, r4, #16
 297 0070 2843     		orr	r0, r5
 298 0072 1106     		lsl	r1, r2, #24
 299 0074 0143     		orr	r1, r0
 300 0076 1A79     		ldrb	r2, [r3, #4]
 301              		.loc 1 578 0
 302 0078 0698     		ldr	r0, [sp, #24]
 303              		.loc 1 576 0
 304 007a 0029     		cmp	r1, #0
 305 007c 02D0     		beq	.L22
 306              		.loc 1 578 0
 307 007e FFF7FEFF 		bl	memcpy
 308              	.LVL22:
 309 0082 01E0     		b	.L18
 310              	.LVL23:
 311              	.L22:
 312              		.loc 1 582 0
 313 0084 FFF7FEFF 		bl	memset
 314              	.LVL24:
 315              	.L18:
 316              	.LBE28:
 317              		.loc 1 589 0
 318 0088 01A8     		add	r0, sp, #4
 319              	.LVL25:
 320 008a FFF7FEFF 		bl	pb_field_next
 321              	.LVL26:
 322 008e 0028     		cmp	r0, #0
 323 0090 C5D1     		bne	.L23
 324              		.loc 1 590 0
 325 0092 09B0     		add	sp, sp, #36
 326              		@ sp needed for prologue
 327 0094 30BD     		pop	{r4, r5, pc}
 328              		.cfi_endproc
 329              	.LFE21:
 330              		.size	pb_message_set_to_defaults, .-pb_message_set_to_defaults
 331              		.section	.text.pb_read,"ax",%progbits
 332              		.align	1
 333              		.global	pb_read
 334              		.code	16
 335              		.thumb_func
 336              		.type	pb_read, %function
 337              	pb_read:
 338              	.LFB1:
 339              		.loc 1 54 0
 340              		.cfi_startproc
 341              	.LVL27:
 342 0000 30B5     		push	{r4, r5, lr}
ARM GAS  /tmp/ccgBgJff.s 			page 7


 343              	.LCFI4:
 344              		.cfi_def_cfa_offset 12
 345              		.cfi_offset 4, -12
 346              		.cfi_offset 5, -8
 347              		.cfi_offset 14, -4
 348 0002 041C     		mov	r4, r0
 349 0004 85B0     		sub	sp, sp, #20
 350              	.LCFI5:
 351              		.cfi_def_cfa_offset 32
 352              		.loc 1 54 0
 353 0006 151C     		mov	r5, r2
 354              		.loc 1 56 0
 355 0008 0029     		cmp	r1, #0
 356 000a 12D1     		bne	.L29
 357              		.loc 1 56 0 is_stmt 0 discriminator 1
 358 000c 174B     		ldr	r3, .L42
 359 000e 0268     		ldr	r2, [r0]
 360              	.LVL28:
 361 0010 9A42     		cmp	r2, r3
 362 0012 0ED0     		beq	.L29
 363              	.LVL29:
 364              	.L39:
 365              	.LBB33:
 366              	.LBB34:
 367              		.loc 1 62 0 is_stmt 1
 368 0014 201C     		mov	r0, r4
 369 0016 6946     		mov	r1, sp
 370              		.loc 1 60 0
 371 0018 102D     		cmp	r5, #16
 372 001a 06D9     		bls	.L41
 373              	.LVL30:
 374              	.L32:
 375              		.loc 1 62 0
 376 001c 1022     		mov	r2, #16
 377 001e FFF7FEFF 		bl	pb_read
 378              	.LVL31:
 379 0022 0028     		cmp	r0, #0
 380 0024 1FD0     		beq	.L33
 381              		.loc 1 65 0
 382 0026 103D     		sub	r5, r5, #16
 383              	.LVL32:
 384 0028 F4E7     		b	.L39
 385              	.LVL33:
 386              	.L41:
 387              		.loc 1 68 0
 388 002a 2A1C     		mov	r2, r5
 389 002c FFF7FEFF 		bl	pb_read
 390              	.LVL34:
 391 0030 19E0     		b	.L33
 392              	.LVL35:
 393              	.L29:
 394              	.LBE34:
 395              	.LBE33:
 396              		.loc 1 72 0
 397 0032 A068     		ldr	r0, [r4, #8]
 398              	.LVL36:
 399 0034 A842     		cmp	r0, r5
ARM GAS  /tmp/ccgBgJff.s 			page 8


 400 0036 06D2     		bcs	.L34
 401              		.loc 1 73 0
 402 0038 E068     		ldr	r0, [r4, #12]
 403 003a 0028     		cmp	r0, #0
 404 003c 01D0     		beq	.L35
 405              	.LVL37:
 406              	.L37:
 407 003e 0020     		mov	r0, #0
 408 0040 11E0     		b	.L33
 409              	.LVL38:
 410              	.L35:
 411              		.loc 1 73 0 is_stmt 0 discriminator 1
 412 0042 0B4A     		ldr	r2, .L42+4
 413 0044 09E0     		b	.L40
 414              	.L34:
 415              		.loc 1 76 0 is_stmt 1
 416 0046 201C     		mov	r0, r4
 417 0048 2A1C     		mov	r2, r5
 418 004a 2368     		ldr	r3, [r4]
 419 004c 9847     		blx	r3
 420              	.LVL39:
 421 004e 0028     		cmp	r0, #0
 422 0050 05D1     		bne	.L36
 423              		.loc 1 77 0
 424 0052 E068     		ldr	r0, [r4, #12]
 425 0054 0028     		cmp	r0, #0
 426 0056 F2D1     		bne	.L37
 427              		.loc 1 77 0 is_stmt 0 discriminator 1
 428 0058 064A     		ldr	r2, .L42+8
 429              	.L40:
 430 005a E260     		str	r2, [r4, #12]
 431 005c 03E0     		b	.L33
 432              	.L36:
 433              		.loc 1 83 0 is_stmt 1
 434 005e A168     		ldr	r1, [r4, #8]
 435              		.loc 1 84 0
 436 0060 0120     		mov	r0, #1
 437              		.loc 1 83 0
 438 0062 4D1B     		sub	r5, r1, r5
 439              	.LVL40:
 440 0064 A560     		str	r5, [r4, #8]
 441              	.L33:
 442              		.loc 1 85 0
 443 0066 05B0     		add	sp, sp, #20
 444              		@ sp needed for prologue
 445              	.LVL41:
 446 0068 30BD     		pop	{r4, r5, pc}
 447              	.L43:
 448 006a C046     		.align	2
 449              	.L42:
 450 006c 00000000 		.word	buf_read
 451 0070 00000000 		.word	.LC3
 452 0074 0E000000 		.word	.LC5
 453              		.cfi_endproc
 454              	.LFE1:
 455              		.size	pb_read, .-pb_read
 456              		.section	.text.pb_decode_varint32,"ax",%progbits
ARM GAS  /tmp/ccgBgJff.s 			page 9


 457              		.align	1
 458              		.code	16
 459              		.thumb_func
 460              		.type	pb_decode_varint32, %function
 461              	pb_decode_varint32:
 462              	.LFB3:
 463              		.loc 1 108 0
 464              		.cfi_startproc
 465              	.LVL42:
 466 0000 F0B5     		push	{r4, r5, r6, r7, lr}
 467              	.LCFI6:
 468              		.cfi_def_cfa_offset 20
 469              		.cfi_offset 4, -20
 470              		.cfi_offset 5, -16
 471              		.cfi_offset 6, -12
 472              		.cfi_offset 7, -8
 473              		.cfi_offset 14, -4
 474 0002 85B0     		sub	sp, sp, #20
 475              	.LCFI7:
 476              		.cfi_def_cfa_offset 40
 477              		.loc 1 112 0
 478 0004 6E46     		mov	r6, sp
 479 0006 0F36     		add	r6, r6, #15
 480              		.loc 1 108 0
 481 0008 0191     		str	r1, [sp, #4]
 482              		.loc 1 112 0
 483 000a 0122     		mov	r2, #1
 484 000c 311C     		mov	r1, r6
 485              	.LVL43:
 486              		.loc 1 108 0
 487 000e 071C     		mov	r7, r0
 488              		.loc 1 112 0
 489 0010 FFF7FEFF 		bl	pb_read
 490              	.LVL44:
 491 0014 0028     		cmp	r0, #0
 492 0016 01D1     		bne	.L45
 493              	.LVL45:
 494              	.L50:
 495              	.LBB39:
 496              		.loc 1 113 0
 497 0018 0020     		mov	r0, #0
 498 001a 21E0     		b	.L46
 499              	.LVL46:
 500              	.L45:
 501              	.LBE39:
 502              		.loc 1 115 0
 503 001c 3478     		ldrb	r4, [r6]
 504 001e 63B2     		sxtb	r3, r4
 505 0020 002B     		cmp	r3, #0
 506 0022 1ADA     		bge	.L48
 507              	.LVL47:
 508              	.LBB40:
 509              		.loc 1 124 0
 510 0024 7F20     		mov	r0, #127
 511 0026 0440     		and	r4, r0
 512              	.LVL48:
 513 0028 0725     		mov	r5, #7
ARM GAS  /tmp/ccgBgJff.s 			page 10


 514              	.LVL49:
 515              	.L49:
 516              		.loc 1 131 0
 517 002a 381C     		mov	r0, r7
 518 002c 311C     		mov	r1, r6
 519 002e 0122     		mov	r2, #1
 520 0030 FFF7FEFF 		bl	pb_read
 521              	.LVL50:
 522 0034 0028     		cmp	r0, #0
 523 0036 EFD0     		beq	.L50
 524              		.loc 1 134 0
 525 0038 3178     		ldrb	r1, [r6]
 526 003a 7F22     		mov	r2, #127
 527 003c 0A40     		and	r2, r1
 528 003e AA40     		lsl	r2, r2, r5
 529              		.loc 1 136 0
 530 0040 4BB2     		sxtb	r3, r1
 531              		.loc 1 134 0
 532 0042 1443     		orr	r4, r2
 533              	.LVL51:
 534              		.loc 1 136 0
 535 0044 002B     		cmp	r3, #0
 536 0046 08DA     		bge	.L48
 537              	.L51:
 538 0048 0735     		add	r5, r5, #7
 539              		.loc 1 128 0
 540 004a 232D     		cmp	r5, #35
 541 004c EDD1     		bne	.L49
 542              	.LVL52:
 543              	.LBE40:
 544              	.LBB41:
 545              	.LBB42:
 546              	.LBB43:
 547              		.loc 1 129 0
 548 004e F868     		ldr	r0, [r7, #12]
 549 0050 0028     		cmp	r0, #0
 550 0052 E1D1     		bne	.L50
 551 0054 0349     		ldr	r1, .L56
 552 0056 F960     		str	r1, [r7, #12]
 553 0058 02E0     		b	.L46
 554              	.LVL53:
 555              	.L48:
 556              	.LBE43:
 557              	.LBE42:
 558              	.LBE41:
 559              		.loc 1 139 0
 560 005a 0198     		ldr	r0, [sp, #4]
 561 005c 0460     		str	r4, [r0]
 562              		.loc 1 140 0
 563 005e 0120     		mov	r0, #1
 564              	.LVL54:
 565              	.L46:
 566              		.loc 1 141 0
 567 0060 05B0     		add	sp, sp, #20
 568              		@ sp needed for prologue
 569              	.LVL55:
 570 0062 F0BD     		pop	{r4, r5, r6, r7, pc}
ARM GAS  /tmp/ccgBgJff.s 			page 11


 571              	.L57:
 572              		.align	2
 573              	.L56:
 574 0064 17000000 		.word	.LC7
 575              		.cfi_endproc
 576              	.LFE3:
 577              		.size	pb_decode_varint32, .-pb_decode_varint32
 578              		.section	.text.pb_dec_string,"ax",%progbits
 579              		.align	1
 580              		.global	pb_dec_string
 581              		.code	16
 582              		.thumb_func
 583              		.type	pb_dec_string, %function
 584              	pb_dec_string:
 585              	.LFB33:
 586              		.loc 1 832 0
 587              		.cfi_startproc
 588              	.LVL56:
 589 0000 73B5     		push	{r0, r1, r4, r5, r6, lr}
 590              	.LCFI8:
 591              		.cfi_def_cfa_offset 24
 592              		.cfi_offset 0, -24
 593              		.cfi_offset 1, -20
 594              		.cfi_offset 4, -16
 595              		.cfi_offset 5, -12
 596              		.cfi_offset 6, -8
 597              		.cfi_offset 14, -4
 598              		.loc 1 832 0
 599 0002 0E1C     		mov	r6, r1
 600              		.loc 1 835 0
 601 0004 01A9     		add	r1, sp, #4
 602              	.LVL57:
 603              		.loc 1 832 0
 604 0006 041C     		mov	r4, r0
 605 0008 151C     		mov	r5, r2
 606              		.loc 1 835 0
 607 000a FFF7FEFF 		bl	pb_decode_varint32
 608              	.LVL58:
 609 000e 031C     		mov	r3, r0
 610              		.loc 1 836 0
 611 0010 0020     		mov	r0, #0
 612              		.loc 1 835 0
 613 0012 8342     		cmp	r3, r0
 614 0014 11D0     		beq	.L59
 615              	.LVL59:
 616              		.loc 1 839 0
 617 0016 019A     		ldr	r2, [sp, #4]
 618 0018 3679     		ldrb	r6, [r6, #4]
 619              	.LVL60:
 620 001a 511C     		add	r1, r2, #1
 621 001c B142     		cmp	r1, r6
 622 001e 05D9     		bls	.L60
 623              	.LVL61:
 624              	.LBB46:
 625              	.LBB47:
 626              		.loc 1 840 0
 627 0020 E568     		ldr	r5, [r4, #12]
ARM GAS  /tmp/ccgBgJff.s 			page 12


 628              	.LVL62:
 629 0022 8542     		cmp	r5, r0
 630 0024 09D1     		bne	.L59
 631 0026 054B     		ldr	r3, .L64
 632 0028 E360     		str	r3, [r4, #12]
 633 002a 06E0     		b	.L59
 634              	.LVL63:
 635              	.L60:
 636              	.LBE47:
 637              	.LBE46:
 638              		.loc 1 842 0
 639 002c 201C     		mov	r0, r4
 640 002e 291C     		mov	r1, r5
 641 0030 FFF7FEFF 		bl	pb_read
 642              	.LVL64:
 643              		.loc 1 843 0
 644 0034 019A     		ldr	r2, [sp, #4]
 645 0036 0024     		mov	r4, #0
 646              	.LVL65:
 647 0038 AC54     		strb	r4, [r5, r2]
 648              	.LVL66:
 649              	.L59:
 650              		.loc 1 845 0
 651              		@ sp needed for prologue
 652 003a 76BD     		pop	{r1, r2, r4, r5, r6, pc}
 653              	.L65:
 654              		.align	2
 655              	.L64:
 656 003c 27000000 		.word	.LC9
 657              		.cfi_endproc
 658              	.LFE33:
 659              		.size	pb_dec_string, .-pb_dec_string
 660              		.section	.text.pb_dec_bytes,"ax",%progbits
 661              		.align	1
 662              		.global	pb_dec_bytes
 663              		.code	16
 664              		.thumb_func
 665              		.type	pb_dec_bytes, %function
 666              	pb_dec_bytes:
 667              	.LFB32:
 668              		.loc 1 816 0
 669              		.cfi_startproc
 670              	.LVL67:
 671 0000 73B5     		push	{r0, r1, r4, r5, r6, lr}
 672              	.LCFI9:
 673              		.cfi_def_cfa_offset 24
 674              		.cfi_offset 0, -24
 675              		.cfi_offset 1, -20
 676              		.cfi_offset 4, -16
 677              		.cfi_offset 5, -12
 678              		.cfi_offset 6, -8
 679              		.cfi_offset 14, -4
 680              		.loc 1 816 0
 681 0002 0E1C     		mov	r6, r1
 682              		.loc 1 820 0
 683 0004 01A9     		add	r1, sp, #4
 684              	.LVL68:
ARM GAS  /tmp/ccgBgJff.s 			page 13


 685              		.loc 1 816 0
 686 0006 041C     		mov	r4, r0
 687 0008 151C     		mov	r5, r2
 688              	.LVL69:
 689              		.loc 1 820 0
 690 000a FFF7FEFF 		bl	pb_decode_varint32
 691              	.LVL70:
 692 000e 0028     		cmp	r0, #0
 693 0010 01D1     		bne	.L67
 694              	.LVL71:
 695              	.L70:
 696              		.loc 1 821 0
 697 0012 0020     		mov	r0, #0
 698 0014 10E0     		b	.L68
 699              	.LVL72:
 700              	.L67:
 701              		.loc 1 822 0
 702 0016 019B     		ldr	r3, [sp, #4]
 703 0018 2B60     		str	r3, [r5]
 704              		.loc 1 825 0
 705 001a 3279     		ldrb	r2, [r6, #4]
 706 001c 043A     		sub	r2, r2, #4
 707 001e 9342     		cmp	r3, r2
 708 0020 05D9     		bls	.L69
 709              	.LVL73:
 710              	.LBB50:
 711              	.LBB51:
 712              		.loc 1 826 0
 713 0022 E068     		ldr	r0, [r4, #12]
 714 0024 0028     		cmp	r0, #0
 715 0026 F4D1     		bne	.L70
 716 0028 0449     		ldr	r1, .L71
 717 002a E160     		str	r1, [r4, #12]
 718 002c 04E0     		b	.L68
 719              	.LVL74:
 720              	.L69:
 721              	.LBE51:
 722              	.LBE50:
 723              		.loc 1 828 0
 724 002e 291D     		add	r1, r5, #4
 725 0030 201C     		mov	r0, r4
 726 0032 1A1C     		mov	r2, r3
 727 0034 FFF7FEFF 		bl	pb_read
 728              	.LVL75:
 729              	.L68:
 730              		.loc 1 829 0
 731              		@ sp needed for prologue
 732              	.LVL76:
 733              	.LVL77:
 734              	.LVL78:
 735 0038 76BD     		pop	{r1, r2, r4, r5, r6, pc}
 736              	.L72:
 737 003a C046     		.align	2
 738              	.L71:
 739 003c 37000000 		.word	.LC11
 740              		.cfi_endproc
 741              	.LFE32:
ARM GAS  /tmp/ccgBgJff.s 			page 14


 742              		.size	pb_dec_bytes, .-pb_dec_bytes
 743              		.section	.text.pb_istream_from_buffer,"ax",%progbits
 744              		.align	1
 745              		.global	pb_istream_from_buffer
 746              		.code	16
 747              		.thumb_func
 748              		.type	pb_istream_from_buffer, %function
 749              	pb_istream_from_buffer:
 750              	.LFB2:
 751              		.loc 1 88 0
 752              		.cfi_startproc
 753              	.LVL79:
 754              		.loc 1 100 0
 755 0000 034B     		ldr	r3, .L74
 756 0002 4160     		str	r1, [r0, #4]
 757 0004 0021     		mov	r1, #0
 758              	.LVL80:
 759 0006 0360     		str	r3, [r0]
 760 0008 8260     		str	r2, [r0, #8]
 761 000a C160     		str	r1, [r0, #12]
 762              		.loc 1 101 0
 763              		@ sp needed for prologue
 764 000c 7047     		bx	lr
 765              	.L75:
 766 000e C046     		.align	2
 767              	.L74:
 768 0010 00000000 		.word	buf_read
 769              		.cfi_endproc
 770              	.LFE2:
 771              		.size	pb_istream_from_buffer, .-pb_istream_from_buffer
 772              		.global	__aeabi_llsl
 773              		.section	.text.pb_decode_varint,"ax",%progbits
 774              		.align	1
 775              		.global	pb_decode_varint
 776              		.code	16
 777              		.thumb_func
 778              		.type	pb_decode_varint, %function
 779              	pb_decode_varint:
 780              	.LFB4:
 781              		.loc 1 144 0
 782              		.cfi_startproc
 783              	.LVL81:
 784 0000 F0B5     		push	{r4, r5, r6, r7, lr}
 785              	.LCFI10:
 786              		.cfi_def_cfa_offset 20
 787              		.cfi_offset 4, -20
 788              		.cfi_offset 5, -16
 789              		.cfi_offset 6, -12
 790              		.cfi_offset 7, -8
 791              		.cfi_offset 14, -4
 792 0002 0023     		mov	r3, #0
 793 0004 85B0     		sub	sp, sp, #20
 794              	.LCFI11:
 795              		.cfi_def_cfa_offset 40
 796              		.loc 1 144 0
 797 0006 061C     		mov	r6, r0
 798 0008 0191     		str	r1, [sp, #4]
ARM GAS  /tmp/ccgBgJff.s 			page 15


 799 000a 0093     		str	r3, [sp]
 800              		.loc 1 147 0
 801 000c 0024     		mov	r4, #0
 802 000e 0025     		mov	r5, #0
 803              	.LVL82:
 804              	.L77:
 805              		.loc 1 154 0
 806 0010 6F46     		mov	r7, sp
 807 0012 0F37     		add	r7, r7, #15
 808 0014 301C     		mov	r0, r6
 809 0016 391C     		mov	r1, r7
 810 0018 0122     		mov	r2, #1
 811 001a FFF7FEFF 		bl	pb_read
 812              	.LVL83:
 813 001e 0028     		cmp	r0, #0
 814 0020 1DD0     		beq	.L78
 815              		.loc 1 157 0
 816 0022 3F78     		ldrb	r7, [r7]
 817 0024 7F20     		mov	r0, #127
 818 0026 3840     		and	r0, r7
 819 0028 0021     		mov	r1, #0
 820 002a 009A     		ldr	r2, [sp]
 821 002c FFF7FEFF 		bl	__aeabi_llsl
 822              	.LVL84:
 823 0030 2043     		orr	r0, r4
 824 0032 2943     		orr	r1, r5
 825 0034 041C     		mov	r4, r0
 826              		.loc 1 159 0
 827 0036 78B2     		sxtb	r0, r7
 828              		.loc 1 157 0
 829 0038 0D1C     		mov	r5, r1
 830              	.LVL85:
 831              		.loc 1 159 0
 832 003a 0028     		cmp	r0, #0
 833 003c 0BDA     		bge	.L83
 834              	.L79:
 835 003e 009A     		ldr	r2, [sp]
 836 0040 0732     		add	r2, r2, #7
 837 0042 0092     		str	r2, [sp]
 838              		.loc 1 151 0
 839 0044 462A     		cmp	r2, #70
 840 0046 E3D1     		bne	.L77
 841              	.LVL86:
 842              	.LBB54:
 843              	.LBB55:
 844              		.loc 1 152 0
 845 0048 F468     		ldr	r4, [r6, #12]
 846              	.LVL87:
 847 004a 0020     		mov	r0, #0
 848 004c 8442     		cmp	r4, r0
 849 004e 06D1     		bne	.L78
 850 0050 044D     		ldr	r5, .L84
 851 0052 F560     		str	r5, [r6, #12]
 852 0054 03E0     		b	.L78
 853              	.LVL88:
 854              	.L83:
 855              	.LBE55:
ARM GAS  /tmp/ccgBgJff.s 			page 16


 856              	.LBE54:
 857              		.loc 1 161 0
 858 0056 0199     		ldr	r1, [sp, #4]
 859              		.loc 1 162 0
 860 0058 0120     		mov	r0, #1
 861              		.loc 1 161 0
 862 005a 0C60     		str	r4, [r1]
 863 005c 4D60     		str	r5, [r1, #4]
 864              	.LVL89:
 865              	.L78:
 866              		.loc 1 163 0
 867 005e 05B0     		add	sp, sp, #20
 868              		@ sp needed for prologue
 869              	.LVL90:
 870 0060 F0BD     		pop	{r4, r5, r6, r7, pc}
 871              	.L85:
 872 0062 C046     		.align	2
 873              	.L84:
 874 0064 17000000 		.word	.LC7
 875              		.cfi_endproc
 876              	.LFE4:
 877              		.size	pb_decode_varint, .-pb_decode_varint
 878              		.section	.text.pb_dec_varint,"ax",%progbits
 879              		.align	1
 880              		.global	pb_dec_varint
 881              		.code	16
 882              		.thumb_func
 883              		.type	pb_dec_varint, %function
 884              	pb_dec_varint:
 885              	.LFB28:
 886              		.loc 1 770 0
 887              		.cfi_startproc
 888              	.LVL91:
 889 0000 73B5     		push	{r0, r1, r4, r5, r6, lr}
 890              	.LCFI12:
 891              		.cfi_def_cfa_offset 24
 892              		.cfi_offset 0, -24
 893              		.cfi_offset 1, -20
 894              		.cfi_offset 4, -16
 895              		.cfi_offset 5, -12
 896              		.cfi_offset 6, -8
 897              		.cfi_offset 14, -4
 898              		.loc 1 770 0
 899 0002 0E1C     		mov	r6, r1
 900              		.loc 1 772 0
 901 0004 6946     		mov	r1, sp
 902              	.LVL92:
 903              		.loc 1 770 0
 904 0006 051C     		mov	r5, r0
 905 0008 141C     		mov	r4, r2
 906              		.loc 1 772 0
 907 000a FFF7FEFF 		bl	pb_decode_varint
 908              	.LVL93:
 909              		.loc 1 773 0
 910 000e 0023     		mov	r3, #0
 911              		.loc 1 772 0
 912 0010 9842     		cmp	r0, r3
ARM GAS  /tmp/ccgBgJff.s 			page 17


 913 0012 20D0     		beq	.L87
 914              		.loc 1 775 0
 915 0014 3079     		ldrb	r0, [r6, #4]
 916 0016 0138     		sub	r0, r0, #1
 917 0018 0728     		cmp	r0, #7
 918 001a 16D8     		bhi	.L88
 919 001c FFF7FEFF 		bl	__gnu_thumb1_case_uqi
 920              	.L93:
 921 0020 04       		.byte	(.L89-.L93)/2
 922 0021 08       		.byte	(.L90-.L93)/2
 923 0022 15       		.byte	(.L88-.L93)/2
 924 0023 0C       		.byte	(.L91-.L93)/2
 925 0024 15       		.byte	(.L88-.L93)/2
 926 0025 15       		.byte	(.L88-.L93)/2
 927 0026 15       		.byte	(.L88-.L93)/2
 928 0027 10       		.byte	(.L92-.L93)/2
 929              		.align	1
 930              	.L89:
 931              		.loc 1 777 0
 932 0028 6D46     		mov	r5, sp
 933              	.LVL94:
 934 002a 2E78     		ldrb	r6, [r5]
 935              	.LVL95:
 936 002c 2670     		strb	r6, [r4]
 937 002e 05E0     		b	.L97
 938              	.LVL96:
 939              	.L90:
 940              		.loc 1 778 0
 941 0030 6B46     		mov	r3, sp
 942 0032 1988     		ldrh	r1, [r3]
 943 0034 2180     		strh	r1, [r4]
 944 0036 01E0     		b	.L97
 945              	.L91:
 946              		.loc 1 779 0
 947 0038 0098     		ldr	r0, [sp]
 948 003a 2060     		str	r0, [r4]
 949              	.LVL97:
 950              	.L97:
 951              		.loc 1 784 0
 952 003c 0123     		mov	r3, #1
 953              		.loc 1 779 0
 954 003e 0AE0     		b	.L87
 955              	.LVL98:
 956              	.L92:
 957              		.loc 1 780 0
 958 0040 009A     		ldr	r2, [sp]
 959 0042 019B     		ldr	r3, [sp, #4]
 960 0044 2260     		str	r2, [r4]
 961 0046 6360     		str	r3, [r4, #4]
 962 0048 F8E7     		b	.L97
 963              	.LVL99:
 964              	.L88:
 965              	.LBB58:
 966              	.LBB59:
 967              		.loc 1 781 0
 968 004a EC68     		ldr	r4, [r5, #12]
 969              	.LVL100:
ARM GAS  /tmp/ccgBgJff.s 			page 18


 970              		.loc 1 773 0
 971 004c 0023     		mov	r3, #0
 972              		.loc 1 781 0
 973 004e 9C42     		cmp	r4, r3
 974 0050 01D1     		bne	.L87
 975 0052 024A     		ldr	r2, .L98
 976 0054 EA60     		str	r2, [r5, #12]
 977              	.LVL101:
 978              	.L87:
 979              	.LBE59:
 980              	.LBE58:
 981              		.loc 1 785 0
 982 0056 181C     		mov	r0, r3
 983              		@ sp needed for prologue
 984 0058 76BD     		pop	{r1, r2, r4, r5, r6, pc}
 985              	.L99:
 986 005a C046     		.align	2
 987              	.L98:
 988 005c 46000000 		.word	.LC15
 989              		.cfi_endproc
 990              	.LFE28:
 991              		.size	pb_dec_varint, .-pb_dec_varint
 992              		.section	.text.pb_skip_varint,"ax",%progbits
 993              		.align	1
 994              		.global	pb_skip_varint
 995              		.code	16
 996              		.thumb_func
 997              		.type	pb_skip_varint, %function
 998              	pb_skip_varint:
 999              	.LFB5:
 1000              		.loc 1 166 0
 1001              		.cfi_startproc
 1002              	.LVL102:
 1003 0000 37B5     		push	{r0, r1, r2, r4, r5, lr}
 1004              	.LCFI13:
 1005              		.cfi_def_cfa_offset 24
 1006              		.cfi_offset 0, -24
 1007              		.cfi_offset 1, -20
 1008              		.cfi_offset 2, -16
 1009              		.cfi_offset 4, -12
 1010              		.cfi_offset 5, -8
 1011              		.cfi_offset 14, -4
 1012 0002 051C     		mov	r5, r0
 1013              	.LVL103:
 1014              	.L102:
 1015              		.loc 1 170 0
 1016 0004 6C46     		mov	r4, sp
 1017 0006 0734     		add	r4, r4, #7
 1018 0008 281C     		mov	r0, r5
 1019 000a 211C     		mov	r1, r4
 1020 000c 0122     		mov	r2, #1
 1021 000e FFF7FEFF 		bl	pb_read
 1022              	.LVL104:
 1023 0012 0028     		cmp	r0, #0
 1024 0014 03D0     		beq	.L101
 1025              	.LVL105:
 1026              		.loc 1 172 0
ARM GAS  /tmp/ccgBgJff.s 			page 19


 1027 0016 2378     		ldrb	r3, [r4]
 1028              	.LVL106:
 1029 0018 7F2B     		cmp	r3, #127
 1030 001a F3D8     		bhi	.L102
 1031              	.LVL107:
 1032              		.loc 1 173 0
 1033 001c 0120     		mov	r0, #1
 1034              	.L101:
 1035              		.loc 1 174 0
 1036              		@ sp needed for prologue
 1037              	.LVL108:
 1038 001e 3EBD     		pop	{r1, r2, r3, r4, r5, pc}
 1039              		.cfi_endproc
 1040              	.LFE5:
 1041              		.size	pb_skip_varint, .-pb_skip_varint
 1042              		.section	.text.pb_skip_string,"ax",%progbits
 1043              		.align	1
 1044              		.global	pb_skip_string
 1045              		.code	16
 1046              		.thumb_func
 1047              		.type	pb_skip_string, %function
 1048              	pb_skip_string:
 1049              	.LFB6:
 1050              		.loc 1 177 0
 1051              		.cfi_startproc
 1052              	.LVL109:
 1053 0000 13B5     		push	{r0, r1, r4, lr}
 1054              	.LCFI14:
 1055              		.cfi_def_cfa_offset 16
 1056              		.cfi_offset 0, -16
 1057              		.cfi_offset 1, -12
 1058              		.cfi_offset 4, -8
 1059              		.cfi_offset 14, -4
 1060              		.loc 1 179 0
 1061 0002 01A9     		add	r1, sp, #4
 1062              		.loc 1 177 0
 1063 0004 041C     		mov	r4, r0
 1064              		.loc 1 179 0
 1065 0006 FFF7FEFF 		bl	pb_decode_varint32
 1066              	.LVL110:
 1067              		.loc 1 180 0
 1068 000a 0021     		mov	r1, #0
 1069              		.loc 1 179 0
 1070 000c 8842     		cmp	r0, r1
 1071 000e 04D0     		beq	.L106
 1072              		.loc 1 182 0
 1073 0010 201C     		mov	r0, r4
 1074              	.LVL111:
 1075 0012 019A     		ldr	r2, [sp, #4]
 1076 0014 FFF7FEFF 		bl	pb_read
 1077              	.LVL112:
 1078 0018 011C     		mov	r1, r0
 1079              	.L106:
 1080              		.loc 1 183 0
 1081 001a 081C     		mov	r0, r1
 1082              		@ sp needed for prologue
 1083              	.LVL113:
ARM GAS  /tmp/ccgBgJff.s 			page 20


 1084 001c 16BD     		pop	{r1, r2, r4, pc}
 1085              		.cfi_endproc
 1086              	.LFE6:
 1087              		.size	pb_skip_string, .-pb_skip_string
 1088              		.section	.text.pb_decode_tag,"ax",%progbits
 1089              		.align	1
 1090              		.global	pb_decode_tag
 1091              		.code	16
 1092              		.thumb_func
 1093              		.type	pb_decode_tag, %function
 1094              	pb_decode_tag:
 1095              	.LFB7:
 1096              		.loc 1 186 0
 1097              		.cfi_startproc
 1098              	.LVL114:
 1099 0000 F7B5     		push	{r0, r1, r2, r4, r5, r6, r7, lr}
 1100              	.LCFI15:
 1101              		.cfi_def_cfa_offset 32
 1102              		.cfi_offset 0, -32
 1103              		.cfi_offset 1, -28
 1104              		.cfi_offset 2, -24
 1105              		.cfi_offset 4, -20
 1106              		.cfi_offset 5, -16
 1107              		.cfi_offset 6, -12
 1108              		.cfi_offset 7, -8
 1109              		.cfi_offset 14, -4
 1110              		.loc 1 186 0
 1111 0002 1C1C     		mov	r4, r3
 1112              		.loc 1 188 0
 1113 0004 0023     		mov	r3, #0
 1114              	.LVL115:
 1115 0006 2370     		strb	r3, [r4]
 1116              		.loc 1 186 0
 1117 0008 0D1C     		mov	r5, r1
 1118              		.loc 1 189 0
 1119 000a 0B70     		strb	r3, [r1]
 1120              		.loc 1 190 0
 1121 000c 1360     		str	r3, [r2]
 1122              		.loc 1 192 0
 1123 000e 01A9     		add	r1, sp, #4
 1124              	.LVL116:
 1125              		.loc 1 186 0
 1126 0010 071C     		mov	r7, r0
 1127 0012 161C     		mov	r6, r2
 1128              		.loc 1 192 0
 1129 0014 FFF7FEFF 		bl	pb_decode_varint32
 1130              	.LVL117:
 1131 0018 0028     		cmp	r0, #0
 1132 001a 03D1     		bne	.L110
 1133              		.loc 1 194 0
 1134 001c BF68     		ldr	r7, [r7, #8]
 1135              	.LVL118:
 1136 001e 002F     		cmp	r7, #0
 1137 0020 0CD1     		bne	.L111
 1138 0022 02E0     		b	.L114
 1139              	.LVL119:
 1140              	.L110:
ARM GAS  /tmp/ccgBgJff.s 			page 21


 1141              		.loc 1 200 0
 1142 0024 0198     		ldr	r0, [sp, #4]
 1143 0026 0028     		cmp	r0, #0
 1144 0028 02D1     		bne	.L112
 1145              	.LVL120:
 1146              	.L114:
 1147              		.loc 1 202 0
 1148 002a 0125     		mov	r5, #1
 1149              	.LVL121:
 1150 002c 2570     		strb	r5, [r4]
 1151 002e 05E0     		b	.L111
 1152              	.LVL122:
 1153              	.L112:
 1154              		.loc 1 207 0
 1155 0030 0722     		mov	r2, #7
 1156              		.loc 1 206 0
 1157 0032 C108     		lsr	r1, r0, #3
 1158              		.loc 1 207 0
 1159 0034 1040     		and	r0, r2
 1160              		.loc 1 206 0
 1161 0036 3160     		str	r1, [r6]
 1162              		.loc 1 207 0
 1163 0038 2870     		strb	r0, [r5]
 1164              		.loc 1 208 0
 1165 003a 0120     		mov	r0, #1
 1166              	.LVL123:
 1167              	.L111:
 1168              		.loc 1 209 0
 1169              		@ sp needed for prologue
 1170              	.LVL124:
 1171              	.LVL125:
 1172 003c FEBD     		pop	{r1, r2, r3, r4, r5, r6, r7, pc}
 1173              		.cfi_endproc
 1174              	.LFE7:
 1175              		.size	pb_decode_tag, .-pb_decode_tag
 1176              		.section	.text.pb_skip_field,"ax",%progbits
 1177              		.align	1
 1178              		.global	pb_skip_field
 1179              		.code	16
 1180              		.thumb_func
 1181              		.type	pb_skip_field, %function
 1182              	pb_skip_field:
 1183              	.LFB8:
 1184              		.loc 1 212 0
 1185              		.cfi_startproc
 1186              	.LVL126:
 1187 0000 08B5     		push	{r3, lr}
 1188              	.LCFI16:
 1189              		.cfi_def_cfa_offset 8
 1190              		.cfi_offset 3, -8
 1191              		.cfi_offset 14, -4
 1192              		.loc 1 212 0
 1193 0002 031C     		mov	r3, r0
 1194              		.loc 1 213 0
 1195 0004 0529     		cmp	r1, #5
 1196 0006 17D8     		bhi	.L116
 1197 0008 081C     		mov	r0, r1
ARM GAS  /tmp/ccgBgJff.s 			page 22


 1198              	.LVL127:
 1199 000a FFF7FEFF 		bl	__gnu_thumb1_case_uqi
 1200              	.L121:
 1201 000e 03       		.byte	(.L117-.L121)/2
 1202 000f 07       		.byte	(.L118-.L121)/2
 1203 0010 0B       		.byte	(.L119-.L121)/2
 1204 0011 15       		.byte	(.L116-.L121)/2
 1205 0012 15       		.byte	(.L116-.L121)/2
 1206 0013 0F       		.byte	(.L120-.L121)/2
 1207              		.align	1
 1208              	.L117:
 1209              		.loc 1 215 0
 1210 0014 181C     		mov	r0, r3
 1211 0016 FFF7FEFF 		bl	pb_skip_varint
 1212              	.LVL128:
 1213 001a 13E0     		b	.L122
 1214              	.LVL129:
 1215              	.L118:
 1216              	.LBB62:
 1217              	.LBB63:
 1218              		.loc 1 216 0
 1219 001c 181C     		mov	r0, r3
 1220 001e 0021     		mov	r1, #0
 1221              	.LVL130:
 1222 0020 0822     		mov	r2, #8
 1223 0022 06E0     		b	.L124
 1224              	.LVL131:
 1225              	.L119:
 1226              	.LBE63:
 1227              	.LBE62:
 1228              		.loc 1 217 0
 1229 0024 181C     		mov	r0, r3
 1230 0026 FFF7FEFF 		bl	pb_skip_string
 1231              	.LVL132:
 1232 002a 0BE0     		b	.L122
 1233              	.LVL133:
 1234              	.L120:
 1235              		.loc 1 218 0
 1236 002c 181C     		mov	r0, r3
 1237 002e 0021     		mov	r1, #0
 1238              	.LVL134:
 1239 0030 0422     		mov	r2, #4
 1240              	.LVL135:
 1241              	.L124:
 1242 0032 FFF7FEFF 		bl	pb_read
 1243              	.LVL136:
 1244 0036 05E0     		b	.L122
 1245              	.LVL137:
 1246              	.L116:
 1247              		.loc 1 219 0
 1248 0038 DA68     		ldr	r2, [r3, #12]
 1249 003a 0020     		mov	r0, #0
 1250 003c 8242     		cmp	r2, r0
 1251 003e 01D1     		bne	.L122
 1252              		.loc 1 219 0 is_stmt 0 discriminator 1
 1253 0040 0149     		ldr	r1, .L125
 1254              	.LVL138:
ARM GAS  /tmp/ccgBgJff.s 			page 23


 1255 0042 D960     		str	r1, [r3, #12]
 1256              	.LVL139:
 1257              	.L122:
 1258              		.loc 1 221 0 is_stmt 1
 1259              		@ sp needed for prologue
 1260 0044 08BD     		pop	{r3, pc}
 1261              	.L126:
 1262 0046 C046     		.align	2
 1263              	.L125:
 1264 0048 58000000 		.word	.LC17
 1265              		.cfi_endproc
 1266              	.LFE8:
 1267              		.size	pb_skip_field, .-pb_skip_field
 1268              		.section	.text.pb_make_string_substream,"ax",%progbits
 1269              		.align	1
 1270              		.global	pb_make_string_substream
 1271              		.code	16
 1272              		.thumb_func
 1273              		.type	pb_make_string_substream, %function
 1274              	pb_make_string_substream:
 1275              	.LFB10:
 1276              		.loc 1 257 0
 1277              		.cfi_startproc
 1278              	.LVL140:
 1279 0000 73B5     		push	{r0, r1, r4, r5, r6, lr}
 1280              	.LCFI17:
 1281              		.cfi_def_cfa_offset 24
 1282              		.cfi_offset 0, -24
 1283              		.cfi_offset 1, -20
 1284              		.cfi_offset 4, -16
 1285              		.cfi_offset 5, -12
 1286              		.cfi_offset 6, -8
 1287              		.cfi_offset 14, -4
 1288              		.loc 1 257 0
 1289 0002 0D1C     		mov	r5, r1
 1290              		.loc 1 259 0
 1291 0004 01A9     		add	r1, sp, #4
 1292              	.LVL141:
 1293              		.loc 1 257 0
 1294 0006 041C     		mov	r4, r0
 1295              		.loc 1 259 0
 1296 0008 FFF7FEFF 		bl	pb_decode_varint32
 1297              	.LVL142:
 1298 000c 0028     		cmp	r0, #0
 1299 000e 01D1     		bne	.L128
 1300              	.LVL143:
 1301              	.L131:
 1302              		.loc 1 260 0
 1303 0010 0020     		mov	r0, #0
 1304 0012 14E0     		b	.L129
 1305              	.LVL144:
 1306              	.L128:
 1307              		.loc 1 262 0
 1308 0014 2B1C     		mov	r3, r5
 1309 0016 221C     		mov	r2, r4
 1310 0018 43CA     		ldmia	r2!, {r0, r1, r6}
 1311 001a 43C3     		stmia	r3!, {r0, r1, r6}
ARM GAS  /tmp/ccgBgJff.s 			page 24


 1312 001c 1068     		ldr	r0, [r2]
 1313 001e 1860     		str	r0, [r3]
 1314              	.LVL145:
 1315              		.loc 1 263 0
 1316 0020 019E     		ldr	r6, [sp, #4]
 1317 0022 A968     		ldr	r1, [r5, #8]
 1318 0024 B142     		cmp	r1, r6
 1319 0026 05D2     		bcs	.L130
 1320              	.LVL146:
 1321              	.LBB66:
 1322              	.LBB67:
 1323              		.loc 1 264 0
 1324 0028 E068     		ldr	r0, [r4, #12]
 1325 002a 0028     		cmp	r0, #0
 1326 002c F0D1     		bne	.L131
 1327 002e 044A     		ldr	r2, .L132
 1328 0030 E260     		str	r2, [r4, #12]
 1329 0032 04E0     		b	.L129
 1330              	.LVL147:
 1331              	.L130:
 1332              	.LBE67:
 1333              	.LBE66:
 1334              		.loc 1 266 0
 1335 0034 AE60     		str	r6, [r5, #8]
 1336              		.loc 1 267 0
 1337 0036 A568     		ldr	r5, [r4, #8]
 1338              	.LVL148:
 1339              		.loc 1 268 0
 1340 0038 0120     		mov	r0, #1
 1341              		.loc 1 267 0
 1342 003a AB1B     		sub	r3, r5, r6
 1343              	.LVL149:
 1344 003c A360     		str	r3, [r4, #8]
 1345              	.L129:
 1346              		.loc 1 269 0
 1347              		@ sp needed for prologue
 1348              	.LVL150:
 1349 003e 76BD     		pop	{r1, r2, r4, r5, r6, pc}
 1350              	.L133:
 1351              		.align	2
 1352              	.L132:
 1353 0040 6A000000 		.word	.LC19
 1354              		.cfi_endproc
 1355              	.LFE10:
 1356              		.size	pb_make_string_substream, .-pb_make_string_substream
 1357              		.section	.text.decode_field,"ax",%progbits
 1358              		.align	1
 1359              		.code	16
 1360              		.thumb_func
 1361              		.type	decode_field, %function
 1362              	decode_field:
 1363              	.LFB17:
 1364              		.loc 1 465 0
 1365              		.cfi_startproc
 1366              	.LVL151:
 1367 0000 F0B5     		push	{r4, r5, r6, r7, lr}
 1368              	.LCFI18:
ARM GAS  /tmp/ccgBgJff.s 			page 25


 1369              		.cfi_def_cfa_offset 20
 1370              		.cfi_offset 4, -20
 1371              		.cfi_offset 5, -16
 1372              		.cfi_offset 6, -12
 1373              		.cfi_offset 7, -8
 1374              		.cfi_offset 14, -4
 1375 0002 0B1C     		mov	r3, r1
 1376              		.loc 1 466 0
 1377 0004 5168     		ldr	r1, [r2, #4]
 1378              	.LVL152:
 1379              		.loc 1 465 0
 1380 0006 151C     		mov	r5, r2
 1381              		.loc 1 466 0
 1382 0008 4A78     		ldrb	r2, [r1, #1]
 1383              	.LVL153:
 1384              		.loc 1 465 0
 1385 000a 041C     		mov	r4, r0
 1386              		.loc 1 466 0
 1387 000c 161C     		mov	r6, r2
 1388 000e 3F20     		mov	r0, #63
 1389              	.LVL154:
 1390 0010 8643     		bic	r6, r0
 1391              		.loc 1 465 0
 1392 0012 8BB0     		sub	sp, sp, #44
 1393              	.LCFI19:
 1394              		.cfi_def_cfa_offset 64
 1395              		.loc 1 466 0
 1396 0014 301E     		sub	r0, r6, #0
 1397 0016 03D0     		beq	.L136
 1398 0018 402E     		cmp	r6, #64
 1399 001a 00D0     		beq	.LCB1402
 1400 001c C3E0     		b	.L189	@long jump
 1401              	.LCB1402:
 1402 001e 5BE0     		b	.L196
 1403              	.L136:
 1404              	.LVL155:
 1405              	.LBB85:
 1406              	.LBB86:
 1407              		.loc 1 361 0
 1408 0020 0F26     		mov	r6, #15
 1409 0022 1640     		and	r6, r2
 1410 0024 B700     		lsl	r7, r6, #2
 1411 0026 B446     		mov	ip, r6
 1412 0028 644E     		ldr	r6, .L197
 1413 002a BE59     		ldr	r6, [r7, r6]
 1414              	.LVL156:
 1415              		.loc 1 363 0
 1416 002c 3027     		mov	r7, #48
 1417 002e 3A40     		and	r2, r7
 1418              	.LVL157:
 1419 0030 102A     		cmp	r2, #16
 1420 0032 04D0     		beq	.L140
 1421 0034 202A     		cmp	r2, #32
 1422 0036 09D0     		beq	.L141
 1423 0038 002A     		cmp	r2, #0
 1424 003a 49D1     		bne	.L190
 1425 003c 02E0     		b	.L192
ARM GAS  /tmp/ccgBgJff.s 			page 26


 1426              	.L140:
 1427              		.loc 1 369 0
 1428 003e A869     		ldr	r0, [r5, #24]
 1429 0040 0122     		mov	r2, #1
 1430 0042 0270     		strb	r2, [r0]
 1431              	.L192:
 1432              		.loc 1 370 0
 1433 0044 6A69     		ldr	r2, [r5, #20]
 1434              	.LVL158:
 1435              	.L194:
 1436 0046 201C     		mov	r0, r4
 1437 0048 B047     		blx	r6
 1438              	.LVL159:
 1439 004a B4E0     		b	.L177
 1440              	.LVL160:
 1441              	.L141:
 1442 004c AF69     		ldr	r7, [r5, #24]
 1443              		.loc 1 373 0
 1444 004e 022B     		cmp	r3, #2
 1445 0050 2DD1     		bne	.L143
 1446              		.loc 1 374 0
 1447 0052 6246     		mov	r2, ip
 1448 0054 032A     		cmp	r2, #3
 1449 0056 2ADC     		bgt	.L143
 1450              	.LVL161:
 1451              	.LBB87:
 1452              		.loc 1 380 0
 1453 0058 201C     		mov	r0, r4
 1454 005a 06A9     		add	r1, sp, #24
 1455              	.LVL162:
 1456 005c FFF7FEFF 		bl	pb_make_string_substream
 1457              	.LVL163:
 1458 0060 0028     		cmp	r0, #0
 1459 0062 00D1     		bne	.LCB1482
 1460 0064 A6E0     		b	.L165	@long jump
 1461              	.LCB1482:
 1462              	.L184:
 1463              		.loc 1 383 0
 1464 0066 0899     		ldr	r1, [sp, #32]
 1465 0068 0029     		cmp	r1, #0
 1466 006a 10D0     		beq	.L168
 1467 006c 6968     		ldr	r1, [r5, #4]
 1468 006e 3B68     		ldr	r3, [r7]
 1469 0070 4A79     		ldrb	r2, [r1, #5]
 1470 0072 9342     		cmp	r3, r2
 1471 0074 0BD2     		bcs	.L168
 1472              	.L147:
 1473              	.LVL164:
 1474              	.LBB88:
 1475              		.loc 1 385 0
 1476 0076 0879     		ldrb	r0, [r1, #4]
 1477 0078 6A69     		ldr	r2, [r5, #20]
 1478 007a 4343     		mul	r3, r0
 1479              	.LVL165:
 1480              		.loc 1 386 0
 1481 007c 06A8     		add	r0, sp, #24
 1482              		.loc 1 385 0
ARM GAS  /tmp/ccgBgJff.s 			page 27


 1483 007e D218     		add	r2, r2, r3
 1484              	.LVL166:
 1485              		.loc 1 386 0
 1486 0080 B047     		blx	r6
 1487              	.LVL167:
 1488 0082 0028     		cmp	r0, #0
 1489 0084 04D0     		beq	.L146
 1490              		.loc 1 391 0
 1491 0086 3968     		ldr	r1, [r7]
 1492 0088 0131     		add	r1, r1, #1
 1493 008a 3960     		str	r1, [r7]
 1494 008c EBE7     		b	.L184
 1495              	.L168:
 1496              	.LBE88:
 1497              		.loc 1 377 0
 1498 008e 0120     		mov	r0, #1
 1499              	.L146:
 1500              	.LVL168:
 1501              	.LBB89:
 1502              	.LBB90:
 1503              		.loc 1 273 0
 1504 0090 079B     		ldr	r3, [sp, #28]
 1505              		.loc 1 276 0
 1506 0092 099D     		ldr	r5, [sp, #36]
 1507              	.LVL169:
 1508              	.LBE90:
 1509              	.LBE89:
 1510              		.loc 1 395 0
 1511 0094 089E     		ldr	r6, [sp, #32]
 1512              	.LVL170:
 1513              	.LBB92:
 1514              	.LBB91:
 1515              		.loc 1 273 0
 1516 0096 6360     		str	r3, [r4, #4]
 1517              		.loc 1 276 0
 1518 0098 E560     		str	r5, [r4, #12]
 1519              	.LBE91:
 1520              	.LBE92:
 1521              		.loc 1 395 0
 1522 009a 002E     		cmp	r6, #0
 1523 009c 00D1     		bne	.LCB1548
 1524 009e 8AE0     		b	.L177	@long jump
 1525              	.LCB1548:
 1526              		.loc 1 396 0
 1527 00a0 002D     		cmp	r5, #0
 1528 00a2 00D0     		beq	.LCB1550
 1529 00a4 86E0     		b	.L165	@long jump
 1530              	.LCB1550:
 1531 00a6 464F     		ldr	r7, .L197+4
 1532              	.LVL171:
 1533 00a8 281C     		mov	r0, r5
 1534              	.LVL172:
 1535 00aa E760     		str	r7, [r4, #12]
 1536 00ac 83E0     		b	.L177
 1537              	.LVL173:
 1538              	.L143:
 1539              	.LBE87:
ARM GAS  /tmp/ccgBgJff.s 			page 28


 1540              	.LBB93:
 1541              		.loc 1 404 0
 1542 00ae 6A69     		ldr	r2, [r5, #20]
 1543 00b0 3B68     		ldr	r3, [r7]
 1544              	.LVL174:
 1545              		.loc 1 405 0
 1546 00b2 4D79     		ldrb	r5, [r1, #5]
 1547              	.LVL175:
 1548              		.loc 1 404 0
 1549 00b4 0879     		ldrb	r0, [r1, #4]
 1550              	.LVL176:
 1551              		.loc 1 405 0
 1552 00b6 AB42     		cmp	r3, r5
 1553 00b8 05D3     		bcc	.L149
 1554              		.loc 1 406 0
 1555 00ba E668     		ldr	r6, [r4, #12]
 1556              	.LVL177:
 1557 00bc 0020     		mov	r0, #0
 1558              	.LVL178:
 1559 00be 8642     		cmp	r6, r0
 1560 00c0 79D1     		bne	.L177
 1561 00c2 3F4B     		ldr	r3, .L197+4
 1562              	.LVL179:
 1563 00c4 74E0     		b	.L193
 1564              	.LVL180:
 1565              	.L149:
 1566              		.loc 1 408 0
 1567 00c6 5D1C     		add	r5, r3, #1
 1568              		.loc 1 404 0
 1569 00c8 4343     		mul	r3, r0
 1570              	.LVL181:
 1571              		.loc 1 408 0
 1572 00ca 3D60     		str	r5, [r7]
 1573              		.loc 1 404 0
 1574 00cc D218     		add	r2, r2, r3
 1575              	.LVL182:
 1576 00ce BAE7     		b	.L194
 1577              	.LVL183:
 1578              	.L190:
 1579              	.LBE93:
 1580              		.loc 1 413 0
 1581 00d0 E168     		ldr	r1, [r4, #12]
 1582              	.LVL184:
 1583 00d2 0029     		cmp	r1, #0
 1584 00d4 6FD1     		bne	.L177
 1585 00d6 6AE0     		b	.L195
 1586              	.LVL185:
 1587              	.L196:
 1588              	.LBE86:
 1589              	.LBE85:
 1590              	.LBB94:
 1591              	.LBB95:
 1592              		.loc 1 419 0
 1593 00d8 6F69     		ldr	r7, [r5, #20]
 1594              	.LVL186:
 1595              		.loc 1 427 0
 1596 00da 3868     		ldr	r0, [r7]
ARM GAS  /tmp/ccgBgJff.s 			page 29


 1597              		.loc 1 424 0
 1598 00dc 3A1D     		add	r2, r7, #4
 1599 00de 0192     		str	r2, [sp, #4]
 1600              	.LVL187:
 1601              		.loc 1 427 0
 1602 00e0 0028     		cmp	r0, #0
 1603 00e2 04D1     		bne	.L151
 1604              		.loc 1 428 0
 1605 00e4 201C     		mov	r0, r4
 1606 00e6 191C     		mov	r1, r3
 1607 00e8 FFF7FEFF 		bl	pb_skip_field
 1608              	.LVL188:
 1609 00ec 63E0     		b	.L177
 1610              	.LVL189:
 1611              	.L151:
 1612              		.loc 1 430 0
 1613 00ee 022B     		cmp	r3, #2
 1614 00f0 1AD1     		bne	.L153
 1615              	.LBB96:
 1616              		.loc 1 434 0
 1617 00f2 201C     		mov	r0, r4
 1618 00f4 06A9     		add	r1, sp, #24
 1619 00f6 FFF7FEFF 		bl	pb_make_string_substream
 1620              	.LVL190:
 1621 00fa 0028     		cmp	r0, #0
 1622 00fc 5AD0     		beq	.L165
 1623              	.L181:
 1624              		.loc 1 439 0
 1625 00fe 06A8     		add	r0, sp, #24
 1626 0100 6968     		ldr	r1, [r5, #4]
 1627 0102 019A     		ldr	r2, [sp, #4]
 1628 0104 3B68     		ldr	r3, [r7]
 1629 0106 9847     		blx	r3
 1630              	.LVL191:
 1631 0108 0028     		cmp	r0, #0
 1632 010a 04D1     		bne	.L156
 1633              		.loc 1 440 0
 1634 010c E068     		ldr	r0, [r4, #12]
 1635 010e 0028     		cmp	r0, #0
 1636 0110 50D1     		bne	.L165
 1637 0112 2C4B     		ldr	r3, .L197+8
 1638 0114 4CE0     		b	.L193
 1639              	.L156:
 1640              		.loc 1 441 0
 1641 0116 089A     		ldr	r2, [sp, #32]
 1642 0118 002A     		cmp	r2, #0
 1643 011a F0D1     		bne	.L181
 1644              	.LVL192:
 1645              	.LBB97:
 1646              	.LBB98:
 1647              		.loc 1 276 0
 1648 011c 0998     		ldr	r0, [sp, #36]
 1649              		.loc 1 273 0
 1650 011e 079D     		ldr	r5, [sp, #28]
 1651              	.LVL193:
 1652              		.loc 1 276 0
 1653 0120 E060     		str	r0, [r4, #12]
ARM GAS  /tmp/ccgBgJff.s 			page 30


 1654              		.loc 1 273 0
 1655 0122 6560     		str	r5, [r4, #4]
 1656              		.loc 1 444 0
 1657 0124 0120     		mov	r0, #1
 1658 0126 46E0     		b	.L177
 1659              	.LVL194:
 1660              	.L153:
 1661              	.LBE98:
 1662              	.LBE97:
 1663              	.LBE96:
 1664              	.LBB99:
 1665              	.LBB100:
 1666              	.LBB101:
 1667              		.loc 1 229 0
 1668 0128 012B     		cmp	r3, #1
 1669 012a 1ED0     		beq	.L160
 1670 012c 002B     		cmp	r3, #0
 1671 012e 09D0     		beq	.L171
 1672 0130 052B     		cmp	r3, #5
 1673 0132 22D1     		bne	.L191
 1674              	.LVL195:
 1675              		.loc 1 247 0
 1676 0134 201C     		mov	r0, r4
 1677 0136 03A9     		add	r1, sp, #12
 1678              	.LVL196:
 1679 0138 0422     		mov	r2, #4
 1680              	.LVL197:
 1681 013a FFF7FEFF 		bl	pb_read
 1682              	.LVL198:
 1683              		.loc 1 246 0
 1684 013e 0426     		mov	r6, #4
 1685              		.loc 1 247 0
 1686 0140 041C     		mov	r4, r0
 1687              	.LVL199:
 1688 0142 20E0     		b	.L164
 1689              	.LVL200:
 1690              	.L171:
 1691              		.loc 1 229 0
 1692 0144 1E1C     		mov	r6, r3
 1693              	.LVL201:
 1694              	.L159:
 1695              		.loc 1 464 0
 1696 0146 03A9     		add	r1, sp, #12
 1697 0148 7118     		add	r1, r6, r1
 1698              	.LVL202:
 1699              		.loc 1 235 0
 1700 014a 0136     		add	r6, r6, #1
 1701              	.LVL203:
 1702              		.loc 1 236 0
 1703 014c 0B2E     		cmp	r6, #11
 1704 014e 31D0     		beq	.L165
 1705              		.loc 1 237 0
 1706 0150 201C     		mov	r0, r4
 1707 0152 0122     		mov	r2, #1
 1708 0154 FFF7FEFF 		bl	pb_read
 1709              	.LVL204:
 1710 0158 0028     		cmp	r0, #0
ARM GAS  /tmp/ccgBgJff.s 			page 31


 1711 015a 2BD0     		beq	.L165
 1712              	.LVL205:
 1713              		.loc 1 464 0
 1714 015c 03AA     		add	r2, sp, #12
 1715 015e 9019     		add	r0, r2, r6
 1716 0160 0138     		sub	r0, r0, #1
 1717              		.loc 1 238 0
 1718 0162 0378     		ldrb	r3, [r0]
 1719 0164 7F2B     		cmp	r3, #127
 1720 0166 EED8     		bhi	.L159
 1721 0168 10E0     		b	.L163
 1722              	.LVL206:
 1723              	.L160:
 1724              		.loc 1 243 0
 1725 016a 201C     		mov	r0, r4
 1726 016c 03A9     		add	r1, sp, #12
 1727              	.LVL207:
 1728 016e 0822     		mov	r2, #8
 1729              	.LVL208:
 1730 0170 FFF7FEFF 		bl	pb_read
 1731              	.LVL209:
 1732              		.loc 1 242 0
 1733 0174 0826     		mov	r6, #8
 1734              		.loc 1 243 0
 1735 0176 041C     		mov	r4, r0
 1736              	.LVL210:
 1737 0178 05E0     		b	.L164
 1738              	.LVL211:
 1739              	.L191:
 1740              		.loc 1 249 0
 1741 017a E568     		ldr	r5, [r4, #12]
 1742              	.LVL212:
 1743 017c 002D     		cmp	r5, #0
 1744 017e 19D1     		bne	.L165
 1745 0180 114B     		ldr	r3, .L197+12
 1746              	.LVL213:
 1747 0182 E360     		str	r3, [r4, #12]
 1748 0184 16E0     		b	.L165
 1749              	.LVL214:
 1750              	.L164:
 1751              	.LBE101:
 1752              	.LBE100:
 1753              		.loc 1 457 0
 1754 0186 0020     		mov	r0, #0
 1755              		.loc 1 456 0
 1756 0188 8442     		cmp	r4, r0
 1757 018a 14D0     		beq	.L177
 1758              	.LVL215:
 1759              	.L163:
 1760              	.LBE99:
 1761              	.LBE95:
 1762              		.loc 1 458 0
 1763 018c 0F4C     		ldr	r4, .L197+16
 1764 018e 03A9     		add	r1, sp, #12
 1765              	.LVL216:
 1766 0190 0896     		str	r6, [sp, #32]
 1767 0192 0026     		mov	r6, #0
ARM GAS  /tmp/ccgBgJff.s 			page 32


 1768              	.LVL217:
 1769 0194 0791     		str	r1, [sp, #28]
 1770 0196 0694     		str	r4, [sp, #24]
 1771 0198 0996     		str	r6, [sp, #36]
 1772              	.LBB104:
 1773              	.LBB102:
 1774              		.loc 1 460 0
 1775 019a 6968     		ldr	r1, [r5, #4]
 1776              	.LVL218:
 1777 019c 3F68     		ldr	r7, [r7]
 1778              	.LVL219:
 1779 019e 06A8     		add	r0, sp, #24
 1780 01a0 019A     		ldr	r2, [sp, #4]
 1781 01a2 B847     		blx	r7
 1782              	.LVL220:
 1783 01a4 07E0     		b	.L177
 1784              	.LVL221:
 1785              	.L189:
 1786              	.LBE102:
 1787              	.LBE104:
 1788              	.LBE94:
 1789              	.LBB106:
 1790              	.LBB107:
 1791              		.loc 1 475 0
 1792 01a6 E168     		ldr	r1, [r4, #12]
 1793 01a8 0020     		mov	r0, #0
 1794 01aa 8142     		cmp	r1, r0
 1795 01ac 03D1     		bne	.L177
 1796              	.LVL222:
 1797              	.L195:
 1798 01ae 084B     		ldr	r3, .L197+20
 1799              	.LVL223:
 1800              	.L193:
 1801 01b0 E360     		str	r3, [r4, #12]
 1802 01b2 00E0     		b	.L177
 1803              	.L165:
 1804              	.LBE107:
 1805              	.LBE106:
 1806              	.LBB108:
 1807              	.LBB105:
 1808              	.LBB103:
 1809              		.loc 1 457 0
 1810 01b4 0020     		mov	r0, #0
 1811              	.LVL224:
 1812              	.L177:
 1813              	.LBE103:
 1814              	.LBE105:
 1815              	.LBE108:
 1816              		.loc 1 477 0
 1817 01b6 0BB0     		add	sp, sp, #44
 1818              		@ sp needed for prologue
 1819 01b8 F0BD     		pop	{r4, r5, r6, r7, pc}
 1820              	.L198:
 1821 01ba C046     		.align	2
 1822              	.L197:
 1823 01bc 00000000 		.word	.LANCHOR0
 1824 01c0 82000000 		.word	.LC22
ARM GAS  /tmp/ccgBgJff.s 			page 33


 1825 01c4 A4000000 		.word	.LC26
 1826 01c8 58000000 		.word	.LC17
 1827 01cc 00000000 		.word	buf_read
 1828 01d0 91000000 		.word	.LC24
 1829              		.cfi_endproc
 1830              	.LFE17:
 1831              		.size	decode_field, .-decode_field
 1832              		.section	.text.pb_close_string_substream,"ax",%progbits
 1833              		.align	1
 1834              		.global	pb_close_string_substream
 1835              		.code	16
 1836              		.thumb_func
 1837              		.type	pb_close_string_substream, %function
 1838              	pb_close_string_substream:
 1839              	.LFB11:
 1840              		.loc 1 272 0
 1841              		.cfi_startproc
 1842              	.LVL225:
 1843              		.loc 1 273 0
 1844 0000 4B68     		ldr	r3, [r1, #4]
 1845              		.loc 1 276 0
 1846 0002 C968     		ldr	r1, [r1, #12]
 1847              	.LVL226:
 1848              		.loc 1 273 0
 1849 0004 4360     		str	r3, [r0, #4]
 1850              		.loc 1 276 0
 1851 0006 C160     		str	r1, [r0, #12]
 1852              		.loc 1 278 0
 1853              		@ sp needed for prologue
 1854 0008 7047     		bx	lr
 1855              		.cfi_endproc
 1856              	.LFE11:
 1857              		.size	pb_close_string_substream, .-pb_close_string_substream
 1858              		.section	.text.pb_decode_noinit,"ax",%progbits
 1859              		.align	1
 1860              		.global	pb_decode_noinit
 1861              		.code	16
 1862              		.thumb_func
 1863              		.type	pb_decode_noinit, %function
 1864              	pb_decode_noinit:
 1865              	.LFB22:
 1866              		.loc 1 597 0
 1867              		.cfi_startproc
 1868              	.LVL227:
 1869 0000 F0B5     		push	{r4, r5, r6, r7, lr}
 1870              	.LCFI20:
 1871              		.cfi_def_cfa_offset 20
 1872              		.cfi_offset 4, -20
 1873              		.cfi_offset 5, -16
 1874              		.cfi_offset 6, -12
 1875              		.cfi_offset 7, -8
 1876              		.cfi_offset 14, -4
 1877              		.loc 1 598 0
 1878 0002 0023     		mov	r3, #0
 1879              		.loc 1 597 0
 1880 0004 95B0     		sub	sp, sp, #84
 1881              	.LCFI21:
ARM GAS  /tmp/ccgBgJff.s 			page 34


 1882              		.cfi_def_cfa_offset 104
 1883              		.loc 1 598 0
 1884 0006 0493     		str	r3, [sp, #16]
 1885 0008 0593     		str	r3, [sp, #20]
 1886              	.LVL228:
 1887              	.LBB123:
 1888              	.LBB124:
 1889              		.loc 1 293 0
 1890 000a 0791     		str	r1, [sp, #28]
 1891 000c 0691     		str	r1, [sp, #24]
 1892              		.loc 1 294 0
 1893 000e 0893     		str	r3, [sp, #32]
 1894              		.loc 1 295 0
 1895 0010 0993     		str	r3, [sp, #36]
 1896              	.LBE124:
 1897              	.LBE123:
 1898              		.loc 1 597 0
 1899 0012 041C     		mov	r4, r0
 1900              	.LBB126:
 1901              	.LBB125:
 1902              		.loc 1 296 0
 1903 0014 8878     		ldrb	r0, [r1, #2]
 1904              	.LVL229:
 1905 0016 1518     		add	r5, r2, r0
 1906 0018 0B95     		str	r5, [sp, #44]
 1907              		.loc 1 297 0
 1908 001a C978     		ldrb	r1, [r1, #3]
 1909              	.LVL230:
 1910              		.loc 1 298 0
 1911 001c 0A92     		str	r2, [sp, #40]
 1912              		.loc 1 297 0
 1913 001e 4EB2     		sxtb	r6, r1
 1914 0020 AF19     		add	r7, r5, r6
 1915 0022 0C97     		str	r7, [sp, #48]
 1916              		.loc 1 599 0
 1917 0024 0093     		str	r3, [sp]
 1918              	.LVL231:
 1919              	.L255:
 1920              	.LBE125:
 1921              	.LBE126:
 1922              		.loc 1 604 0 discriminator 1
 1923 0026 A268     		ldr	r2, [r4, #8]
 1924 0028 002A     		cmp	r2, #0
 1925 002a 52D0     		beq	.L246
 1926              	.L223:
 1927              	.LBB127:
 1928              		.loc 1 610 0
 1929 002c 6D46     		mov	r5, sp
 1930 002e 6E46     		mov	r6, sp
 1931 0030 0935     		add	r5, r5, #9
 1932 0032 0A36     		add	r6, r6, #10
 1933 0034 201C     		mov	r0, r4
 1934 0036 291C     		mov	r1, r5
 1935 0038 03AA     		add	r2, sp, #12
 1936 003a 331C     		mov	r3, r6
 1937 003c FFF7FEFF 		bl	pb_decode_tag
 1938              	.LVL232:
ARM GAS  /tmp/ccgBgJff.s 			page 35


 1939 0040 0028     		cmp	r0, #0
 1940 0042 03D1     		bne	.L202
 1941              	.LVL233:
 1942              		.loc 1 612 0
 1943 0044 3578     		ldrb	r5, [r6]
 1944              	.LVL234:
 1945 0046 002D     		cmp	r5, #0
 1946 0048 43D1     		bne	.L246
 1947              	.LVL235:
 1948 004a 40E0     		b	.L204
 1949              	.LVL236:
 1950              	.L202:
 1951              		.loc 1 618 0
 1952 004c 039F     		ldr	r7, [sp, #12]
 1953              	.LVL237:
 1954              	.LBB128:
 1955              	.LBB129:
 1956              		.loc 1 337 0
 1957 004e 089E     		ldr	r6, [sp, #32]
 1958              	.LVL238:
 1959              	.L207:
 1960              		.loc 1 340 0
 1961 0050 079B     		ldr	r3, [sp, #28]
 1962 0052 1878     		ldrb	r0, [r3]
 1963 0054 B842     		cmp	r0, r7
 1964 0056 04D1     		bne	.L205
 1965              		.loc 1 341 0
 1966 0058 5978     		ldrb	r1, [r3, #1]
 1967              		.loc 1 340 0
 1968 005a 0F22     		mov	r2, #15
 1969 005c 0A40     		and	r2, r1
 1970 005e 072A     		cmp	r2, #7
 1971 0060 68D1     		bne	.L206
 1972              	.L205:
 1973              		.loc 1 345 0
 1974 0062 06A8     		add	r0, sp, #24
 1975              	.LVL239:
 1976 0064 FFF7FEFF 		bl	pb_field_next
 1977              	.LVL240:
 1978              		.loc 1 346 0
 1979 0068 089B     		ldr	r3, [sp, #32]
 1980 006a B342     		cmp	r3, r6
 1981 006c F0D1     		bne	.L207
 1982              	.LBE129:
 1983              	.LBE128:
 1984              		.loc 1 621 0
 1985 006e 039F     		ldr	r7, [sp, #12]
 1986              	.LVL241:
 1987 0070 0098     		ldr	r0, [sp]
 1988 0072 8742     		cmp	r7, r0
 1989 0074 00D2     		bcs	.LCB2153
 1990 0076 90E0     		b	.L211	@long jump
 1991              	.LCB2153:
 1992              	.L247:
 1993              	.LBB130:
 1994              	.LBB131:
 1995              		.loc 1 535 0
ARM GAS  /tmp/ccgBgJff.s 			page 36


 1996 0078 079B     		ldr	r3, [sp, #28]
 1997 007a 0F22     		mov	r2, #15
 1998              	.LBE131:
 1999 007c 5978     		ldrb	r1, [r3, #1]
 2000              	.LBB132:
 2001 007e 0A40     		and	r2, r1
 2002 0080 072A     		cmp	r2, #7
 2003 0082 00D1     		bne	.LCB2165
 2004 0084 8FE0     		b	.L209	@long jump
 2005              	.LCB2165:
 2006              		.loc 1 537 0
 2007 0086 06A8     		add	r0, sp, #24
 2008              	.LVL242:
 2009 0088 FFF7FEFF 		bl	pb_field_next
 2010              	.LVL243:
 2011              		.loc 1 538 0
 2012 008c 089F     		ldr	r7, [sp, #32]
 2013 008e B742     		cmp	r7, r6
 2014 0090 F2D1     		bne	.L247
 2015              		.loc 1 624 0
 2016 0092 0126     		mov	r6, #1
 2017              	.LVL244:
 2018 0094 7042     		neg	r0, r6
 2019              	.L257:
 2020 0096 0090     		str	r0, [sp]
 2021              	.LVL245:
 2022              	.LBE132:
 2023              	.LBE130:
 2024              		.loc 1 628 0
 2025 0098 039E     		ldr	r6, [sp, #12]
 2026 009a 009B     		ldr	r3, [sp]
 2027 009c 9E42     		cmp	r6, r3
 2028 009e 7CD3     		bcc	.L211
 2029              	.LBB133:
 2030              		.loc 1 632 0
 2031 00a0 2F78     		ldrb	r7, [r5]
 2032              	.LBB134:
 2033              	.LBB135:
 2034              		.loc 1 507 0
 2035 00a2 0B9D     		ldr	r5, [sp, #44]
 2036              	.LBE135:
 2037              	.LBE134:
 2038              		.loc 1 630 0
 2039 00a4 A168     		ldr	r1, [r4, #8]
 2040              	.LBB143:
 2041              	.LBB140:
 2042              		.loc 1 507 0
 2043 00a6 2D68     		ldr	r5, [r5]
 2044              	.LBE140:
 2045              	.LBE143:
 2046              		.loc 1 630 0
 2047 00a8 0191     		str	r1, [sp, #4]
 2048              	.LVL246:
 2049              	.L212:
 2050 00aa A068     		ldr	r0, [r4, #8]
 2051              	.LBB144:
 2052              	.LBB141:
ARM GAS  /tmp/ccgBgJff.s 			page 37


 2053              		.loc 1 510 0
 2054 00ac 002D     		cmp	r5, #0
 2055 00ae 70D0     		beq	.L216
 2056 00b0 019A     		ldr	r2, [sp, #4]
 2057 00b2 8242     		cmp	r2, r0
 2058 00b4 6DD1     		bne	.L216
 2059              	.L217:
 2060              	.LBB136:
 2061              		.loc 1 513 0
 2062 00b6 2B68     		ldr	r3, [r5]
 2063 00b8 1968     		ldr	r1, [r3]
 2064 00ba 8C46     		mov	ip, r1
 2065 00bc 0029     		cmp	r1, #0
 2066 00be 52D0     		beq	.L213
 2067              		.loc 1 514 0
 2068 00c0 201C     		mov	r0, r4
 2069 00c2 291C     		mov	r1, r5
 2070 00c4 321C     		mov	r2, r6
 2071 00c6 3B1C     		mov	r3, r7
 2072 00c8 E047     		blx	ip
 2073              	.LVL247:
 2074              	.L214:
 2075              		.loc 1 518 0
 2076 00ca 0028     		cmp	r0, #0
 2077 00cc 5FD1     		bne	.L244
 2078              	.LVL248:
 2079              	.L204:
 2080 00ce 0020     		mov	r0, #0
 2081 00d0 6BE0     		b	.L245
 2082              	.L246:
 2083              	.LBE136:
 2084              	.LBE141:
 2085              	.LBE144:
 2086              	.LBE133:
 2087              	.LBE127:
 2088              	.LBB147:
 2089              		.loc 1 670 0 discriminator 1
 2090 00d2 0799     		ldr	r1, [sp, #28]
 2091              		.loc 1 671 0 discriminator 1
 2092 00d4 06A8     		add	r0, sp, #24
 2093              	.LVL249:
 2094              		.loc 1 669 0 discriminator 1
 2095 00d6 099D     		ldr	r5, [sp, #36]
 2096              	.LVL250:
 2097              		.loc 1 670 0 discriminator 1
 2098 00d8 4E78     		ldrb	r6, [r1, #1]
 2099              		.loc 1 671 0 discriminator 1
 2100 00da FFF7FEFF 		bl	pb_field_next
 2101              	.LVL251:
 2102 00de 0028     		cmp	r0, #0
 2103 00e0 F7D1     		bne	.L246
 2104              		.loc 1 674 0
 2105 00e2 3022     		mov	r2, #48
 2106 00e4 1642     		tst	r6, r2
 2107 00e6 04D1     		bne	.L225
 2108              		.loc 1 674 0 is_stmt 0 discriminator 1
 2109 00e8 079B     		ldr	r3, [sp, #28]
ARM GAS  /tmp/ccgBgJff.s 			page 38


 2110 00ea 1878     		ldrb	r0, [r3]
 2111              		.loc 1 675 0 is_stmt 1 discriminator 1
 2112 00ec 421E     		sub	r2, r0, #1
 2113 00ee 9041     		sbc	r0, r0, r2
 2114 00f0 2D18     		add	r5, r5, r0
 2115              	.L225:
 2116              	.LVL252:
 2117              		.loc 1 678 0
 2118 00f2 E908     		lsr	r1, r5, #3
 2119 00f4 0026     		mov	r6, #0
 2120              	.LVL253:
 2121              	.L226:
 2122 00f6 04AF     		add	r7, sp, #16
 2123              		.loc 1 678 0 is_stmt 0 discriminator 1
 2124 00f8 8E42     		cmp	r6, r1
 2125 00fa 09D0     		beq	.L261
 2126              	.L228:
 2127              		.loc 1 680 0 is_stmt 1
 2128 00fc BA5D     		ldrb	r2, [r7, r6]
 2129 00fe FF2A     		cmp	r2, #255
 2130 0100 04D0     		beq	.L227
 2131              		.loc 1 681 0
 2132 0102 E368     		ldr	r3, [r4, #12]
 2133 0104 0020     		mov	r0, #0
 2134 0106 8342     		cmp	r3, r0
 2135 0108 4FD1     		bne	.L245
 2136 010a 0EE0     		b	.L260
 2137              	.L227:
 2138              		.loc 1 678 0
 2139 010c 0136     		add	r6, r6, #1
 2140              	.LVL254:
 2141 010e F2E7     		b	.L226
 2142              	.L261:
 2143              		.loc 1 685 0
 2144 0110 B95D     		ldrb	r1, [r7, r6]
 2145 0112 0726     		mov	r6, #7
 2146              	.LVL255:
 2147 0114 3540     		and	r5, r6
 2148              	.LVL256:
 2149 0116 0822     		mov	r2, #8
 2150 0118 551B     		sub	r5, r2, r5
 2151 011a FF23     		mov	r3, #255
 2152 011c 2B41     		asr	r3, r3, r5
 2153 011e 9942     		cmp	r1, r3
 2154 0120 06D0     		beq	.L233
 2155              		.loc 1 686 0
 2156 0122 E768     		ldr	r7, [r4, #12]
 2157              		.loc 1 681 0
 2158 0124 0020     		mov	r0, #0
 2159              		.loc 1 686 0
 2160 0126 8742     		cmp	r7, r0
 2161 0128 3FD1     		bne	.L245
 2162              	.L260:
 2163              		.loc 1 686 0 is_stmt 0 discriminator 1
 2164 012a 214F     		ldr	r7, .L262
 2165 012c E760     		str	r7, [r4, #12]
 2166 012e 3CE0     		b	.L245
ARM GAS  /tmp/ccgBgJff.s 			page 39


 2167              	.L233:
 2168              		.loc 1 689 0 is_stmt 1
 2169 0130 0120     		mov	r0, #1
 2170 0132 3AE0     		b	.L245
 2171              	.LVL257:
 2172              	.L206:
 2173              	.LBE147:
 2174              	.LBB148:
 2175              		.loc 1 649 0
 2176 0134 3026     		mov	r6, #48
 2177              	.LVL258:
 2178 0136 3142     		tst	r1, r6
 2179 0138 0CD1     		bne	.L219
 2180              	.L229:
 2181              		.loc 1 650 0
 2182 013a 099F     		ldr	r7, [sp, #36]
 2183              	.LVL259:
 2184 013c 3F2F     		cmp	r7, #63
 2185 013e 09D8     		bhi	.L219
 2186              		.loc 1 652 0
 2187 0140 0723     		mov	r3, #7
 2188 0142 F908     		lsr	r1, r7, #3
 2189 0144 04AA     		add	r2, sp, #16
 2190 0146 1F40     		and	r7, r3
 2191 0148 0120     		mov	r0, #1
 2192 014a B840     		lsl	r0, r0, r7
 2193 014c 575C     		ldrb	r7, [r2, r1]
 2194 014e 061C     		mov	r6, r0
 2195 0150 3E43     		orr	r6, r7
 2196 0152 5654     		strb	r6, [r2, r1]
 2197              	.L219:
 2198              		.loc 1 655 0
 2199 0154 2978     		ldrb	r1, [r5]
 2200              	.LVL260:
 2201 0156 201C     		mov	r0, r4
 2202 0158 06AA     		add	r2, sp, #24
 2203              	.LVL261:
 2204 015a FFF7FEFF 		bl	decode_field
 2205              	.LVL262:
 2206              	.L259:
 2207 015e 0028     		cmp	r0, #0
 2208 0160 00D0     		beq	.LCB2417
 2209 0162 60E7     		b	.L255	@long jump
 2210              	.LCB2417:
 2211 0164 B3E7     		b	.L204
 2212              	.LVL263:
 2213              	.L213:
 2214              	.LBB146:
 2215              	.LBB145:
 2216              	.LBB142:
 2217              	.LBB139:
 2218              	.LBB137:
 2219              	.LBB138:
 2220              		.loc 1 484 0
 2221 0166 9868     		ldr	r0, [r3, #8]
 2222              	.LVL264:
 2223              		.loc 1 488 0
ARM GAS  /tmp/ccgBgJff.s 			page 40


 2224 0168 0278     		ldrb	r2, [r0]
 2225 016a B242     		cmp	r2, r6
 2226 016c 0FD1     		bne	.L244
 2227              		.loc 1 491 0
 2228 016e 0D90     		str	r0, [sp, #52]
 2229              		.loc 1 492 0
 2230 0170 0E90     		str	r0, [sp, #56]
 2231              		.loc 1 493 0
 2232 0172 0F91     		str	r1, [sp, #60]
 2233              		.loc 1 494 0
 2234 0174 1091     		str	r1, [sp, #64]
 2235              		.loc 1 497 0
 2236 0176 6846     		mov	r0, sp
 2237              	.LVL265:
 2238              		.loc 1 495 0
 2239 0178 6968     		ldr	r1, [r5, #4]
 2240              		.loc 1 497 0
 2241 017a 0B30     		add	r0, r0, #11
 2242              		.loc 1 495 0
 2243 017c 1191     		str	r1, [sp, #68]
 2244              		.loc 1 496 0
 2245 017e 1291     		str	r1, [sp, #72]
 2246              		.loc 1 497 0
 2247 0180 1390     		str	r0, [sp, #76]
 2248              		.loc 1 499 0
 2249 0182 391C     		mov	r1, r7
 2250 0184 201C     		mov	r0, r4
 2251 0186 0DAA     		add	r2, sp, #52
 2252 0188 FFF7FEFF 		bl	decode_field
 2253              	.LVL266:
 2254 018c 9DE7     		b	.L214
 2255              	.LVL267:
 2256              	.L244:
 2257              	.LBE138:
 2258              	.LBE137:
 2259              		.loc 1 521 0
 2260 018e AD68     		ldr	r5, [r5, #8]
 2261              	.LVL268:
 2262 0190 8BE7     		b	.L212
 2263              	.L216:
 2264              	.LBE139:
 2265              	.LBE142:
 2266              	.LBE145:
 2267              		.loc 1 635 0
 2268 0192 019F     		ldr	r7, [sp, #4]
 2269              	.LVL269:
 2270 0194 8742     		cmp	r7, r0
 2271 0196 00D0     		beq	.LCB2491
 2272 0198 45E7     		b	.L255	@long jump
 2273              	.LCB2491:
 2274              	.LVL270:
 2275              	.L211:
 2276              	.LBE146:
 2277              		.loc 1 644 0
 2278 019a 6E46     		mov	r6, sp
 2279 019c 717A     		ldrb	r1, [r6, #9]
 2280              	.LVL271:
ARM GAS  /tmp/ccgBgJff.s 			page 41


 2281 019e 201C     		mov	r0, r4
 2282 01a0 FFF7FEFF 		bl	pb_skip_field
 2283              	.LVL272:
 2284 01a4 DBE7     		b	.L259
 2285              	.LVL273:
 2286              	.L209:
 2287              		.loc 1 626 0
 2288 01a6 1878     		ldrb	r0, [r3]
 2289 01a8 75E7     		b	.L257
 2290              	.LVL274:
 2291              	.L245:
 2292              	.LBE148:
 2293              		.loc 1 690 0
 2294 01aa 15B0     		add	sp, sp, #84
 2295              	.LVL275:
 2296              		@ sp needed for prologue
 2297              	.LVL276:
 2298              	.LVL277:
 2299 01ac F0BD     		pop	{r4, r5, r6, r7, pc}
 2300              	.L263:
 2301 01ae C046     		.align	2
 2302              	.L262:
 2303 01b0 B4000000 		.word	.LC30
 2304              		.cfi_endproc
 2305              	.LFE22:
 2306              		.size	pb_decode_noinit, .-pb_decode_noinit
 2307              		.section	.text.pb_decode,"ax",%progbits
 2308              		.align	1
 2309              		.global	pb_decode
 2310              		.code	16
 2311              		.thumb_func
 2312              		.type	pb_decode, %function
 2313              	pb_decode:
 2314              	.LFB23:
 2315              		.loc 1 693 0
 2316              		.cfi_startproc
 2317              	.LVL278:
 2318 0000 70B5     		push	{r4, r5, r6, lr}
 2319              	.LCFI22:
 2320              		.cfi_def_cfa_offset 16
 2321              		.cfi_offset 4, -16
 2322              		.cfi_offset 5, -12
 2323              		.cfi_offset 6, -8
 2324              		.cfi_offset 14, -4
 2325              		.loc 1 693 0
 2326 0002 061C     		mov	r6, r0
 2327 0004 0D1C     		mov	r5, r1
 2328 0006 141C     		mov	r4, r2
 2329              		.loc 1 694 0
 2330 0008 081C     		mov	r0, r1
 2331              	.LVL279:
 2332 000a 111C     		mov	r1, r2
 2333              	.LVL280:
 2334 000c FFF7FEFF 		bl	pb_message_set_to_defaults
 2335              	.LVL281:
 2336              		.loc 1 695 0
 2337 0010 301C     		mov	r0, r6
ARM GAS  /tmp/ccgBgJff.s 			page 42


 2338 0012 291C     		mov	r1, r5
 2339 0014 221C     		mov	r2, r4
 2340 0016 FFF7FEFF 		bl	pb_decode_noinit
 2341              	.LVL282:
 2342              		.loc 1 696 0
 2343              		@ sp needed for prologue
 2344              	.LVL283:
 2345              	.LVL284:
 2346              	.LVL285:
 2347 001a 70BD     		pop	{r4, r5, r6, pc}
 2348              		.cfi_endproc
 2349              	.LFE23:
 2350              		.size	pb_decode, .-pb_decode
 2351              		.section	.text.pb_dec_submessage,"ax",%progbits
 2352              		.align	1
 2353              		.global	pb_dec_submessage
 2354              		.code	16
 2355              		.thumb_func
 2356              		.type	pb_dec_submessage, %function
 2357              	pb_dec_submessage:
 2358              	.LFB34:
 2359              		.loc 1 848 0
 2360              		.cfi_startproc
 2361              	.LVL286:
 2362 0000 F0B5     		push	{r4, r5, r6, r7, lr}
 2363              	.LCFI23:
 2364              		.cfi_def_cfa_offset 20
 2365              		.cfi_offset 4, -20
 2366              		.cfi_offset 5, -16
 2367              		.cfi_offset 6, -12
 2368              		.cfi_offset 7, -8
 2369              		.cfi_offset 14, -4
 2370              		.loc 1 851 0
 2371 0002 CF79     		ldrb	r7, [r1, #7]
 2372 0004 8B79     		ldrb	r3, [r1, #6]
 2373              		.loc 1 848 0
 2374 0006 051C     		mov	r5, r0
 2375 0008 0C1C     		mov	r4, r1
 2376              		.loc 1 851 0
 2377 000a 087A     		ldrb	r0, [r1, #8]
 2378              	.LVL287:
 2379              		.loc 1 848 0
 2380 000c 161C     		mov	r6, r2
 2381              		.loc 1 851 0
 2382 000e 3F02     		lsl	r7, r7, #8
 2383 0010 627A     		ldrb	r2, [r4, #9]
 2384              	.LVL288:
 2385 0012 0104     		lsl	r1, r0, #16
 2386              	.LVL289:
 2387              		.loc 1 848 0
 2388 0014 85B0     		sub	sp, sp, #20
 2389              	.LCFI24:
 2390              		.cfi_def_cfa_offset 40
 2391              		.loc 1 851 0
 2392 0016 1F43     		orr	r7, r3
 2393 0018 0F43     		orr	r7, r1
 2394 001a 1306     		lsl	r3, r2, #24
ARM GAS  /tmp/ccgBgJff.s 			page 43


 2395              		.loc 1 853 0
 2396 001c 6946     		mov	r1, sp
 2397 001e 281C     		mov	r0, r5
 2398              		.loc 1 851 0
 2399 0020 1F43     		orr	r7, r3
 2400              	.LVL290:
 2401              		.loc 1 853 0
 2402 0022 FFF7FEFF 		bl	pb_make_string_substream
 2403              	.LVL291:
 2404 0026 011C     		mov	r1, r0
 2405              		.loc 1 854 0
 2406 0028 0020     		mov	r0, #0
 2407              		.loc 1 853 0
 2408 002a 8142     		cmp	r1, r0
 2409 002c 21D0     		beq	.L266
 2410              		.loc 1 856 0
 2411 002e E379     		ldrb	r3, [r4, #7]
 2412 0030 A279     		ldrb	r2, [r4, #6]
 2413 0032 1902     		lsl	r1, r3, #8
 2414 0034 1143     		orr	r1, r2
 2415 0036 227A     		ldrb	r2, [r4, #8]
 2416 0038 1304     		lsl	r3, r2, #16
 2417 003a 627A     		ldrb	r2, [r4, #9]
 2418 003c 1943     		orr	r1, r3
 2419 003e 1306     		lsl	r3, r2, #24
 2420 0040 1943     		orr	r1, r3
 2421 0042 8142     		cmp	r1, r0
 2422 0044 04D1     		bne	.L267
 2423              	.LVL292:
 2424              	.LBB155:
 2425              	.LBB156:
 2426              		.loc 1 857 0
 2427 0046 E968     		ldr	r1, [r5, #12]
 2428 0048 8142     		cmp	r1, r0
 2429 004a 12D1     		bne	.L266
 2430 004c 0A4F     		ldr	r7, .L274
 2431              	.LVL293:
 2432 004e 0FE0     		b	.L273
 2433              	.LVL294:
 2434              	.L267:
 2435              	.LBE156:
 2436              	.LBE155:
 2437              		.loc 1 861 0
 2438 0050 6478     		ldrb	r4, [r4, #1]
 2439              	.LVL295:
 2440 0052 3023     		mov	r3, #48
 2441 0054 2340     		and	r3, r4
 2442              		.loc 1 862 0
 2443 0056 6846     		mov	r0, sp
 2444 0058 391C     		mov	r1, r7
 2445 005a 321C     		mov	r2, r6
 2446              		.loc 1 861 0
 2447 005c 202B     		cmp	r3, #32
 2448 005e 02D1     		bne	.L268
 2449              	.LVL296:
 2450              		.loc 1 862 0
 2451 0060 FFF7FEFF 		bl	pb_decode
ARM GAS  /tmp/ccgBgJff.s 			page 44


 2452              	.LVL297:
 2453 0064 01E0     		b	.L269
 2454              	.LVL298:
 2455              	.L268:
 2456              		.loc 1 864 0
 2457 0066 FFF7FEFF 		bl	pb_decode_noinit
 2458              	.LVL299:
 2459              	.L269:
 2460              	.LBB157:
 2461              	.LBB158:
 2462              		.loc 1 273 0
 2463 006a 019E     		ldr	r6, [sp, #4]
 2464              	.LVL300:
 2465              		.loc 1 276 0
 2466 006c 039F     		ldr	r7, [sp, #12]
 2467              	.LVL301:
 2468              		.loc 1 273 0
 2469 006e 6E60     		str	r6, [r5, #4]
 2470              	.LVL302:
 2471              	.L273:
 2472              		.loc 1 276 0
 2473 0070 EF60     		str	r7, [r5, #12]
 2474              	.L266:
 2475              	.LBE158:
 2476              	.LBE157:
 2477              		.loc 1 868 0
 2478 0072 05B0     		add	sp, sp, #20
 2479              		@ sp needed for prologue
 2480              	.LVL303:
 2481 0074 F0BD     		pop	{r4, r5, r6, r7, pc}
 2482              	.L275:
 2483 0076 C046     		.align	2
 2484              	.L274:
 2485 0078 CB000000 		.word	.LC32
 2486              		.cfi_endproc
 2487              	.LFE34:
 2488              		.size	pb_dec_submessage, .-pb_dec_submessage
 2489              		.section	.text.pb_decode_delimited,"ax",%progbits
 2490              		.align	1
 2491              		.global	pb_decode_delimited
 2492              		.code	16
 2493              		.thumb_func
 2494              		.type	pb_decode_delimited, %function
 2495              	pb_decode_delimited:
 2496              	.LFB24:
 2497              		.loc 1 699 0
 2498              		.cfi_startproc
 2499              	.LVL304:
 2500 0000 7FB5     		push	{r0, r1, r2, r3, r4, r5, r6, lr}
 2501              	.LCFI25:
 2502              		.cfi_def_cfa_offset 32
 2503              		.cfi_offset 0, -32
 2504              		.cfi_offset 1, -28
 2505              		.cfi_offset 2, -24
 2506              		.cfi_offset 3, -20
 2507              		.cfi_offset 4, -16
 2508              		.cfi_offset 5, -12
ARM GAS  /tmp/ccgBgJff.s 			page 45


 2509              		.cfi_offset 6, -8
 2510              		.cfi_offset 14, -4
 2511              		.loc 1 699 0
 2512 0002 0E1C     		mov	r6, r1
 2513              		.loc 1 703 0
 2514 0004 6946     		mov	r1, sp
 2515              	.LVL305:
 2516              		.loc 1 699 0
 2517 0006 041C     		mov	r4, r0
 2518 0008 151C     		mov	r5, r2
 2519              		.loc 1 703 0
 2520 000a FFF7FEFF 		bl	pb_make_string_substream
 2521              	.LVL306:
 2522 000e 031C     		mov	r3, r0
 2523              		.loc 1 704 0
 2524 0010 0020     		mov	r0, #0
 2525              		.loc 1 703 0
 2526 0012 8342     		cmp	r3, r0
 2527 0014 08D0     		beq	.L277
 2528              		.loc 1 706 0
 2529 0016 311C     		mov	r1, r6
 2530 0018 2A1C     		mov	r2, r5
 2531 001a 6846     		mov	r0, sp
 2532 001c FFF7FEFF 		bl	pb_decode
 2533              	.LVL307:
 2534              	.LBB159:
 2535              	.LBB160:
 2536              		.loc 1 273 0
 2537 0020 0199     		ldr	r1, [sp, #4]
 2538              		.loc 1 276 0
 2539 0022 039A     		ldr	r2, [sp, #12]
 2540              		.loc 1 273 0
 2541 0024 6160     		str	r1, [r4, #4]
 2542              		.loc 1 276 0
 2543 0026 E260     		str	r2, [r4, #12]
 2544              	.LVL308:
 2545              	.L277:
 2546              	.LBE160:
 2547              	.LBE159:
 2548              		.loc 1 709 0
 2549 0028 04B0     		add	sp, sp, #16
 2550              		@ sp needed for prologue
 2551              	.LVL309:
 2552              	.LVL310:
 2553              	.LVL311:
 2554 002a 70BD     		pop	{r4, r5, r6, pc}
 2555              		.cfi_endproc
 2556              	.LFE24:
 2557              		.size	pb_decode_delimited, .-pb_decode_delimited
 2558              		.section	.text.pb_decode_svarint,"ax",%progbits
 2559              		.align	1
 2560              		.global	pb_decode_svarint
 2561              		.code	16
 2562              		.thumb_func
 2563              		.type	pb_decode_svarint, %function
 2564              	pb_decode_svarint:
 2565              	.LFB25:
ARM GAS  /tmp/ccgBgJff.s 			page 46


 2566              		.loc 1 714 0
 2567              		.cfi_startproc
 2568              	.LVL312:
 2569 0000 37B5     		push	{r0, r1, r2, r4, r5, lr}
 2570              	.LCFI26:
 2571              		.cfi_def_cfa_offset 24
 2572              		.cfi_offset 0, -24
 2573              		.cfi_offset 1, -20
 2574              		.cfi_offset 2, -16
 2575              		.cfi_offset 4, -12
 2576              		.cfi_offset 5, -8
 2577              		.cfi_offset 14, -4
 2578              		.loc 1 714 0
 2579 0002 0C1C     		mov	r4, r1
 2580              		.loc 1 716 0
 2581 0004 6946     		mov	r1, sp
 2582              	.LVL313:
 2583 0006 FFF7FEFF 		bl	pb_decode_varint
 2584              	.LVL314:
 2585 000a 031C     		mov	r3, r0
 2586              		.loc 1 717 0
 2587 000c 0020     		mov	r0, #0
 2588              		.loc 1 716 0
 2589 000e 8342     		cmp	r3, r0
 2590 0010 0ED0     		beq	.L281
 2591              	.LVL315:
 2592              		.loc 1 719 0
 2593 0012 019A     		ldr	r2, [sp, #4]
 2594              	.LVL316:
 2595 0014 009B     		ldr	r3, [sp]
 2596 0016 D107     		lsl	r1, r2, #31
 2597 0018 0120     		mov	r0, #1
 2598 001a 5D08     		lsr	r5, r3, #1
 2599 001c C240     		lsr	r2, r2, r0
 2600              		.loc 1 722 0
 2601 001e 2943     		orr	r1, r5
 2602              		.loc 1 719 0
 2603 0020 0342     		tst	r3, r0
 2604 0022 03D0     		beq	.L282
 2605              		.loc 1 720 0
 2606 0024 CB43     		mvn	r3, r1
 2607 0026 2360     		str	r3, [r4]
 2608 0028 D243     		mvn	r2, r2
 2609 002a 00E0     		b	.L286
 2610              	.L282:
 2611              		.loc 1 722 0
 2612 002c 2160     		str	r1, [r4]
 2613              	.L286:
 2614 002e 6260     		str	r2, [r4, #4]
 2615              	.L281:
 2616              		.loc 1 725 0
 2617              		@ sp needed for prologue
 2618              	.LVL317:
 2619 0030 3EBD     		pop	{r1, r2, r3, r4, r5, pc}
 2620              		.cfi_endproc
 2621              	.LFE25:
 2622              		.size	pb_decode_svarint, .-pb_decode_svarint
ARM GAS  /tmp/ccgBgJff.s 			page 47


 2623              		.section	.text.pb_dec_svarint,"ax",%progbits
 2624              		.align	1
 2625              		.global	pb_dec_svarint
 2626              		.code	16
 2627              		.thumb_func
 2628              		.type	pb_dec_svarint, %function
 2629              	pb_dec_svarint:
 2630              	.LFB29:
 2631              		.loc 1 788 0
 2632              		.cfi_startproc
 2633              	.LVL318:
 2634 0000 73B5     		push	{r0, r1, r4, r5, r6, lr}
 2635              	.LCFI27:
 2636              		.cfi_def_cfa_offset 24
 2637              		.cfi_offset 0, -24
 2638              		.cfi_offset 1, -20
 2639              		.cfi_offset 4, -16
 2640              		.cfi_offset 5, -12
 2641              		.cfi_offset 6, -8
 2642              		.cfi_offset 14, -4
 2643              		.loc 1 788 0
 2644 0002 0E1C     		mov	r6, r1
 2645              		.loc 1 790 0
 2646 0004 6946     		mov	r1, sp
 2647              	.LVL319:
 2648              		.loc 1 788 0
 2649 0006 041C     		mov	r4, r0
 2650 0008 151C     		mov	r5, r2
 2651              		.loc 1 790 0
 2652 000a FFF7FEFF 		bl	pb_decode_svarint
 2653              	.LVL320:
 2654              		.loc 1 791 0
 2655 000e 0023     		mov	r3, #0
 2656              		.loc 1 790 0
 2657 0010 9842     		cmp	r0, r3
 2658 0012 12D0     		beq	.L288
 2659              		.loc 1 793 0
 2660 0014 3279     		ldrb	r2, [r6, #4]
 2661 0016 042A     		cmp	r2, #4
 2662 0018 06D0     		beq	.L290
 2663 001a 082A     		cmp	r2, #8
 2664 001c 08D1     		bne	.L295
 2665              	.LVL321:
 2666              		.loc 1 796 0
 2667 001e 009B     		ldr	r3, [sp]
 2668 0020 019C     		ldr	r4, [sp, #4]
 2669 0022 2B60     		str	r3, [r5]
 2670 0024 6C60     		str	r4, [r5, #4]
 2671 0026 01E0     		b	.L296
 2672              	.LVL322:
 2673              	.L290:
 2674              		.loc 1 795 0
 2675 0028 009C     		ldr	r4, [sp]
 2676              	.LVL323:
 2677 002a 2C60     		str	r4, [r5]
 2678              	.LVL324:
 2679              	.L296:
ARM GAS  /tmp/ccgBgJff.s 			page 48


 2680              		.loc 1 800 0
 2681 002c 0123     		mov	r3, #1
 2682              		.loc 1 796 0
 2683 002e 04E0     		b	.L288
 2684              	.LVL325:
 2685              	.L295:
 2686              	.LBB163:
 2687              	.LBB164:
 2688              		.loc 1 797 0
 2689 0030 E068     		ldr	r0, [r4, #12]
 2690 0032 0028     		cmp	r0, #0
 2691 0034 01D1     		bne	.L288
 2692 0036 0249     		ldr	r1, .L297
 2693 0038 E160     		str	r1, [r4, #12]
 2694              	.LVL326:
 2695              	.L288:
 2696              	.LBE164:
 2697              	.LBE163:
 2698              		.loc 1 801 0
 2699 003a 181C     		mov	r0, r3
 2700              		@ sp needed for prologue
 2701              	.LVL327:
 2702              	.LVL328:
 2703 003c 76BD     		pop	{r1, r2, r4, r5, r6, pc}
 2704              	.L298:
 2705 003e C046     		.align	2
 2706              	.L297:
 2707 0040 46000000 		.word	.LC15
 2708              		.cfi_endproc
 2709              	.LFE29:
 2710              		.size	pb_dec_svarint, .-pb_dec_svarint
 2711              		.section	.text.pb_decode_fixed32,"ax",%progbits
 2712              		.align	1
 2713              		.global	pb_decode_fixed32
 2714              		.code	16
 2715              		.thumb_func
 2716              		.type	pb_decode_fixed32, %function
 2717              	pb_decode_fixed32:
 2718              	.LFB26:
 2719              		.loc 1 728 0
 2720              		.cfi_startproc
 2721              	.LVL329:
 2722 0000 08B5     		push	{r3, lr}
 2723              	.LCFI28:
 2724              		.cfi_def_cfa_offset 8
 2725              		.cfi_offset 3, -8
 2726              		.cfi_offset 14, -4
 2727              		.loc 1 742 0
 2728 0002 0422     		mov	r2, #4
 2729 0004 FFF7FEFF 		bl	pb_read
 2730              	.LVL330:
 2731              		.loc 1 744 0
 2732              		@ sp needed for prologue
 2733 0008 08BD     		pop	{r3, pc}
 2734              		.cfi_endproc
 2735              	.LFE26:
 2736              		.size	pb_decode_fixed32, .-pb_decode_fixed32
ARM GAS  /tmp/ccgBgJff.s 			page 49


 2737              		.section	.text.pb_dec_fixed32,"ax",%progbits
 2738              		.align	1
 2739              		.global	pb_dec_fixed32
 2740              		.code	16
 2741              		.thumb_func
 2742              		.type	pb_dec_fixed32, %function
 2743              	pb_dec_fixed32:
 2744              	.LFB30:
 2745              		.loc 1 804 0
 2746              		.cfi_startproc
 2747              	.LVL331:
 2748 0000 08B5     		push	{r3, lr}
 2749              	.LCFI29:
 2750              		.cfi_def_cfa_offset 8
 2751              		.cfi_offset 3, -8
 2752              		.cfi_offset 14, -4
 2753              		.loc 1 806 0
 2754 0002 111C     		mov	r1, r2
 2755              	.LVL332:
 2756 0004 FFF7FEFF 		bl	pb_decode_fixed32
 2757              	.LVL333:
 2758              		.loc 1 807 0
 2759              		@ sp needed for prologue
 2760 0008 08BD     		pop	{r3, pc}
 2761              		.cfi_endproc
 2762              	.LFE30:
 2763              		.size	pb_dec_fixed32, .-pb_dec_fixed32
 2764              		.section	.text.pb_decode_fixed64,"ax",%progbits
 2765              		.align	1
 2766              		.global	pb_decode_fixed64
 2767              		.code	16
 2768              		.thumb_func
 2769              		.type	pb_decode_fixed64, %function
 2770              	pb_decode_fixed64:
 2771              	.LFB27:
 2772              		.loc 1 747 0
 2773              		.cfi_startproc
 2774              	.LVL334:
 2775 0000 08B5     		push	{r3, lr}
 2776              	.LCFI30:
 2777              		.cfi_def_cfa_offset 8
 2778              		.cfi_offset 3, -8
 2779              		.cfi_offset 14, -4
 2780              		.loc 1 765 0
 2781 0002 0822     		mov	r2, #8
 2782 0004 FFF7FEFF 		bl	pb_read
 2783              	.LVL335:
 2784              		.loc 1 767 0
 2785              		@ sp needed for prologue
 2786 0008 08BD     		pop	{r3, pc}
 2787              		.cfi_endproc
 2788              	.LFE27:
 2789              		.size	pb_decode_fixed64, .-pb_decode_fixed64
 2790              		.section	.text.pb_dec_fixed64,"ax",%progbits
 2791              		.align	1
 2792              		.global	pb_dec_fixed64
 2793              		.code	16
ARM GAS  /tmp/ccgBgJff.s 			page 50


 2794              		.thumb_func
 2795              		.type	pb_dec_fixed64, %function
 2796              	pb_dec_fixed64:
 2797              	.LFB31:
 2798              		.loc 1 810 0
 2799              		.cfi_startproc
 2800              	.LVL336:
 2801 0000 08B5     		push	{r3, lr}
 2802              	.LCFI31:
 2803              		.cfi_def_cfa_offset 8
 2804              		.cfi_offset 3, -8
 2805              		.cfi_offset 14, -4
 2806              		.loc 1 812 0
 2807 0002 111C     		mov	r1, r2
 2808              	.LVL337:
 2809 0004 FFF7FEFF 		bl	pb_decode_fixed64
 2810              	.LVL338:
 2811              		.loc 1 813 0
 2812              		@ sp needed for prologue
 2813 0008 08BD     		pop	{r3, pc}
 2814              		.cfi_endproc
 2815              	.LFE31:
 2816              		.size	pb_dec_fixed64, .-pb_dec_fixed64
 2817              		.section	.rodata.str1.1,"aMS",%progbits,1
 2818              	.LC3:
 2819 0000 656E642D 		.ascii	"end-of-stream\000"
 2819      6F662D73 
 2819      74726561 
 2819      6D00
 2820              	.LC5:
 2821 000e 696F2065 		.ascii	"io error\000"
 2821      72726F72 
 2821      00
 2822              	.LC7:
 2823 0017 76617269 		.ascii	"varint overflow\000"
 2823      6E74206F 
 2823      76657266 
 2823      6C6F7700 
 2824              	.LC9:
 2825 0027 73747269 		.ascii	"string overflow\000"
 2825      6E67206F 
 2825      76657266 
 2825      6C6F7700 
 2826              	.LC11:
 2827 0037 62797465 		.ascii	"bytes overflow\000"
 2827      73206F76 
 2827      6572666C 
 2827      6F7700
 2828              	.LC15:
 2829 0046 696E7661 		.ascii	"invalid data_size\000"
 2829      6C696420 
 2829      64617461 
 2829      5F73697A 
 2829      6500
 2830              	.LC17:
 2831 0058 696E7661 		.ascii	"invalid wire_type\000"
 2831      6C696420 
ARM GAS  /tmp/ccgBgJff.s 			page 51


 2831      77697265 
 2831      5F747970 
 2831      6500
 2832              	.LC19:
 2833 006a 70617265 		.ascii	"parent stream too short\000"
 2833      6E742073 
 2833      74726561 
 2833      6D20746F 
 2833      6F207368 
 2834              	.LC22:
 2835 0082 61727261 		.ascii	"array overflow\000"
 2835      79206F76 
 2835      6572666C 
 2835      6F7700
 2836              	.LC24:
 2837 0091 696E7661 		.ascii	"invalid field type\000"
 2837      6C696420 
 2837      6669656C 
 2837      64207479 
 2837      706500
 2838              	.LC26:
 2839 00a4 63616C6C 		.ascii	"callback failed\000"
 2839      6261636B 
 2839      20666169 
 2839      6C656400 
 2840              	.LC30:
 2841 00b4 6D697373 		.ascii	"missing required field\000"
 2841      696E6720 
 2841      72657175 
 2841      69726564 
 2841      20666965 
 2842              	.LC32:
 2843 00cb 696E7661 		.ascii	"invalid field descriptor\000"
 2843      6C696420 
 2843      6669656C 
 2843      64206465 
 2843      73637269 
 2844              		.section	.rodata.PB_DECODERS,"a",%progbits
 2845              		.align	2
 2846              		.set	.LANCHOR0,. + 0
 2847              		.type	PB_DECODERS, %object
 2848              		.size	PB_DECODERS, 32
 2849              	PB_DECODERS:
 2850 0000 00000000 		.word	pb_dec_varint
 2851 0004 00000000 		.word	pb_dec_svarint
 2852 0008 00000000 		.word	pb_dec_fixed32
 2853 000c 00000000 		.word	pb_dec_fixed64
 2854 0010 00000000 		.word	pb_dec_bytes
 2855 0014 00000000 		.word	pb_dec_string
 2856 0018 00000000 		.word	pb_dec_submessage
 2857 001c 00000000 		.word	0
 2858              		.text
 2859              	.Letext0:
 2860              		.file 2 "/media/data/src/x-tools/gcc-arm-none-eabi-4_7-2013q1/bin/../lib/gcc/arm-none-eabi/4.7.3/.
 2861              		.file 3 "/media/data/src/x-tools/gcc-arm-none-eabi-4_7-2013q1/bin/../lib/gcc/arm-none-eabi/4.7.3/i
 2862              		.file 4 "inc/pb.h"
 2863              		.file 5 "inc/pb_decode.h"
ARM GAS  /tmp/ccgBgJff.s 			page 52

