ARM GAS  /tmp/cciCLzmg.s 			page 1


   1              		.cpu cortex-m0
   2              		.fpu softvfp
   3              		.eabi_attribute 20, 1
   4              		.eabi_attribute 21, 1
   5              		.eabi_attribute 23, 3
   6              		.eabi_attribute 24, 1
   7              		.eabi_attribute 25, 1
   8              		.eabi_attribute 26, 1
   9              		.eabi_attribute 30, 4
  10              		.eabi_attribute 34, 0
  11              		.eabi_attribute 18, 4
  12              		.code	16
  13              		.file	"pb_encode.c"
  14              		.text
  15              	.Ltext0:
  16              		.cfi_sections	.debug_frame
  17              		.section	.text.buf_write,"ax",%progbits
  18              		.align	1
  19              		.code	16
  20              		.thumb_func
  21              		.type	buf_write, %function
  22              	buf_write:
  23              	.LFB0:
  24              		.file 1 "src/pb_encode.c"
  25              		.loc 1 38 0
  26              		.cfi_startproc
  27              	.LVL0:
  28 0000 10B5     		push	{r4, lr}
  29              	.LCFI0:
  30              		.cfi_def_cfa_offset 8
  31              		.cfi_offset 4, -8
  32              		.cfi_offset 14, -4
  33              		.loc 1 39 0
  34 0002 4468     		ldr	r4, [r0, #4]
  35              	.LVL1:
  36              		.loc 1 40 0
  37 0004 A318     		add	r3, r4, r2
  38 0006 4360     		str	r3, [r0, #4]
  39              		.loc 1 42 0
  40 0008 0023     		mov	r3, #0
  41              	.LVL2:
  42              	.L2:
  43              		.loc 1 42 0 is_stmt 0 discriminator 1
  44 000a 9342     		cmp	r3, r2
  45 000c 03D0     		beq	.L5
  46              	.L3:
  47              		.loc 1 43 0 is_stmt 1
  48 000e C85C     		ldrb	r0, [r1, r3]
  49 0010 E054     		strb	r0, [r4, r3]
  50 0012 0133     		add	r3, r3, #1
  51 0014 F9E7     		b	.L2
  52              	.L5:
  53              		.loc 1 46 0
  54 0016 0120     		mov	r0, #1
  55              		@ sp needed for prologue
  56 0018 10BD     		pop	{r4, pc}
  57              		.cfi_endproc
ARM GAS  /tmp/cciCLzmg.s 			page 2


  58              	.LFE0:
  59              		.size	buf_write, .-buf_write
  60              		.section	.text.pb_ostream_from_buffer,"ax",%progbits
  61              		.align	1
  62              		.global	pb_ostream_from_buffer
  63              		.code	16
  64              		.thumb_func
  65              		.type	pb_ostream_from_buffer, %function
  66              	pb_ostream_from_buffer:
  67              	.LFB1:
  68              		.loc 1 49 0
  69              		.cfi_startproc
  70              	.LVL3:
  71              		.loc 1 62 0
  72 0000 034B     		ldr	r3, .L7
  73 0002 4160     		str	r1, [r0, #4]
  74 0004 0021     		mov	r1, #0
  75              	.LVL4:
  76 0006 0360     		str	r3, [r0]
  77 0008 8260     		str	r2, [r0, #8]
  78 000a C160     		str	r1, [r0, #12]
  79 000c 0161     		str	r1, [r0, #16]
  80              		.loc 1 63 0
  81              		@ sp needed for prologue
  82 000e 7047     		bx	lr
  83              	.L8:
  84              		.align	2
  85              	.L7:
  86 0010 00000000 		.word	buf_write
  87              		.cfi_endproc
  88              	.LFE1:
  89              		.size	pb_ostream_from_buffer, .-pb_ostream_from_buffer
  90              		.section	.text.pb_write,"ax",%progbits
  91              		.align	1
  92              		.global	pb_write
  93              		.code	16
  94              		.thumb_func
  95              		.type	pb_write, %function
  96              	pb_write:
  97              	.LFB2:
  98              		.loc 1 66 0
  99              		.cfi_startproc
 100              	.LVL5:
 101 0000 38B5     		push	{r3, r4, r5, lr}
 102              	.LCFI1:
 103              		.cfi_def_cfa_offset 16
 104              		.cfi_offset 3, -16
 105              		.cfi_offset 4, -12
 106              		.cfi_offset 5, -8
 107              		.cfi_offset 14, -4
 108              		.loc 1 67 0
 109 0002 0368     		ldr	r3, [r0]
 110              		.loc 1 66 0
 111 0004 041C     		mov	r4, r0
 112 0006 151C     		mov	r5, r2
 113              		.loc 1 67 0
 114 0008 002B     		cmp	r3, #0
ARM GAS  /tmp/cciCLzmg.s 			page 3


 115 000a 16D0     		beq	.L10
 116              		.loc 1 69 0
 117 000c C068     		ldr	r0, [r0, #12]
 118              	.LVL6:
 119 000e 1218     		add	r2, r2, r0
 120              	.LVL7:
 121 0010 A068     		ldr	r0, [r4, #8]
 122 0012 8242     		cmp	r2, r0
 123 0014 06D9     		bls	.L11
 124              		.loc 1 70 0
 125 0016 2069     		ldr	r0, [r4, #16]
 126 0018 0028     		cmp	r0, #0
 127 001a 01D0     		beq	.L12
 128              	.LVL8:
 129              	.L14:
 130 001c 0020     		mov	r0, #0
 131 001e 10E0     		b	.L13
 132              	.LVL9:
 133              	.L12:
 134              		.loc 1 70 0 is_stmt 0 discriminator 1
 135 0020 084B     		ldr	r3, .L19
 136 0022 08E0     		b	.L18
 137              	.L11:
 138              		.loc 1 76 0 is_stmt 1
 139 0024 201C     		mov	r0, r4
 140 0026 2A1C     		mov	r2, r5
 141 0028 9847     		blx	r3
 142              	.LVL10:
 143 002a 0028     		cmp	r0, #0
 144 002c 05D1     		bne	.L10
 145              	.LVL11:
 146              	.LBB4:
 147              	.LBB5:
 148              		.loc 1 77 0
 149 002e 2069     		ldr	r0, [r4, #16]
 150 0030 0028     		cmp	r0, #0
 151 0032 F3D1     		bne	.L14
 152 0034 044B     		ldr	r3, .L19+4
 153              	.LVL12:
 154              	.L18:
 155 0036 2361     		str	r3, [r4, #16]
 156 0038 03E0     		b	.L13
 157              	.L10:
 158              	.LBE5:
 159              	.LBE4:
 160              		.loc 1 81 0
 161 003a E168     		ldr	r1, [r4, #12]
 162              		.loc 1 82 0
 163 003c 0120     		mov	r0, #1
 164              		.loc 1 81 0
 165 003e 4D19     		add	r5, r1, r5
 166              	.LVL13:
 167 0040 E560     		str	r5, [r4, #12]
 168              	.L13:
 169              		.loc 1 83 0
 170              		@ sp needed for prologue
 171              	.LVL14:
ARM GAS  /tmp/cciCLzmg.s 			page 4


 172 0042 38BD     		pop	{r3, r4, r5, pc}
 173              	.L20:
 174              		.align	2
 175              	.L19:
 176 0044 00000000 		.word	.LC3
 177 0048 0C000000 		.word	.LC5
 178              		.cfi_endproc
 179              	.LFE2:
 180              		.size	pb_write, .-pb_write
 181              		.section	.text.pb_encode_varint,"ax",%progbits
 182              		.align	1
 183              		.global	pb_encode_varint
 184              		.code	16
 185              		.thumb_func
 186              		.type	pb_encode_varint, %function
 187              	pb_encode_varint:
 188              	.LFB11:
 189              		.loc 1 321 0
 190              		.cfi_startproc
 191              	.LVL15:
 192 0000 30B5     		push	{r4, r5, lr}
 193              	.LCFI2:
 194              		.cfi_def_cfa_offset 12
 195              		.cfi_offset 4, -12
 196              		.cfi_offset 5, -8
 197              		.cfi_offset 14, -4
 198 0002 87B0     		sub	sp, sp, #28
 199              	.LCFI3:
 200              		.cfi_def_cfa_offset 40
 201              		.loc 1 321 0
 202 0004 0092     		str	r2, [sp]
 203 0006 0193     		str	r3, [sp, #4]
 204              		.loc 1 325 0
 205 0008 019B     		ldr	r3, [sp, #4]
 206 000a 111C     		mov	r1, r2
 207              		.loc 1 321 0
 208 000c 141C     		mov	r4, r2
 209              	.LVL16:
 210              		.loc 1 325 0
 211 000e 0022     		mov	r2, #0
 212              	.LVL17:
 213 0010 1943     		orr	r1, r3
 214 0012 9142     		cmp	r1, r2
 215 0014 02D1     		bne	.L25
 216              		.loc 1 326 0
 217 0016 6946     		mov	r1, sp
 218 0018 0122     		mov	r2, #1
 219 001a 14E0     		b	.L27
 220              	.LVL18:
 221              	.L25:
 222              		.loc 1 330 0
 223 001c 8025     		mov	r5, #128
 224 001e 2543     		orr	r5, r4
 225 0020 03A9     		add	r1, sp, #12
 226 0022 5554     		strb	r5, [r2, r1]
 227              		.loc 1 331 0
 228 0024 E409     		lsr	r4, r4, #7
ARM GAS  /tmp/cciCLzmg.s 			page 5


 229 0026 5D06     		lsl	r5, r3, #25
 230 0028 2C43     		orr	r4, r5
 231 002a DB09     		lsr	r3, r3, #7
 232              		.loc 1 328 0
 233 002c 251C     		mov	r5, r4
 234              		.loc 1 332 0
 235 002e 0132     		add	r2, r2, #1
 236              	.LVL19:
 237              		.loc 1 328 0
 238 0030 1D43     		orr	r5, r3
 239 0032 F3D1     		bne	.L25
 240 0034 0024     		mov	r4, #0
 241 0036 0025     		mov	r5, #0
 242 0038 0094     		str	r4, [sp]
 243 003a 0195     		str	r5, [sp, #4]
 244              		.loc 1 334 0
 245 003c 531E     		sub	r3, r2, #1
 246 003e CD5C     		ldrb	r5, [r1, r3]
 247 0040 7F24     		mov	r4, #127
 248 0042 2C40     		and	r4, r5
 249 0044 CC54     		strb	r4, [r1, r3]
 250              	.LVL20:
 251              	.L27:
 252              		.loc 1 336 0
 253 0046 FFF7FEFF 		bl	pb_write
 254              	.LVL21:
 255              		.loc 1 337 0
 256 004a 07B0     		add	sp, sp, #28
 257              		@ sp needed for prologue
 258 004c 30BD     		pop	{r4, r5, pc}
 259              		.cfi_endproc
 260              	.LFE11:
 261              		.size	pb_encode_varint, .-pb_encode_varint
 262              		.section	.text.pb_enc_varint,"ax",%progbits
 263              		.align	1
 264              		.global	pb_enc_varint
 265              		.code	16
 266              		.thumb_func
 267              		.type	pb_enc_varint, %function
 268              	pb_enc_varint:
 269              	.LFB19:
 270              		.loc 1 477 0
 271              		.cfi_startproc
 272              	.LVL22:
 273 0000 10B5     		push	{r4, lr}
 274              	.LCFI4:
 275              		.cfi_def_cfa_offset 8
 276              		.cfi_offset 4, -8
 277              		.cfi_offset 14, -4
 278              		.loc 1 477 0
 279 0002 041C     		mov	r4, r0
 280              		.loc 1 480 0
 281 0004 0879     		ldrb	r0, [r1, #4]
 282              	.LVL23:
 283              		.loc 1 477 0
 284 0006 131C     		mov	r3, r2
 285              		.loc 1 480 0
ARM GAS  /tmp/cciCLzmg.s 			page 6


 286 0008 0138     		sub	r0, r0, #1
 287 000a 0728     		cmp	r0, #7
 288 000c 0FD8     		bhi	.L29
 289 000e FFF7FEFF 		bl	__gnu_thumb1_case_uqi
 290              	.L34:
 291 0012 04       		.byte	(.L30-.L34)/2
 292 0013 06       		.byte	(.L31-.L34)/2
 293 0014 0E       		.byte	(.L29-.L34)/2
 294 0015 08       		.byte	(.L32-.L34)/2
 295 0016 0E       		.byte	(.L29-.L34)/2
 296 0017 0E       		.byte	(.L29-.L34)/2
 297 0018 0E       		.byte	(.L29-.L34)/2
 298 0019 0B       		.byte	(.L33-.L34)/2
 299              		.align	1
 300              	.L30:
 301              		.loc 1 482 0
 302 001a 1278     		ldrb	r2, [r2]
 303              	.LVL24:
 304 001c 02E0     		b	.L38
 305              	.LVL25:
 306              	.L31:
 307              		.loc 1 483 0
 308 001e 1288     		ldrh	r2, [r2]
 309              	.LVL26:
 310 0020 00E0     		b	.L38
 311              	.LVL27:
 312              	.L32:
 313              		.loc 1 484 0
 314 0022 1268     		ldr	r2, [r2]
 315              	.LVL28:
 316              	.L38:
 317 0024 0023     		mov	r3, #0
 318              	.LVL29:
 319 0026 09E0     		b	.L35
 320              	.LVL30:
 321              	.L33:
 322              		.loc 1 485 0
 323 0028 1268     		ldr	r2, [r2]
 324              	.LVL31:
 325 002a 5B68     		ldr	r3, [r3, #4]
 326              	.LVL32:
 327 002c 06E0     		b	.L35
 328              	.LVL33:
 329              	.L29:
 330              	.LBB8:
 331              	.LBB9:
 332              		.loc 1 486 0
 333 002e 2169     		ldr	r1, [r4, #16]
 334              	.LVL34:
 335 0030 0020     		mov	r0, #0
 336 0032 8142     		cmp	r1, r0
 337 0034 05D1     		bne	.L36
 338 0036 034A     		ldr	r2, .L39
 339              	.LVL35:
 340 0038 2261     		str	r2, [r4, #16]
 341 003a 02E0     		b	.L36
 342              	.LVL36:
ARM GAS  /tmp/cciCLzmg.s 			page 7


 343              	.L35:
 344              	.LBE9:
 345              	.LBE8:
 346              		.loc 1 489 0
 347 003c 201C     		mov	r0, r4
 348 003e FFF7FEFF 		bl	pb_encode_varint
 349              	.LVL37:
 350              	.L36:
 351              		.loc 1 490 0
 352              		@ sp needed for prologue
 353              	.LVL38:
 354 0042 10BD     		pop	{r4, pc}
 355              	.L40:
 356              		.align	2
 357              	.L39:
 358 0044 15000000 		.word	.LC7
 359              		.cfi_endproc
 360              	.LFE19:
 361              		.size	pb_enc_varint, .-pb_enc_varint
 362              		.section	.text.pb_encode_svarint,"ax",%progbits
 363              		.align	1
 364              		.global	pb_encode_svarint
 365              		.code	16
 366              		.thumb_func
 367              		.type	pb_encode_svarint, %function
 368              	pb_encode_svarint:
 369              	.LFB12:
 370              		.loc 1 340 0
 371              		.cfi_startproc
 372              	.LVL39:
 373 0000 10B5     		push	{r4, lr}
 374              	.LCFI5:
 375              		.cfi_def_cfa_offset 8
 376              		.cfi_offset 4, -8
 377              		.cfi_offset 14, -4
 378 0002 5900     		lsl	r1, r3, #1
 379 0004 D40F     		lsr	r4, r2, #31
 380 0006 5200     		lsl	r2, r2, #1
 381              	.LVL40:
 382              		.loc 1 342 0
 383 0008 002B     		cmp	r3, #0
 384 000a 03DA     		bge	.L42
 385              		.loc 1 343 0
 386 000c 2143     		orr	r1, r4
 387 000e D243     		mvn	r2, r2
 388 0010 CB43     		mvn	r3, r1
 389              	.LVL41:
 390 0012 01E0     		b	.L44
 391              	.LVL42:
 392              	.L42:
 393              		.loc 1 345 0
 394 0014 231C     		mov	r3, r4
 395 0016 0B43     		orr	r3, r1
 396              	.LVL43:
 397              	.L44:
 398              		.loc 1 347 0
 399 0018 FFF7FEFF 		bl	pb_encode_varint
ARM GAS  /tmp/cciCLzmg.s 			page 8


 400              	.LVL44:
 401              		.loc 1 348 0
 402              		@ sp needed for prologue
 403 001c 10BD     		pop	{r4, pc}
 404              		.cfi_endproc
 405              	.LFE12:
 406              		.size	pb_encode_svarint, .-pb_encode_svarint
 407              		.section	.text.pb_enc_svarint,"ax",%progbits
 408              		.align	1
 409              		.global	pb_enc_svarint
 410              		.code	16
 411              		.thumb_func
 412              		.type	pb_enc_svarint, %function
 413              	pb_enc_svarint:
 414              	.LFB20:
 415              		.loc 1 493 0
 416              		.cfi_startproc
 417              	.LVL45:
 418 0000 08B5     		push	{r3, lr}
 419              	.LCFI6:
 420              		.cfi_def_cfa_offset 8
 421              		.cfi_offset 3, -8
 422              		.cfi_offset 14, -4
 423              		.loc 1 493 0
 424 0002 131C     		mov	r3, r2
 425              		.loc 1 496 0
 426 0004 0A79     		ldrb	r2, [r1, #4]
 427              	.LVL46:
 428 0006 042A     		cmp	r2, #4
 429 0008 04D0     		beq	.L47
 430 000a 082A     		cmp	r2, #8
 431 000c 05D1     		bne	.L52
 432              		.loc 1 499 0
 433 000e 1A68     		ldr	r2, [r3]
 434 0010 5B68     		ldr	r3, [r3, #4]
 435              	.LVL47:
 436 0012 09E0     		b	.L49
 437              	.LVL48:
 438              	.L47:
 439              		.loc 1 498 0
 440 0014 1A68     		ldr	r2, [r3]
 441 0016 D317     		asr	r3, r2, #31
 442              	.LVL49:
 443 0018 06E0     		b	.L49
 444              	.LVL50:
 445              	.L52:
 446              	.LBB12:
 447              	.LBB13:
 448              		.loc 1 500 0
 449 001a 0169     		ldr	r1, [r0, #16]
 450              	.LVL51:
 451 001c 0023     		mov	r3, #0
 452              	.LVL52:
 453 001e 9942     		cmp	r1, r3
 454 0020 05D1     		bne	.L50
 455 0022 044A     		ldr	r2, .L53
 456 0024 0261     		str	r2, [r0, #16]
ARM GAS  /tmp/cciCLzmg.s 			page 9


 457 0026 02E0     		b	.L50
 458              	.LVL53:
 459              	.L49:
 460              	.LBE13:
 461              	.LBE12:
 462              		.loc 1 503 0
 463 0028 FFF7FEFF 		bl	pb_encode_svarint
 464              	.LVL54:
 465 002c 031C     		mov	r3, r0
 466              	.L50:
 467              		.loc 1 504 0
 468 002e 181C     		mov	r0, r3
 469              		@ sp needed for prologue
 470 0030 08BD     		pop	{r3, pc}
 471              	.L54:
 472 0032 C046     		.align	2
 473              	.L53:
 474 0034 15000000 		.word	.LC7
 475              		.cfi_endproc
 476              	.LFE20:
 477              		.size	pb_enc_svarint, .-pb_enc_svarint
 478              		.section	.text.pb_encode_fixed32,"ax",%progbits
 479              		.align	1
 480              		.global	pb_encode_fixed32
 481              		.code	16
 482              		.thumb_func
 483              		.type	pb_encode_fixed32, %function
 484              	pb_encode_fixed32:
 485              	.LFB13:
 486              		.loc 1 351 0
 487              		.cfi_startproc
 488              	.LVL55:
 489 0000 08B5     		push	{r3, lr}
 490              	.LCFI7:
 491              		.cfi_def_cfa_offset 8
 492              		.cfi_offset 3, -8
 493              		.cfi_offset 14, -4
 494              		.loc 1 361 0
 495 0002 0422     		mov	r2, #4
 496 0004 FFF7FEFF 		bl	pb_write
 497              	.LVL56:
 498              		.loc 1 363 0
 499              		@ sp needed for prologue
 500 0008 08BD     		pop	{r3, pc}
 501              		.cfi_endproc
 502              	.LFE13:
 503              		.size	pb_encode_fixed32, .-pb_encode_fixed32
 504              		.section	.text.pb_enc_fixed32,"ax",%progbits
 505              		.align	1
 506              		.global	pb_enc_fixed32
 507              		.code	16
 508              		.thumb_func
 509              		.type	pb_enc_fixed32, %function
 510              	pb_enc_fixed32:
 511              	.LFB22:
 512              		.loc 1 513 0
 513              		.cfi_startproc
ARM GAS  /tmp/cciCLzmg.s 			page 10


 514              	.LVL57:
 515 0000 08B5     		push	{r3, lr}
 516              	.LCFI8:
 517              		.cfi_def_cfa_offset 8
 518              		.cfi_offset 3, -8
 519              		.cfi_offset 14, -4
 520              		.loc 1 515 0
 521 0002 111C     		mov	r1, r2
 522              	.LVL58:
 523 0004 FFF7FEFF 		bl	pb_encode_fixed32
 524              	.LVL59:
 525              		.loc 1 516 0
 526              		@ sp needed for prologue
 527 0008 08BD     		pop	{r3, pc}
 528              		.cfi_endproc
 529              	.LFE22:
 530              		.size	pb_enc_fixed32, .-pb_enc_fixed32
 531              		.section	.text.pb_encode_fixed64,"ax",%progbits
 532              		.align	1
 533              		.global	pb_encode_fixed64
 534              		.code	16
 535              		.thumb_func
 536              		.type	pb_encode_fixed64, %function
 537              	pb_encode_fixed64:
 538              	.LFB14:
 539              		.loc 1 366 0
 540              		.cfi_startproc
 541              	.LVL60:
 542 0000 08B5     		push	{r3, lr}
 543              	.LCFI9:
 544              		.cfi_def_cfa_offset 8
 545              		.cfi_offset 3, -8
 546              		.cfi_offset 14, -4
 547              		.loc 1 380 0
 548 0002 0822     		mov	r2, #8
 549 0004 FFF7FEFF 		bl	pb_write
 550              	.LVL61:
 551              		.loc 1 382 0
 552              		@ sp needed for prologue
 553 0008 08BD     		pop	{r3, pc}
 554              		.cfi_endproc
 555              	.LFE14:
 556              		.size	pb_encode_fixed64, .-pb_encode_fixed64
 557              		.section	.text.pb_enc_fixed64,"ax",%progbits
 558              		.align	1
 559              		.global	pb_enc_fixed64
 560              		.code	16
 561              		.thumb_func
 562              		.type	pb_enc_fixed64, %function
 563              	pb_enc_fixed64:
 564              	.LFB21:
 565              		.loc 1 507 0
 566              		.cfi_startproc
 567              	.LVL62:
 568 0000 08B5     		push	{r3, lr}
 569              	.LCFI10:
 570              		.cfi_def_cfa_offset 8
ARM GAS  /tmp/cciCLzmg.s 			page 11


 571              		.cfi_offset 3, -8
 572              		.cfi_offset 14, -4
 573              		.loc 1 509 0
 574 0002 111C     		mov	r1, r2
 575              	.LVL63:
 576 0004 FFF7FEFF 		bl	pb_encode_fixed64
 577              	.LVL64:
 578              		.loc 1 510 0
 579              		@ sp needed for prologue
 580 0008 08BD     		pop	{r3, pc}
 581              		.cfi_endproc
 582              	.LFE21:
 583              		.size	pb_enc_fixed64, .-pb_enc_fixed64
 584              		.section	.text.pb_encode_tag,"ax",%progbits
 585              		.align	1
 586              		.global	pb_encode_tag
 587              		.code	16
 588              		.thumb_func
 589              		.type	pb_encode_tag, %function
 590              	pb_encode_tag:
 591              	.LFB15:
 592              		.loc 1 385 0
 593              		.cfi_startproc
 594              	.LVL65:
 595 0000 08B5     		push	{r3, lr}
 596              	.LCFI11:
 597              		.cfi_def_cfa_offset 8
 598              		.cfi_offset 3, -8
 599              		.cfi_offset 14, -4
 600              		.loc 1 386 0
 601 0002 D200     		lsl	r2, r2, #3
 602              	.LVL66:
 603 0004 0A43     		orr	r2, r1
 604              		.loc 1 387 0
 605 0006 0023     		mov	r3, #0
 606 0008 FFF7FEFF 		bl	pb_encode_varint
 607              	.LVL67:
 608              		.loc 1 388 0
 609              		@ sp needed for prologue
 610 000c 08BD     		pop	{r3, pc}
 611              		.cfi_endproc
 612              	.LFE15:
 613              		.size	pb_encode_tag, .-pb_encode_tag
 614              		.section	.text.pb_encode_tag_for_field,"ax",%progbits
 615              		.align	1
 616              		.global	pb_encode_tag_for_field
 617              		.code	16
 618              		.thumb_func
 619              		.type	pb_encode_tag_for_field, %function
 620              	pb_encode_tag_for_field:
 621              	.LFB16:
 622              		.loc 1 391 0
 623              		.cfi_startproc
 624              	.LVL68:
 625 0000 10B5     		push	{r4, lr}
 626              	.LCFI12:
 627              		.cfi_def_cfa_offset 8
ARM GAS  /tmp/cciCLzmg.s 			page 12


 628              		.cfi_offset 4, -8
 629              		.cfi_offset 14, -4
 630              		.loc 1 391 0
 631 0002 041C     		mov	r4, r0
 632              		.loc 1 393 0
 633 0004 4878     		ldrb	r0, [r1, #1]
 634              	.LVL69:
 635 0006 0F23     		mov	r3, #15
 636 0008 1840     		and	r0, r3
 637 000a 0628     		cmp	r0, #6
 638 000c 09D8     		bhi	.L61
 639 000e FFF7FEFF 		bl	__gnu_thumb1_case_uqi
 640              	.L66:
 641 0012 0F       		.byte	(.L62-.L66)/2
 642 0013 0F       		.byte	(.L62-.L66)/2
 643 0014 11       		.byte	(.L68-.L66)/2
 644 0015 04       		.byte	(.L64-.L66)/2
 645 0016 06       		.byte	(.L65-.L66)/2
 646 0017 06       		.byte	(.L65-.L66)/2
 647 0018 06       		.byte	(.L65-.L66)/2
 648 0019 00       		.align	1
 649              	.L64:
 650              	.LVL70:
 651              		.loc 1 405 0
 652 001a 0123     		mov	r3, #1
 653              		.loc 1 406 0
 654 001c 0BE0     		b	.L63
 655              	.LVL71:
 656              	.L65:
 657              		.loc 1 411 0
 658 001e 0223     		mov	r3, #2
 659              		.loc 1 412 0
 660 0020 09E0     		b	.L63
 661              	.LVL72:
 662              	.L61:
 663              	.LBB16:
 664              	.LBB17:
 665              		.loc 1 415 0
 666 0022 2169     		ldr	r1, [r4, #16]
 667              	.LVL73:
 668 0024 0020     		mov	r0, #0
 669 0026 8142     		cmp	r1, r0
 670 0028 0AD1     		bne	.L67
 671 002a 064A     		ldr	r2, .L70
 672 002c 2261     		str	r2, [r4, #16]
 673 002e 07E0     		b	.L67
 674              	.LVL74:
 675              	.L62:
 676              	.LBE17:
 677              	.LBE16:
 678              		.loc 1 397 0
 679 0030 0023     		mov	r3, #0
 680 0032 00E0     		b	.L63
 681              	.L68:
 682              		.loc 1 401 0
 683 0034 0523     		mov	r3, #5
 684              	.L63:
ARM GAS  /tmp/cciCLzmg.s 			page 13


 685              	.LVL75:
 686              		.loc 1 418 0
 687 0036 0A78     		ldrb	r2, [r1]
 688 0038 201C     		mov	r0, r4
 689 003a 191C     		mov	r1, r3
 690              	.LVL76:
 691 003c FFF7FEFF 		bl	pb_encode_tag
 692              	.LVL77:
 693              	.L67:
 694              		.loc 1 419 0
 695              		@ sp needed for prologue
 696              	.LVL78:
 697 0040 10BD     		pop	{r4, pc}
 698              	.L71:
 699 0042 C046     		.align	2
 700              	.L70:
 701 0044 27000000 		.word	.LC10
 702              		.cfi_endproc
 703              	.LFE16:
 704              		.size	pb_encode_tag_for_field, .-pb_encode_tag_for_field
 705              		.section	.text.encode_field,"ax",%progbits
 706              		.align	1
 707              		.code	16
 708              		.thumb_func
 709              		.type	encode_field, %function
 710              	encode_field:
 711              	.LFB6:
 712              		.loc 1 229 0
 713              		.cfi_startproc
 714              	.LVL79:
 715 0000 F0B5     		push	{r4, r5, r6, r7, lr}
 716              	.LCFI13:
 717              		.cfi_def_cfa_offset 20
 718              		.cfi_offset 4, -20
 719              		.cfi_offset 5, -16
 720              		.cfi_offset 6, -12
 721              		.cfi_offset 7, -8
 722              		.cfi_offset 14, -4
 723 0002 161C     		mov	r6, r2
 724              		.loc 1 230 0
 725 0004 4A78     		ldrb	r2, [r1, #1]
 726              	.LVL80:
 727              		.loc 1 229 0
 728 0006 0D1C     		mov	r5, r1
 729              		.loc 1 230 0
 730 0008 3F23     		mov	r3, #63
 731 000a 111C     		mov	r1, r2
 732              	.LVL81:
 733              		.loc 1 229 0
 734 000c 8BB0     		sub	sp, sp, #44
 735              	.LCFI14:
 736              		.cfi_def_cfa_offset 64
 737              		.loc 1 229 0
 738 000e 041C     		mov	r4, r0
 739              		.loc 1 230 0
 740 0010 9943     		bic	r1, r3
 741 0012 03D0     		beq	.L74
ARM GAS  /tmp/cciCLzmg.s 			page 14


 742 0014 4029     		cmp	r1, #64
 743 0016 00D0     		beq	.LCB736
 744 0018 A6E0     		b	.L134	@long jump
 745              	.LCB736:
 746 001a 95E0     		b	.L140
 747              	.L74:
 748              	.LVL82:
 749              	.LBB27:
 750              	.LBB28:
 751              		.loc 1 164 0
 752 001c 6B46     		mov	r3, sp
 753 001e 0121     		mov	r1, #1
 754 0020 1333     		add	r3, r3, #19
 755 0022 1970     		strb	r1, [r3]
 756              	.LVL83:
 757              		.loc 1 166 0
 758 0024 0F21     		mov	r1, #15
 759 0026 5548     		ldr	r0, .L143
 760              	.LVL84:
 761 0028 1140     		and	r1, r2
 762 002a 8F00     		lsl	r7, r1, #2
 763 002c 3F58     		ldr	r7, [r7, r0]
 764 002e 0397     		str	r7, [sp, #12]
 765              	.LVL85:
 766              		.loc 1 168 0
 767 0030 E878     		ldrb	r0, [r5, #3]
 768 0032 0028     		cmp	r0, #0
 769 0034 01D0     		beq	.L76
 770              		.loc 1 169 0
 771 0036 43B2     		sxtb	r3, r0
 772 0038 F318     		add	r3, r6, r3
 773              	.LVL86:
 774              	.L76:
 775              		.loc 1 173 0
 776 003a 3027     		mov	r7, #48
 777              	.LVL87:
 778 003c 3A40     		and	r2, r7
 779 003e 102A     		cmp	r2, #16
 780 0040 04D0     		beq	.L79
 781 0042 202A     		cmp	r2, #32
 782 0044 14D0     		beq	.L80
 783 0046 002A     		cmp	r2, #0
 784 0048 7AD1     		bne	.L135
 785 004a 04E0     		b	.L139
 786              	.L79:
 787              		.loc 1 183 0
 788 004c 1B78     		ldrb	r3, [r3]
 789              	.LVL88:
 790              		.loc 1 202 0
 791 004e 0120     		mov	r0, #1
 792              		.loc 1 183 0
 793 0050 002B     		cmp	r3, #0
 794 0052 00D1     		bne	.LCB792
 795 0054 90E0     		b	.L119	@long jump
 796              	.LCB792:
 797              	.L139:
 798              		.loc 1 185 0
ARM GAS  /tmp/cciCLzmg.s 			page 15


 799 0056 201C     		mov	r0, r4
 800 0058 291C     		mov	r1, r5
 801              	.LVL89:
 802 005a FFF7FEFF 		bl	pb_encode_tag_for_field
 803              	.LVL90:
 804 005e 0028     		cmp	r0, #0
 805 0060 00D1     		bne	.LCB802
 806 0062 88E0     		b	.L91	@long jump
 807              	.LCB802:
 808              		.loc 1 188 0
 809 0064 201C     		mov	r0, r4
 810 0066 291C     		mov	r1, r5
 811 0068 321C     		mov	r2, r6
 812 006a 039C     		ldr	r4, [sp, #12]
 813              	.LVL91:
 814 006c A047     		blx	r4
 815              	.LVL92:
 816 006e 83E0     		b	.L119
 817              	.LVL93:
 818              	.L80:
 819              		.loc 1 194 0
 820 0070 1868     		ldr	r0, [r3]
 821 0072 0190     		str	r0, [sp, #4]
 822              	.LVL94:
 823              	.LBB29:
 824              	.LBB30:
 825              		.loc 1 95 0
 826 0074 0028     		cmp	r0, #0
 827 0076 6BD0     		beq	.L98
 828              		.loc 1 99 0
 829 0078 0027     		mov	r7, #0
 830 007a 0329     		cmp	r1, #3
 831 007c 59DC     		bgt	.L121
 832              		.loc 1 101 0
 833 007e 2A78     		ldrb	r2, [r5]
 834 0080 201C     		mov	r0, r4
 835              	.LVL95:
 836 0082 0221     		mov	r1, #2
 837 0084 FFF7FEFF 		bl	pb_encode_tag
 838              	.LVL96:
 839 0088 B842     		cmp	r0, r7
 840 008a 74D0     		beq	.L91
 841              	.LBE30:
 842              		.loc 1 105 0
 843 008c 6878     		ldrb	r0, [r5, #1]
 844 008e 0F23     		mov	r3, #15
 845 0090 0340     		and	r3, r0
 846              	.LBB32:
 847 0092 022B     		cmp	r3, #2
 848 0094 02D1     		bne	.L87
 849              		.loc 1 107 0
 850 0096 0199     		ldr	r1, [sp, #4]
 851 0098 8F00     		lsl	r7, r1, #2
 852              	.LVL97:
 853 009a 1AE0     		b	.L88
 854              	.LVL98:
 855              	.L87:
ARM GAS  /tmp/cciCLzmg.s 			page 16


 856              		.loc 1 109 0
 857 009c 032B     		cmp	r3, #3
 858 009e 02D1     		bne	.L89
 859              		.loc 1 111 0
 860 00a0 019A     		ldr	r2, [sp, #4]
 861 00a2 D700     		lsl	r7, r2, #3
 862              	.LVL99:
 863 00a4 15E0     		b	.L88
 864              	.LVL100:
 865              	.L89:
 866              	.LBB31:
 867              		.loc 1 115 0
 868 00a6 05A8     		add	r0, sp, #20
 869 00a8 391C     		mov	r1, r7
 870 00aa 1422     		mov	r2, #20
 871 00ac FFF7FEFF 		bl	memset
 872              	.LVL101:
 873 00b0 0296     		str	r6, [sp, #8]
 874              	.LVL102:
 875              	.L92:
 876              		.loc 1 119 0
 877 00b2 05A8     		add	r0, sp, #20
 878 00b4 291C     		mov	r1, r5
 879 00b6 029A     		ldr	r2, [sp, #8]
 880 00b8 039B     		ldr	r3, [sp, #12]
 881 00ba 9847     		blx	r3
 882              	.LVL103:
 883 00bc 0028     		cmp	r0, #0
 884 00be 5AD0     		beq	.L91
 885              		.loc 1 121 0
 886 00c0 2A79     		ldrb	r2, [r5, #4]
 887 00c2 0299     		ldr	r1, [sp, #8]
 888              		.loc 1 117 0
 889 00c4 019B     		ldr	r3, [sp, #4]
 890              		.loc 1 121 0
 891 00c6 8818     		add	r0, r1, r2
 892              		.loc 1 117 0
 893 00c8 0137     		add	r7, r7, #1
 894              		.loc 1 121 0
 895 00ca 0290     		str	r0, [sp, #8]
 896              	.LVL104:
 897              		.loc 1 117 0
 898 00cc 9F42     		cmp	r7, r3
 899 00ce F0D1     		bne	.L92
 900              		.loc 1 123 0
 901 00d0 089F     		ldr	r7, [sp, #32]
 902              	.LVL105:
 903              	.L88:
 904              	.LBE31:
 905              		.loc 1 126 0
 906 00d2 201C     		mov	r0, r4
 907 00d4 3A1C     		mov	r2, r7
 908 00d6 0023     		mov	r3, #0
 909 00d8 FFF7FEFF 		bl	pb_encode_varint
 910              	.LVL106:
 911 00dc 0028     		cmp	r0, #0
 912 00de 4AD0     		beq	.L91
ARM GAS  /tmp/cciCLzmg.s 			page 17


 913              		.loc 1 129 0
 914 00e0 2168     		ldr	r1, [r4]
 915 00e2 0020     		mov	r0, #0
 916 00e4 0290     		str	r0, [sp, #8]
 917 00e6 8142     		cmp	r1, r0
 918 00e8 0ED1     		bne	.L120
 919              		.loc 1 130 0
 920 00ea 201C     		mov	r0, r4
 921 00ec 3A1C     		mov	r2, r7
 922 00ee FFF7FEFF 		bl	pb_write
 923              	.LVL107:
 924              	.LBE32:
 925              	.LBE29:
 926              		.loc 1 194 0
 927 00f2 0028     		cmp	r0, #0
 928 00f4 3FD0     		beq	.L91
 929 00f6 2BE0     		b	.L98
 930              	.LVL108:
 931              	.L141:
 932              	.LBB34:
 933              	.LBB33:
 934              		.loc 1 134 0
 935 00f8 0299     		ldr	r1, [sp, #8]
 936              		.loc 1 138 0
 937 00fa 2F79     		ldrb	r7, [r5, #4]
 938              		.loc 1 134 0
 939 00fc 019A     		ldr	r2, [sp, #4]
 940 00fe 0131     		add	r1, r1, #1
 941              		.loc 1 138 0
 942 0100 F619     		add	r6, r6, r7
 943              	.LVL109:
 944              		.loc 1 134 0
 945 0102 0291     		str	r1, [sp, #8]
 946              	.LVL110:
 947 0104 9142     		cmp	r1, r2
 948 0106 23D0     		beq	.L98
 949              	.LVL111:
 950              	.L120:
 951              		.loc 1 136 0
 952 0108 201C     		mov	r0, r4
 953 010a 291C     		mov	r1, r5
 954 010c 321C     		mov	r2, r6
 955 010e 039B     		ldr	r3, [sp, #12]
 956 0110 9847     		blx	r3
 957              	.LVL112:
 958 0112 0028     		cmp	r0, #0
 959 0114 F0D1     		bne	.L141
 960 0116 2EE0     		b	.L91
 961              	.L142:
 962              		.loc 1 148 0
 963 0118 201C     		mov	r0, r4
 964 011a 291C     		mov	r1, r5
 965 011c 321C     		mov	r2, r6
 966 011e 039B     		ldr	r3, [sp, #12]
 967 0120 9847     		blx	r3
 968              	.LVL113:
 969 0122 0028     		cmp	r0, #0
ARM GAS  /tmp/cciCLzmg.s 			page 18


 970 0124 27D0     		beq	.L91
 971              		.loc 1 150 0
 972 0126 2979     		ldrb	r1, [r5, #4]
 973              		.loc 1 144 0
 974 0128 019A     		ldr	r2, [sp, #4]
 975 012a 0137     		add	r7, r7, #1
 976              		.loc 1 150 0
 977 012c 7618     		add	r6, r6, r1
 978              	.LVL114:
 979              		.loc 1 144 0
 980 012e 9742     		cmp	r7, r2
 981 0130 0ED0     		beq	.L98
 982              	.LVL115:
 983              	.L121:
 984              		.loc 1 146 0
 985 0132 201C     		mov	r0, r4
 986 0134 291C     		mov	r1, r5
 987 0136 FFF7FEFF 		bl	pb_encode_tag_for_field
 988              	.LVL116:
 989 013a 0028     		cmp	r0, #0
 990 013c ECD1     		bne	.L142
 991 013e 1AE0     		b	.L91
 992              	.LVL117:
 993              	.L135:
 994              	.LBE33:
 995              	.LBE34:
 996              		.loc 1 199 0
 997 0140 2069     		ldr	r0, [r4, #16]
 998 0142 0028     		cmp	r0, #0
 999 0144 17D1     		bne	.L91
 1000 0146 13E0     		b	.L138
 1001              	.LVL118:
 1002              	.L140:
 1003              	.LBE28:
 1004              	.LBE27:
 1005              	.LBB37:
 1006              	.LBB38:
 1007              		.loc 1 218 0
 1008 0148 3768     		ldr	r7, [r6]
 1009              		.loc 1 215 0
 1010 014a 321D     		add	r2, r6, #4
 1011              	.LVL119:
 1012              		.loc 1 218 0
 1013 014c 002F     		cmp	r7, #0
 1014 014e 01D1     		bne	.L96
 1015              	.LVL120:
 1016              	.L98:
 1017              	.LBE38:
 1018              	.LBE37:
 1019              	.LBB40:
 1020              	.LBB35:
 1021              		.loc 1 223 0
 1022 0150 0120     		mov	r0, #1
 1023 0152 11E0     		b	.L119
 1024              	.LVL121:
 1025              	.L96:
 1026              	.LBE35:
ARM GAS  /tmp/cciCLzmg.s 			page 19


 1027              	.LBE40:
 1028              	.LBB41:
 1029              	.LBB39:
 1030              		.loc 1 220 0
 1031 0154 201C     		mov	r0, r4
 1032              	.LVL122:
 1033 0156 291C     		mov	r1, r5
 1034 0158 B847     		blx	r7
 1035              	.LVL123:
 1036 015a 0028     		cmp	r0, #0
 1037 015c F8D1     		bne	.L98
 1038              		.loc 1 221 0
 1039 015e 2569     		ldr	r5, [r4, #16]
 1040              	.LVL124:
 1041 0160 002D     		cmp	r5, #0
 1042 0162 09D1     		bne	.L119
 1043 0164 064A     		ldr	r2, .L143+4
 1044 0166 04E0     		b	.L137
 1045              	.LVL125:
 1046              	.L134:
 1047              	.LBE39:
 1048              	.LBE41:
 1049              	.LBB42:
 1050              	.LBB43:
 1051              		.loc 1 239 0
 1052 0168 2669     		ldr	r6, [r4, #16]
 1053              	.LVL126:
 1054 016a 0020     		mov	r0, #0
 1055              	.LVL127:
 1056 016c 8642     		cmp	r6, r0
 1057 016e 03D1     		bne	.L119
 1058              	.LVL128:
 1059              	.L138:
 1060 0170 044A     		ldr	r2, .L143+8
 1061              	.LVL129:
 1062              	.L137:
 1063 0172 2261     		str	r2, [r4, #16]
 1064 0174 00E0     		b	.L119
 1065              	.LVL130:
 1066              	.L91:
 1067              	.LBE43:
 1068              	.LBE42:
 1069              	.LBB44:
 1070              	.LBB36:
 1071              		.loc 1 195 0
 1072 0176 0020     		mov	r0, #0
 1073              	.LVL131:
 1074              	.L119:
 1075              	.LBE36:
 1076              	.LBE44:
 1077              		.loc 1 241 0
 1078 0178 0BB0     		add	sp, sp, #44
 1079              		@ sp needed for prologue
 1080 017a F0BD     		pop	{r4, r5, r6, r7, pc}
 1081              	.L144:
 1082              		.align	2
 1083              	.L143:
ARM GAS  /tmp/cciCLzmg.s 			page 20


 1084 017c 00000000 		.word	.LANCHOR0
 1085 0180 3A000000 		.word	.LC14
 1086 0184 27000000 		.word	.LC10
 1087              		.cfi_endproc
 1088              	.LFE6:
 1089              		.size	encode_field, .-encode_field
 1090              		.section	.text.pb_encode,"ax",%progbits
 1091              		.align	1
 1092              		.global	pb_encode
 1093              		.code	16
 1094              		.thumb_func
 1095              		.type	pb_encode, %function
 1096              	pb_encode:
 1097              	.LFB9:
 1098              		.loc 1 278 0
 1099              		.cfi_startproc
 1100              	.LVL132:
 1101 0000 F7B5     		push	{r0, r1, r2, r4, r5, r6, r7, lr}
 1102              	.LCFI15:
 1103              		.cfi_def_cfa_offset 32
 1104              		.cfi_offset 0, -32
 1105              		.cfi_offset 1, -28
 1106              		.cfi_offset 2, -24
 1107              		.cfi_offset 4, -20
 1108              		.cfi_offset 5, -16
 1109              		.cfi_offset 6, -12
 1110              		.cfi_offset 7, -8
 1111              		.cfi_offset 14, -4
 1112              		.loc 1 278 0
 1113 0002 161C     		mov	r6, r2
 1114 0004 0190     		str	r0, [sp, #4]
 1115              		.loc 1 279 0
 1116 0006 0C1C     		mov	r4, r1
 1117              		.loc 1 281 0
 1118 0008 0027     		mov	r7, #0
 1119              	.LVL133:
 1120              	.L146:
 1121              		.loc 1 283 0 discriminator 1
 1122 000a 2378     		ldrb	r3, [r4]
 1123 000c 002B     		cmp	r3, #0
 1124 000e 2DD0     		beq	.L158
 1125              	.L157:
 1126              		.loc 1 285 0
 1127 0010 A078     		ldrb	r0, [r4, #2]
 1128              		.loc 1 289 0
 1129 0012 6578     		ldrb	r5, [r4, #1]
 1130              		.loc 1 285 0
 1131 0014 C119     		add	r1, r0, r7
 1132              		.loc 1 289 0
 1133 0016 0F22     		mov	r2, #15
 1134 0018 2B1C     		mov	r3, r5
 1135              		.loc 1 285 0
 1136 001a 7618     		add	r6, r6, r1
 1137              	.LVL134:
 1138              		.loc 1 286 0
 1139 001c 2779     		ldrb	r7, [r4, #4]
 1140              	.LVL135:
ARM GAS  /tmp/cciCLzmg.s 			page 21


 1141              		.loc 1 289 0
 1142 001e 9343     		bic	r3, r2
 1143 0020 202B     		cmp	r3, #32
 1144 0022 01D1     		bne	.L147
 1145              		.loc 1 292 0
 1146 0024 6079     		ldrb	r0, [r4, #5]
 1147 0026 4743     		mul	r7, r0
 1148              	.LVL136:
 1149              	.L147:
 1150              		.loc 1 295 0
 1151 0028 1540     		and	r5, r2
 1152 002a 072D     		cmp	r5, #7
 1153 002c 15D1     		bne	.L148
 1154              	.LVL137:
 1155              	.LBB50:
 1156              	.LBB51:
 1157              		.loc 1 257 0
 1158 002e 3568     		ldr	r5, [r6]
 1159              	.LVL138:
 1160              	.L149:
 1161              		.loc 1 260 0
 1162 0030 002D     		cmp	r5, #0
 1163 0032 19D0     		beq	.L155
 1164              	.L154:
 1165              	.LBB52:
 1166              		.loc 1 263 0
 1167 0034 2968     		ldr	r1, [r5]
 1168 0036 4A68     		ldr	r2, [r1, #4]
 1169 0038 002A     		cmp	r2, #0
 1170 003a 03D0     		beq	.L150
 1171              		.loc 1 264 0
 1172 003c 0198     		ldr	r0, [sp, #4]
 1173 003e 291C     		mov	r1, r5
 1174 0040 9047     		blx	r2
 1175              	.LVL139:
 1176 0042 04E0     		b	.L151
 1177              	.LVL140:
 1178              	.L150:
 1179              	.LBB53:
 1180              	.LBB54:
 1181              		.loc 1 249 0
 1182 0044 8968     		ldr	r1, [r1, #8]
 1183              	.LVL141:
 1184 0046 0198     		ldr	r0, [sp, #4]
 1185 0048 6A68     		ldr	r2, [r5, #4]
 1186 004a FFF7FEFF 		bl	encode_field
 1187              	.LVL142:
 1188              	.L151:
 1189              	.LBE54:
 1190              	.LBE53:
 1191              		.loc 1 268 0
 1192 004e 0028     		cmp	r0, #0
 1193 0050 01D1     		bne	.L152
 1194              	.LVL143:
 1195              	.L156:
 1196              	.LBE52:
 1197              	.LBE51:
ARM GAS  /tmp/cciCLzmg.s 			page 22


 1198              	.LBE50:
 1199              		.loc 1 299 0
 1200 0052 0020     		mov	r0, #0
 1201 0054 0BE0     		b	.L153
 1202              	.LVL144:
 1203              	.L152:
 1204              	.LBB57:
 1205              	.LBB56:
 1206              	.LBB55:
 1207              		.loc 1 271 0
 1208 0056 AD68     		ldr	r5, [r5, #8]
 1209              	.LVL145:
 1210 0058 EAE7     		b	.L149
 1211              	.LVL146:
 1212              	.L148:
 1213              	.LBE55:
 1214              	.LBE56:
 1215              	.LBE57:
 1216              		.loc 1 304 0
 1217 005a 0198     		ldr	r0, [sp, #4]
 1218 005c 211C     		mov	r1, r4
 1219 005e 321C     		mov	r2, r6
 1220 0060 FFF7FEFF 		bl	encode_field
 1221              	.LVL147:
 1222 0064 0028     		cmp	r0, #0
 1223 0066 F4D0     		beq	.L156
 1224              	.L155:
 1225              		.loc 1 308 0
 1226 0068 0A34     		add	r4, r4, #10
 1227              	.LVL148:
 1228 006a CEE7     		b	.L146
 1229              	.L158:
 1230              		.loc 1 311 0
 1231 006c 0120     		mov	r0, #1
 1232              	.L153:
 1233              		.loc 1 312 0
 1234              		@ sp needed for prologue
 1235              	.LVL149:
 1236              	.LVL150:
 1237              	.LVL151:
 1238 006e FEBD     		pop	{r1, r2, r3, r4, r5, r6, r7, pc}
 1239              		.cfi_endproc
 1240              	.LFE9:
 1241              		.size	pb_encode, .-pb_encode
 1242              		.section	.text.pb_encode_string,"ax",%progbits
 1243              		.align	1
 1244              		.global	pb_encode_string
 1245              		.code	16
 1246              		.thumb_func
 1247              		.type	pb_encode_string, %function
 1248              	pb_encode_string:
 1249              	.LFB17:
 1250              		.loc 1 422 0
 1251              		.cfi_startproc
 1252              	.LVL152:
 1253 0000 70B5     		push	{r4, r5, r6, lr}
 1254              	.LCFI16:
ARM GAS  /tmp/cciCLzmg.s 			page 23


 1255              		.cfi_def_cfa_offset 16
 1256              		.cfi_offset 4, -16
 1257              		.cfi_offset 5, -12
 1258              		.cfi_offset 6, -8
 1259              		.cfi_offset 14, -4
 1260              		.loc 1 423 0
 1261 0002 0023     		mov	r3, #0
 1262              		.loc 1 422 0
 1263 0004 051C     		mov	r5, r0
 1264 0006 0E1C     		mov	r6, r1
 1265 0008 141C     		mov	r4, r2
 1266              		.loc 1 423 0
 1267 000a FFF7FEFF 		bl	pb_encode_varint
 1268              	.LVL153:
 1269 000e 031C     		mov	r3, r0
 1270              		.loc 1 424 0
 1271 0010 0020     		mov	r0, #0
 1272              		.loc 1 423 0
 1273 0012 8342     		cmp	r3, r0
 1274 0014 04D0     		beq	.L160
 1275              		.loc 1 426 0
 1276 0016 281C     		mov	r0, r5
 1277 0018 311C     		mov	r1, r6
 1278 001a 221C     		mov	r2, r4
 1279 001c FFF7FEFF 		bl	pb_write
 1280              	.LVL154:
 1281              	.L160:
 1282              		.loc 1 427 0
 1283              		@ sp needed for prologue
 1284              	.LVL155:
 1285              	.LVL156:
 1286              	.LVL157:
 1287 0020 70BD     		pop	{r4, r5, r6, pc}
 1288              		.cfi_endproc
 1289              	.LFE17:
 1290              		.size	pb_encode_string, .-pb_encode_string
 1291              		.section	.text.pb_enc_string,"ax",%progbits
 1292              		.align	1
 1293              		.global	pb_enc_string
 1294              		.code	16
 1295              		.thumb_func
 1296              		.type	pb_enc_string, %function
 1297              	pb_enc_string:
 1298              	.LFB24:
 1299              		.loc 1 526 0
 1300              		.cfi_startproc
 1301              	.LVL158:
 1302 0000 10B5     		push	{r4, lr}
 1303              	.LCFI17:
 1304              		.cfi_def_cfa_offset 8
 1305              		.cfi_offset 4, -8
 1306              		.cfi_offset 14, -4
 1307              		.loc 1 530 0
 1308 0002 0C79     		ldrb	r4, [r1, #4]
 1309              		.loc 1 528 0
 1310 0004 0023     		mov	r3, #0
 1311              	.LVL159:
ARM GAS  /tmp/cciCLzmg.s 			page 24


 1312              	.L164:
 1313              		.loc 1 530 0 discriminator 1
 1314 0006 A342     		cmp	r3, r4
 1315 0008 04D3     		bcc	.L165
 1316              	.L167:
 1317              		.loc 1 536 0
 1318 000a 111C     		mov	r1, r2
 1319 000c 1A1C     		mov	r2, r3
 1320              	.LVL160:
 1321 000e FFF7FEFF 		bl	pb_encode_string
 1322              	.LVL161:
 1323              		.loc 1 537 0
 1324              		@ sp needed for prologue
 1325 0012 10BD     		pop	{r4, pc}
 1326              	.LVL162:
 1327              	.L165:
 1328              		.loc 1 530 0 discriminator 2
 1329 0014 D15C     		ldrb	r1, [r2, r3]
 1330 0016 0029     		cmp	r1, #0
 1331 0018 F7D0     		beq	.L167
 1332              	.L166:
 1333              		.loc 1 532 0
 1334 001a 0133     		add	r3, r3, #1
 1335              	.LVL163:
 1336 001c F3E7     		b	.L164
 1337              		.cfi_endproc
 1338              	.LFE24:
 1339              		.size	pb_enc_string, .-pb_enc_string
 1340              		.section	.text.pb_enc_bytes,"ax",%progbits
 1341              		.align	1
 1342              		.global	pb_enc_bytes
 1343              		.code	16
 1344              		.thumb_func
 1345              		.type	pb_enc_bytes, %function
 1346              	pb_enc_bytes:
 1347              	.LFB23:
 1348              		.loc 1 519 0
 1349              		.cfi_startproc
 1350              	.LVL164:
 1351 0000 08B5     		push	{r3, lr}
 1352              	.LCFI18:
 1353              		.cfi_def_cfa_offset 8
 1354              		.cfi_offset 3, -8
 1355              		.cfi_offset 14, -4
 1356              		.loc 1 522 0
 1357 0002 111D     		add	r1, r2, #4
 1358              	.LVL165:
 1359 0004 1268     		ldr	r2, [r2]
 1360              	.LVL166:
 1361 0006 FFF7FEFF 		bl	pb_encode_string
 1362              	.LVL167:
 1363              		.loc 1 523 0
 1364              		@ sp needed for prologue
 1365 000a 08BD     		pop	{r3, pc}
 1366              		.cfi_endproc
 1367              	.LFE23:
 1368              		.size	pb_enc_bytes, .-pb_enc_bytes
ARM GAS  /tmp/cciCLzmg.s 			page 25


 1369              		.section	.text.pb_encode_submessage,"ax",%progbits
 1370              		.align	1
 1371              		.global	pb_encode_submessage
 1372              		.code	16
 1373              		.thumb_func
 1374              		.type	pb_encode_submessage, %function
 1375              	pb_encode_submessage:
 1376              	.LFB18:
 1377              		.loc 1 430 0
 1378              		.cfi_startproc
 1379              	.LVL168:
 1380 0000 F0B5     		push	{r4, r5, r6, r7, lr}
 1381              	.LCFI19:
 1382              		.cfi_def_cfa_offset 20
 1383              		.cfi_offset 4, -20
 1384              		.cfi_offset 5, -16
 1385              		.cfi_offset 6, -12
 1386              		.cfi_offset 7, -8
 1387              		.cfi_offset 14, -4
 1388 0002 89B0     		sub	sp, sp, #36
 1389              	.LCFI20:
 1390              		.cfi_def_cfa_offset 56
 1391              		.loc 1 430 0
 1392 0004 0F1C     		mov	r7, r1
 1393 0006 0192     		str	r2, [sp, #4]
 1394              		.loc 1 432 0
 1395 0008 0021     		mov	r1, #0
 1396              	.LVL169:
 1397 000a 1422     		mov	r2, #20
 1398              	.LVL170:
 1399              		.loc 1 430 0
 1400 000c 041C     		mov	r4, r0
 1401              		.loc 1 432 0
 1402 000e 03A8     		add	r0, sp, #12
 1403              	.LVL171:
 1404 0010 FFF7FEFF 		bl	memset
 1405              	.LVL172:
 1406              		.loc 1 436 0
 1407 0014 03A8     		add	r0, sp, #12
 1408 0016 391C     		mov	r1, r7
 1409 0018 019A     		ldr	r2, [sp, #4]
 1410 001a FFF7FEFF 		bl	pb_encode
 1411              	.LVL173:
 1412 001e 0028     		cmp	r0, #0
 1413 0020 01D1     		bne	.L171
 1414              	.LVL174:
 1415              	.L173:
 1416              		.loc 1 437 0
 1417 0022 0020     		mov	r0, #0
 1418 0024 35E0     		b	.L172
 1419              	.LVL175:
 1420              	.L171:
 1421              		.loc 1 439 0
 1422 0026 069D     		ldr	r5, [sp, #24]
 1423              	.LVL176:
 1424              		.loc 1 441 0
 1425 0028 0026     		mov	r6, #0
ARM GAS  /tmp/cciCLzmg.s 			page 26


 1426 002a 201C     		mov	r0, r4
 1427 002c 2A1C     		mov	r2, r5
 1428 002e 331C     		mov	r3, r6
 1429 0030 FFF7FEFF 		bl	pb_encode_varint
 1430              	.LVL177:
 1431 0034 B042     		cmp	r0, r6
 1432 0036 F4D0     		beq	.L173
 1433              		.loc 1 444 0
 1434 0038 2168     		ldr	r1, [r4]
 1435 003a B142     		cmp	r1, r6
 1436 003c 04D1     		bne	.L174
 1437              		.loc 1 445 0
 1438 003e 201C     		mov	r0, r4
 1439 0040 2A1C     		mov	r2, r5
 1440 0042 FFF7FEFF 		bl	pb_write
 1441              	.LVL178:
 1442 0046 24E0     		b	.L172
 1443              	.L174:
 1444              		.loc 1 447 0
 1445 0048 E268     		ldr	r2, [r4, #12]
 1446 004a A068     		ldr	r0, [r4, #8]
 1447 004c AB18     		add	r3, r5, r2
 1448 004e 8342     		cmp	r3, r0
 1449 0050 05D9     		bls	.L175
 1450              		.loc 1 448 0
 1451 0052 2069     		ldr	r0, [r4, #16]
 1452 0054 0028     		cmp	r0, #0
 1453 0056 E4D1     		bne	.L173
 1454              		.loc 1 448 0 is_stmt 0 discriminator 1
 1455 0058 0F4F     		ldr	r7, .L179
 1456              	.LVL179:
 1457 005a 2761     		str	r7, [r4, #16]
 1458 005c 19E0     		b	.L172
 1459              	.LVL180:
 1460              	.L175:
 1461              		.loc 1 452 0 is_stmt 1
 1462 005e 0391     		str	r1, [sp, #12]
 1463              		.loc 1 453 0
 1464 0060 6168     		ldr	r1, [r4, #4]
 1465              		.loc 1 460 0
 1466 0062 019A     		ldr	r2, [sp, #4]
 1467              		.loc 1 453 0
 1468 0064 0491     		str	r1, [sp, #16]
 1469              		.loc 1 460 0
 1470 0066 03A8     		add	r0, sp, #12
 1471 0068 391C     		mov	r1, r7
 1472              		.loc 1 455 0
 1473 006a 0696     		str	r6, [sp, #24]
 1474              		.loc 1 457 0
 1475 006c 0796     		str	r6, [sp, #28]
 1476              		.loc 1 454 0
 1477 006e 0595     		str	r5, [sp, #20]
 1478              		.loc 1 460 0
 1479 0070 FFF7FEFF 		bl	pb_encode
 1480              	.LVL181:
 1481              		.loc 1 462 0
 1482 0074 E668     		ldr	r6, [r4, #12]
ARM GAS  /tmp/cciCLzmg.s 			page 27


 1483 0076 069F     		ldr	r7, [sp, #24]
 1484              	.LVL182:
 1485              		.loc 1 463 0
 1486 0078 049B     		ldr	r3, [sp, #16]
 1487              		.loc 1 465 0
 1488 007a 0799     		ldr	r1, [sp, #28]
 1489              		.loc 1 462 0
 1490 007c F219     		add	r2, r6, r7
 1491 007e E260     		str	r2, [r4, #12]
 1492              		.loc 1 463 0
 1493 0080 6360     		str	r3, [r4, #4]
 1494              		.loc 1 465 0
 1495 0082 2161     		str	r1, [r4, #16]
 1496              		.loc 1 468 0
 1497 0084 AF42     		cmp	r7, r5
 1498 0086 04D0     		beq	.L172
 1499              		.loc 1 469 0
 1500 0088 0029     		cmp	r1, #0
 1501 008a CAD1     		bne	.L173
 1502              		.loc 1 469 0 is_stmt 0 discriminator 1
 1503 008c 034D     		ldr	r5, .L179+4
 1504              	.LVL183:
 1505 008e 081C     		mov	r0, r1
 1506              	.LVL184:
 1507 0090 2561     		str	r5, [r4, #16]
 1508              	.L172:
 1509              		.loc 1 472 0 is_stmt 1
 1510 0092 09B0     		add	sp, sp, #36
 1511              		@ sp needed for prologue
 1512              	.LVL185:
 1513 0094 F0BD     		pop	{r4, r5, r6, r7, pc}
 1514              	.L180:
 1515 0096 C046     		.align	2
 1516              	.L179:
 1517 0098 00000000 		.word	.LC3
 1518 009c 49000000 		.word	.LC17
 1519              		.cfi_endproc
 1520              	.LFE18:
 1521              		.size	pb_encode_submessage, .-pb_encode_submessage
 1522              		.section	.text.pb_enc_submessage,"ax",%progbits
 1523              		.align	1
 1524              		.global	pb_enc_submessage
 1525              		.code	16
 1526              		.thumb_func
 1527              		.type	pb_enc_submessage, %function
 1528              	pb_enc_submessage:
 1529              	.LFB25:
 1530              		.loc 1 540 0
 1531              		.cfi_startproc
 1532              	.LVL186:
 1533 0000 10B5     		push	{r4, lr}
 1534              	.LCFI21:
 1535              		.cfi_def_cfa_offset 8
 1536              		.cfi_offset 4, -8
 1537              		.cfi_offset 14, -4
 1538              		.loc 1 540 0
 1539 0002 031C     		mov	r3, r0
ARM GAS  /tmp/cciCLzmg.s 			page 28


 1540              		.loc 1 541 0
 1541 0004 C879     		ldrb	r0, [r1, #7]
 1542              	.LVL187:
 1543 0006 8C79     		ldrb	r4, [r1, #6]
 1544 0008 0002     		lsl	r0, r0, #8
 1545 000a 2043     		orr	r0, r4
 1546 000c 0C7A     		ldrb	r4, [r1, #8]
 1547 000e 497A     		ldrb	r1, [r1, #9]
 1548              	.LVL188:
 1549 0010 2404     		lsl	r4, r4, #16
 1550 0012 2043     		orr	r0, r4
 1551 0014 0906     		lsl	r1, r1, #24
 1552 0016 0143     		orr	r1, r0
 1553 0018 06D1     		bne	.L182
 1554              	.LVL189:
 1555              	.LBB60:
 1556              	.LBB61:
 1557              		.loc 1 542 0
 1558 001a 1A69     		ldr	r2, [r3, #16]
 1559              	.LVL190:
 1560 001c 081C     		mov	r0, r1
 1561 001e 002A     		cmp	r2, #0
 1562 0020 05D1     		bne	.L183
 1563 0022 034C     		ldr	r4, .L185
 1564 0024 1C61     		str	r4, [r3, #16]
 1565 0026 02E0     		b	.L183
 1566              	.LVL191:
 1567              	.L182:
 1568              	.LBE61:
 1569              	.LBE60:
 1570              		.loc 1 544 0
 1571 0028 181C     		mov	r0, r3
 1572 002a FFF7FEFF 		bl	pb_encode_submessage
 1573              	.LVL192:
 1574              	.L183:
 1575              		.loc 1 545 0
 1576              		@ sp needed for prologue
 1577 002e 10BD     		pop	{r4, pc}
 1578              	.L186:
 1579              		.align	2
 1580              	.L185:
 1581 0030 5D000000 		.word	.LC19
 1582              		.cfi_endproc
 1583              	.LFE25:
 1584              		.size	pb_enc_submessage, .-pb_enc_submessage
 1585              		.section	.text.pb_encode_delimited,"ax",%progbits
 1586              		.align	1
 1587              		.global	pb_encode_delimited
 1588              		.code	16
 1589              		.thumb_func
 1590              		.type	pb_encode_delimited, %function
 1591              	pb_encode_delimited:
 1592              	.LFB10:
 1593              		.loc 1 315 0
 1594              		.cfi_startproc
 1595              	.LVL193:
 1596 0000 08B5     		push	{r3, lr}
ARM GAS  /tmp/cciCLzmg.s 			page 29


 1597              	.LCFI22:
 1598              		.cfi_def_cfa_offset 8
 1599              		.cfi_offset 3, -8
 1600              		.cfi_offset 14, -4
 1601              		.loc 1 316 0
 1602 0002 FFF7FEFF 		bl	pb_encode_submessage
 1603              	.LVL194:
 1604              		.loc 1 317 0
 1605              		@ sp needed for prologue
 1606 0006 08BD     		pop	{r3, pc}
 1607              		.cfi_endproc
 1608              	.LFE10:
 1609              		.size	pb_encode_delimited, .-pb_encode_delimited
 1610              		.section	.rodata.str1.1,"aMS",%progbits,1
 1611              	.LC3:
 1612 0000 73747265 		.ascii	"stream full\000"
 1612      616D2066 
 1612      756C6C00 
 1613              	.LC5:
 1614 000c 696F2065 		.ascii	"io error\000"
 1614      72726F72 
 1614      00
 1615              	.LC7:
 1616 0015 696E7661 		.ascii	"invalid data_size\000"
 1616      6C696420 
 1616      64617461 
 1616      5F73697A 
 1616      6500
 1617              	.LC10:
 1618 0027 696E7661 		.ascii	"invalid field type\000"
 1618      6C696420 
 1618      6669656C 
 1618      64207479 
 1618      706500
 1619              	.LC14:
 1620 003a 63616C6C 		.ascii	"callback error\000"
 1620      6261636B 
 1620      20657272 
 1620      6F7200
 1621              	.LC17:
 1622 0049 7375626D 		.ascii	"submsg size changed\000"
 1622      73672073 
 1622      697A6520 
 1622      6368616E 
 1622      67656400 
 1623              	.LC19:
 1624 005d 696E7661 		.ascii	"invalid field descriptor\000"
 1624      6C696420 
 1624      6669656C 
 1624      64206465 
 1624      73637269 
 1625              		.section	.rodata.PB_ENCODERS,"a",%progbits
 1626              		.align	2
 1627              		.set	.LANCHOR0,. + 0
 1628              		.type	PB_ENCODERS, %object
 1629              		.size	PB_ENCODERS, 32
 1630              	PB_ENCODERS:
ARM GAS  /tmp/cciCLzmg.s 			page 30


 1631 0000 00000000 		.word	pb_enc_varint
 1632 0004 00000000 		.word	pb_enc_svarint
 1633 0008 00000000 		.word	pb_enc_fixed32
 1634 000c 00000000 		.word	pb_enc_fixed64
 1635 0010 00000000 		.word	pb_enc_bytes
 1636 0014 00000000 		.word	pb_enc_string
 1637 0018 00000000 		.word	pb_enc_submessage
 1638 001c 00000000 		.word	0
 1639              		.text
 1640              	.Letext0:
 1641              		.file 2 "/media/data/src/x-tools/gcc-arm-none-eabi-4_7-2013q1/bin/../lib/gcc/arm-none-eabi/4.7.3/.
 1642              		.file 3 "/media/data/src/x-tools/gcc-arm-none-eabi-4_7-2013q1/bin/../lib/gcc/arm-none-eabi/4.7.3/i
 1643              		.file 4 "inc/pb.h"
 1644              		.file 5 "inc/pb_encode.h"