ARM GAS  /tmp/ccMlcuwN.s 			page 1


   1              		.cpu cortex-m0
   2              		.fpu softvfp
   3              		.eabi_attribute 20, 1
   4              		.eabi_attribute 21, 1
   5              		.eabi_attribute 23, 3
   6              		.eabi_attribute 24, 1
   7              		.eabi_attribute 25, 1
   8              		.eabi_attribute 26, 1
   9              		.eabi_attribute 30, 4
  10              		.eabi_attribute 34, 0
  11              		.eabi_attribute 18, 4
  12              		.code	16
  13              		.file	"sensors.c"
  14              		.text
  15              	.Ltext0:
  16              		.cfi_sections	.debug_frame
  17              		.section	.text.getCapture,"ax",%progbits
  18              		.align	1
  19              		.global	getCapture
  20              		.code	16
  21              		.thumb_func
  22              		.type	getCapture, %function
  23              	getCapture:
  24              	.LFB78:
  25              		.file 1 "src/sensors.c"
  26              		.loc 1 204 0
  27              		.cfi_startproc
  28              		.loc 1 206 0
  29 0000 074B     		ldr	r3, .L2
  30 0002 1022     		mov	r2, #16
  31 0004 9989     		ldrh	r1, [r3, #12]
  32              		.loc 1 209 0
  33 0006 8020     		mov	r0, #128
  34              		.loc 1 206 0
  35 0008 1143     		orr	r1, r2
  36 000a 9981     		strh	r1, [r3, #12]
  37              		.loc 1 209 0
  38 000c C305     		lsl	r3, r0, #23
  39 000e 9989     		ldrh	r1, [r3, #12]
  40 0010 0820     		mov	r0, #8
  41 0012 0143     		orr	r1, r0
  42 0014 9981     		strh	r1, [r3, #12]
  43              		.loc 1 210 0
  44 0016 9989     		ldrh	r1, [r3, #12]
  45              		.loc 1 211 0
  46              		@ sp needed for prologue
  47              		.loc 1 210 0
  48 0018 0A43     		orr	r2, r1
  49 001a 9A81     		strh	r2, [r3, #12]
  50              		.loc 1 211 0
  51 001c 7047     		bx	lr
  52              	.L3:
  53 001e C046     		.align	2
  54              	.L2:
  55 0020 002C0140 		.word	1073818624
  56              		.cfi_endproc
  57              	.LFE78:
ARM GAS  /tmp/ccMlcuwN.s 			page 2


  58              		.size	getCapture, .-getCapture
  59              		.global	__aeabi_uidiv
  60              		.section	.text.getCurGearIdx,"ax",%progbits
  61              		.align	1
  62              		.global	getCurGearIdx
  63              		.code	16
  64              		.thumb_func
  65              		.type	getCurGearIdx, %function
  66              	getCurGearIdx:
  67              	.LFB79:
  68              		.loc 1 214 0
  69              		.cfi_startproc
  70              	.LVL0:
  71 0000 10B5     		push	{r4, lr}
  72              	.LCFI0:
  73              		.cfi_def_cfa_offset 8
  74              		.cfi_offset 4, -8
  75              		.cfi_offset 14, -4
  76              		.loc 1 221 0
  77 0002 0A4B     		ldr	r3, .L9
  78 0004 6420     		mov	r0, #100
  79 0006 5A88     		ldrh	r2, [r3, #2]
  80              		.loc 1 222 0
  81 0008 1988     		ldrh	r1, [r3]
  82              		.loc 1 221 0
  83 000a 5043     		mul	r0, r2
  84              		.loc 1 222 0
  85 000c FFF7FEFF 		bl	__aeabi_uidiv
  86              	.LVL1:
  87 0010 0023     		mov	r3, #0
  88 0012 82B2     		uxth	r2, r0
  89              	.LVL2:
  90              	.L6:
  91              		.loc 1 213 0
  92 0014 0649     		ldr	r1, .L9+4
  93 0016 5C00     		lsl	r4, r3, #1
  94 0018 6418     		add	r4, r4, r1
  95              		.loc 1 225 0
  96 001a A189     		ldrh	r1, [r4, #12]
  97 001c D8B2     		uxtb	r0, r3
  98              	.LVL3:
  99 001e 9142     		cmp	r1, r2
 100 0020 03D9     		bls	.L5
 101 0022 0133     		add	r3, r3, #1
 102              		.loc 1 219 0
 103 0024 052B     		cmp	r3, #5
 104 0026 F5D1     		bne	.L6
 105              		.loc 1 230 0
 106 0028 0020     		mov	r0, #0
 107              	.L5:
 108              		.loc 1 231 0
 109              		@ sp needed for prologue
 110 002a 10BD     		pop	{r4, pc}
 111              	.L10:
 112              		.align	2
 113              	.L9:
 114 002c 00000000 		.word	.LANCHOR0
ARM GAS  /tmp/ccMlcuwN.s 			page 3


 115 0030 00000000 		.word	settings
 116              		.cfi_endproc
 117              	.LFE79:
 118              		.size	getCurGearIdx, .-getCurGearIdx
 119              		.section	.text.getCurCutTime,"ax",%progbits
 120              		.align	1
 121              		.global	getCurCutTime
 122              		.code	16
 123              		.thumb_func
 124              		.type	getCurCutTime, %function
 125              	getCurCutTime:
 126              	.LFB80:
 127              		.loc 1 234 0
 128              		.cfi_startproc
 129 0000 08B5     		push	{r3, lr}
 130              	.LCFI1:
 131              		.cfi_def_cfa_offset 8
 132              		.cfi_offset 3, -8
 133              		.cfi_offset 14, -4
 134              		.loc 1 235 0
 135 0002 FFF7FEFF 		bl	getCurGearIdx
 136              	.LVL4:
 137              		.loc 1 237 0
 138 0006 024B     		ldr	r3, .L12
 139              		.loc 1 238 0
 140              		@ sp needed for prologue
 141              		.loc 1 237 0
 142 0008 1818     		add	r0, r3, r0
 143              	.LVL5:
 144 000a 007E     		ldrb	r0, [r0, #24]
 145              		.loc 1 238 0
 146 000c 08BD     		pop	{r3, pc}
 147              	.L13:
 148 000e C046     		.align	2
 149              	.L12:
 150 0010 00000000 		.word	settings
 151              		.cfi_endproc
 152              	.LFE80:
 153              		.size	getCurCutTime, .-getCurCutTime
 154              		.section	.text.setPotGain,"ax",%progbits
 155              		.align	1
 156              		.global	setPotGain
 157              		.code	16
 158              		.thumb_func
 159              		.type	setPotGain, %function
 160              	setPotGain:
 161              	.LFB81:
 162              		.loc 1 241 0
 163              		.cfi_startproc
 164              	.LVL6:
 165 0000 07B5     		push	{r0, r1, r2, lr}
 166              	.LCFI2:
 167              		.cfi_def_cfa_offset 16
 168              		.cfi_offset 0, -16
 169              		.cfi_offset 1, -12
 170              		.cfi_offset 2, -8
 171              		.cfi_offset 14, -4
ARM GAS  /tmp/ccMlcuwN.s 			page 4


 172              		.loc 1 242 0
 173 0002 C309     		lsr	r3, r0, #7
 174 0004 4021     		mov	r1, #64
 175 0006 01AA     		add	r2, sp, #4
 176 0008 0B43     		orr	r3, r1
 177 000a 1370     		strb	r3, [r2]
 178 000c 7F23     		mov	r3, #127
 179 000e 1840     		and	r0, r3
 180              	.LVL7:
 181 0010 5070     		strb	r0, [r2, #1]
 182              		.loc 1 246 0
 183 0012 0223     		mov	r3, #2
 184 0014 0348     		ldr	r0, .L15
 185 0016 2E21     		mov	r1, #46
 186 0018 FFF7FEFF 		bl	i2cSendS
 187              	.LVL8:
 188              		.loc 1 262 0
 189              		@ sp needed for prologue
 190 001c 431E     		sub	r3, r0, #1
 191 001e 9841     		sbc	r0, r0, r3
 192 0020 0EBD     		pop	{r1, r2, r3, pc}
 193              	.L16:
 194 0022 C046     		.align	2
 195              	.L15:
 196 0024 00540040 		.word	1073763328
 197              		.cfi_endproc
 198              	.LFE81:
 199              		.size	setPotGain, .-setPotGain
 200              		.section	.text.getAnalogSensors,"ax",%progbits
 201              		.align	1
 202              		.global	getAnalogSensors
 203              		.code	16
 204              		.thumb_func
 205              		.type	getAnalogSensors, %function
 206              	getAnalogSensors:
 207              	.LFB82:
 208              		.loc 1 265 0
 209              		.cfi_startproc
 210              	.LVL9:
 211 0000 30B5     		push	{r4, r5, lr}
 212              	.LCFI3:
 213              		.cfi_def_cfa_offset 12
 214              		.cfi_offset 4, -12
 215              		.cfi_offset 5, -8
 216              		.cfi_offset 14, -4
 217              		.loc 1 265 0
 218 0002 0023     		mov	r3, #0
 219              		.loc 1 268 0
 220 0004 191C     		mov	r1, r3
 221              		.loc 1 267 0
 222 0006 181C     		mov	r0, r3
 223              		.loc 1 266 0
 224 0008 1A1C     		mov	r2, r3
 225              	.LVL10:
 226              	.L18:
 227              		.loc 1 276 0
 228 000a 124C     		ldr	r4, .L23
ARM GAS  /tmp/ccMlcuwN.s 			page 5


 229 000c 1C19     		add	r4, r3, r4
 230 000e 2588     		ldrh	r5, [r4]
 231 0010 0833     		add	r3, r3, #8
 232 0012 5219     		add	r2, r2, r5
 233              	.LVL11:
 234              		.loc 1 277 0
 235 0014 6588     		ldrh	r5, [r4, #2]
 236              		.loc 1 278 0
 237 0016 A488     		ldrh	r4, [r4, #4]
 238              		.loc 1 277 0
 239 0018 4019     		add	r0, r0, r5
 240              	.LVL12:
 241              		.loc 1 278 0
 242 001a 0919     		add	r1, r1, r4
 243              	.LVL13:
 244              		.loc 1 274 0
 245 001c 802B     		cmp	r3, #128
 246 001e F4D1     		bne	.L18
 247              		.loc 1 286 0
 248 0020 0D4B     		ldr	r3, .L23+4
 249              		.loc 1 283 0
 250 0022 0509     		lsr	r5, r0, #4
 251              		.loc 1 290 0
 252 0024 0D4C     		ldr	r4, .L23+8
 253              		.loc 1 284 0
 254 0026 0809     		lsr	r0, r1, #4
 255              	.LVL14:
 256              		.loc 1 282 0
 257 0028 1209     		lsr	r2, r2, #4
 258              	.LVL15:
 259              		.loc 1 286 0
 260 002a 9A80     		strh	r2, [r3, #4]
 261              		.loc 1 287 0
 262 002c DD80     		strh	r5, [r3, #6]
 263              		.loc 1 288 0
 264 002e 1881     		strh	r0, [r3, #8]
 265              		.loc 1 290 0
 266 0030 E179     		ldrb	r1, [r4, #7]
 267 0032 0B4B     		ldr	r3, .L23+12
 268 0034 6588     		ldrh	r5, [r4, #2]
 269 0036 0029     		cmp	r1, #0
 270 0038 02D1     		bne	.L19
 271              		.loc 1 293 0
 272 003a AA42     		cmp	r2, r5
 273 003c 4941     		adc	r1, r1, r1
 274 003e 02E0     		b	.L22
 275              	.L19:
 276              		.loc 1 298 0
 277 0040 0021     		mov	r1, #0
 278 0042 9542     		cmp	r5, r2
 279 0044 4941     		adc	r1, r1, r1
 280              	.L22:
 281 0046 1878     		ldrb	r0, [r3]
 282              	.LVL16:
 283 0048 0122     		mov	r2, #1
 284              	.LVL17:
 285 004a 1140     		and	r1, r2
ARM GAS  /tmp/ccMlcuwN.s 			page 6


 286 004c 9043     		bic	r0, r2
 287 004e 0143     		orr	r1, r0
 288 0050 1970     		strb	r1, [r3]
 289              		.loc 1 300 0
 290              		@ sp needed for prologue
 291 0052 30BD     		pop	{r4, r5, pc}
 292              	.L24:
 293              		.align	2
 294              	.L23:
 295 0054 00000000 		.word	adc_samples
 296 0058 00000000 		.word	.LANCHOR0
 297 005c 00000000 		.word	settings
 298 0060 00000000 		.word	status
 299              		.cfi_endproc
 300              	.LFE82:
 301              		.size	getAnalogSensors, .-getAnalogSensors
 302              		.section	.text.startSensors,"ax",%progbits
 303              		.align	1
 304              		.global	startSensors
 305              		.code	16
 306              		.thumb_func
 307              		.type	startSensors, %function
 308              	startSensors:
 309              	.LFB77:
 310              		.loc 1 109 0
 311              		.cfi_startproc
 312 0000 F0B5     		push	{r4, r5, r6, r7, lr}
 313              	.LCFI4:
 314              		.cfi_def_cfa_offset 20
 315              		.cfi_offset 4, -20
 316              		.cfi_offset 5, -16
 317              		.cfi_offset 6, -12
 318              		.cfi_offset 7, -8
 319              		.cfi_offset 14, -4
 320              		.loc 1 116 0
 321 0002 4848     		ldr	r0, .L28
 322              		.loc 1 109 0
 323 0004 8BB0     		sub	sp, sp, #44
 324              	.LCFI5:
 325              		.cfi_def_cfa_offset 64
 326              		.loc 1 115 0
 327 0006 07AD     		add	r5, sp, #28
 328 0008 474B     		ldr	r3, .L28+4
 329              		.loc 1 119 0
 330 000a 8021     		mov	r1, #128
 331              		.loc 1 117 0
 332 000c 0027     		mov	r7, #0
 333              		.loc 1 116 0
 334 000e 2880     		strh	r0, [r5]
 335              		.loc 1 119 0
 336 0010 C805     		lsl	r0, r1, #23
 337 0012 291C     		mov	r1, r5
 338              		.loc 1 121 0
 339 0014 04AC     		add	r4, sp, #16
 340              		.loc 1 117 0
 341 0016 2F81     		strh	r7, [r5, #8]
 342              		.loc 1 118 0
ARM GAS  /tmp/ccMlcuwN.s 			page 7


 343 0018 6F80     		strh	r7, [r5, #2]
 344              		.loc 1 115 0
 345 001a 0893     		str	r3, [sp, #32]
 346              		.loc 1 119 0
 347 001c FFF7FEFF 		bl	TIM_TimeBaseInit
 348              	.LVL18:
 349              		.loc 1 126 0
 350 0020 8020     		mov	r0, #128
 351              		.loc 1 125 0
 352 0022 1023     		mov	r3, #16
 353              		.loc 1 121 0
 354 0024 0822     		mov	r2, #8
 355              		.loc 1 126 0
 356 0026 211C     		mov	r1, r4
 357              		.loc 1 123 0
 358 0028 0126     		mov	r6, #1
 359              		.loc 1 126 0
 360 002a C005     		lsl	r0, r0, #23
 361              		.loc 1 125 0
 362 002c 2381     		strh	r3, [r4, #8]
 363              		.loc 1 121 0
 364 002e 2280     		strh	r2, [r4]
 365              		.loc 1 122 0
 366 0030 6780     		strh	r7, [r4, #2]
 367              		.loc 1 123 0
 368 0032 A680     		strh	r6, [r4, #4]
 369              		.loc 1 124 0
 370 0034 E780     		strh	r7, [r4, #6]
 371              		.loc 1 126 0
 372 0036 FFF7FEFF 		bl	TIM_ICInit
 373              	.LVL19:
 374              		.loc 1 129 0
 375 003a 8022     		mov	r2, #128
 376              		.loc 1 128 0
 377 003c 0C21     		mov	r1, #12
 378              		.loc 1 129 0
 379 003e D005     		lsl	r0, r2, #23
 380              		.loc 1 128 0
 381 0040 2180     		strh	r1, [r4]
 382              		.loc 1 129 0
 383 0042 211C     		mov	r1, r4
 384              		.loc 1 132 0
 385 0044 01AE     		add	r6, sp, #4
 386              		.loc 1 129 0
 387 0046 FFF7FEFF 		bl	TIM_ICInit
 388              	.LVL20:
 389              		.loc 1 133 0
 390 004a 0020     		mov	r0, #0
 391              		.loc 1 132 0
 392 004c 0F23     		mov	r3, #15
 393              		.loc 1 133 0
 394 004e 7070     		strb	r0, [r6, #1]
 395              		.loc 1 134 0
 396 0050 0121     		mov	r1, #1
 397              		.loc 1 135 0
 398 0052 301C     		mov	r0, r6
 399              		.loc 1 132 0
ARM GAS  /tmp/ccMlcuwN.s 			page 8


 400 0054 3370     		strb	r3, [r6]
 401              		.loc 1 134 0
 402 0056 B170     		strb	r1, [r6, #2]
 403              		.loc 1 135 0
 404 0058 FFF7FEFF 		bl	NVIC_Init
 405              	.LVL21:
 406              		.loc 1 138 0
 407 005c 8022     		mov	r2, #128
 408 005e D005     		lsl	r0, r2, #23
 409 0060 0121     		mov	r1, #1
 410 0062 FFF7FEFF 		bl	TIM_Cmd
 411              	.LVL22:
 412              		.loc 1 142 0
 413 0066 2F48     		ldr	r0, .L28
 414              		.loc 1 141 0
 415 0068 2F4B     		ldr	r3, .L28+4
 416              		.loc 1 142 0
 417 006a 2880     		strh	r0, [r5]
 418              		.loc 1 145 0
 419 006c 291C     		mov	r1, r5
 420 006e 2F48     		ldr	r0, .L28+8
 421              		.loc 1 141 0
 422 0070 6B60     		str	r3, [r5, #4]
 423              		.loc 1 143 0
 424 0072 2F81     		strh	r7, [r5, #8]
 425              		.loc 1 144 0
 426 0074 6F80     		strh	r7, [r5, #2]
 427              		.loc 1 145 0
 428 0076 FFF7FEFF 		bl	TIM_TimeBaseInit
 429              	.LVL23:
 430              		.loc 1 148 0
 431 007a 0221     		mov	r1, #2
 432              		.loc 1 149 0
 433 007c 0122     		mov	r2, #1
 434              		.loc 1 148 0
 435 007e 6180     		strh	r1, [r4, #2]
 436              		.loc 1 150 0
 437 0080 E780     		strh	r7, [r4, #6]
 438              		.loc 1 152 0
 439 0082 211C     		mov	r1, r4
 440 0084 2948     		ldr	r0, .L28+8
 441              		.loc 1 147 0
 442 0086 0C25     		mov	r5, #12
 443              		.loc 1 151 0
 444 0088 1027     		mov	r7, #16
 445              		.loc 1 149 0
 446 008a A280     		strh	r2, [r4, #4]
 447              		.loc 1 147 0
 448 008c 2580     		strh	r5, [r4]
 449              		.loc 1 151 0
 450 008e 2781     		strh	r7, [r4, #8]
 451              		.loc 1 152 0
 452 0090 FFF7FEFF 		bl	TIM_ICInit
 453              	.LVL24:
 454              		.loc 1 157 0
 455 0094 0120     		mov	r0, #1
 456              		.loc 1 156 0
ARM GAS  /tmp/ccMlcuwN.s 			page 9


 457 0096 0023     		mov	r3, #0
 458              		.loc 1 157 0
 459 0098 B070     		strb	r0, [r6, #2]
 460              		.loc 1 155 0
 461 009a 0E24     		mov	r4, #14
 462              		.loc 1 158 0
 463 009c 301C     		mov	r0, r6
 464              		.loc 1 156 0
 465 009e 7370     		strb	r3, [r6, #1]
 466              		.loc 1 155 0
 467 00a0 3470     		strb	r4, [r6]
 468              		.loc 1 158 0
 469 00a2 FFF7FEFF 		bl	NVIC_Init
 470              	.LVL25:
 471              		.loc 1 161 0
 472 00a6 0121     		mov	r1, #1
 473 00a8 2048     		ldr	r0, .L28+8
 474 00aa FFF7FEFF 		bl	TIM_Cmd
 475              	.LVL26:
 476              		.loc 1 163 0
 477 00ae 2048     		ldr	r0, .L28+12
 478 00b0 FFF7FEFF 		bl	i2cInit
 479              	.LVL27:
 480              		.loc 1 164 0
 481 00b4 1F4E     		ldr	r6, .L28+16
 482 00b6 B079     		ldrb	r0, [r6, #6]
 483 00b8 FFF7FEFF 		bl	setPotGain
 484              	.LVL28:
 485              		.loc 1 166 0
 486 00bc 1E48     		ldr	r0, .L28+20
 487              	.L27:
 488              		.loc 1 176 0
 489 00be FA25     		mov	r5, #250
 490              		.loc 1 166 0
 491 00c0 FFF7FEFF 		bl	serDbg
 492              	.LVL29:
 493              		.loc 1 174 0
 494 00c4 FFF7FEFF 		bl	getAnalogSensors
 495              	.LVL30:
 496              		.loc 1 175 0
 497 00c8 FFF7FEFF 		bl	getCapture
 498              	.LVL31:
 499              		.loc 1 176 0
 500 00cc 6800     		lsl	r0, r5, #1
 501 00ce FFF7FEFF 		bl	chThdSleep
 502              	.LVL32:
 503              		.loc 1 186 0
 504 00d2 1A48     		ldr	r0, .L28+24
 505 00d4 FFF7FEFF 		bl	serDbg
 506              	.LVL33:
 507              		.loc 1 187 0
 508 00d8 194F     		ldr	r7, .L28+28
 509 00da 02A9     		add	r1, sp, #8
 510 00dc 3888     		ldrh	r0, [r7]
 511 00de FFF7FEFF 		bl	itoa
 512              	.LVL34:
 513              		.loc 1 188 0
ARM GAS  /tmp/ccMlcuwN.s 			page 10


 514 00e2 02A8     		add	r0, sp, #8
 515 00e4 FFF7FEFF 		bl	serDbg
 516              	.LVL35:
 517              		.loc 1 189 0
 518 00e8 164C     		ldr	r4, .L28+32
 519 00ea 201C     		mov	r0, r4
 520 00ec FFF7FEFF 		bl	serDbg
 521              	.LVL36:
 522              		.loc 1 191 0
 523 00f0 1548     		ldr	r0, .L28+36
 524 00f2 FFF7FEFF 		bl	serDbg
 525              	.LVL37:
 526              		.loc 1 192 0
 527 00f6 02A9     		add	r1, sp, #8
 528 00f8 B888     		ldrh	r0, [r7, #4]
 529 00fa FFF7FEFF 		bl	itoa
 530              	.LVL38:
 531              		.loc 1 193 0
 532 00fe 02A8     		add	r0, sp, #8
 533 0100 FFF7FEFF 		bl	serDbg
 534              	.LVL39:
 535              		.loc 1 194 0
 536 0104 201C     		mov	r0, r4
 537 0106 FFF7FEFF 		bl	serDbg
 538              	.LVL40:
 539              		.loc 1 196 0
 540 010a 1048     		ldr	r0, .L28+40
 541 010c FFF7FEFF 		bl	serDbg
 542              	.LVL41:
 543              		.loc 1 197 0
 544 0110 F888     		ldrh	r0, [r7, #6]
 545 0112 02A9     		add	r1, sp, #8
 546 0114 FFF7FEFF 		bl	itoa
 547              	.LVL42:
 548              		.loc 1 198 0
 549 0118 02A8     		add	r0, sp, #8
 550 011a FFF7FEFF 		bl	serDbg
 551              	.LVL43:
 552              		.loc 1 199 0
 553 011e 201C     		mov	r0, r4
 554 0120 CDE7     		b	.L27
 555              	.L29:
 556 0122 C046     		.align	2
 557              	.L28:
 558 0124 DF010000 		.word	479
 559 0128 FFFF0000 		.word	65535
 560 012c 002C0140 		.word	1073818624
 561 0130 00540040 		.word	1073763328
 562 0134 00000000 		.word	settings
 563 0138 00000000 		.word	.LC11
 564 013c 18000000 		.word	.LC13
 565 0140 00000000 		.word	.LANCHOR0
 566 0144 1E000000 		.word	.LC16
 567 0148 21000000 		.word	.LC18
 568 014c 30000000 		.word	.LC20
 569              		.cfi_endproc
 570              	.LFE77:
ARM GAS  /tmp/ccMlcuwN.s 			page 11


 571              		.size	startSensors, .-startSensors
 572              		.section	.text.setupLIS331,"ax",%progbits
 573              		.align	1
 574              		.global	setupLIS331
 575              		.code	16
 576              		.thumb_func
 577              		.type	setupLIS331, %function
 578              	setupLIS331:
 579              	.LFB83:
 580              		.loc 1 303 0
 581              		.cfi_startproc
 582 0000 13B5     		push	{r0, r1, r4, lr}
 583              	.LCFI6:
 584              		.cfi_def_cfa_offset 16
 585              		.cfi_offset 0, -16
 586              		.cfi_offset 1, -12
 587              		.cfi_offset 4, -8
 588              		.cfi_offset 14, -4
 589              		.loc 1 304 0
 590 0002 01AC     		add	r4, sp, #4
 591 0004 0D49     		ldr	r1, .L33
 592 0006 0222     		mov	r2, #2
 593 0008 201C     		mov	r0, r4
 594 000a FFF7FEFF 		bl	memcpy
 595              	.LVL44:
 596              		.loc 1 307 0
 597 000e 0223     		mov	r3, #2
 598 0010 0B48     		ldr	r0, .L33+4
 599 0012 1921     		mov	r1, #25
 600 0014 221C     		mov	r2, r4
 601 0016 FFF7FEFF 		bl	i2cSendS
 602              	.LVL45:
 603 001a 031C     		mov	r3, r0
 604              		.loc 1 310 0
 605 001c 0120     		mov	r0, #1
 606              		.loc 1 307 0
 607 001e 002B     		cmp	r3, #0
 608 0020 0BD1     		bne	.L31
 609              		.loc 1 314 0
 610 0022 2320     		mov	r0, #35
 611              		.loc 1 315 0
 612 0024 1021     		mov	r1, #16
 613              		.loc 1 314 0
 614 0026 2070     		strb	r0, [r4]
 615              		.loc 1 315 0
 616 0028 6170     		strb	r1, [r4, #1]
 617              		.loc 1 316 0
 618 002a 0223     		mov	r3, #2
 619 002c 0448     		ldr	r0, .L33+4
 620 002e 1921     		mov	r1, #25
 621 0030 221C     		mov	r2, r4
 622 0032 FFF7FEFF 		bl	i2cSendS
 623              	.LVL46:
 624              		.loc 1 310 0
 625 0036 431E     		sub	r3, r0, #1
 626 0038 9841     		sbc	r0, r0, r3
 627              	.L31:
ARM GAS  /tmp/ccMlcuwN.s 			page 12


 628              		.loc 1 322 0
 629              		@ sp needed for prologue
 630 003a 16BD     		pop	{r1, r2, r4, pc}
 631              	.L34:
 632              		.align	2
 633              	.L33:
 634 003c 00000000 		.word	.LANCHOR1
 635 0040 00540040 		.word	1073763328
 636              		.cfi_endproc
 637              	.LFE83:
 638              		.size	setupLIS331, .-setupLIS331
 639              		.section	.text.getLISValues,"ax",%progbits
 640              		.align	1
 641              		.global	getLISValues
 642              		.code	16
 643              		.thumb_func
 644              		.type	getLISValues, %function
 645              	getLISValues:
 646              	.LFB84:
 647              		.loc 1 325 0
 648              		.cfi_startproc
 649 0000 1FB5     		push	{r0, r1, r2, r3, r4, lr}
 650              	.LCFI7:
 651              		.cfi_def_cfa_offset 24
 652              		.cfi_offset 0, -24
 653              		.cfi_offset 1, -20
 654              		.cfi_offset 2, -16
 655              		.cfi_offset 3, -12
 656              		.cfi_offset 4, -8
 657              		.cfi_offset 14, -4
 658              		.loc 1 326 0
 659 0002 6A46     		mov	r2, sp
 660 0004 2823     		mov	r3, #40
 661 0006 0732     		add	r2, r2, #7
 662 0008 1370     		strb	r3, [r2]
 663              	.LVL47:
 664              		.loc 1 329 0
 665 000a 1248     		ldr	r0, .L39
 666 000c 1921     		mov	r1, #25
 667 000e 0123     		mov	r3, #1
 668 0010 FFF7FEFF 		bl	i2cSendS
 669              	.LVL48:
 670 0014 0028     		cmp	r0, #0
 671 0016 01D0     		beq	.L36
 672              	.L38:
 673              		.loc 1 332 0
 674 0018 0120     		mov	r0, #1
 675 001a 18E0     		b	.L37
 676              	.L36:
 677              		.loc 1 334 0
 678 001c 02AC     		add	r4, sp, #8
 679 001e 0D48     		ldr	r0, .L39
 680 0020 1921     		mov	r1, #25
 681 0022 221C     		mov	r2, r4
 682 0024 0623     		mov	r3, #6
 683 0026 FFF7FEFF 		bl	i2cReceiveS
 684              	.LVL49:
ARM GAS  /tmp/ccMlcuwN.s 			page 13


 685 002a 0028     		cmp	r0, #0
 686 002c F4D1     		bne	.L38
 687              		.loc 1 339 0
 688 002e 6278     		ldrb	r2, [r4, #1]
 689 0030 2178     		ldrb	r1, [r4]
 690 0032 094B     		ldr	r3, .L39+4
 691 0034 1202     		lsl	r2, r2, #8
 692 0036 5218     		add	r2, r2, r1
 693 0038 1A80     		strh	r2, [r3]
 694              		.loc 1 340 0
 695 003a E178     		ldrb	r1, [r4, #3]
 696 003c 0A02     		lsl	r2, r1, #8
 697 003e A178     		ldrb	r1, [r4, #2]
 698 0040 5218     		add	r2, r2, r1
 699 0042 5A80     		strh	r2, [r3, #2]
 700              		.loc 1 341 0
 701 0044 6179     		ldrb	r1, [r4, #5]
 702 0046 2479     		ldrb	r4, [r4, #4]
 703 0048 0A02     		lsl	r2, r1, #8
 704 004a 1119     		add	r1, r2, r4
 705 004c 9980     		strh	r1, [r3, #4]
 706              	.L37:
 707              		.loc 1 344 0
 708 004e 04B0     		add	sp, sp, #16
 709              		@ sp needed for prologue
 710 0050 10BD     		pop	{r4, pc}
 711              	.L40:
 712 0052 C046     		.align	2
 713              	.L39:
 714 0054 00540040 		.word	1073763328
 715 0058 00000000 		.word	.LANCHOR2
 716              		.cfi_endproc
 717              	.LFE84:
 718              		.size	getLISValues, .-getLISValues
 719              		.section	.text.Vector78,"ax",%progbits
 720              		.align	1
 721              		.global	Vector78
 722              		.code	16
 723              		.thumb_func
 724              		.type	Vector78, %function
 725              	Vector78:
 726              	.LFB85:
 727              		.loc 1 347 0
 728              		.cfi_startproc
 729 0000 F8B5     		push	{r3, r4, r5, r6, r7, lr}
 730              	.LCFI8:
 731              		.cfi_def_cfa_offset 24
 732              		.cfi_offset 3, -24
 733              		.cfi_offset 4, -20
 734              		.cfi_offset 5, -16
 735              		.cfi_offset 6, -12
 736              		.cfi_offset 7, -8
 737              		.cfi_offset 14, -4
 738              		.loc 1 350 0
 739 0002 194B     		ldr	r3, .L49
 740 0004 1022     		mov	r2, #16
 741 0006 198A     		ldrh	r1, [r3, #16]
ARM GAS  /tmp/ccMlcuwN.s 			page 14


 742 0008 1C1C     		mov	r4, r3
 743 000a 1142     		tst	r1, r2
 744 000c 2BD0     		beq	.L41
 745              		.loc 1 354 0
 746 000e 188A     		ldrh	r0, [r3, #16]
 747              		.loc 1 356 0
 748 0010 164F     		ldr	r7, .L49+4
 749              		.loc 1 354 0
 750 0012 9043     		bic	r0, r2
 751 0014 1882     		strh	r0, [r3, #16]
 752              		.loc 1 356 0
 753 0016 3978     		ldrb	r1, [r7]
 754 0018 3E1C     		mov	r6, r7
 755 001a 0029     		cmp	r1, #0
 756 001c 05D1     		bne	.L44
 757              		.loc 1 359 0
 758 001e 1C6C     		ldr	r4, [r3, #64]
 759 0020 1348     		ldr	r0, .L49+8
 760              		.loc 1 360 0
 761 0022 0121     		mov	r1, #1
 762              		.loc 1 359 0
 763 0024 0480     		strh	r4, [r0]
 764              		.loc 1 360 0
 765 0026 3970     		strb	r1, [r7]
 766 0028 1DE0     		b	.L41
 767              	.L44:
 768              		.loc 1 362 0
 769 002a 0129     		cmp	r1, #1
 770 002c 1BD1     		bne	.L41
 771              		.loc 1 368 0
 772 002e 104F     		ldr	r7, .L49+8
 773              		.loc 1 365 0
 774 0030 1A6C     		ldr	r2, [r3, #64]
 775              		.loc 1 368 0
 776 0032 3888     		ldrh	r0, [r7]
 777              		.loc 1 365 0
 778 0034 0F4B     		ldr	r3, .L49+12
 779 0036 95B2     		uxth	r5, r2
 780 0038 1104     		lsl	r1, r2, #16
 781 003a 1D80     		strh	r5, [r3]
 782              		.loc 1 370 0
 783 003c 090C     		lsr	r1, r1, #16
 784              		.loc 1 368 0
 785 003e 8542     		cmp	r5, r0
 786 0040 02D8     		bhi	.L48
 787              	.L46:
 788              		.loc 1 374 0
 789 0042 8022     		mov	r2, #128
 790 0044 5302     		lsl	r3, r2, #9
 791 0046 C918     		add	r1, r1, r3
 792              	.L48:
 793 0048 091A     		sub	r1, r1, r0
 794              	.LVL50:
 795              		.loc 1 378 0
 796 004a 0B48     		ldr	r0, .L49+16
 797 004c FFF7FEFF 		bl	__aeabi_uidiv
 798              	.LVL51:
ARM GAS  /tmp/ccMlcuwN.s 			page 15


 799 0050 3C22     		mov	r2, #60
 800 0052 5043     		mul	r0, r2
 801 0054 094B     		ldr	r3, .L49+20
 802              		.loc 1 380 0
 803 0056 3D80     		strh	r5, [r7]
 804              		.loc 1 381 0
 805 0058 0025     		mov	r5, #0
 806              		.loc 1 378 0
 807 005a 1880     		strh	r0, [r3]
 808              		.loc 1 381 0
 809 005c 3570     		strb	r5, [r6]
 810              		.loc 1 384 0
 811 005e A689     		ldrh	r6, [r4, #12]
 812 0060 1027     		mov	r7, #16
 813 0062 BE43     		bic	r6, r7
 814 0064 A681     		strh	r6, [r4, #12]
 815              	.L41:
 816              		.loc 1 387 0
 817              		@ sp needed for prologue
 818 0066 F8BD     		pop	{r3, r4, r5, r6, r7, pc}
 819              	.L50:
 820              		.align	2
 821              	.L49:
 822 0068 002C0140 		.word	1073818624
 823 006c 00000000 		.word	.LANCHOR3
 824 0070 00000000 		.word	.LANCHOR4
 825 0074 00000000 		.word	.LANCHOR5
 826 0078 A0860100 		.word	100000
 827 007c 00000000 		.word	.LANCHOR0
 828              		.cfi_endproc
 829              	.LFE85:
 830              		.size	Vector78, .-Vector78
 831              		.global	__aeabi_idiv
 832              		.section	.text.Vector7C,"ax",%progbits
 833              		.align	1
 834              		.global	Vector7C
 835              		.code	16
 836              		.thumb_func
 837              		.type	Vector7C, %function
 838              	Vector7C:
 839              	.LFB86:
 840              		.loc 1 390 0
 841              		.cfi_startproc
 842              	.LVL52:
 843 0000 F7B5     		push	{r0, r1, r2, r4, r5, r6, r7, lr}
 844              	.LCFI9:
 845              		.cfi_def_cfa_offset 32
 846              		.cfi_offset 0, -32
 847              		.cfi_offset 1, -28
 848              		.cfi_offset 2, -24
 849              		.cfi_offset 4, -20
 850              		.cfi_offset 5, -16
 851              		.cfi_offset 6, -12
 852              		.cfi_offset 7, -8
 853              		.cfi_offset 14, -4
 854              		.loc 1 393 0
 855 0002 8023     		mov	r3, #128
ARM GAS  /tmp/ccMlcuwN.s 			page 16


 856 0004 D805     		lsl	r0, r3, #23
 857 0006 018A     		ldrh	r1, [r0, #16]
 858 0008 0822     		mov	r2, #8
 859 000a 644C     		ldr	r4, .L88
 860 000c 644D     		ldr	r5, .L88+4
 861 000e 1142     		tst	r1, r2
 862 0010 38D0     		beq	.L52
 863              		.loc 1 397 0
 864 0012 038A     		ldrh	r3, [r0, #16]
 865 0014 9343     		bic	r3, r2
 866              		.loc 1 399 0
 867 0016 634A     		ldr	r2, .L88+8
 868              		.loc 1 397 0
 869 0018 0382     		strh	r3, [r0, #16]
 870              		.loc 1 399 0
 871 001a 1778     		ldrb	r7, [r2]
 872 001c 002F     		cmp	r7, #0
 873 001e 02D1     		bne	.L53
 874              		.loc 1 402 0
 875 0020 C66B     		ldr	r6, [r0, #60]
 876 0022 6149     		ldr	r1, .L88+12
 877 0024 3BE0     		b	.L83
 878              	.L53:
 879              		.loc 1 405 0
 880 0026 012F     		cmp	r7, #1
 881 0028 6DD1     		bne	.L54
 882              		.loc 1 411 0
 883 002a 5F4B     		ldr	r3, .L88+12
 884              		.loc 1 408 0
 885 002c C06B     		ldr	r0, [r0, #60]
 886 002e 5F49     		ldr	r1, .L88+16
 887              		.loc 1 411 0
 888 0030 1A88     		ldrh	r2, [r3]
 889              		.loc 1 408 0
 890 0032 86B2     		uxth	r6, r0
 891 0034 0704     		lsl	r7, r0, #16
 892 0036 0E80     		strh	r6, [r1]
 893              		.loc 1 413 0
 894 0038 390C     		lsr	r1, r7, #16
 895              		.loc 1 411 0
 896 003a 9642     		cmp	r6, r2
 897 003c 02D8     		bhi	.L80
 898              	.L56:
 899              		.loc 1 417 0
 900 003e 8020     		mov	r0, #128
 901 0040 4302     		lsl	r3, r0, #9
 902 0042 C918     		add	r1, r1, r3
 903              	.L80:
 904 0044 891A     		sub	r1, r1, r2
 905              	.LVL53:
 906              		.loc 1 421 0
 907 0046 5A4A     		ldr	r2, .L88+20
 908 0048 1778     		ldrb	r7, [r2]
 909 004a 78B2     		sxtb	r0, r7
 910 004c 8300     		lsl	r3, r0, #2
 911 004e 5948     		ldr	r0, .L88+24
 912 0050 0093     		str	r3, [sp]
ARM GAS  /tmp/ccMlcuwN.s 			page 17


 913 0052 FFF7FEFF 		bl	__aeabi_uidiv
 914              	.LVL54:
 915 0056 0137     		add	r7, r7, #1
 916 0058 0099     		ldr	r1, [sp]
 917 005a FAB2     		uxtb	r2, r7
 918              		.loc 1 423 0
 919 005c 57B2     		sxtb	r7, r2
 920              		.loc 1 421 0
 921 005e 6050     		str	r0, [r4, r1]
 922              		.loc 1 423 0
 923 0060 012F     		cmp	r7, #1
 924 0062 02DC     		bgt	.L58
 925              		.loc 1 421 0
 926 0064 5248     		ldr	r0, .L88+20
 927 0066 0270     		strb	r2, [r0]
 928 0068 02E0     		b	.L59
 929              	.L58:
 930              		.loc 1 423 0 discriminator 1
 931 006a 5149     		ldr	r1, .L88+20
 932 006c 0023     		mov	r3, #0
 933 006e 0B70     		strb	r3, [r1]
 934              	.L59:
 935              		.loc 1 425 0
 936 0070 4D4A     		ldr	r2, .L88+12
 937              		.loc 1 426 0
 938 0072 4C4F     		ldr	r7, .L88+8
 939              		.loc 1 425 0
 940 0074 1680     		strh	r6, [r2]
 941              		.loc 1 429 0
 942 0076 8020     		mov	r0, #128
 943              		.loc 1 426 0
 944 0078 0026     		mov	r6, #0
 945 007a 3E70     		strb	r6, [r7]
 946              		.loc 1 429 0
 947 007c C005     		lsl	r0, r0, #23
 948 007e 8289     		ldrh	r2, [r0, #12]
 949 0080 0827     		mov	r7, #8
 950 0082 3EE0     		b	.L84
 951              	.LVL55:
 952              	.L52:
 953              		.loc 1 433 0
 954 0084 068A     		ldrh	r6, [r0, #16]
 955 0086 1027     		mov	r7, #16
 956 0088 3E42     		tst	r6, r7
 957 008a 3CD0     		beq	.L54
 958              		.loc 1 437 0
 959 008c 038A     		ldrh	r3, [r0, #16]
 960              		.loc 1 439 0
 961 008e 4A4A     		ldr	r2, .L88+28
 962              		.loc 1 437 0
 963 0090 BB43     		bic	r3, r7
 964 0092 0382     		strh	r3, [r0, #16]
 965              		.loc 1 439 0
 966 0094 1678     		ldrb	r6, [r2]
 967 0096 002E     		cmp	r6, #0
 968 0098 05D1     		bne	.L61
 969              		.loc 1 442 0
ARM GAS  /tmp/ccMlcuwN.s 			page 18


 970 009a 066C     		ldr	r6, [r0, #64]
 971 009c 4749     		ldr	r1, .L88+32
 972              	.L83:
 973              		.loc 1 443 0
 974 009e 0123     		mov	r3, #1
 975              		.loc 1 442 0
 976 00a0 0E80     		strh	r6, [r1]
 977              		.loc 1 443 0
 978 00a2 1370     		strb	r3, [r2]
 979 00a4 2FE0     		b	.L54
 980              	.L61:
 981              		.loc 1 445 0
 982 00a6 012E     		cmp	r6, #1
 983 00a8 2DD1     		bne	.L54
 984              		.loc 1 448 0
 985 00aa 006C     		ldr	r0, [r0, #64]
 986 00ac 444F     		ldr	r7, .L88+36
 987              		.loc 1 451 0
 988 00ae 434B     		ldr	r3, .L88+32
 989              		.loc 1 448 0
 990 00b0 86B2     		uxth	r6, r0
 991 00b2 3E80     		strh	r6, [r7]
 992              		.loc 1 451 0
 993 00b4 1F88     		ldrh	r7, [r3]
 994 00b6 0104     		lsl	r1, r0, #16
 995              		.loc 1 453 0
 996 00b8 0B0C     		lsr	r3, r1, #16
 997              		.loc 1 451 0
 998 00ba BE42     		cmp	r6, r7
 999 00bc 02D8     		bhi	.L81
 1000              	.L62:
 1001              		.loc 1 457 0
 1002 00be 8022     		mov	r2, #128
 1003 00c0 5002     		lsl	r0, r2, #9
 1004 00c2 1B18     		add	r3, r3, r0
 1005              	.L81:
 1006 00c4 D91B     		sub	r1, r3, r7
 1007              	.LVL56:
 1008              		.loc 1 461 0
 1009 00c6 3F4F     		ldr	r7, .L88+40
 1010 00c8 0023     		mov	r3, #0
 1011 00ca 3A78     		ldrb	r2, [r7]
 1012 00cc 6846     		mov	r0, sp
 1013 00ce 0092     		str	r2, [sp]
 1014 00d0 C256     		ldrsb	r2, [r0, r3]
 1015 00d2 9000     		lsl	r0, r2, #2
 1016 00d4 0190     		str	r0, [sp, #4]
 1017 00d6 3748     		ldr	r0, .L88+24
 1018 00d8 FFF7FEFF 		bl	__aeabi_uidiv
 1019              	.LVL57:
 1020 00dc 009B     		ldr	r3, [sp]
 1021 00de 0199     		ldr	r1, [sp, #4]
 1022 00e0 0133     		add	r3, r3, #1
 1023 00e2 6850     		str	r0, [r5, r1]
 1024 00e4 D8B2     		uxtb	r0, r3
 1025              		.loc 1 463 0
 1026 00e6 42B2     		sxtb	r2, r0
ARM GAS  /tmp/ccMlcuwN.s 			page 19


 1027 00e8 012A     		cmp	r2, #1
 1028 00ea 00DD     		ble	.L82
 1029              	.L64:
 1030              		.loc 1 463 0 is_stmt 0 discriminator 1
 1031 00ec 0020     		mov	r0, #0
 1032              	.L82:
 1033 00ee 3870     		strb	r0, [r7]
 1034              		.loc 1 465 0 is_stmt 1 discriminator 1
 1035 00f0 324F     		ldr	r7, .L88+32
 1036              		.loc 1 466 0 discriminator 1
 1037 00f2 3149     		ldr	r1, .L88+28
 1038              		.loc 1 465 0 discriminator 1
 1039 00f4 3E80     		strh	r6, [r7]
 1040              		.loc 1 469 0 discriminator 1
 1041 00f6 8023     		mov	r3, #128
 1042              		.loc 1 466 0 discriminator 1
 1043 00f8 0026     		mov	r6, #0
 1044 00fa 0E70     		strb	r6, [r1]
 1045              		.loc 1 469 0 discriminator 1
 1046 00fc D805     		lsl	r0, r3, #23
 1047 00fe 8289     		ldrh	r2, [r0, #12]
 1048 0100 1027     		mov	r7, #16
 1049              	.L84:
 1050              		.loc 1 469 0 is_stmt 0
 1051 0102 BA43     		bic	r2, r7
 1052 0104 8281     		strh	r2, [r0, #12]
 1053              	.L54:
 1054              		.loc 1 473 0 is_stmt 1
 1055 0106 2A49     		ldr	r1, .L88+20
 1056 0108 0022     		mov	r2, #0
 1057 010a 8E56     		ldrsb	r6, [r1, r2]
 1058 010c 2E4F     		ldr	r7, .L88+44
 1059 010e 002E     		cmp	r6, #0
 1060 0110 02D1     		bne	.L66
 1061              		.loc 1 475 0
 1062 0112 6068     		ldr	r0, [r4, #4]
 1063 0114 2368     		ldr	r3, [r4]
 1064 0116 01E0     		b	.L85
 1065              	.L66:
 1066              		.loc 1 479 0
 1067 0118 2068     		ldr	r0, [r4]
 1068 011a 6368     		ldr	r3, [r4, #4]
 1069              	.L85:
 1070 011c C11A     		sub	r1, r0, r3
 1071              		.loc 1 482 0
 1072 011e 294A     		ldr	r2, .L88+40
 1073              		.loc 1 479 0
 1074 0120 3980     		strh	r1, [r7]
 1075              		.loc 1 482 0
 1076 0122 0026     		mov	r6, #0
 1077 0124 9057     		ldrsb	r0, [r2, r6]
 1078 0126 294B     		ldr	r3, .L88+48
 1079 0128 0028     		cmp	r0, #0
 1080 012a 02D1     		bne	.L68
 1081              		.loc 1 484 0
 1082 012c 6868     		ldr	r0, [r5, #4]
 1083 012e 2968     		ldr	r1, [r5]
ARM GAS  /tmp/ccMlcuwN.s 			page 20


 1084 0130 00E0     		b	.L86
 1085              	.L68:
 1086              		.loc 1 488 0
 1087 0132 03CD     		ldmia	r5!, {r0, r1}
 1088              	.L86:
 1089 0134 451A     		sub	r5, r0, r1
 1090              		.loc 1 492 0
 1091 0136 1A49     		ldr	r1, .L88+4
 1092 0138 2468     		ldr	r4, [r4]
 1093 013a 0A68     		ldr	r2, [r1]
 1094              		.loc 1 488 0
 1095 013c 1D80     		strh	r5, [r3]
 1096 013e 244E     		ldr	r6, .L88+52
 1097              		.loc 1 492 0
 1098 0140 9442     		cmp	r4, r2
 1099 0142 01DB     		blt	.L70
 1100              		.loc 1 494 0
 1101 0144 7480     		strh	r4, [r6, #2]
 1102 0146 00E0     		b	.L71
 1103              	.L70:
 1104              		.loc 1 498 0
 1105 0148 7280     		strh	r2, [r6, #2]
 1106              	.L71:
 1107              		.loc 1 502 0
 1108 014a 3F88     		ldrh	r7, [r7]
 1109 014c 1B88     		ldrh	r3, [r3]
 1110 014e 39B2     		sxth	r1, r7
 1111 0150 18B2     		sxth	r0, r3
 1112 0152 204D     		ldr	r5, .L88+56
 1113 0154 8142     		cmp	r1, r0
 1114 0156 01DB     		blt	.L72
 1115              		.loc 1 504 0
 1116 0158 2F71     		strb	r7, [r5, #4]
 1117 015a 00E0     		b	.L73
 1118              	.L72:
 1119              		.loc 1 508 0
 1120 015c 2B71     		strb	r3, [r5, #4]
 1121              	.L73:
 1122              		.loc 1 511 0
 1123 015e FA24     		mov	r4, #250
 1124 0160 401A     		sub	r0, r0, r1
 1125 0162 A200     		lsl	r2, r4, #2
 1126 0164 5043     		mul	r0, r2
 1127 0166 FFF7FEFF 		bl	__aeabi_idiv
 1128              	.LVL58:
 1129              		.loc 1 513 0
 1130 016a 1B4B     		ldr	r3, .L88+60
 1131              		.loc 1 511 0
 1132 016c 87B2     		uxth	r7, r0
 1133 016e 6F80     		strh	r7, [r5, #2]
 1134              		.loc 1 513 0
 1135 0170 7188     		ldrh	r1, [r6, #2]
 1136 0172 1889     		ldrh	r0, [r3, #8]
 1137 0174 8142     		cmp	r1, r0
 1138 0176 07D9     		bls	.L74
 1139              		.loc 1 514 0
 1140 0178 3688     		ldrh	r6, [r6]
ARM GAS  /tmp/ccMlcuwN.s 			page 21


 1141 017a 5C89     		ldrh	r4, [r3, #10]
 1142 017c A642     		cmp	r6, r4
 1143 017e 03D9     		bls	.L74
 1144              		.loc 1 515 0
 1145 0180 3AB2     		sxth	r2, r7
 1146 0182 9F88     		ldrh	r7, [r3, #4]
 1147 0184 BA42     		cmp	r2, r7
 1148 0186 03DC     		bgt	.L75
 1149              	.L74:
 1150              		.loc 1 517 0
 1151 0188 2B78     		ldrb	r3, [r5]
 1152 018a 0220     		mov	r0, #2
 1153 018c 8343     		bic	r3, r0
 1154 018e 02E0     		b	.L87
 1155              	.L75:
 1156              		.loc 1 521 0
 1157 0190 2B78     		ldrb	r3, [r5]
 1158 0192 0221     		mov	r1, #2
 1159 0194 0B43     		orr	r3, r1
 1160              	.L87:
 1161 0196 2B70     		strb	r3, [r5]
 1162              		.loc 1 522 0
 1163              		@ sp needed for prologue
 1164 0198 F7BD     		pop	{r0, r1, r2, r4, r5, r6, r7, pc}
 1165              	.L89:
 1166 019a C046     		.align	2
 1167              	.L88:
 1168 019c 00000000 		.word	.LANCHOR10
 1169 01a0 00000000 		.word	.LANCHOR15
 1170 01a4 00000000 		.word	.LANCHOR6
 1171 01a8 00000000 		.word	.LANCHOR7
 1172 01ac 00000000 		.word	.LANCHOR8
 1173 01b0 00000000 		.word	.LANCHOR9
 1174 01b4 A0860100 		.word	100000
 1175 01b8 00000000 		.word	.LANCHOR11
 1176 01bc 00000000 		.word	.LANCHOR12
 1177 01c0 00000000 		.word	.LANCHOR13
 1178 01c4 00000000 		.word	.LANCHOR14
 1179 01c8 00000000 		.word	.LANCHOR16
 1180 01cc 00000000 		.word	.LANCHOR17
 1181 01d0 00000000 		.word	.LANCHOR0
 1182 01d4 00000000 		.word	status
 1183 01d8 00000000 		.word	settings
 1184              		.cfi_endproc
 1185              	.LFE86:
 1186              		.size	Vector7C, .-Vector7C
 1187              		.global	sensors
 1188              		.section	.rodata
 1189              		.set	.LANCHOR1,. + 0
 1190              	.LC0:
 1191 0000 20       		.byte	32
 1192 0001 3F       		.byte	63
 1193              		.section	.bss.accel1,"aw",%nobits
 1194              		.align	1
 1195              		.set	.LANCHOR16,. + 0
 1196              		.type	accel1, %object
 1197              		.size	accel1, 2
ARM GAS  /tmp/ccMlcuwN.s 			page 22


 1198              	accel1:
 1199 0000 0000     		.space	2
 1200              		.section	.bss.TIM2CC4CaptureNumber,"aw",%nobits
 1201              		.set	.LANCHOR11,. + 0
 1202              		.type	TIM2CC4CaptureNumber, %object
 1203              		.size	TIM2CC4CaptureNumber, 1
 1204              	TIM2CC4CaptureNumber:
 1205 0000 00       		.space	1
 1206              		.section	.bss.TIM1CC4ReadValue1,"aw",%nobits
 1207              		.align	1
 1208              		.set	.LANCHOR4,. + 0
 1209              		.type	TIM1CC4ReadValue1, %object
 1210              		.size	TIM1CC4ReadValue1, 2
 1211              	TIM1CC4ReadValue1:
 1212 0000 0000     		.space	2
 1213              		.section	.bss.TIM1CC4ReadValue2,"aw",%nobits
 1214              		.align	1
 1215              		.set	.LANCHOR5,. + 0
 1216              		.type	TIM1CC4ReadValue2, %object
 1217              		.size	TIM1CC4ReadValue2, 2
 1218              	TIM1CC4ReadValue2:
 1219 0000 0000     		.space	2
 1220              		.section	.bss.TIM2CC4ReadValue1,"aw",%nobits
 1221              		.align	1
 1222              		.set	.LANCHOR12,. + 0
 1223              		.type	TIM2CC4ReadValue1, %object
 1224              		.size	TIM2CC4ReadValue1, 2
 1225              	TIM2CC4ReadValue1:
 1226 0000 0000     		.space	2
 1227              		.section	.bss.TIM2CC3ReadValue1,"aw",%nobits
 1228              		.align	1
 1229              		.set	.LANCHOR7,. + 0
 1230              		.type	TIM2CC3ReadValue1, %object
 1231              		.size	TIM2CC3ReadValue1, 2
 1232              	TIM2CC3ReadValue1:
 1233 0000 0000     		.space	2
 1234              		.section	.bss.TIM2CC3ReadValue2,"aw",%nobits
 1235              		.align	1
 1236              		.set	.LANCHOR8,. + 0
 1237              		.type	TIM2CC3ReadValue2, %object
 1238              		.size	TIM2CC3ReadValue2, 2
 1239              	TIM2CC3ReadValue2:
 1240 0000 0000     		.space	2
 1241              		.section	.bss.sensors,"aw",%nobits
 1242              		.align	1
 1243              		.set	.LANCHOR0,. + 0
 1244              		.type	sensors, %object
 1245              		.size	sensors, 10
 1246              	sensors:
 1247 0000 00000000 		.space	10
 1247      00000000 
 1247      0000
 1248              		.section	.bss.TIM2CC4ReadValue2,"aw",%nobits
 1249              		.align	1
 1250              		.set	.LANCHOR13,. + 0
 1251              		.type	TIM2CC4ReadValue2, %object
 1252              		.size	TIM2CC4ReadValue2, 2
ARM GAS  /tmp/ccMlcuwN.s 			page 23


 1253              	TIM2CC4ReadValue2:
 1254 0000 0000     		.space	2
 1255              		.section	.bss.accel2,"aw",%nobits
 1256              		.align	1
 1257              		.set	.LANCHOR17,. + 0
 1258              		.type	accel2, %object
 1259              		.size	accel2, 2
 1260              	accel2:
 1261 0000 0000     		.space	2
 1262              		.section	.rodata.str1.1,"aMS",%progbits,1
 1263              	.LC11:
 1264 0000 73746172 		.ascii	"startSensors Complete\015\012\000"
 1264      7453656E 
 1264      736F7273 
 1264      20436F6D 
 1264      706C6574 
 1265              	.LC13:
 1266 0018 52504D3A 		.ascii	"RPM: \000"
 1266      2000
 1267              	.LC16:
 1268 001e 0D0A00   		.ascii	"\015\012\000"
 1269              	.LC18:
 1270 0021 53747261 		.ascii	"Strain gauge: \000"
 1270      696E2067 
 1270      61756765 
 1270      3A2000
 1271              	.LC20:
 1272 0030 54432053 		.ascii	"TC Switch: \000"
 1272      77697463 
 1272      683A2000 
 1273              		.section	.bss.TIM2CC3CaptureNumber,"aw",%nobits
 1274              		.set	.LANCHOR6,. + 0
 1275              		.type	TIM2CC3CaptureNumber, %object
 1276              		.size	TIM2CC3CaptureNumber, 1
 1277              	TIM2CC3CaptureNumber:
 1278 0000 00       		.space	1
 1279              		.section	.bss.spd1arr_pos,"aw",%nobits
 1280              		.set	.LANCHOR9,. + 0
 1281              		.type	spd1arr_pos, %object
 1282              		.size	spd1arr_pos, 1
 1283              	spd1arr_pos:
 1284 0000 00       		.space	1
 1285              		.section	.bss.TIM1CC4CaptureNumber,"aw",%nobits
 1286              		.set	.LANCHOR3,. + 0
 1287              		.type	TIM1CC4CaptureNumber, %object
 1288              		.size	TIM1CC4CaptureNumber, 1
 1289              	TIM1CC4CaptureNumber:
 1290 0000 00       		.space	1
 1291              		.section	.bss.spd2arr_pos,"aw",%nobits
 1292              		.set	.LANCHOR14,. + 0
 1293              		.type	spd2arr_pos, %object
 1294              		.size	spd2arr_pos, 1
 1295              	spd2arr_pos:
 1296 0000 00       		.space	1
 1297              		.section	.bss.lis_data,"aw",%nobits
 1298              		.align	1
 1299              		.set	.LANCHOR2,. + 0
ARM GAS  /tmp/ccMlcuwN.s 			page 24


 1300              		.type	lis_data, %object
 1301              		.size	lis_data, 6
 1302              	lis_data:
 1303 0000 00000000 		.space	6
 1303      0000
 1304              		.section	.bss.spd1arr,"aw",%nobits
 1305              		.align	2
 1306              		.set	.LANCHOR10,. + 0
 1307              		.type	spd1arr, %object
 1308              		.size	spd1arr, 8
 1309              	spd1arr:
 1310 0000 00000000 		.space	8
 1310      00000000 
 1311              		.section	.bss.spd2arr,"aw",%nobits
 1312              		.align	2
 1313              		.set	.LANCHOR15,. + 0
 1314              		.type	spd2arr, %object
 1315              		.size	spd2arr, 8
 1316              	spd2arr:
 1317 0000 00000000 		.space	8
 1317      00000000 
 1318              		.text
 1319              	.Letext0:
 1320              		.file 2 "/media/data/src/x-tools/gcc-arm-none-eabi-4_7-2013q1/bin/../lib/gcc/arm-none-eabi/4.7.3/.
 1321              		.file 3 "./os/nil/include/nil.h"
 1322              		.file 4 "./os/nil/ports/ARMCMx/compilers/GCC/niltypes.h"
 1323              		.file 5 "./os/ext/CMSIS/ST/stm32f0xx.h"
 1324              		.file 6 "lib/STM32F0xx_StdPeriph_Driver/inc/stm32f0xx_tim.h"
 1325              		.file 7 "lib/STM32F0xx_StdPeriph_Driver/inc/stm32f0xx_misc.h"
 1326              		.file 8 "./os/nil/ports/ARMCMx/nilcore.h"
 1327              		.file 9 "./os/nil/ports/ARMCMx/nilcore_v6m.h"
 1328              		.file 10 "inc/threads.h"
 1329              		.section	.debug_info,"",%progbits
 1330              	.Ldebug_info0:
 1331 0000 E7110000 		.4byte	0x11e7
 1332 0004 0200     		.2byte	0x2
 1333 0006 00000000 		.4byte	.Ldebug_abbrev0
 1334 000a 04       		.byte	0x4
 1335 000b 01       		.uleb128 0x1
 1336 000c CB080000 		.4byte	.LASF204
 1337 0010 01       		.byte	0x1
 1338 0011 67060000 		.4byte	.LASF205
 1339 0015 2F040000 		.4byte	.LASF206
 1340 0019 00000000 		.4byte	.Ldebug_ranges0+0
 1341 001d 00000000 		.4byte	0
 1342 0021 00000000 		.4byte	0
 1343 0025 00000000 		.4byte	.Ldebug_line0
 1344 0029 02       		.uleb128 0x2
 1345 002a 04       		.byte	0x4
 1346 002b 05       		.byte	0x5
 1347 002c 696E7400 		.ascii	"int\000"
 1348 0030 03       		.uleb128 0x3
 1349 0031 04       		.byte	0x4
 1350 0032 07       		.byte	0x7
 1351 0033 C7000000 		.4byte	.LASF0
 1352 0037 04       		.uleb128 0x4
 1353 0038 DD010000 		.4byte	.LASF2
ARM GAS  /tmp/ccMlcuwN.s 			page 25


 1354 003c 02       		.byte	0x2
 1355 003d 29       		.byte	0x29
 1356 003e 42000000 		.4byte	0x42
 1357 0042 03       		.uleb128 0x3
 1358 0043 01       		.byte	0x1
 1359 0044 06       		.byte	0x6
 1360 0045 8E080000 		.4byte	.LASF1
 1361 0049 04       		.uleb128 0x4
 1362 004a 20040000 		.4byte	.LASF3
 1363 004e 02       		.byte	0x2
 1364 004f 2A       		.byte	0x2a
 1365 0050 54000000 		.4byte	0x54
 1366 0054 03       		.uleb128 0x3
 1367 0055 01       		.byte	0x1
 1368 0056 08       		.byte	0x8
 1369 0057 E2070000 		.4byte	.LASF4
 1370 005b 04       		.uleb128 0x4
 1371 005c 58020000 		.4byte	.LASF5
 1372 0060 02       		.byte	0x2
 1373 0061 35       		.byte	0x35
 1374 0062 66000000 		.4byte	0x66
 1375 0066 03       		.uleb128 0x3
 1376 0067 02       		.byte	0x2
 1377 0068 05       		.byte	0x5
 1378 0069 4E060000 		.4byte	.LASF6
 1379 006d 04       		.uleb128 0x4
 1380 006e DE050000 		.4byte	.LASF7
 1381 0072 02       		.byte	0x2
 1382 0073 36       		.byte	0x36
 1383 0074 78000000 		.4byte	0x78
 1384 0078 03       		.uleb128 0x3
 1385 0079 02       		.byte	0x2
 1386 007a 07       		.byte	0x7
 1387 007b 9A080000 		.4byte	.LASF8
 1388 007f 04       		.uleb128 0x4
 1389 0080 67070000 		.4byte	.LASF9
 1390 0084 02       		.byte	0x2
 1391 0085 4F       		.byte	0x4f
 1392 0086 8A000000 		.4byte	0x8a
 1393 008a 03       		.uleb128 0x3
 1394 008b 04       		.byte	0x4
 1395 008c 05       		.byte	0x5
 1396 008d 75060000 		.4byte	.LASF10
 1397 0091 04       		.uleb128 0x4
 1398 0092 D4010000 		.4byte	.LASF11
 1399 0096 02       		.byte	0x2
 1400 0097 50       		.byte	0x50
 1401 0098 9C000000 		.4byte	0x9c
 1402 009c 03       		.uleb128 0x3
 1403 009d 04       		.byte	0x4
 1404 009e 07       		.byte	0x7
 1405 009f 43070000 		.4byte	.LASF12
 1406 00a3 03       		.uleb128 0x3
 1407 00a4 08       		.byte	0x8
 1408 00a5 05       		.byte	0x5
 1409 00a6 6C040000 		.4byte	.LASF13
 1410 00aa 03       		.uleb128 0x3
ARM GAS  /tmp/ccMlcuwN.s 			page 26


 1411 00ab 08       		.byte	0x8
 1412 00ac 07       		.byte	0x7
 1413 00ad 60020000 		.4byte	.LASF14
 1414 00b1 05       		.uleb128 0x5
 1415 00b2 83080000 		.4byte	.LASF114
 1416 00b6 14       		.byte	0x14
 1417 00b7 03       		.byte	0x3
 1418 00b8 1E01     		.2byte	0x11e
 1419 00ba 09010000 		.4byte	0x109
 1420 00be 06       		.uleb128 0x6
 1421 00bf 62060000 		.4byte	.LASF15
 1422 00c3 03       		.byte	0x3
 1423 00c4 1F01     		.2byte	0x11f
 1424 00c6 60070000 		.4byte	0x760
 1425 00ca 02       		.byte	0x2
 1426 00cb 23       		.byte	0x23
 1427 00cc 00       		.uleb128 0
 1428 00cd 06       		.uleb128 0x6
 1429 00ce 4B080000 		.4byte	.LASF16
 1430 00d2 03       		.byte	0x3
 1431 00d3 2001     		.2byte	0x120
 1432 00d5 09010000 		.4byte	0x109
 1433 00d9 02       		.byte	0x2
 1434 00da 23       		.byte	0x23
 1435 00db 04       		.uleb128 0x4
 1436 00dc 07       		.uleb128 0x7
 1437 00dd 753100   		.ascii	"u1\000"
 1438 00e0 03       		.byte	0x3
 1439 00e1 2B01     		.2byte	0x12b
 1440 00e3 10070000 		.4byte	0x710
 1441 00e7 02       		.byte	0x2
 1442 00e8 23       		.byte	0x23
 1443 00e9 08       		.uleb128 0x8
 1444 00ea 06       		.uleb128 0x6
 1445 00eb F0070000 		.4byte	.LASF17
 1446 00ef 03       		.byte	0x3
 1447 00f0 2C01     		.2byte	0x12c
 1448 00f2 66070000 		.4byte	0x766
 1449 00f6 02       		.byte	0x2
 1450 00f7 23       		.byte	0x23
 1451 00f8 0C       		.uleb128 0xc
 1452 00f9 06       		.uleb128 0x6
 1453 00fa 3D050000 		.4byte	.LASF18
 1454 00fe 03       		.byte	0x3
 1455 00ff 2F01     		.2byte	0x12f
 1456 0101 1F010000 		.4byte	0x11f
 1457 0105 02       		.byte	0x2
 1458 0106 23       		.byte	0x23
 1459 0107 10       		.uleb128 0x10
 1460 0108 00       		.byte	0
 1461 0109 04       		.uleb128 0x4
 1462 010a F7030000 		.4byte	.LASF19
 1463 010e 04       		.byte	0x4
 1464 010f 37       		.byte	0x37
 1465 0110 49000000 		.4byte	0x49
 1466 0114 04       		.uleb128 0x4
 1467 0115 8C040000 		.4byte	.LASF20
ARM GAS  /tmp/ccMlcuwN.s 			page 27


 1468 0119 04       		.byte	0x4
 1469 011a 38       		.byte	0x38
 1470 011b 7F000000 		.4byte	0x7f
 1471 011f 04       		.uleb128 0x4
 1472 0120 E4010000 		.4byte	.LASF21
 1473 0124 04       		.byte	0x4
 1474 0125 39       		.byte	0x39
 1475 0126 91000000 		.4byte	0x91
 1476 012a 04       		.uleb128 0x4
 1477 012b 77020000 		.4byte	.LASF22
 1478 012f 04       		.byte	0x4
 1479 0130 3A       		.byte	0x3a
 1480 0131 7F000000 		.4byte	0x7f
 1481 0135 08       		.uleb128 0x8
 1482 0136 E7050000 		.4byte	.LASF207
 1483 013a 01       		.byte	0x1
 1484 013b 05       		.byte	0x5
 1485 013c AF       		.byte	0xaf
 1486 013d 0E020000 		.4byte	0x20e
 1487 0141 09       		.uleb128 0x9
 1488 0142 8F060000 		.4byte	.LASF23
 1489 0146 72       		.sleb128 -14
 1490 0147 09       		.uleb128 0x9
 1491 0148 14090000 		.4byte	.LASF24
 1492 014c 73       		.sleb128 -13
 1493 014d 09       		.uleb128 0x9
 1494 014e 82000000 		.4byte	.LASF25
 1495 0152 7B       		.sleb128 -5
 1496 0153 09       		.uleb128 0x9
 1497 0154 60010000 		.4byte	.LASF26
 1498 0158 7E       		.sleb128 -2
 1499 0159 09       		.uleb128 0x9
 1500 015a 13070000 		.4byte	.LASF27
 1501 015e 7F       		.sleb128 -1
 1502 015f 09       		.uleb128 0x9
 1503 0160 7A040000 		.4byte	.LASF28
 1504 0164 00       		.sleb128 0
 1505 0165 09       		.uleb128 0x9
 1506 0166 0A050000 		.4byte	.LASF29
 1507 016a 01       		.sleb128 1
 1508 016b 09       		.uleb128 0x9
 1509 016c F6050000 		.4byte	.LASF30
 1510 0170 02       		.sleb128 2
 1511 0171 09       		.uleb128 0x9
 1512 0172 FA000000 		.4byte	.LASF31
 1513 0176 03       		.sleb128 3
 1514 0177 09       		.uleb128 0x9
 1515 0178 AB010000 		.4byte	.LASF32
 1516 017c 04       		.sleb128 4
 1517 017d 09       		.uleb128 0x9
 1518 017e 11010000 		.4byte	.LASF33
 1519 0182 05       		.sleb128 5
 1520 0183 09       		.uleb128 0x9
 1521 0184 75000000 		.4byte	.LASF34
 1522 0188 06       		.sleb128 6
 1523 0189 09       		.uleb128 0x9
 1524 018a 34000000 		.4byte	.LASF35
ARM GAS  /tmp/ccMlcuwN.s 			page 28


 1525 018e 07       		.sleb128 7
 1526 018f 09       		.uleb128 0x9
 1527 0190 C9040000 		.4byte	.LASF36
 1528 0194 08       		.sleb128 8
 1529 0195 09       		.uleb128 0x9
 1530 0196 E4030000 		.4byte	.LASF37
 1531 019a 09       		.sleb128 9
 1532 019b 09       		.uleb128 0x9
 1533 019c B7070000 		.4byte	.LASF38
 1534 01a0 0A       		.sleb128 10
 1535 01a1 09       		.uleb128 0x9
 1536 01a2 E9060000 		.4byte	.LASF39
 1537 01a6 0B       		.sleb128 11
 1538 01a7 09       		.uleb128 0x9
 1539 01a8 63050000 		.4byte	.LASF40
 1540 01ac 0C       		.sleb128 12
 1541 01ad 09       		.uleb128 0x9
 1542 01ae D1040000 		.4byte	.LASF41
 1543 01b2 0D       		.sleb128 13
 1544 01b3 09       		.uleb128 0x9
 1545 01b4 AE060000 		.4byte	.LASF42
 1546 01b8 0E       		.sleb128 14
 1547 01b9 09       		.uleb128 0x9
 1548 01ba 55070000 		.4byte	.LASF43
 1549 01be 0F       		.sleb128 15
 1550 01bf 09       		.uleb128 0x9
 1551 01c0 DA030000 		.4byte	.LASF44
 1552 01c4 10       		.sleb128 16
 1553 01c5 09       		.uleb128 0x9
 1554 01c6 D4070000 		.4byte	.LASF45
 1555 01ca 11       		.sleb128 17
 1556 01cb 09       		.uleb128 0x9
 1557 01cc AC070000 		.4byte	.LASF46
 1558 01d0 13       		.sleb128 19
 1559 01d1 09       		.uleb128 0x9
 1560 01d2 15040000 		.4byte	.LASF47
 1561 01d6 14       		.sleb128 20
 1562 01d7 09       		.uleb128 0x9
 1563 01d8 EF000000 		.4byte	.LASF48
 1564 01dc 15       		.sleb128 21
 1565 01dd 09       		.uleb128 0x9
 1566 01de DE060000 		.4byte	.LASF49
 1567 01e2 16       		.sleb128 22
 1568 01e3 09       		.uleb128 0x9
 1569 01e4 56010000 		.4byte	.LASF50
 1570 01e8 17       		.sleb128 23
 1571 01e9 09       		.uleb128 0x9
 1572 01ea 39070000 		.4byte	.LASF51
 1573 01ee 18       		.sleb128 24
 1574 01ef 09       		.uleb128 0x9
 1575 01f0 4E020000 		.4byte	.LASF52
 1576 01f4 19       		.sleb128 25
 1577 01f5 09       		.uleb128 0x9
 1578 01f6 B7050000 		.4byte	.LASF53
 1579 01fa 1A       		.sleb128 26
 1580 01fb 09       		.uleb128 0x9
 1581 01fc 7E060000 		.4byte	.LASF54
ARM GAS  /tmp/ccMlcuwN.s 			page 29


 1582 0200 1B       		.sleb128 27
 1583 0201 09       		.uleb128 0x9
 1584 0202 C0020000 		.4byte	.LASF55
 1585 0206 1C       		.sleb128 28
 1586 0207 09       		.uleb128 0x9
 1587 0208 20070000 		.4byte	.LASF56
 1588 020c 1E       		.sleb128 30
 1589 020d 00       		.byte	0
 1590 020e 03       		.uleb128 0x3
 1591 020f 04       		.byte	0x4
 1592 0210 07       		.byte	0x7
 1593 0211 30070000 		.4byte	.LASF57
 1594 0215 0A       		.uleb128 0xa
 1595 0216 91000000 		.4byte	0x91
 1596 021a 0B       		.uleb128 0xb
 1597 021b 01       		.byte	0x1
 1598 021c 05       		.byte	0x5
 1599 021d 0001     		.2byte	0x100
 1600 021f 30020000 		.4byte	0x230
 1601 0223 09       		.uleb128 0x9
 1602 0224 9B030000 		.4byte	.LASF58
 1603 0228 00       		.sleb128 0
 1604 0229 09       		.uleb128 0x9
 1605 022a 29070000 		.4byte	.LASF59
 1606 022e 01       		.sleb128 1
 1607 022f 00       		.byte	0
 1608 0230 0C       		.uleb128 0xc
 1609 0231 D9000000 		.4byte	.LASF60
 1610 0235 05       		.byte	0x5
 1611 0236 0001     		.2byte	0x100
 1612 0238 1A020000 		.4byte	0x21a
 1613 023c 0A       		.uleb128 0xa
 1614 023d 6D000000 		.4byte	0x6d
 1615 0241 0D       		.uleb128 0xd
 1616 0242 2C       		.byte	0x2c
 1617 0243 05       		.byte	0x5
 1618 0244 CD01     		.2byte	0x1cd
 1619 0246 F0020000 		.4byte	0x2f0
 1620 024a 07       		.uleb128 0x7
 1621 024b 43523100 		.ascii	"CR1\000"
 1622 024f 05       		.byte	0x5
 1623 0250 CF01     		.2byte	0x1cf
 1624 0252 15020000 		.4byte	0x215
 1625 0256 02       		.byte	0x2
 1626 0257 23       		.byte	0x23
 1627 0258 00       		.uleb128 0
 1628 0259 07       		.uleb128 0x7
 1629 025a 43523200 		.ascii	"CR2\000"
 1630 025e 05       		.byte	0x5
 1631 025f D001     		.2byte	0x1d0
 1632 0261 15020000 		.4byte	0x215
 1633 0265 02       		.byte	0x2
 1634 0266 23       		.byte	0x23
 1635 0267 04       		.uleb128 0x4
 1636 0268 06       		.uleb128 0x6
 1637 0269 EA020000 		.4byte	.LASF61
 1638 026d 05       		.byte	0x5
ARM GAS  /tmp/ccMlcuwN.s 			page 30


 1639 026e D101     		.2byte	0x1d1
 1640 0270 15020000 		.4byte	0x215
 1641 0274 02       		.byte	0x2
 1642 0275 23       		.byte	0x23
 1643 0276 08       		.uleb128 0x8
 1644 0277 06       		.uleb128 0x6
 1645 0278 EF020000 		.4byte	.LASF62
 1646 027c 05       		.byte	0x5
 1647 027d D201     		.2byte	0x1d2
 1648 027f 15020000 		.4byte	0x215
 1649 0283 02       		.byte	0x2
 1650 0284 23       		.byte	0x23
 1651 0285 0C       		.uleb128 0xc
 1652 0286 06       		.uleb128 0x6
 1653 0287 64040000 		.4byte	.LASF63
 1654 028b 05       		.byte	0x5
 1655 028c D301     		.2byte	0x1d3
 1656 028e 15020000 		.4byte	0x215
 1657 0292 02       		.byte	0x2
 1658 0293 23       		.byte	0x23
 1659 0294 10       		.uleb128 0x10
 1660 0295 06       		.uleb128 0x6
 1661 0296 78010000 		.4byte	.LASF64
 1662 029a 05       		.byte	0x5
 1663 029b D401     		.2byte	0x1d4
 1664 029d 15020000 		.4byte	0x215
 1665 02a1 02       		.byte	0x2
 1666 02a2 23       		.byte	0x23
 1667 02a3 14       		.uleb128 0x14
 1668 02a4 07       		.uleb128 0x7
 1669 02a5 49535200 		.ascii	"ISR\000"
 1670 02a9 05       		.byte	0x5
 1671 02aa D501     		.2byte	0x1d5
 1672 02ac 15020000 		.4byte	0x215
 1673 02b0 02       		.byte	0x2
 1674 02b1 23       		.byte	0x23
 1675 02b2 18       		.uleb128 0x18
 1676 02b3 07       		.uleb128 0x7
 1677 02b4 49435200 		.ascii	"ICR\000"
 1678 02b8 05       		.byte	0x5
 1679 02b9 D601     		.2byte	0x1d6
 1680 02bb 15020000 		.4byte	0x215
 1681 02bf 02       		.byte	0x2
 1682 02c0 23       		.byte	0x23
 1683 02c1 1C       		.uleb128 0x1c
 1684 02c2 06       		.uleb128 0x6
 1685 02c3 F7040000 		.4byte	.LASF65
 1686 02c7 05       		.byte	0x5
 1687 02c8 D701     		.2byte	0x1d7
 1688 02ca 15020000 		.4byte	0x215
 1689 02ce 02       		.byte	0x2
 1690 02cf 23       		.byte	0x23
 1691 02d0 20       		.uleb128 0x20
 1692 02d1 06       		.uleb128 0x6
 1693 02d2 BB020000 		.4byte	.LASF66
 1694 02d6 05       		.byte	0x5
 1695 02d7 D801     		.2byte	0x1d8
ARM GAS  /tmp/ccMlcuwN.s 			page 31


 1696 02d9 15020000 		.4byte	0x215
 1697 02dd 02       		.byte	0x2
 1698 02de 23       		.byte	0x23
 1699 02df 24       		.uleb128 0x24
 1700 02e0 06       		.uleb128 0x6
 1701 02e1 5F040000 		.4byte	.LASF67
 1702 02e5 05       		.byte	0x5
 1703 02e6 D901     		.2byte	0x1d9
 1704 02e8 15020000 		.4byte	0x215
 1705 02ec 02       		.byte	0x2
 1706 02ed 23       		.byte	0x23
 1707 02ee 28       		.uleb128 0x28
 1708 02ef 00       		.byte	0
 1709 02f0 0C       		.uleb128 0xc
 1710 02f1 F8070000 		.4byte	.LASF68
 1711 02f5 05       		.byte	0x5
 1712 02f6 DA01     		.2byte	0x1da
 1713 02f8 41020000 		.4byte	0x241
 1714 02fc 0D       		.uleb128 0xd
 1715 02fd 54       		.byte	0x54
 1716 02fe 05       		.byte	0x5
 1717 02ff 4902     		.2byte	0x249
 1718 0301 20050000 		.4byte	0x520
 1719 0305 07       		.uleb128 0x7
 1720 0306 43523100 		.ascii	"CR1\000"
 1721 030a 05       		.byte	0x5
 1722 030b 4B02     		.2byte	0x24b
 1723 030d 3C020000 		.4byte	0x23c
 1724 0311 02       		.byte	0x2
 1725 0312 23       		.byte	0x23
 1726 0313 00       		.uleb128 0
 1727 0314 06       		.uleb128 0x6
 1728 0315 08060000 		.4byte	.LASF69
 1729 0319 05       		.byte	0x5
 1730 031a 4C02     		.2byte	0x24c
 1731 031c 6D000000 		.4byte	0x6d
 1732 0320 02       		.byte	0x2
 1733 0321 23       		.byte	0x23
 1734 0322 02       		.uleb128 0x2
 1735 0323 07       		.uleb128 0x7
 1736 0324 43523200 		.ascii	"CR2\000"
 1737 0328 05       		.byte	0x5
 1738 0329 4D02     		.2byte	0x24d
 1739 032b 3C020000 		.4byte	0x23c
 1740 032f 02       		.byte	0x2
 1741 0330 23       		.byte	0x23
 1742 0331 04       		.uleb128 0x4
 1743 0332 06       		.uleb128 0x6
 1744 0333 12060000 		.4byte	.LASF70
 1745 0337 05       		.byte	0x5
 1746 0338 4E02     		.2byte	0x24e
 1747 033a 6D000000 		.4byte	0x6d
 1748 033e 02       		.byte	0x2
 1749 033f 23       		.byte	0x23
 1750 0340 06       		.uleb128 0x6
 1751 0341 06       		.uleb128 0x6
 1752 0342 5A040000 		.4byte	.LASF71
ARM GAS  /tmp/ccMlcuwN.s 			page 32


 1753 0346 05       		.byte	0x5
 1754 0347 4F02     		.2byte	0x24f
 1755 0349 3C020000 		.4byte	0x23c
 1756 034d 02       		.byte	0x2
 1757 034e 23       		.byte	0x23
 1758 034f 08       		.uleb128 0x8
 1759 0350 06       		.uleb128 0x6
 1760 0351 1C060000 		.4byte	.LASF72
 1761 0355 05       		.byte	0x5
 1762 0356 5002     		.2byte	0x250
 1763 0358 6D000000 		.4byte	0x6d
 1764 035c 02       		.byte	0x2
 1765 035d 23       		.byte	0x23
 1766 035e 0A       		.uleb128 0xa
 1767 035f 06       		.uleb128 0x6
 1768 0360 07030000 		.4byte	.LASF73
 1769 0364 05       		.byte	0x5
 1770 0365 5102     		.2byte	0x251
 1771 0367 3C020000 		.4byte	0x23c
 1772 036b 02       		.byte	0x2
 1773 036c 23       		.byte	0x23
 1774 036d 0C       		.uleb128 0xc
 1775 036e 06       		.uleb128 0x6
 1776 036f 26060000 		.4byte	.LASF74
 1777 0373 05       		.byte	0x5
 1778 0374 5202     		.2byte	0x252
 1779 0376 6D000000 		.4byte	0x6d
 1780 037a 02       		.byte	0x2
 1781 037b 23       		.byte	0x23
 1782 037c 0E       		.uleb128 0xe
 1783 037d 07       		.uleb128 0x7
 1784 037e 535200   		.ascii	"SR\000"
 1785 0381 05       		.byte	0x5
 1786 0382 5302     		.2byte	0x253
 1787 0384 3C020000 		.4byte	0x23c
 1788 0388 02       		.byte	0x2
 1789 0389 23       		.byte	0x23
 1790 038a 10       		.uleb128 0x10
 1791 038b 06       		.uleb128 0x6
 1792 038c 30060000 		.4byte	.LASF75
 1793 0390 05       		.byte	0x5
 1794 0391 5402     		.2byte	0x254
 1795 0393 6D000000 		.4byte	0x6d
 1796 0397 02       		.byte	0x2
 1797 0398 23       		.byte	0x23
 1798 0399 12       		.uleb128 0x12
 1799 039a 07       		.uleb128 0x7
 1800 039b 45475200 		.ascii	"EGR\000"
 1801 039f 05       		.byte	0x5
 1802 03a0 5502     		.2byte	0x255
 1803 03a2 3C020000 		.4byte	0x23c
 1804 03a6 02       		.byte	0x2
 1805 03a7 23       		.byte	0x23
 1806 03a8 14       		.uleb128 0x14
 1807 03a9 06       		.uleb128 0x6
 1808 03aa 3A060000 		.4byte	.LASF76
 1809 03ae 05       		.byte	0x5
ARM GAS  /tmp/ccMlcuwN.s 			page 33


 1810 03af 5602     		.2byte	0x256
 1811 03b1 6D000000 		.4byte	0x6d
 1812 03b5 02       		.byte	0x2
 1813 03b6 23       		.byte	0x23
 1814 03b7 16       		.uleb128 0x16
 1815 03b8 06       		.uleb128 0x6
 1816 03b9 42020000 		.4byte	.LASF77
 1817 03bd 05       		.byte	0x5
 1818 03be 5702     		.2byte	0x257
 1819 03c0 3C020000 		.4byte	0x23c
 1820 03c4 02       		.byte	0x2
 1821 03c5 23       		.byte	0x23
 1822 03c6 18       		.uleb128 0x18
 1823 03c7 06       		.uleb128 0x6
 1824 03c8 44060000 		.4byte	.LASF78
 1825 03cc 05       		.byte	0x5
 1826 03cd 5802     		.2byte	0x258
 1827 03cf 6D000000 		.4byte	0x6d
 1828 03d3 02       		.byte	0x2
 1829 03d4 23       		.byte	0x23
 1830 03d5 1A       		.uleb128 0x1a
 1831 03d6 06       		.uleb128 0x6
 1832 03d7 48020000 		.4byte	.LASF79
 1833 03db 05       		.byte	0x5
 1834 03dc 5902     		.2byte	0x259
 1835 03de 3C020000 		.4byte	0x23c
 1836 03e2 02       		.byte	0x2
 1837 03e3 23       		.byte	0x23
 1838 03e4 1C       		.uleb128 0x1c
 1839 03e5 06       		.uleb128 0x6
 1840 03e6 65090000 		.4byte	.LASF80
 1841 03ea 05       		.byte	0x5
 1842 03eb 5A02     		.2byte	0x25a
 1843 03ed 6D000000 		.4byte	0x6d
 1844 03f1 02       		.byte	0x2
 1845 03f2 23       		.byte	0x23
 1846 03f3 1E       		.uleb128 0x1e
 1847 03f4 06       		.uleb128 0x6
 1848 03f5 5B030000 		.4byte	.LASF81
 1849 03f9 05       		.byte	0x5
 1850 03fa 5B02     		.2byte	0x25b
 1851 03fc 3C020000 		.4byte	0x23c
 1852 0400 02       		.byte	0x2
 1853 0401 23       		.byte	0x23
 1854 0402 20       		.uleb128 0x20
 1855 0403 06       		.uleb128 0x6
 1856 0404 58060000 		.4byte	.LASF82
 1857 0408 05       		.byte	0x5
 1858 0409 5C02     		.2byte	0x25c
 1859 040b 6D000000 		.4byte	0x6d
 1860 040f 02       		.byte	0x2
 1861 0410 23       		.byte	0x23
 1862 0411 22       		.uleb128 0x22
 1863 0412 07       		.uleb128 0x7
 1864 0413 434E5400 		.ascii	"CNT\000"
 1865 0417 05       		.byte	0x5
 1866 0418 5D02     		.2byte	0x25d
ARM GAS  /tmp/ccMlcuwN.s 			page 34


 1867 041a 15020000 		.4byte	0x215
 1868 041e 02       		.byte	0x2
 1869 041f 23       		.byte	0x23
 1870 0420 24       		.uleb128 0x24
 1871 0421 07       		.uleb128 0x7
 1872 0422 50534300 		.ascii	"PSC\000"
 1873 0426 05       		.byte	0x5
 1874 0427 5E02     		.2byte	0x25e
 1875 0429 3C020000 		.4byte	0x23c
 1876 042d 02       		.byte	0x2
 1877 042e 23       		.byte	0x23
 1878 042f 28       		.uleb128 0x28
 1879 0430 06       		.uleb128 0x6
 1880 0431 14080000 		.4byte	.LASF83
 1881 0435 05       		.byte	0x5
 1882 0436 5F02     		.2byte	0x25f
 1883 0438 6D000000 		.4byte	0x6d
 1884 043c 02       		.byte	0x2
 1885 043d 23       		.byte	0x23
 1886 043e 2A       		.uleb128 0x2a
 1887 043f 07       		.uleb128 0x7
 1888 0440 41525200 		.ascii	"ARR\000"
 1889 0444 05       		.byte	0x5
 1890 0445 6002     		.2byte	0x260
 1891 0447 15020000 		.4byte	0x215
 1892 044b 02       		.byte	0x2
 1893 044c 23       		.byte	0x23
 1894 044d 2C       		.uleb128 0x2c
 1895 044e 07       		.uleb128 0x7
 1896 044f 52435200 		.ascii	"RCR\000"
 1897 0453 05       		.byte	0x5
 1898 0454 6102     		.2byte	0x261
 1899 0456 3C020000 		.4byte	0x23c
 1900 045a 02       		.byte	0x2
 1901 045b 23       		.byte	0x23
 1902 045c 30       		.uleb128 0x30
 1903 045d 06       		.uleb128 0x6
 1904 045e 1F080000 		.4byte	.LASF84
 1905 0462 05       		.byte	0x5
 1906 0463 6202     		.2byte	0x262
 1907 0465 6D000000 		.4byte	0x6d
 1908 0469 02       		.byte	0x2
 1909 046a 23       		.byte	0x23
 1910 046b 32       		.uleb128 0x32
 1911 046c 06       		.uleb128 0x6
 1912 046d 2E020000 		.4byte	.LASF85
 1913 0471 05       		.byte	0x5
 1914 0472 6302     		.2byte	0x263
 1915 0474 15020000 		.4byte	0x215
 1916 0478 02       		.byte	0x2
 1917 0479 23       		.byte	0x23
 1918 047a 34       		.uleb128 0x34
 1919 047b 06       		.uleb128 0x6
 1920 047c 33020000 		.4byte	.LASF86
 1921 0480 05       		.byte	0x5
 1922 0481 6402     		.2byte	0x264
 1923 0483 15020000 		.4byte	0x215
ARM GAS  /tmp/ccMlcuwN.s 			page 35


 1924 0487 02       		.byte	0x2
 1925 0488 23       		.byte	0x23
 1926 0489 38       		.uleb128 0x38
 1927 048a 06       		.uleb128 0x6
 1928 048b 38020000 		.4byte	.LASF87
 1929 048f 05       		.byte	0x5
 1930 0490 6502     		.2byte	0x265
 1931 0492 15020000 		.4byte	0x215
 1932 0496 02       		.byte	0x2
 1933 0497 23       		.byte	0x23
 1934 0498 3C       		.uleb128 0x3c
 1935 0499 06       		.uleb128 0x6
 1936 049a 3D020000 		.4byte	.LASF88
 1937 049e 05       		.byte	0x5
 1938 049f 6602     		.2byte	0x266
 1939 04a1 15020000 		.4byte	0x215
 1940 04a5 02       		.byte	0x2
 1941 04a6 23       		.byte	0x23
 1942 04a7 40       		.uleb128 0x40
 1943 04a8 06       		.uleb128 0x6
 1944 04a9 F0010000 		.4byte	.LASF89
 1945 04ad 05       		.byte	0x5
 1946 04ae 6702     		.2byte	0x267
 1947 04b0 3C020000 		.4byte	0x23c
 1948 04b4 02       		.byte	0x2
 1949 04b5 23       		.byte	0x23
 1950 04b6 44       		.uleb128 0x44
 1951 04b7 06       		.uleb128 0x6
 1952 04b8 2A080000 		.4byte	.LASF90
 1953 04bc 05       		.byte	0x5
 1954 04bd 6802     		.2byte	0x268
 1955 04bf 6D000000 		.4byte	0x6d
 1956 04c3 02       		.byte	0x2
 1957 04c4 23       		.byte	0x23
 1958 04c5 46       		.uleb128 0x46
 1959 04c6 07       		.uleb128 0x7
 1960 04c7 44435200 		.ascii	"DCR\000"
 1961 04cb 05       		.byte	0x5
 1962 04cc 6902     		.2byte	0x269
 1963 04ce 3C020000 		.4byte	0x23c
 1964 04d2 02       		.byte	0x2
 1965 04d3 23       		.byte	0x23
 1966 04d4 48       		.uleb128 0x48
 1967 04d5 06       		.uleb128 0x6
 1968 04d6 35080000 		.4byte	.LASF91
 1969 04da 05       		.byte	0x5
 1970 04db 6A02     		.2byte	0x26a
 1971 04dd 6D000000 		.4byte	0x6d
 1972 04e1 02       		.byte	0x2
 1973 04e2 23       		.byte	0x23
 1974 04e3 4A       		.uleb128 0x4a
 1975 04e4 06       		.uleb128 0x6
 1976 04e5 8A060000 		.4byte	.LASF92
 1977 04e9 05       		.byte	0x5
 1978 04ea 6B02     		.2byte	0x26b
 1979 04ec 3C020000 		.4byte	0x23c
 1980 04f0 02       		.byte	0x2
ARM GAS  /tmp/ccMlcuwN.s 			page 36


 1981 04f1 23       		.byte	0x23
 1982 04f2 4C       		.uleb128 0x4c
 1983 04f3 06       		.uleb128 0x6
 1984 04f4 40080000 		.4byte	.LASF93
 1985 04f8 05       		.byte	0x5
 1986 04f9 6C02     		.2byte	0x26c
 1987 04fb 6D000000 		.4byte	0x6d
 1988 04ff 02       		.byte	0x2
 1989 0500 23       		.byte	0x23
 1990 0501 4E       		.uleb128 0x4e
 1991 0502 07       		.uleb128 0x7
 1992 0503 4F5200   		.ascii	"OR\000"
 1993 0506 05       		.byte	0x5
 1994 0507 6D02     		.2byte	0x26d
 1995 0509 3C020000 		.4byte	0x23c
 1996 050d 02       		.byte	0x2
 1997 050e 23       		.byte	0x23
 1998 050f 50       		.uleb128 0x50
 1999 0510 06       		.uleb128 0x6
 2000 0511 B9080000 		.4byte	.LASF94
 2001 0515 05       		.byte	0x5
 2002 0516 6E02     		.2byte	0x26e
 2003 0518 6D000000 		.4byte	0x6d
 2004 051c 02       		.byte	0x2
 2005 051d 23       		.byte	0x23
 2006 051e 52       		.uleb128 0x52
 2007 051f 00       		.byte	0
 2008 0520 0C       		.uleb128 0xc
 2009 0521 B4010000 		.4byte	.LASF95
 2010 0525 05       		.byte	0x5
 2011 0526 6F02     		.2byte	0x26f
 2012 0528 FC020000 		.4byte	0x2fc
 2013 052c 0E       		.uleb128 0xe
 2014 052d 0C       		.byte	0xc
 2015 052e 06       		.byte	0x6
 2016 052f 37       		.byte	0x37
 2017 0530 7B050000 		.4byte	0x57b
 2018 0534 0F       		.uleb128 0xf
 2019 0535 26000000 		.4byte	.LASF96
 2020 0539 06       		.byte	0x6
 2021 053a 39       		.byte	0x39
 2022 053b 6D000000 		.4byte	0x6d
 2023 053f 02       		.byte	0x2
 2024 0540 23       		.byte	0x23
 2025 0541 00       		.uleb128 0
 2026 0542 0F       		.uleb128 0xf
 2027 0543 05040000 		.4byte	.LASF97
 2028 0547 06       		.byte	0x6
 2029 0548 3C       		.byte	0x3c
 2030 0549 6D000000 		.4byte	0x6d
 2031 054d 02       		.byte	0x2
 2032 054e 23       		.byte	0x23
 2033 054f 02       		.uleb128 0x2
 2034 0550 0F       		.uleb128 0xf
 2035 0551 1E010000 		.4byte	.LASF98
 2036 0555 06       		.byte	0x6
 2037 0556 3F       		.byte	0x3f
ARM GAS  /tmp/ccMlcuwN.s 			page 37


 2038 0557 91000000 		.4byte	0x91
 2039 055b 02       		.byte	0x2
 2040 055c 23       		.byte	0x23
 2041 055d 04       		.uleb128 0x4
 2042 055e 0F       		.uleb128 0xf
 2043 055f 60030000 		.4byte	.LASF99
 2044 0563 06       		.byte	0x6
 2045 0564 43       		.byte	0x43
 2046 0565 6D000000 		.4byte	0x6d
 2047 0569 02       		.byte	0x2
 2048 056a 23       		.byte	0x23
 2049 056b 08       		.uleb128 0x8
 2050 056c 0F       		.uleb128 0xf
 2051 056d 23030000 		.4byte	.LASF100
 2052 0571 06       		.byte	0x6
 2053 0572 46       		.byte	0x46
 2054 0573 49000000 		.4byte	0x49
 2055 0577 02       		.byte	0x2
 2056 0578 23       		.byte	0x23
 2057 0579 0A       		.uleb128 0xa
 2058 057a 00       		.byte	0
 2059 057b 04       		.uleb128 0x4
 2060 057c 6B080000 		.4byte	.LASF101
 2061 0580 06       		.byte	0x6
 2062 0581 4E       		.byte	0x4e
 2063 0582 2C050000 		.4byte	0x52c
 2064 0586 0E       		.uleb128 0xe
 2065 0587 0A       		.byte	0xa
 2066 0588 06       		.byte	0x6
 2067 0589 78       		.byte	0x78
 2068 058a D5050000 		.4byte	0x5d5
 2069 058e 0F       		.uleb128 0xf
 2070 058f 2E090000 		.4byte	.LASF102
 2071 0593 06       		.byte	0x6
 2072 0594 7B       		.byte	0x7b
 2073 0595 6D000000 		.4byte	0x6d
 2074 0599 02       		.byte	0x2
 2075 059a 23       		.byte	0x23
 2076 059b 00       		.uleb128 0
 2077 059c 0F       		.uleb128 0xf
 2078 059d CF060000 		.4byte	.LASF103
 2079 05a1 06       		.byte	0x6
 2080 05a2 7E       		.byte	0x7e
 2081 05a3 6D000000 		.4byte	0x6d
 2082 05a7 02       		.byte	0x2
 2083 05a8 23       		.byte	0x23
 2084 05a9 02       		.uleb128 0x2
 2085 05aa 0F       		.uleb128 0xf
 2086 05ab C1050000 		.4byte	.LASF104
 2087 05af 06       		.byte	0x6
 2088 05b0 81       		.byte	0x81
 2089 05b1 6D000000 		.4byte	0x6d
 2090 05b5 02       		.byte	0x2
 2091 05b6 23       		.byte	0x23
 2092 05b7 04       		.uleb128 0x4
 2093 05b8 0F       		.uleb128 0xf
 2094 05b9 DA020000 		.4byte	.LASF105
ARM GAS  /tmp/ccMlcuwN.s 			page 38


 2095 05bd 06       		.byte	0x6
 2096 05be 84       		.byte	0x84
 2097 05bf 6D000000 		.4byte	0x6d
 2098 05c3 02       		.byte	0x2
 2099 05c4 23       		.byte	0x23
 2100 05c5 06       		.uleb128 0x6
 2101 05c6 0F       		.uleb128 0xf
 2102 05c7 89020000 		.4byte	.LASF106
 2103 05cb 06       		.byte	0x6
 2104 05cc 87       		.byte	0x87
 2105 05cd 6D000000 		.4byte	0x6d
 2106 05d1 02       		.byte	0x2
 2107 05d2 23       		.byte	0x23
 2108 05d3 08       		.uleb128 0x8
 2109 05d4 00       		.byte	0
 2110 05d5 04       		.uleb128 0x4
 2111 05d6 9E000000 		.4byte	.LASF107
 2112 05da 06       		.byte	0x6
 2113 05db 89       		.byte	0x89
 2114 05dc 86050000 		.4byte	0x586
 2115 05e0 0E       		.uleb128 0xe
 2116 05e1 03       		.byte	0x3
 2117 05e2 07       		.byte	0x7
 2118 05e3 36       		.byte	0x36
 2119 05e4 13060000 		.4byte	0x613
 2120 05e8 0F       		.uleb128 0xf
 2121 05e9 44050000 		.4byte	.LASF108
 2122 05ed 07       		.byte	0x7
 2123 05ee 38       		.byte	0x38
 2124 05ef 49000000 		.4byte	0x49
 2125 05f3 02       		.byte	0x2
 2126 05f4 23       		.byte	0x23
 2127 05f5 00       		.uleb128 0
 2128 05f6 0F       		.uleb128 0xf
 2129 05f7 25050000 		.4byte	.LASF109
 2130 05fb 07       		.byte	0x7
 2131 05fc 3D       		.byte	0x3d
 2132 05fd 49000000 		.4byte	0x49
 2133 0601 02       		.byte	0x2
 2134 0602 23       		.byte	0x23
 2135 0603 01       		.uleb128 0x1
 2136 0604 0F       		.uleb128 0xf
 2137 0605 F4020000 		.4byte	.LASF110
 2138 0609 07       		.byte	0x7
 2139 060a 41       		.byte	0x41
 2140 060b 30020000 		.4byte	0x230
 2141 060f 02       		.byte	0x2
 2142 0610 23       		.byte	0x23
 2143 0611 02       		.uleb128 0x2
 2144 0612 00       		.byte	0
 2145 0613 04       		.uleb128 0x4
 2146 0614 1D020000 		.4byte	.LASF111
 2147 0618 07       		.byte	0x7
 2148 0619 44       		.byte	0x44
 2149 061a E0050000 		.4byte	0x5e0
 2150 061e 04       		.uleb128 0x4
 2151 061f 8B000000 		.4byte	.LASF112
ARM GAS  /tmp/ccMlcuwN.s 			page 39


 2152 0623 08       		.byte	0x8
 2153 0624 77       		.byte	0x77
 2154 0625 6D000000 		.4byte	0x6d
 2155 0629 04       		.uleb128 0x4
 2156 062a 4E000000 		.4byte	.LASF113
 2157 062e 08       		.byte	0x8
 2158 062f 7D       		.byte	0x7d
 2159 0630 34060000 		.4byte	0x634
 2160 0634 10       		.uleb128 0x10
 2161 0635 04       		.byte	0x4
 2162 0636 11       		.uleb128 0x11
 2163 0637 56080000 		.4byte	.LASF115
 2164 063b 24       		.byte	0x24
 2165 063c 09       		.byte	0x9
 2166 063d A4       		.byte	0xa4
 2167 063e BA060000 		.4byte	0x6ba
 2168 0642 12       		.uleb128 0x12
 2169 0643 723800   		.ascii	"r8\000"
 2170 0646 09       		.byte	0x9
 2171 0647 A5       		.byte	0xa5
 2172 0648 29060000 		.4byte	0x629
 2173 064c 02       		.byte	0x2
 2174 064d 23       		.byte	0x23
 2175 064e 00       		.uleb128 0
 2176 064f 12       		.uleb128 0x12
 2177 0650 723900   		.ascii	"r9\000"
 2178 0653 09       		.byte	0x9
 2179 0654 A6       		.byte	0xa6
 2180 0655 29060000 		.4byte	0x629
 2181 0659 02       		.byte	0x2
 2182 065a 23       		.byte	0x23
 2183 065b 04       		.uleb128 0x4
 2184 065c 12       		.uleb128 0x12
 2185 065d 72313000 		.ascii	"r10\000"
 2186 0661 09       		.byte	0x9
 2187 0662 A7       		.byte	0xa7
 2188 0663 29060000 		.4byte	0x629
 2189 0667 02       		.byte	0x2
 2190 0668 23       		.byte	0x23
 2191 0669 08       		.uleb128 0x8
 2192 066a 12       		.uleb128 0x12
 2193 066b 72313100 		.ascii	"r11\000"
 2194 066f 09       		.byte	0x9
 2195 0670 A8       		.byte	0xa8
 2196 0671 29060000 		.4byte	0x629
 2197 0675 02       		.byte	0x2
 2198 0676 23       		.byte	0x23
 2199 0677 0C       		.uleb128 0xc
 2200 0678 12       		.uleb128 0x12
 2201 0679 723400   		.ascii	"r4\000"
 2202 067c 09       		.byte	0x9
 2203 067d A9       		.byte	0xa9
 2204 067e 29060000 		.4byte	0x629
 2205 0682 02       		.byte	0x2
 2206 0683 23       		.byte	0x23
 2207 0684 10       		.uleb128 0x10
 2208 0685 12       		.uleb128 0x12
ARM GAS  /tmp/ccMlcuwN.s 			page 40


 2209 0686 723500   		.ascii	"r5\000"
 2210 0689 09       		.byte	0x9
 2211 068a AA       		.byte	0xaa
 2212 068b 29060000 		.4byte	0x629
 2213 068f 02       		.byte	0x2
 2214 0690 23       		.byte	0x23
 2215 0691 14       		.uleb128 0x14
 2216 0692 12       		.uleb128 0x12
 2217 0693 723600   		.ascii	"r6\000"
 2218 0696 09       		.byte	0x9
 2219 0697 AB       		.byte	0xab
 2220 0698 29060000 		.4byte	0x629
 2221 069c 02       		.byte	0x2
 2222 069d 23       		.byte	0x23
 2223 069e 18       		.uleb128 0x18
 2224 069f 12       		.uleb128 0x12
 2225 06a0 723700   		.ascii	"r7\000"
 2226 06a3 09       		.byte	0x9
 2227 06a4 AC       		.byte	0xac
 2228 06a5 29060000 		.4byte	0x629
 2229 06a9 02       		.byte	0x2
 2230 06aa 23       		.byte	0x23
 2231 06ab 1C       		.uleb128 0x1c
 2232 06ac 12       		.uleb128 0x12
 2233 06ad 6C7200   		.ascii	"lr\000"
 2234 06b0 09       		.byte	0x9
 2235 06b1 AD       		.byte	0xad
 2236 06b2 29060000 		.4byte	0x629
 2237 06b6 02       		.byte	0x2
 2238 06b7 23       		.byte	0x23
 2239 06b8 20       		.uleb128 0x20
 2240 06b9 00       		.byte	0
 2241 06ba 04       		.uleb128 0x4
 2242 06bb C0040000 		.4byte	.LASF116
 2243 06bf 03       		.byte	0x3
 2244 06c0 F3       		.byte	0xf3
 2245 06c1 36060000 		.4byte	0x636
 2246 06c5 0E       		.uleb128 0xe
 2247 06c6 04       		.byte	0x4
 2248 06c7 03       		.byte	0x3
 2249 06c8 F8       		.byte	0xf8
 2250 06c9 DC060000 		.4byte	0x6dc
 2251 06cd 12       		.uleb128 0x12
 2252 06ce 636E7400 		.ascii	"cnt\000"
 2253 06d2 03       		.byte	0x3
 2254 06d3 F9       		.byte	0xf9
 2255 06d4 DC060000 		.4byte	0x6dc
 2256 06d8 02       		.byte	0x2
 2257 06d9 23       		.byte	0x23
 2258 06da 00       		.uleb128 0
 2259 06db 00       		.byte	0
 2260 06dc 0A       		.uleb128 0xa
 2261 06dd 2A010000 		.4byte	0x12a
 2262 06e1 04       		.uleb128 0x4
 2263 06e2 7D020000 		.4byte	.LASF117
 2264 06e6 03       		.byte	0x3
 2265 06e7 FA       		.byte	0xfa
ARM GAS  /tmp/ccMlcuwN.s 			page 41


 2266 06e8 C5060000 		.4byte	0x6c5
 2267 06ec 13       		.uleb128 0x13
 2268 06ed 04       		.byte	0x4
 2269 06ee F2060000 		.4byte	0x6f2
 2270 06f2 14       		.uleb128 0x14
 2271 06f3 F7060000 		.4byte	0x6f7
 2272 06f7 03       		.uleb128 0x3
 2273 06f8 01       		.byte	0x1
 2274 06f9 08       		.byte	0x8
 2275 06fa 72030000 		.4byte	.LASF118
 2276 06fe 0C       		.uleb128 0xc
 2277 06ff C7030000 		.4byte	.LASF119
 2278 0703 03       		.byte	0x3
 2279 0704 1901     		.2byte	0x119
 2280 0706 0A070000 		.4byte	0x70a
 2281 070a 13       		.uleb128 0x13
 2282 070b 04       		.byte	0x4
 2283 070c B1000000 		.4byte	0xb1
 2284 0710 15       		.uleb128 0x15
 2285 0711 04       		.byte	0x4
 2286 0712 03       		.byte	0x3
 2287 0713 2301     		.2byte	0x123
 2288 0715 54070000 		.4byte	0x754
 2289 0719 16       		.uleb128 0x16
 2290 071a 6D736700 		.ascii	"msg\000"
 2291 071e 03       		.byte	0x3
 2292 071f 2401     		.2byte	0x124
 2293 0721 14010000 		.4byte	0x114
 2294 0725 16       		.uleb128 0x16
 2295 0726 7000     		.ascii	"p\000"
 2296 0728 03       		.byte	0x3
 2297 0729 2501     		.2byte	0x125
 2298 072b 34060000 		.4byte	0x634
 2299 072f 16       		.uleb128 0x16
 2300 0730 74727000 		.ascii	"trp\000"
 2301 0734 03       		.byte	0x3
 2302 0735 2601     		.2byte	0x126
 2303 0737 54070000 		.4byte	0x754
 2304 073b 17       		.uleb128 0x17
 2305 073c 43010000 		.4byte	.LASF120
 2306 0740 03       		.byte	0x3
 2307 0741 2701     		.2byte	0x127
 2308 0743 5A070000 		.4byte	0x75a
 2309 0747 17       		.uleb128 0x17
 2310 0748 4F010000 		.4byte	.LASF121
 2311 074c 03       		.byte	0x3
 2312 074d 2901     		.2byte	0x129
 2313 074f 1F010000 		.4byte	0x11f
 2314 0753 00       		.byte	0
 2315 0754 13       		.uleb128 0x13
 2316 0755 04       		.byte	0x4
 2317 0756 FE060000 		.4byte	0x6fe
 2318 075a 13       		.uleb128 0x13
 2319 075b 04       		.byte	0x4
 2320 075c E1060000 		.4byte	0x6e1
 2321 0760 13       		.uleb128 0x13
 2322 0761 04       		.byte	0x4
ARM GAS  /tmp/ccMlcuwN.s 			page 42


 2323 0762 BA060000 		.4byte	0x6ba
 2324 0766 0A       		.uleb128 0xa
 2325 0767 1E060000 		.4byte	0x61e
 2326 076b 0D       		.uleb128 0xd
 2327 076c 98       		.byte	0x98
 2328 076d 03       		.byte	0x3
 2329 076e 3D01     		.2byte	0x13d
 2330 0770 B1070000 		.4byte	0x7b1
 2331 0774 06       		.uleb128 0x6
 2332 0775 0B070000 		.4byte	.LASF122
 2333 0779 03       		.byte	0x3
 2334 077a 4101     		.2byte	0x141
 2335 077c 0A070000 		.4byte	0x70a
 2336 0780 02       		.byte	0x2
 2337 0781 23       		.byte	0x23
 2338 0782 00       		.uleb128 0
 2339 0783 06       		.uleb128 0x6
 2340 0784 D4000000 		.4byte	.LASF123
 2341 0788 03       		.byte	0x3
 2342 0789 4701     		.2byte	0x147
 2343 078b 0A070000 		.4byte	0x70a
 2344 078f 02       		.byte	0x2
 2345 0790 23       		.byte	0x23
 2346 0791 04       		.uleb128 0x4
 2347 0792 06       		.uleb128 0x6
 2348 0793 AF050000 		.4byte	.LASF124
 2349 0797 03       		.byte	0x3
 2350 0798 4C01     		.2byte	0x14c
 2351 079a 1E060000 		.4byte	0x61e
 2352 079e 02       		.byte	0x2
 2353 079f 23       		.byte	0x23
 2354 07a0 08       		.uleb128 0x8
 2355 07a1 06       		.uleb128 0x6
 2356 07a2 5F070000 		.4byte	.LASF125
 2357 07a6 03       		.byte	0x3
 2358 07a7 5B01     		.2byte	0x15b
 2359 07a9 B1070000 		.4byte	0x7b1
 2360 07ad 02       		.byte	0x2
 2361 07ae 23       		.byte	0x23
 2362 07af 0C       		.uleb128 0xc
 2363 07b0 00       		.byte	0
 2364 07b1 18       		.uleb128 0x18
 2365 07b2 B1000000 		.4byte	0xb1
 2366 07b6 C1070000 		.4byte	0x7c1
 2367 07ba 19       		.uleb128 0x19
 2368 07bb 0E020000 		.4byte	0x20e
 2369 07bf 06       		.byte	0x6
 2370 07c0 00       		.byte	0
 2371 07c1 0C       		.uleb128 0xc
 2372 07c2 FE060000 		.4byte	.LASF126
 2373 07c6 03       		.byte	0x3
 2374 07c7 6401     		.2byte	0x164
 2375 07c9 6B070000 		.4byte	0x76b
 2376 07cd 14       		.uleb128 0x14
 2377 07ce 49000000 		.4byte	0x49
 2378 07d2 13       		.uleb128 0x13
 2379 07d3 04       		.byte	0x4
ARM GAS  /tmp/ccMlcuwN.s 			page 43


 2380 07d4 49000000 		.4byte	0x49
 2381 07d8 03       		.uleb128 0x3
 2382 07d9 01       		.byte	0x1
 2383 07da 02       		.byte	0x2
 2384 07db D4020000 		.4byte	.LASF127
 2385 07df 0E       		.uleb128 0xe
 2386 07e0 24       		.byte	0x24
 2387 07e1 0A       		.byte	0xa
 2388 07e2 65       		.byte	0x65
 2389 07e3 82080000 		.4byte	0x882
 2390 07e7 0F       		.uleb128 0xf
 2391 07e8 72050000 		.4byte	.LASF128
 2392 07ec 0A       		.byte	0xa
 2393 07ed 66       		.byte	0x66
 2394 07ee 49000000 		.4byte	0x49
 2395 07f2 02       		.byte	0x2
 2396 07f3 23       		.byte	0x23
 2397 07f4 00       		.uleb128 0
 2398 07f5 0F       		.uleb128 0xf
 2399 07f6 3A010000 		.4byte	.LASF129
 2400 07fa 0A       		.byte	0xa
 2401 07fb 67       		.byte	0x67
 2402 07fc 49000000 		.4byte	0x49
 2403 0800 02       		.byte	0x2
 2404 0801 23       		.byte	0x23
 2405 0802 01       		.uleb128 0x1
 2406 0803 0F       		.uleb128 0xf
 2407 0804 15000000 		.4byte	.LASF130
 2408 0808 0A       		.byte	0xa
 2409 0809 68       		.byte	0x68
 2410 080a 6D000000 		.4byte	0x6d
 2411 080e 02       		.byte	0x2
 2412 080f 23       		.byte	0x23
 2413 0810 02       		.uleb128 0x2
 2414 0811 0F       		.uleb128 0xf
 2415 0812 54050000 		.4byte	.LASF131
 2416 0816 0A       		.byte	0xa
 2417 0817 69       		.byte	0x69
 2418 0818 6D000000 		.4byte	0x6d
 2419 081c 02       		.byte	0x2
 2420 081d 23       		.byte	0x23
 2421 081e 04       		.uleb128 0x4
 2422 081f 0F       		.uleb128 0xf
 2423 0820 AD080000 		.4byte	.LASF132
 2424 0824 0A       		.byte	0xa
 2425 0825 6A       		.byte	0x6a
 2426 0826 49000000 		.4byte	0x49
 2427 082a 02       		.byte	0x2
 2428 082b 23       		.byte	0x23
 2429 082c 06       		.uleb128 0x6
 2430 082d 0F       		.uleb128 0xf
 2431 082e 29010000 		.4byte	.LASF133
 2432 0832 0A       		.byte	0xa
 2433 0833 6B       		.byte	0x6b
 2434 0834 49000000 		.4byte	0x49
 2435 0838 02       		.byte	0x2
 2436 0839 23       		.byte	0x23
ARM GAS  /tmp/ccMlcuwN.s 			page 44


 2437 083a 07       		.uleb128 0x7
 2438 083b 0F       		.uleb128 0xf
 2439 083c 13050000 		.4byte	.LASF134
 2440 0840 0A       		.byte	0xa
 2441 0841 6C       		.byte	0x6c
 2442 0842 6D000000 		.4byte	0x6d
 2443 0846 02       		.byte	0x2
 2444 0847 23       		.byte	0x23
 2445 0848 08       		.uleb128 0x8
 2446 0849 0F       		.uleb128 0xf
 2447 084a 51090000 		.4byte	.LASF135
 2448 084e 0A       		.byte	0xa
 2449 084f 6D       		.byte	0x6d
 2450 0850 6D000000 		.4byte	0x6d
 2451 0854 02       		.byte	0x2
 2452 0855 23       		.byte	0x23
 2453 0856 0A       		.uleb128 0xa
 2454 0857 0F       		.uleb128 0xf
 2455 0858 42000000 		.4byte	.LASF136
 2456 085c 0A       		.byte	0xa
 2457 085d 6E       		.byte	0x6e
 2458 085e 82080000 		.4byte	0x882
 2459 0862 02       		.byte	0x2
 2460 0863 23       		.byte	0x23
 2461 0864 0C       		.uleb128 0xc
 2462 0865 0F       		.uleb128 0xf
 2463 0866 14030000 		.4byte	.LASF137
 2464 086a 0A       		.byte	0xa
 2465 086b 6F       		.byte	0x6f
 2466 086c 92080000 		.4byte	0x892
 2467 0870 02       		.byte	0x2
 2468 0871 23       		.byte	0x23
 2469 0872 18       		.uleb128 0x18
 2470 0873 0F       		.uleb128 0xf
 2471 0874 D1050000 		.4byte	.LASF138
 2472 0878 0A       		.byte	0xa
 2473 0879 70       		.byte	0x70
 2474 087a A2080000 		.4byte	0x8a2
 2475 087e 02       		.byte	0x2
 2476 087f 23       		.byte	0x23
 2477 0880 1D       		.uleb128 0x1d
 2478 0881 00       		.byte	0
 2479 0882 18       		.uleb128 0x18
 2480 0883 6D000000 		.4byte	0x6d
 2481 0887 92080000 		.4byte	0x892
 2482 088b 19       		.uleb128 0x19
 2483 088c 0E020000 		.4byte	0x20e
 2484 0890 05       		.byte	0x5
 2485 0891 00       		.byte	0
 2486 0892 18       		.uleb128 0x18
 2487 0893 49000000 		.4byte	0x49
 2488 0897 A2080000 		.4byte	0x8a2
 2489 089b 19       		.uleb128 0x19
 2490 089c 0E020000 		.4byte	0x20e
 2491 08a0 04       		.byte	0x4
 2492 08a1 00       		.byte	0
 2493 08a2 18       		.uleb128 0x18
ARM GAS  /tmp/ccMlcuwN.s 			page 45


 2494 08a3 49000000 		.4byte	0x49
 2495 08a7 B2080000 		.4byte	0x8b2
 2496 08ab 19       		.uleb128 0x19
 2497 08ac 0E020000 		.4byte	0x20e
 2498 08b0 05       		.byte	0x5
 2499 08b1 00       		.byte	0
 2500 08b2 11       		.uleb128 0x11
 2501 08b3 96020000 		.4byte	.LASF139
 2502 08b7 28       		.byte	0x28
 2503 08b8 0A       		.byte	0xa
 2504 08b9 63       		.byte	0x63
 2505 08ba DB080000 		.4byte	0x8db
 2506 08be 0F       		.uleb128 0xf
 2507 08bf 00040000 		.4byte	.LASF140
 2508 08c3 0A       		.byte	0xa
 2509 08c4 71       		.byte	0x71
 2510 08c5 DF070000 		.4byte	0x7df
 2511 08c9 02       		.byte	0x2
 2512 08ca 23       		.byte	0x23
 2513 08cb 00       		.uleb128 0
 2514 08cc 0F       		.uleb128 0xf
 2515 08cd FF050000 		.4byte	.LASF141
 2516 08d1 0A       		.byte	0xa
 2517 08d2 72       		.byte	0x72
 2518 08d3 91000000 		.4byte	0x91
 2519 08d7 02       		.byte	0x2
 2520 08d8 23       		.byte	0x23
 2521 08d9 24       		.uleb128 0x24
 2522 08da 00       		.byte	0
 2523 08db 04       		.uleb128 0x4
 2524 08dc 23090000 		.4byte	.LASF142
 2525 08e0 0A       		.byte	0xa
 2526 08e1 74       		.byte	0x74
 2527 08e2 B2080000 		.4byte	0x8b2
 2528 08e6 11       		.uleb128 0x11
 2529 08e7 BE000000 		.4byte	.LASF143
 2530 08eb 06       		.byte	0x6
 2531 08ec 0A       		.byte	0xa
 2532 08ed 81       		.byte	0x81
 2533 08ee 31090000 		.4byte	0x931
 2534 08f2 1A       		.uleb128 0x1a
 2535 08f3 95000000 		.4byte	.LASF144
 2536 08f7 0A       		.byte	0xa
 2537 08f8 82       		.byte	0x82
 2538 08f9 49000000 		.4byte	0x49
 2539 08fd 01       		.byte	0x1
 2540 08fe 01       		.byte	0x1
 2541 08ff 07       		.byte	0x7
 2542 0900 02       		.byte	0x2
 2543 0901 23       		.byte	0x23
 2544 0902 00       		.uleb128 0
 2545 0903 1A       		.uleb128 0x1a
 2546 0904 AC040000 		.4byte	.LASF145
 2547 0908 0A       		.byte	0xa
 2548 0909 83       		.byte	0x83
 2549 090a 49000000 		.4byte	0x49
 2550 090e 01       		.byte	0x1
ARM GAS  /tmp/ccMlcuwN.s 			page 46


 2551 090f 01       		.byte	0x1
 2552 0910 06       		.byte	0x6
 2553 0911 02       		.byte	0x2
 2554 0912 23       		.byte	0x23
 2555 0913 00       		.uleb128 0
 2556 0914 0F       		.uleb128 0xf
 2557 0915 EA040000 		.4byte	.LASF146
 2558 0919 0A       		.byte	0xa
 2559 091a 84       		.byte	0x84
 2560 091b 5B000000 		.4byte	0x5b
 2561 091f 02       		.byte	0x2
 2562 0920 23       		.byte	0x23
 2563 0921 02       		.uleb128 0x2
 2564 0922 0F       		.uleb128 0xf
 2565 0923 C0010000 		.4byte	.LASF147
 2566 0927 0A       		.byte	0xa
 2567 0928 85       		.byte	0x85
 2568 0929 49000000 		.4byte	0x49
 2569 092d 02       		.byte	0x2
 2570 092e 23       		.byte	0x23
 2571 092f 04       		.uleb128 0x4
 2572 0930 00       		.byte	0
 2573 0931 04       		.uleb128 0x4
 2574 0932 86050000 		.4byte	.LASF148
 2575 0936 0A       		.byte	0xa
 2576 0937 87       		.byte	0x87
 2577 0938 E6080000 		.4byte	0x8e6
 2578 093c 11       		.uleb128 0x11
 2579 093d EC050000 		.4byte	.LASF149
 2580 0941 0A       		.byte	0xa
 2581 0942 0A       		.byte	0xa
 2582 0943 C9       		.byte	0xc9
 2583 0944 8F090000 		.4byte	0x98f
 2584 0948 12       		.uleb128 0x12
 2585 0949 72706D00 		.ascii	"rpm\000"
 2586 094d 0A       		.byte	0xa
 2587 094e CA       		.byte	0xca
 2588 094f 6D000000 		.4byte	0x6d
 2589 0953 02       		.byte	0x2
 2590 0954 23       		.byte	0x23
 2591 0955 00       		.uleb128 0
 2592 0956 0F       		.uleb128 0xf
 2593 0957 81010000 		.4byte	.LASF150
 2594 095b 0A       		.byte	0xa
 2595 095c CB       		.byte	0xcb
 2596 095d 6D000000 		.4byte	0x6d
 2597 0961 02       		.byte	0x2
 2598 0962 23       		.byte	0x23
 2599 0963 02       		.uleb128 0x2
 2600 0964 0F       		.uleb128 0xf
 2601 0965 8F050000 		.4byte	.LASF151
 2602 0969 0A       		.byte	0xa
 2603 096a CC       		.byte	0xcc
 2604 096b 6D000000 		.4byte	0x6d
 2605 096f 02       		.byte	0x2
 2606 0970 23       		.byte	0x23
 2607 0971 04       		.uleb128 0x4
ARM GAS  /tmp/ccMlcuwN.s 			page 47


 2608 0972 0F       		.uleb128 0xf
 2609 0973 9C050000 		.4byte	.LASF152
 2610 0977 0A       		.byte	0xa
 2611 0978 CD       		.byte	0xcd
 2612 0979 6D000000 		.4byte	0x6d
 2613 097d 02       		.byte	0x2
 2614 097e 23       		.byte	0x23
 2615 097f 06       		.uleb128 0x6
 2616 0980 0F       		.uleb128 0xf
 2617 0981 51080000 		.4byte	.LASF153
 2618 0985 0A       		.byte	0xa
 2619 0986 CE       		.byte	0xce
 2620 0987 6D000000 		.4byte	0x6d
 2621 098b 02       		.byte	0x2
 2622 098c 23       		.byte	0x23
 2623 098d 08       		.uleb128 0x8
 2624 098e 00       		.byte	0
 2625 098f 04       		.uleb128 0x4
 2626 0990 07020000 		.4byte	.LASF154
 2627 0994 0A       		.byte	0xa
 2628 0995 D0       		.byte	0xd0
 2629 0996 3C090000 		.4byte	0x93c
 2630 099a 0E       		.uleb128 0xe
 2631 099b 06       		.byte	0x6
 2632 099c 01       		.byte	0x1
 2633 099d 57       		.byte	0x57
 2634 099e C7090000 		.4byte	0x9c7
 2635 09a2 12       		.uleb128 0x12
 2636 09a3 7800     		.ascii	"x\000"
 2637 09a5 01       		.byte	0x1
 2638 09a6 58       		.byte	0x58
 2639 09a7 5B000000 		.4byte	0x5b
 2640 09ab 02       		.byte	0x2
 2641 09ac 23       		.byte	0x23
 2642 09ad 00       		.uleb128 0
 2643 09ae 12       		.uleb128 0x12
 2644 09af 7900     		.ascii	"y\000"
 2645 09b1 01       		.byte	0x1
 2646 09b2 59       		.byte	0x59
 2647 09b3 5B000000 		.4byte	0x5b
 2648 09b7 02       		.byte	0x2
 2649 09b8 23       		.byte	0x23
 2650 09b9 02       		.uleb128 0x2
 2651 09ba 12       		.uleb128 0x12
 2652 09bb 7A00     		.ascii	"z\000"
 2653 09bd 01       		.byte	0x1
 2654 09be 5A       		.byte	0x5a
 2655 09bf 5B000000 		.4byte	0x5b
 2656 09c3 02       		.byte	0x2
 2657 09c4 23       		.byte	0x23
 2658 09c5 04       		.uleb128 0x4
 2659 09c6 00       		.byte	0
 2660 09c7 1B       		.uleb128 0x1b
 2661 09c8 01       		.byte	0x1
 2662 09c9 A3060000 		.4byte	.LASF208
 2663 09cd 01       		.byte	0x1
 2664 09ce CB       		.byte	0xcb
ARM GAS  /tmp/ccMlcuwN.s 			page 48


 2665 09cf 01       		.byte	0x1
 2666 09d0 00000000 		.4byte	.LFB78
 2667 09d4 24000000 		.4byte	.LFE78
 2668 09d8 02       		.byte	0x2
 2669 09d9 7D       		.byte	0x7d
 2670 09da 00       		.sleb128 0
 2671 09db 01       		.byte	0x1
 2672 09dc 1C       		.uleb128 0x1c
 2673 09dd 01       		.byte	0x1
 2674 09de 6F070000 		.4byte	.LASF156
 2675 09e2 01       		.byte	0x1
 2676 09e3 D5       		.byte	0xd5
 2677 09e4 01       		.byte	0x1
 2678 09e5 49000000 		.4byte	0x49
 2679 09e9 00000000 		.4byte	.LFB79
 2680 09ed 34000000 		.4byte	.LFE79
 2681 09f1 00000000 		.4byte	.LLST0
 2682 09f5 01       		.byte	0x1
 2683 09f6 1E0A0000 		.4byte	0xa1e
 2684 09fa 1D       		.uleb128 0x1d
 2685 09fb 6900     		.ascii	"i\000"
 2686 09fd 01       		.byte	0x1
 2687 09fe D7       		.byte	0xd7
 2688 09ff 49000000 		.4byte	0x49
 2689 0a03 20000000 		.4byte	.LLST1
 2690 0a07 1E       		.uleb128 0x1e
 2691 0a08 E9000000 		.4byte	.LASF155
 2692 0a0c 01       		.byte	0x1
 2693 0a0d D8       		.byte	0xd8
 2694 0a0e 6D000000 		.4byte	0x6d
 2695 0a12 1E       		.uleb128 0x1e
 2696 0a13 81010000 		.4byte	.LASF150
 2697 0a17 01       		.byte	0x1
 2698 0a18 D9       		.byte	0xd9
 2699 0a19 91000000 		.4byte	0x91
 2700 0a1d 00       		.byte	0
 2701 0a1e 1F       		.uleb128 0x1f
 2702 0a1f 01       		.byte	0x1
 2703 0a20 FC040000 		.4byte	.LASF157
 2704 0a24 01       		.byte	0x1
 2705 0a25 E9       		.byte	0xe9
 2706 0a26 01       		.byte	0x1
 2707 0a27 49000000 		.4byte	0x49
 2708 0a2b 00000000 		.4byte	.LFB80
 2709 0a2f 14000000 		.4byte	.LFE80
 2710 0a33 34000000 		.4byte	.LLST2
 2711 0a37 01       		.byte	0x1
 2712 0a38 550A0000 		.4byte	0xa55
 2713 0a3c 20       		.uleb128 0x20
 2714 0a3d A7040000 		.4byte	.LASF158
 2715 0a41 01       		.byte	0x1
 2716 0a42 EB       		.byte	0xeb
 2717 0a43 CD070000 		.4byte	0x7cd
 2718 0a47 54000000 		.4byte	.LLST3
 2719 0a4b 21       		.uleb128 0x21
 2720 0a4c 06000000 		.4byte	.LVL4
 2721 0a50 DC090000 		.4byte	0x9dc
ARM GAS  /tmp/ccMlcuwN.s 			page 49


 2722 0a54 00       		.byte	0
 2723 0a55 1F       		.uleb128 0x1f
 2724 0a56 01       		.byte	0x1
 2725 0a57 B5040000 		.4byte	.LASF159
 2726 0a5b 01       		.byte	0x1
 2727 0a5c F0       		.byte	0xf0
 2728 0a5d 01       		.byte	0x1
 2729 0a5e 49000000 		.4byte	0x49
 2730 0a62 00000000 		.4byte	.LFB81
 2731 0a66 28000000 		.4byte	.LFE81
 2732 0a6a 67000000 		.4byte	.LLST4
 2733 0a6e 01       		.byte	0x1
 2734 0a6f B50A0000 		.4byte	0xab5
 2735 0a73 22       		.uleb128 0x22
 2736 0a74 55040000 		.4byte	.LASF209
 2737 0a78 01       		.byte	0x1
 2738 0a79 F0       		.byte	0xf0
 2739 0a7a 49000000 		.4byte	0x49
 2740 0a7e 87000000 		.4byte	.LLST5
 2741 0a82 23       		.uleb128 0x23
 2742 0a83 7D070000 		.4byte	.LASF160
 2743 0a87 01       		.byte	0x1
 2744 0a88 F2       		.byte	0xf2
 2745 0a89 B50A0000 		.4byte	0xab5
 2746 0a8d 02       		.byte	0x2
 2747 0a8e 91       		.byte	0x91
 2748 0a8f 74       		.sleb128 -12
 2749 0a90 24       		.uleb128 0x24
 2750 0a91 1C000000 		.4byte	.LVL8
 2751 0a95 9C100000 		.4byte	0x109c
 2752 0a99 25       		.uleb128 0x25
 2753 0a9a 01       		.byte	0x1
 2754 0a9b 53       		.byte	0x53
 2755 0a9c 01       		.byte	0x1
 2756 0a9d 32       		.byte	0x32
 2757 0a9e 25       		.uleb128 0x25
 2758 0a9f 01       		.byte	0x1
 2759 0aa0 52       		.byte	0x52
 2760 0aa1 02       		.byte	0x2
 2761 0aa2 91       		.byte	0x91
 2762 0aa3 74       		.sleb128 -12
 2763 0aa4 25       		.uleb128 0x25
 2764 0aa5 01       		.byte	0x1
 2765 0aa6 51       		.byte	0x51
 2766 0aa7 02       		.byte	0x2
 2767 0aa8 08       		.byte	0x8
 2768 0aa9 2E       		.byte	0x2e
 2769 0aaa 25       		.uleb128 0x25
 2770 0aab 01       		.byte	0x1
 2771 0aac 50       		.byte	0x50
 2772 0aad 05       		.byte	0x5
 2773 0aae 0C       		.byte	0xc
 2774 0aaf 00540040 		.4byte	0x40005400
 2775 0ab3 00       		.byte	0
 2776 0ab4 00       		.byte	0
 2777 0ab5 18       		.uleb128 0x18
 2778 0ab6 49000000 		.4byte	0x49
ARM GAS  /tmp/ccMlcuwN.s 			page 50


 2779 0aba C50A0000 		.4byte	0xac5
 2780 0abe 19       		.uleb128 0x19
 2781 0abf 0E020000 		.4byte	0x20e
 2782 0ac3 01       		.byte	0x1
 2783 0ac4 00       		.byte	0
 2784 0ac5 26       		.uleb128 0x26
 2785 0ac6 01       		.byte	0x1
 2786 0ac7 77030000 		.4byte	.LASF162
 2787 0acb 01       		.byte	0x1
 2788 0acc 0801     		.2byte	0x108
 2789 0ace 01       		.byte	0x1
 2790 0acf 00000000 		.4byte	.LFB82
 2791 0ad3 64000000 		.4byte	.LFE82
 2792 0ad7 A8000000 		.4byte	.LLST6
 2793 0adb 01       		.byte	0x1
 2794 0adc 2C0B0000 		.4byte	0xb2c
 2795 0ae0 27       		.uleb128 0x27
 2796 0ae1 8F050000 		.4byte	.LASF151
 2797 0ae5 01       		.byte	0x1
 2798 0ae6 0A01     		.2byte	0x10a
 2799 0ae8 91000000 		.4byte	0x91
 2800 0aec C8000000 		.4byte	.LLST7
 2801 0af0 27       		.uleb128 0x27
 2802 0af1 9C050000 		.4byte	.LASF152
 2803 0af5 01       		.byte	0x1
 2804 0af6 0B01     		.2byte	0x10b
 2805 0af8 91000000 		.4byte	0x91
 2806 0afc E7000000 		.4byte	.LLST8
 2807 0b00 27       		.uleb128 0x27
 2808 0b01 51080000 		.4byte	.LASF153
 2809 0b05 01       		.byte	0x1
 2810 0b06 0C01     		.2byte	0x10c
 2811 0b08 91000000 		.4byte	0x91
 2812 0b0c 06010000 		.4byte	.LLST9
 2813 0b10 28       		.uleb128 0x28
 2814 0b11 6900     		.ascii	"i\000"
 2815 0b13 01       		.byte	0x1
 2816 0b14 0D01     		.2byte	0x10d
 2817 0b16 49000000 		.4byte	0x49
 2818 0b1a 30010000 		.4byte	.LLST10
 2819 0b1e 29       		.uleb128 0x29
 2820 0b1f 6F090000 		.4byte	.LASF161
 2821 0b23 01       		.byte	0x1
 2822 0b24 0F01     		.2byte	0x10f
 2823 0b26 CD070000 		.4byte	0x7cd
 2824 0b2a 10       		.byte	0x10
 2825 0b2b 00       		.byte	0
 2826 0b2c 2A       		.uleb128 0x2a
 2827 0b2d 01       		.byte	0x1
 2828 0b2e AE020000 		.4byte	.LASF163
 2829 0b32 01       		.byte	0x1
 2830 0b33 6C       		.byte	0x6c
 2831 0b34 01       		.byte	0x1
 2832 0b35 00000000 		.4byte	.LFB77
 2833 0b39 50010000 		.4byte	.LFE77
 2834 0b3d 44010000 		.4byte	.LLST11
 2835 0b41 01       		.byte	0x1
ARM GAS  /tmp/ccMlcuwN.s 			page 51


 2836 0b42 9A0D0000 		.4byte	0xd9a
 2837 0b46 23       		.uleb128 0x23
 2838 0b47 96070000 		.4byte	.LASF164
 2839 0b4b 01       		.byte	0x1
 2840 0b4c 6E       		.byte	0x6e
 2841 0b4d 7B050000 		.4byte	0x57b
 2842 0b51 02       		.byte	0x2
 2843 0b52 91       		.byte	0x91
 2844 0b53 5C       		.sleb128 -36
 2845 0b54 23       		.uleb128 0x23
 2846 0b55 BB060000 		.4byte	.LASF165
 2847 0b59 01       		.byte	0x1
 2848 0b5a 6F       		.byte	0x6f
 2849 0b5b D5050000 		.4byte	0x5d5
 2850 0b5f 02       		.byte	0x2
 2851 0b60 91       		.byte	0x91
 2852 0b61 50       		.sleb128 -48
 2853 0b62 23       		.uleb128 0x23
 2854 0b63 88030000 		.4byte	.LASF166
 2855 0b67 01       		.byte	0x1
 2856 0b68 70       		.byte	0x70
 2857 0b69 13060000 		.4byte	0x613
 2858 0b6d 02       		.byte	0x2
 2859 0b6e 91       		.byte	0x91
 2860 0b6f 44       		.sleb128 -60
 2861 0b70 23       		.uleb128 0x23
 2862 0b71 48010000 		.4byte	.LASF167
 2863 0b75 01       		.byte	0x1
 2864 0b76 A8       		.byte	0xa8
 2865 0b77 9A0D0000 		.4byte	0xd9a
 2866 0b7b 02       		.byte	0x2
 2867 0b7c 91       		.byte	0x91
 2868 0b7d 48       		.sleb128 -56
 2869 0b7e 2B       		.uleb128 0x2b
 2870 0b7f 20000000 		.4byte	.LVL18
 2871 0b83 C9100000 		.4byte	0x10c9
 2872 0b87 990B0000 		.4byte	0xb99
 2873 0b8b 25       		.uleb128 0x25
 2874 0b8c 01       		.byte	0x1
 2875 0b8d 51       		.byte	0x51
 2876 0b8e 02       		.byte	0x2
 2877 0b8f 75       		.byte	0x75
 2878 0b90 00       		.sleb128 0
 2879 0b91 25       		.uleb128 0x25
 2880 0b92 01       		.byte	0x1
 2881 0b93 50       		.byte	0x50
 2882 0b94 03       		.byte	0x3
 2883 0b95 40       		.byte	0x40
 2884 0b96 4A       		.byte	0x4a
 2885 0b97 24       		.byte	0x24
 2886 0b98 00       		.byte	0
 2887 0b99 2B       		.uleb128 0x2b
 2888 0b9a 3A000000 		.4byte	.LVL19
 2889 0b9e EF100000 		.4byte	0x10ef
 2890 0ba2 B40B0000 		.4byte	0xbb4
 2891 0ba6 25       		.uleb128 0x25
 2892 0ba7 01       		.byte	0x1
ARM GAS  /tmp/ccMlcuwN.s 			page 52


 2893 0ba8 51       		.byte	0x51
 2894 0ba9 02       		.byte	0x2
 2895 0baa 74       		.byte	0x74
 2896 0bab 00       		.sleb128 0
 2897 0bac 25       		.uleb128 0x25
 2898 0bad 01       		.byte	0x1
 2899 0bae 50       		.byte	0x50
 2900 0baf 03       		.byte	0x3
 2901 0bb0 40       		.byte	0x40
 2902 0bb1 4A       		.byte	0x4a
 2903 0bb2 24       		.byte	0x24
 2904 0bb3 00       		.byte	0
 2905 0bb4 2B       		.uleb128 0x2b
 2906 0bb5 4A000000 		.4byte	.LVL20
 2907 0bb9 EF100000 		.4byte	0x10ef
 2908 0bbd CF0B0000 		.4byte	0xbcf
 2909 0bc1 25       		.uleb128 0x25
 2910 0bc2 01       		.byte	0x1
 2911 0bc3 51       		.byte	0x51
 2912 0bc4 02       		.byte	0x2
 2913 0bc5 74       		.byte	0x74
 2914 0bc6 00       		.sleb128 0
 2915 0bc7 25       		.uleb128 0x25
 2916 0bc8 01       		.byte	0x1
 2917 0bc9 50       		.byte	0x50
 2918 0bca 03       		.byte	0x3
 2919 0bcb 40       		.byte	0x40
 2920 0bcc 4A       		.byte	0x4a
 2921 0bcd 24       		.byte	0x24
 2922 0bce 00       		.byte	0
 2923 0bcf 2B       		.uleb128 0x2b
 2924 0bd0 5C000000 		.4byte	.LVL21
 2925 0bd4 0F110000 		.4byte	0x110f
 2926 0bd8 E30B0000 		.4byte	0xbe3
 2927 0bdc 25       		.uleb128 0x25
 2928 0bdd 01       		.byte	0x1
 2929 0bde 50       		.byte	0x50
 2930 0bdf 02       		.byte	0x2
 2931 0be0 76       		.byte	0x76
 2932 0be1 00       		.sleb128 0
 2933 0be2 00       		.byte	0
 2934 0be3 2B       		.uleb128 0x2b
 2935 0be4 66000000 		.4byte	.LVL22
 2936 0be8 29110000 		.4byte	0x1129
 2937 0bec FD0B0000 		.4byte	0xbfd
 2938 0bf0 25       		.uleb128 0x25
 2939 0bf1 01       		.byte	0x1
 2940 0bf2 51       		.byte	0x51
 2941 0bf3 01       		.byte	0x1
 2942 0bf4 31       		.byte	0x31
 2943 0bf5 25       		.uleb128 0x25
 2944 0bf6 01       		.byte	0x1
 2945 0bf7 50       		.byte	0x50
 2946 0bf8 03       		.byte	0x3
 2947 0bf9 40       		.byte	0x40
 2948 0bfa 4A       		.byte	0x4a
 2949 0bfb 24       		.byte	0x24
ARM GAS  /tmp/ccMlcuwN.s 			page 53


 2950 0bfc 00       		.byte	0
 2951 0bfd 2B       		.uleb128 0x2b
 2952 0bfe 7A000000 		.4byte	.LVL23
 2953 0c02 C9100000 		.4byte	0x10c9
 2954 0c06 1A0C0000 		.4byte	0xc1a
 2955 0c0a 25       		.uleb128 0x25
 2956 0c0b 01       		.byte	0x1
 2957 0c0c 51       		.byte	0x51
 2958 0c0d 02       		.byte	0x2
 2959 0c0e 75       		.byte	0x75
 2960 0c0f 00       		.sleb128 0
 2961 0c10 25       		.uleb128 0x25
 2962 0c11 01       		.byte	0x1
 2963 0c12 50       		.byte	0x50
 2964 0c13 05       		.byte	0x5
 2965 0c14 0C       		.byte	0xc
 2966 0c15 002C0140 		.4byte	0x40012c00
 2967 0c19 00       		.byte	0
 2968 0c1a 2B       		.uleb128 0x2b
 2969 0c1b 94000000 		.4byte	.LVL24
 2970 0c1f EF100000 		.4byte	0x10ef
 2971 0c23 370C0000 		.4byte	0xc37
 2972 0c27 25       		.uleb128 0x25
 2973 0c28 01       		.byte	0x1
 2974 0c29 51       		.byte	0x51
 2975 0c2a 02       		.byte	0x2
 2976 0c2b 74       		.byte	0x74
 2977 0c2c 00       		.sleb128 0
 2978 0c2d 25       		.uleb128 0x25
 2979 0c2e 01       		.byte	0x1
 2980 0c2f 50       		.byte	0x50
 2981 0c30 05       		.byte	0x5
 2982 0c31 0C       		.byte	0xc
 2983 0c32 002C0140 		.4byte	0x40012c00
 2984 0c36 00       		.byte	0
 2985 0c37 2B       		.uleb128 0x2b
 2986 0c38 A6000000 		.4byte	.LVL25
 2987 0c3c 0F110000 		.4byte	0x110f
 2988 0c40 4B0C0000 		.4byte	0xc4b
 2989 0c44 25       		.uleb128 0x25
 2990 0c45 01       		.byte	0x1
 2991 0c46 50       		.byte	0x50
 2992 0c47 02       		.byte	0x2
 2993 0c48 76       		.byte	0x76
 2994 0c49 00       		.sleb128 0
 2995 0c4a 00       		.byte	0
 2996 0c4b 2B       		.uleb128 0x2b
 2997 0c4c AE000000 		.4byte	.LVL26
 2998 0c50 29110000 		.4byte	0x1129
 2999 0c54 670C0000 		.4byte	0xc67
 3000 0c58 25       		.uleb128 0x25
 3001 0c59 01       		.byte	0x1
 3002 0c5a 51       		.byte	0x51
 3003 0c5b 01       		.byte	0x1
 3004 0c5c 31       		.byte	0x31
 3005 0c5d 25       		.uleb128 0x25
 3006 0c5e 01       		.byte	0x1
ARM GAS  /tmp/ccMlcuwN.s 			page 54


 3007 0c5f 50       		.byte	0x50
 3008 0c60 05       		.byte	0x5
 3009 0c61 0C       		.byte	0xc
 3010 0c62 002C0140 		.4byte	0x40012c00
 3011 0c66 00       		.byte	0
 3012 0c67 2B       		.uleb128 0x2b
 3013 0c68 B4000000 		.4byte	.LVL27
 3014 0c6c 43110000 		.4byte	0x1143
 3015 0c70 7E0C0000 		.4byte	0xc7e
 3016 0c74 25       		.uleb128 0x25
 3017 0c75 01       		.byte	0x1
 3018 0c76 50       		.byte	0x50
 3019 0c77 05       		.byte	0x5
 3020 0c78 0C       		.byte	0xc
 3021 0c79 00540040 		.4byte	0x40005400
 3022 0c7d 00       		.byte	0
 3023 0c7e 21       		.uleb128 0x21
 3024 0c7f BC000000 		.4byte	.LVL28
 3025 0c83 550A0000 		.4byte	0xa55
 3026 0c87 21       		.uleb128 0x21
 3027 0c88 C4000000 		.4byte	.LVL29
 3028 0c8c 57110000 		.4byte	0x1157
 3029 0c90 21       		.uleb128 0x21
 3030 0c91 C8000000 		.4byte	.LVL30
 3031 0c95 C50A0000 		.4byte	0xac5
 3032 0c99 21       		.uleb128 0x21
 3033 0c9a CC000000 		.4byte	.LVL31
 3034 0c9e C7090000 		.4byte	0x9c7
 3035 0ca2 2B       		.uleb128 0x2b
 3036 0ca3 D2000000 		.4byte	.LVL32
 3037 0ca7 6B110000 		.4byte	0x116b
 3038 0cab B80C0000 		.4byte	0xcb8
 3039 0caf 25       		.uleb128 0x25
 3040 0cb0 01       		.byte	0x1
 3041 0cb1 50       		.byte	0x50
 3042 0cb2 04       		.byte	0x4
 3043 0cb3 75       		.byte	0x75
 3044 0cb4 00       		.sleb128 0
 3045 0cb5 31       		.byte	0x31
 3046 0cb6 24       		.byte	0x24
 3047 0cb7 00       		.byte	0
 3048 0cb8 2B       		.uleb128 0x2b
 3049 0cb9 D8000000 		.4byte	.LVL33
 3050 0cbd 57110000 		.4byte	0x1157
 3051 0cc1 CF0C0000 		.4byte	0xccf
 3052 0cc5 25       		.uleb128 0x25
 3053 0cc6 01       		.byte	0x1
 3054 0cc7 50       		.byte	0x50
 3055 0cc8 05       		.byte	0x5
 3056 0cc9 03       		.byte	0x3
 3057 0cca 18000000 		.4byte	.LC13
 3058 0cce 00       		.byte	0
 3059 0ccf 2B       		.uleb128 0x2b
 3060 0cd0 E2000000 		.4byte	.LVL34
 3061 0cd4 80110000 		.4byte	0x1180
 3062 0cd8 E30C0000 		.4byte	0xce3
 3063 0cdc 25       		.uleb128 0x25
ARM GAS  /tmp/ccMlcuwN.s 			page 55


 3064 0cdd 01       		.byte	0x1
 3065 0cde 51       		.byte	0x51
 3066 0cdf 02       		.byte	0x2
 3067 0ce0 91       		.byte	0x91
 3068 0ce1 48       		.sleb128 -56
 3069 0ce2 00       		.byte	0
 3070 0ce3 2B       		.uleb128 0x2b
 3071 0ce4 E8000000 		.4byte	.LVL35
 3072 0ce8 57110000 		.4byte	0x1157
 3073 0cec F70C0000 		.4byte	0xcf7
 3074 0cf0 25       		.uleb128 0x25
 3075 0cf1 01       		.byte	0x1
 3076 0cf2 50       		.byte	0x50
 3077 0cf3 02       		.byte	0x2
 3078 0cf4 91       		.byte	0x91
 3079 0cf5 48       		.sleb128 -56
 3080 0cf6 00       		.byte	0
 3081 0cf7 2B       		.uleb128 0x2b
 3082 0cf8 F0000000 		.4byte	.LVL36
 3083 0cfc 57110000 		.4byte	0x1157
 3084 0d00 0B0D0000 		.4byte	0xd0b
 3085 0d04 25       		.uleb128 0x25
 3086 0d05 01       		.byte	0x1
 3087 0d06 50       		.byte	0x50
 3088 0d07 02       		.byte	0x2
 3089 0d08 74       		.byte	0x74
 3090 0d09 00       		.sleb128 0
 3091 0d0a 00       		.byte	0
 3092 0d0b 2B       		.uleb128 0x2b
 3093 0d0c F6000000 		.4byte	.LVL37
 3094 0d10 57110000 		.4byte	0x1157
 3095 0d14 220D0000 		.4byte	0xd22
 3096 0d18 25       		.uleb128 0x25
 3097 0d19 01       		.byte	0x1
 3098 0d1a 50       		.byte	0x50
 3099 0d1b 05       		.byte	0x5
 3100 0d1c 03       		.byte	0x3
 3101 0d1d 21000000 		.4byte	.LC18
 3102 0d21 00       		.byte	0
 3103 0d22 2B       		.uleb128 0x2b
 3104 0d23 FE000000 		.4byte	.LVL38
 3105 0d27 80110000 		.4byte	0x1180
 3106 0d2b 360D0000 		.4byte	0xd36
 3107 0d2f 25       		.uleb128 0x25
 3108 0d30 01       		.byte	0x1
 3109 0d31 51       		.byte	0x51
 3110 0d32 02       		.byte	0x2
 3111 0d33 91       		.byte	0x91
 3112 0d34 48       		.sleb128 -56
 3113 0d35 00       		.byte	0
 3114 0d36 2B       		.uleb128 0x2b
 3115 0d37 04010000 		.4byte	.LVL39
 3116 0d3b 57110000 		.4byte	0x1157
 3117 0d3f 4A0D0000 		.4byte	0xd4a
 3118 0d43 25       		.uleb128 0x25
 3119 0d44 01       		.byte	0x1
 3120 0d45 50       		.byte	0x50
ARM GAS  /tmp/ccMlcuwN.s 			page 56


 3121 0d46 02       		.byte	0x2
 3122 0d47 91       		.byte	0x91
 3123 0d48 48       		.sleb128 -56
 3124 0d49 00       		.byte	0
 3125 0d4a 2B       		.uleb128 0x2b
 3126 0d4b 0A010000 		.4byte	.LVL40
 3127 0d4f 57110000 		.4byte	0x1157
 3128 0d53 5E0D0000 		.4byte	0xd5e
 3129 0d57 25       		.uleb128 0x25
 3130 0d58 01       		.byte	0x1
 3131 0d59 50       		.byte	0x50
 3132 0d5a 02       		.byte	0x2
 3133 0d5b 74       		.byte	0x74
 3134 0d5c 00       		.sleb128 0
 3135 0d5d 00       		.byte	0
 3136 0d5e 2B       		.uleb128 0x2b
 3137 0d5f 10010000 		.4byte	.LVL41
 3138 0d63 57110000 		.4byte	0x1157
 3139 0d67 750D0000 		.4byte	0xd75
 3140 0d6b 25       		.uleb128 0x25
 3141 0d6c 01       		.byte	0x1
 3142 0d6d 50       		.byte	0x50
 3143 0d6e 05       		.byte	0x5
 3144 0d6f 03       		.byte	0x3
 3145 0d70 30000000 		.4byte	.LC20
 3146 0d74 00       		.byte	0
 3147 0d75 2B       		.uleb128 0x2b
 3148 0d76 18010000 		.4byte	.LVL42
 3149 0d7a 80110000 		.4byte	0x1180
 3150 0d7e 890D0000 		.4byte	0xd89
 3151 0d82 25       		.uleb128 0x25
 3152 0d83 01       		.byte	0x1
 3153 0d84 51       		.byte	0x51
 3154 0d85 02       		.byte	0x2
 3155 0d86 91       		.byte	0x91
 3156 0d87 48       		.sleb128 -56
 3157 0d88 00       		.byte	0
 3158 0d89 24       		.uleb128 0x24
 3159 0d8a 1E010000 		.4byte	.LVL43
 3160 0d8e 57110000 		.4byte	0x1157
 3161 0d92 25       		.uleb128 0x25
 3162 0d93 01       		.byte	0x1
 3163 0d94 50       		.byte	0x50
 3164 0d95 02       		.byte	0x2
 3165 0d96 91       		.byte	0x91
 3166 0d97 48       		.sleb128 -56
 3167 0d98 00       		.byte	0
 3168 0d99 00       		.byte	0
 3169 0d9a 18       		.uleb128 0x18
 3170 0d9b F7060000 		.4byte	0x6f7
 3171 0d9f AA0D0000 		.4byte	0xdaa
 3172 0da3 19       		.uleb128 0x19
 3173 0da4 0E020000 		.4byte	0x20e
 3174 0da8 06       		.byte	0x6
 3175 0da9 00       		.byte	0
 3176 0daa 2C       		.uleb128 0x2c
 3177 0dab 01       		.byte	0x1
ARM GAS  /tmp/ccMlcuwN.s 			page 57


 3178 0dac 11020000 		.4byte	.LASF168
 3179 0db0 01       		.byte	0x1
 3180 0db1 2E01     		.2byte	0x12e
 3181 0db3 01       		.byte	0x1
 3182 0db4 49000000 		.4byte	0x49
 3183 0db8 00000000 		.4byte	.LFB83
 3184 0dbc 44000000 		.4byte	.LFE83
 3185 0dc0 71010000 		.4byte	.LLST12
 3186 0dc4 01       		.byte	0x1
 3187 0dc5 450E0000 		.4byte	0xe45
 3188 0dc9 2D       		.uleb128 0x2d
 3189 0dca 7D070000 		.4byte	.LASF160
 3190 0dce 01       		.byte	0x1
 3191 0dcf 3001     		.2byte	0x130
 3192 0dd1 B50A0000 		.4byte	0xab5
 3193 0dd5 02       		.byte	0x2
 3194 0dd6 91       		.byte	0x91
 3195 0dd7 74       		.sleb128 -12
 3196 0dd8 2B       		.uleb128 0x2b
 3197 0dd9 0E000000 		.4byte	.LVL44
 3198 0ddd 9F110000 		.4byte	0x119f
 3199 0de1 FA0D0000 		.4byte	0xdfa
 3200 0de5 25       		.uleb128 0x25
 3201 0de6 01       		.byte	0x1
 3202 0de7 52       		.byte	0x52
 3203 0de8 01       		.byte	0x1
 3204 0de9 32       		.byte	0x32
 3205 0dea 25       		.uleb128 0x25
 3206 0deb 01       		.byte	0x1
 3207 0dec 51       		.byte	0x51
 3208 0ded 05       		.byte	0x5
 3209 0dee 03       		.byte	0x3
 3210 0def 00000000 		.4byte	.LANCHOR1
 3211 0df3 25       		.uleb128 0x25
 3212 0df4 01       		.byte	0x1
 3213 0df5 50       		.byte	0x50
 3214 0df6 02       		.byte	0x2
 3215 0df7 74       		.byte	0x74
 3216 0df8 00       		.sleb128 0
 3217 0df9 00       		.byte	0
 3218 0dfa 2B       		.uleb128 0x2b
 3219 0dfb 1A000000 		.4byte	.LVL45
 3220 0dff 9C100000 		.4byte	0x109c
 3221 0e03 210E0000 		.4byte	0xe21
 3222 0e07 25       		.uleb128 0x25
 3223 0e08 01       		.byte	0x1
 3224 0e09 53       		.byte	0x53
 3225 0e0a 01       		.byte	0x1
 3226 0e0b 32       		.byte	0x32
 3227 0e0c 25       		.uleb128 0x25
 3228 0e0d 01       		.byte	0x1
 3229 0e0e 52       		.byte	0x52
 3230 0e0f 02       		.byte	0x2
 3231 0e10 74       		.byte	0x74
 3232 0e11 00       		.sleb128 0
 3233 0e12 25       		.uleb128 0x25
 3234 0e13 01       		.byte	0x1
ARM GAS  /tmp/ccMlcuwN.s 			page 58


 3235 0e14 51       		.byte	0x51
 3236 0e15 01       		.byte	0x1
 3237 0e16 49       		.byte	0x49
 3238 0e17 25       		.uleb128 0x25
 3239 0e18 01       		.byte	0x1
 3240 0e19 50       		.byte	0x50
 3241 0e1a 05       		.byte	0x5
 3242 0e1b 0C       		.byte	0xc
 3243 0e1c 00540040 		.4byte	0x40005400
 3244 0e20 00       		.byte	0
 3245 0e21 24       		.uleb128 0x24
 3246 0e22 36000000 		.4byte	.LVL46
 3247 0e26 9C100000 		.4byte	0x109c
 3248 0e2a 25       		.uleb128 0x25
 3249 0e2b 01       		.byte	0x1
 3250 0e2c 53       		.byte	0x53
 3251 0e2d 01       		.byte	0x1
 3252 0e2e 32       		.byte	0x32
 3253 0e2f 25       		.uleb128 0x25
 3254 0e30 01       		.byte	0x1
 3255 0e31 52       		.byte	0x52
 3256 0e32 02       		.byte	0x2
 3257 0e33 74       		.byte	0x74
 3258 0e34 00       		.sleb128 0
 3259 0e35 25       		.uleb128 0x25
 3260 0e36 01       		.byte	0x1
 3261 0e37 51       		.byte	0x51
 3262 0e38 01       		.byte	0x1
 3263 0e39 49       		.byte	0x49
 3264 0e3a 25       		.uleb128 0x25
 3265 0e3b 01       		.byte	0x1
 3266 0e3c 50       		.byte	0x50
 3267 0e3d 05       		.byte	0x5
 3268 0e3e 0C       		.byte	0xc
 3269 0e3f 00540040 		.4byte	0x40005400
 3270 0e43 00       		.byte	0
 3271 0e44 00       		.byte	0
 3272 0e45 2C       		.uleb128 0x2c
 3273 0e46 01       		.byte	0x1
 3274 0e47 A1020000 		.4byte	.LASF169
 3275 0e4b 01       		.byte	0x1
 3276 0e4c 4401     		.2byte	0x144
 3277 0e4e 01       		.byte	0x1
 3278 0e4f 49000000 		.4byte	0x49
 3279 0e53 00000000 		.4byte	.LFB84
 3280 0e57 5C000000 		.4byte	.LFE84
 3281 0e5b 91010000 		.4byte	.LLST13
 3282 0e5f 01       		.byte	0x1
 3283 0e60 CD0E0000 		.4byte	0xecd
 3284 0e64 2D       		.uleb128 0x2d
 3285 0e65 7D070000 		.4byte	.LASF160
 3286 0e69 01       		.byte	0x1
 3287 0e6a 4601     		.2byte	0x146
 3288 0e6c 49000000 		.4byte	0x49
 3289 0e70 02       		.byte	0x2
 3290 0e71 72       		.byte	0x72
 3291 0e72 00       		.sleb128 0
ARM GAS  /tmp/ccMlcuwN.s 			page 59


 3292 0e73 2D       		.uleb128 0x2d
 3293 0e74 7A090000 		.4byte	.LASF170
 3294 0e78 01       		.byte	0x1
 3295 0e79 4701     		.2byte	0x147
 3296 0e7b A2080000 		.4byte	0x8a2
 3297 0e7f 02       		.byte	0x2
 3298 0e80 91       		.byte	0x91
 3299 0e81 70       		.sleb128 -16
 3300 0e82 2B       		.uleb128 0x2b
 3301 0e83 14000000 		.4byte	.LVL48
 3302 0e87 9C100000 		.4byte	0x109c
 3303 0e8b A90E0000 		.4byte	0xea9
 3304 0e8f 25       		.uleb128 0x25
 3305 0e90 01       		.byte	0x1
 3306 0e91 53       		.byte	0x53
 3307 0e92 01       		.byte	0x1
 3308 0e93 31       		.byte	0x31
 3309 0e94 25       		.uleb128 0x25
 3310 0e95 01       		.byte	0x1
 3311 0e96 52       		.byte	0x52
 3312 0e97 02       		.byte	0x2
 3313 0e98 91       		.byte	0x91
 3314 0e99 6F       		.sleb128 -17
 3315 0e9a 25       		.uleb128 0x25
 3316 0e9b 01       		.byte	0x1
 3317 0e9c 51       		.byte	0x51
 3318 0e9d 01       		.byte	0x1
 3319 0e9e 49       		.byte	0x49
 3320 0e9f 25       		.uleb128 0x25
 3321 0ea0 01       		.byte	0x1
 3322 0ea1 50       		.byte	0x50
 3323 0ea2 05       		.byte	0x5
 3324 0ea3 0C       		.byte	0xc
 3325 0ea4 00540040 		.4byte	0x40005400
 3326 0ea8 00       		.byte	0
 3327 0ea9 24       		.uleb128 0x24
 3328 0eaa 2A000000 		.4byte	.LVL49
 3329 0eae C7110000 		.4byte	0x11c7
 3330 0eb2 25       		.uleb128 0x25
 3331 0eb3 01       		.byte	0x1
 3332 0eb4 53       		.byte	0x53
 3333 0eb5 01       		.byte	0x1
 3334 0eb6 36       		.byte	0x36
 3335 0eb7 25       		.uleb128 0x25
 3336 0eb8 01       		.byte	0x1
 3337 0eb9 52       		.byte	0x52
 3338 0eba 02       		.byte	0x2
 3339 0ebb 74       		.byte	0x74
 3340 0ebc 00       		.sleb128 0
 3341 0ebd 25       		.uleb128 0x25
 3342 0ebe 01       		.byte	0x1
 3343 0ebf 51       		.byte	0x51
 3344 0ec0 01       		.byte	0x1
 3345 0ec1 49       		.byte	0x49
 3346 0ec2 25       		.uleb128 0x25
 3347 0ec3 01       		.byte	0x1
 3348 0ec4 50       		.byte	0x50
ARM GAS  /tmp/ccMlcuwN.s 			page 60


 3349 0ec5 05       		.byte	0x5
 3350 0ec6 0C       		.byte	0xc
 3351 0ec7 00540040 		.4byte	0x40005400
 3352 0ecb 00       		.byte	0
 3353 0ecc 00       		.byte	0
 3354 0ecd 2E       		.uleb128 0x2e
 3355 0ece 01       		.byte	0x1
 3356 0ecf 62080000 		.4byte	.LASF171
 3357 0ed3 01       		.byte	0x1
 3358 0ed4 5A01     		.2byte	0x15a
 3359 0ed6 01       		.byte	0x1
 3360 0ed7 00000000 		.4byte	.LFB85
 3361 0edb 80000000 		.4byte	.LFE85
 3362 0edf B1010000 		.4byte	.LLST14
 3363 0ee3 01       		.byte	0x1
 3364 0ee4 F90E0000 		.4byte	0xef9
 3365 0ee8 27       		.uleb128 0x27
 3366 0ee9 42030000 		.4byte	.LASF172
 3367 0eed 01       		.byte	0x1
 3368 0eee 5C01     		.2byte	0x15c
 3369 0ef0 91000000 		.4byte	0x91
 3370 0ef4 D1010000 		.4byte	.LLST15
 3371 0ef8 00       		.byte	0
 3372 0ef9 2E       		.uleb128 0x2e
 3373 0efa 01       		.byte	0x1
 3374 0efb 4C040000 		.4byte	.LASF173
 3375 0eff 01       		.byte	0x1
 3376 0f00 8501     		.2byte	0x185
 3377 0f02 01       		.byte	0x1
 3378 0f03 00000000 		.4byte	.LFB86
 3379 0f07 DC010000 		.4byte	.LFE86
 3380 0f0b E4010000 		.4byte	.LLST16
 3381 0f0f 01       		.byte	0x1
 3382 0f10 250F0000 		.4byte	0xf25
 3383 0f14 27       		.uleb128 0x27
 3384 0f15 42030000 		.4byte	.LASF172
 3385 0f19 01       		.byte	0x1
 3386 0f1a 8701     		.2byte	0x187
 3387 0f1c 91000000 		.4byte	0x91
 3388 0f20 04020000 		.4byte	.LLST17
 3389 0f24 00       		.byte	0
 3390 0f25 23       		.uleb128 0x23
 3391 0f26 92040000 		.4byte	.LASF174
 3392 0f2a 01       		.byte	0x1
 3393 0f2b 50       		.byte	0x50
 3394 0f2c 49000000 		.4byte	0x49
 3395 0f30 05       		.byte	0x5
 3396 0f31 03       		.byte	0x3
 3397 0f32 00000000 		.4byte	TIM1CC4CaptureNumber
 3398 0f36 23       		.uleb128 0x23
 3399 0f37 60000000 		.4byte	.LASF175
 3400 0f3b 01       		.byte	0x1
 3401 0f3c 50       		.byte	0x50
 3402 0f3d 49000000 		.4byte	0x49
 3403 0f41 05       		.byte	0x5
 3404 0f42 03       		.byte	0x3
 3405 0f43 00000000 		.4byte	TIM2CC3CaptureNumber
ARM GAS  /tmp/ccMlcuwN.s 			page 61


 3406 0f47 23       		.uleb128 0x23
 3407 0f48 00000000 		.4byte	.LASF176
 3408 0f4c 01       		.byte	0x1
 3409 0f4d 50       		.byte	0x50
 3410 0f4e 49000000 		.4byte	0x49
 3411 0f52 05       		.byte	0x5
 3412 0f53 03       		.byte	0x3
 3413 0f54 00000000 		.4byte	TIM2CC4CaptureNumber
 3414 0f58 23       		.uleb128 0x23
 3415 0f59 84070000 		.4byte	.LASF177
 3416 0f5d 01       		.byte	0x1
 3417 0f5e 51       		.byte	0x51
 3418 0f5f 6D000000 		.4byte	0x6d
 3419 0f63 05       		.byte	0x5
 3420 0f64 03       		.byte	0x3
 3421 0f65 00000000 		.4byte	TIM1CC4ReadValue1
 3422 0f69 23       		.uleb128 0x23
 3423 0f6a F5010000 		.4byte	.LASF178
 3424 0f6e 01       		.byte	0x1
 3425 0f6f 51       		.byte	0x51
 3426 0f70 6D000000 		.4byte	0x6d
 3427 0f74 05       		.byte	0x5
 3428 0f75 03       		.byte	0x3
 3429 0f76 00000000 		.4byte	TIM1CC4ReadValue2
 3430 0f7a 23       		.uleb128 0x23
 3431 0f7b A3030000 		.4byte	.LASF179
 3432 0f7f 01       		.byte	0x1
 3433 0f80 52       		.byte	0x52
 3434 0f81 6D000000 		.4byte	0x6d
 3435 0f85 05       		.byte	0x5
 3436 0f86 03       		.byte	0x3
 3437 0f87 00000000 		.4byte	TIM2CC3ReadValue1
 3438 0f8b 23       		.uleb128 0x23
 3439 0f8c B5030000 		.4byte	.LASF180
 3440 0f90 01       		.byte	0x1
 3441 0f91 52       		.byte	0x52
 3442 0f92 6D000000 		.4byte	0x6d
 3443 0f96 05       		.byte	0x5
 3444 0f97 03       		.byte	0x3
 3445 0f98 00000000 		.4byte	TIM2CC3ReadValue2
 3446 0f9c 23       		.uleb128 0x23
 3447 0f9d 87010000 		.4byte	.LASF181
 3448 0fa1 01       		.byte	0x1
 3449 0fa2 53       		.byte	0x53
 3450 0fa3 6D000000 		.4byte	0x6d
 3451 0fa7 05       		.byte	0x5
 3452 0fa8 03       		.byte	0x3
 3453 0fa9 00000000 		.4byte	TIM2CC4ReadValue1
 3454 0fad 23       		.uleb128 0x23
 3455 0fae 99010000 		.4byte	.LASF182
 3456 0fb2 01       		.byte	0x1
 3457 0fb3 53       		.byte	0x53
 3458 0fb4 6D000000 		.4byte	0x6d
 3459 0fb8 05       		.byte	0x5
 3460 0fb9 03       		.byte	0x3
 3461 0fba 00000000 		.4byte	TIM2CC4ReadValue2
 3462 0fbe 23       		.uleb128 0x23
ARM GAS  /tmp/ccMlcuwN.s 			page 62


 3463 0fbf B0000000 		.4byte	.LASF183
 3464 0fc3 01       		.byte	0x1
 3465 0fc4 54       		.byte	0x54
 3466 0fc5 5B000000 		.4byte	0x5b
 3467 0fc9 05       		.byte	0x5
 3468 0fca 03       		.byte	0x3
 3469 0fcb 00000000 		.4byte	accel1
 3470 0fcf 23       		.uleb128 0x23
 3471 0fd0 B7000000 		.4byte	.LASF184
 3472 0fd4 01       		.byte	0x1
 3473 0fd5 54       		.byte	0x54
 3474 0fd6 5B000000 		.4byte	0x5b
 3475 0fda 05       		.byte	0x5
 3476 0fdb 03       		.byte	0x3
 3477 0fdc 00000000 		.4byte	accel2
 3478 0fe0 18       		.uleb128 0x18
 3479 0fe1 7F000000 		.4byte	0x7f
 3480 0fe5 F00F0000 		.4byte	0xff0
 3481 0fe9 19       		.uleb128 0x19
 3482 0fea 0E020000 		.4byte	0x20e
 3483 0fee 01       		.byte	0x1
 3484 0fef 00       		.byte	0
 3485 0ff0 23       		.uleb128 0x23
 3486 0ff1 CC070000 		.4byte	.LASF185
 3487 0ff5 01       		.byte	0x1
 3488 0ff6 55       		.byte	0x55
 3489 0ff7 E00F0000 		.4byte	0xfe0
 3490 0ffb 05       		.byte	0x5
 3491 0ffc 03       		.byte	0x3
 3492 0ffd 00000000 		.4byte	spd1arr
 3493 1001 23       		.uleb128 0x23
 3494 1002 84040000 		.4byte	.LASF186
 3495 1006 01       		.byte	0x1
 3496 1007 55       		.byte	0x55
 3497 1008 E00F0000 		.4byte	0xfe0
 3498 100c 05       		.byte	0x5
 3499 100d 03       		.byte	0x3
 3500 100e 00000000 		.4byte	spd2arr
 3501 1012 23       		.uleb128 0x23
 3502 1013 59090000 		.4byte	.LASF187
 3503 1017 01       		.byte	0x1
 3504 1018 56       		.byte	0x56
 3505 1019 37000000 		.4byte	0x37
 3506 101d 05       		.byte	0x5
 3507 101e 03       		.byte	0x3
 3508 101f 00000000 		.4byte	spd1arr_pos
 3509 1023 23       		.uleb128 0x23
 3510 1024 05010000 		.4byte	.LASF188
 3511 1028 01       		.byte	0x1
 3512 1029 56       		.byte	0x56
 3513 102a 37000000 		.4byte	0x37
 3514 102e 05       		.byte	0x5
 3515 102f 03       		.byte	0x3
 3516 1030 00000000 		.4byte	spd2arr_pos
 3517 1034 23       		.uleb128 0x23
 3518 1035 A6050000 		.4byte	.LASF189
 3519 1039 01       		.byte	0x1
ARM GAS  /tmp/ccMlcuwN.s 			page 63


 3520 103a 5B       		.byte	0x5b
 3521 103b 9A090000 		.4byte	0x99a
 3522 103f 05       		.byte	0x5
 3523 1040 03       		.byte	0x3
 3524 1041 00000000 		.4byte	lis_data
 3525 1045 2F       		.uleb128 0x2f
 3526 1046 6E696C00 		.ascii	"nil\000"
 3527 104a 03       		.byte	0x3
 3528 104b F602     		.2byte	0x2f6
 3529 104d C1070000 		.4byte	0x7c1
 3530 1051 01       		.byte	0x1
 3531 1052 01       		.byte	0x1
 3532 1053 30       		.uleb128 0x30
 3533 1054 39030000 		.4byte	.LASF190
 3534 1058 0A       		.byte	0xa
 3535 1059 75       		.byte	0x75
 3536 105a DB080000 		.4byte	0x8db
 3537 105e 01       		.byte	0x1
 3538 105f 01       		.byte	0x1
 3539 1060 30       		.uleb128 0x30
 3540 1061 28040000 		.4byte	.LASF191
 3541 1065 0A       		.byte	0xa
 3542 1066 88       		.byte	0x88
 3543 1067 31090000 		.4byte	0x931
 3544 106b 01       		.byte	0x1
 3545 106c 01       		.byte	0x1
 3546 106d 18       		.uleb128 0x18
 3547 106e 6D000000 		.4byte	0x6d
 3548 1072 7D100000 		.4byte	0x107d
 3549 1076 19       		.uleb128 0x19
 3550 1077 0E020000 		.4byte	0x20e
 3551 107b 1F       		.byte	0x1f
 3552 107c 00       		.byte	0
 3553 107d 30       		.uleb128 0x30
 3554 107e 6C010000 		.4byte	.LASF192
 3555 1082 0A       		.byte	0xa
 3556 1083 AA       		.byte	0xaa
 3557 1084 6D100000 		.4byte	0x106d
 3558 1088 01       		.byte	0x1
 3559 1089 01       		.byte	0x1
 3560 108a 31       		.uleb128 0x31
 3561 108b 0C030000 		.4byte	.LASF193
 3562 108f 01       		.byte	0x1
 3563 1090 4F       		.byte	0x4f
 3564 1091 8F090000 		.4byte	0x98f
 3565 1095 01       		.byte	0x1
 3566 1096 05       		.byte	0x5
 3567 1097 03       		.byte	0x3
 3568 1098 00000000 		.4byte	sensors
 3569 109c 32       		.uleb128 0x32
 3570 109d 01       		.byte	0x1
 3571 109e 57000000 		.4byte	.LASF210
 3572 10a2 0A       		.byte	0xa
 3573 10a3 4C       		.byte	0x4c
 3574 10a4 01       		.byte	0x1
 3575 10a5 49000000 		.4byte	0x49
 3576 10a9 01       		.byte	0x1
ARM GAS  /tmp/ccMlcuwN.s 			page 64


 3577 10aa C3100000 		.4byte	0x10c3
 3578 10ae 33       		.uleb128 0x33
 3579 10af C3100000 		.4byte	0x10c3
 3580 10b3 33       		.uleb128 0x33
 3581 10b4 CD070000 		.4byte	0x7cd
 3582 10b8 33       		.uleb128 0x33
 3583 10b9 D2070000 		.4byte	0x7d2
 3584 10bd 33       		.uleb128 0x33
 3585 10be 49000000 		.4byte	0x49
 3586 10c2 00       		.byte	0
 3587 10c3 13       		.uleb128 0x13
 3588 10c4 04       		.byte	0x4
 3589 10c5 F0020000 		.4byte	0x2f0
 3590 10c9 34       		.uleb128 0x34
 3591 10ca 01       		.byte	0x1
 3592 10cb 4A030000 		.4byte	.LASF194
 3593 10cf 06       		.byte	0x6
 3594 10d0 2004     		.2byte	0x420
 3595 10d2 01       		.byte	0x1
 3596 10d3 01       		.byte	0x1
 3597 10d4 E3100000 		.4byte	0x10e3
 3598 10d8 33       		.uleb128 0x33
 3599 10d9 E3100000 		.4byte	0x10e3
 3600 10dd 33       		.uleb128 0x33
 3601 10de E9100000 		.4byte	0x10e9
 3602 10e2 00       		.byte	0
 3603 10e3 13       		.uleb128 0x13
 3604 10e4 04       		.byte	0x4
 3605 10e5 20050000 		.4byte	0x520
 3606 10e9 13       		.uleb128 0x13
 3607 10ea 04       		.byte	0x4
 3608 10eb 7B050000 		.4byte	0x57b
 3609 10ef 34       		.uleb128 0x34
 3610 10f0 01       		.byte	0x1
 3611 10f1 46090000 		.4byte	.LASF195
 3612 10f5 06       		.byte	0x6
 3613 10f6 5D04     		.2byte	0x45d
 3614 10f8 01       		.byte	0x1
 3615 10f9 01       		.byte	0x1
 3616 10fa 09110000 		.4byte	0x1109
 3617 10fe 33       		.uleb128 0x33
 3618 10ff E3100000 		.4byte	0x10e3
 3619 1103 33       		.uleb128 0x33
 3620 1104 09110000 		.4byte	0x1109
 3621 1108 00       		.byte	0
 3622 1109 13       		.uleb128 0x13
 3623 110a 04       		.byte	0x4
 3624 110b D5050000 		.4byte	0x5d5
 3625 110f 35       		.uleb128 0x35
 3626 1110 01       		.byte	0x1
 3627 1111 7C050000 		.4byte	.LASF196
 3628 1115 07       		.byte	0x7
 3629 1116 7D       		.byte	0x7d
 3630 1117 01       		.byte	0x1
 3631 1118 01       		.byte	0x1
 3632 1119 23110000 		.4byte	0x1123
 3633 111d 33       		.uleb128 0x33
ARM GAS  /tmp/ccMlcuwN.s 			page 65


 3634 111e 23110000 		.4byte	0x1123
 3635 1122 00       		.byte	0
 3636 1123 13       		.uleb128 0x13
 3637 1124 04       		.byte	0x4
 3638 1125 13060000 		.4byte	0x613
 3639 1129 34       		.uleb128 0x34
 3640 112a 01       		.byte	0x1
 3641 112b CC020000 		.4byte	.LASF197
 3642 112f 06       		.byte	0x6
 3643 1130 2D04     		.2byte	0x42d
 3644 1132 01       		.byte	0x1
 3645 1133 01       		.byte	0x1
 3646 1134 43110000 		.4byte	0x1143
 3647 1138 33       		.uleb128 0x33
 3648 1139 E3100000 		.4byte	0x10e3
 3649 113d 33       		.uleb128 0x33
 3650 113e 30020000 		.4byte	0x230
 3651 1142 00       		.byte	0
 3652 1143 35       		.uleb128 0x35
 3653 1144 01       		.byte	0x1
 3654 1145 1D050000 		.4byte	.LASF198
 3655 1149 0A       		.byte	0xa
 3656 114a 4B       		.byte	0x4b
 3657 114b 01       		.byte	0x1
 3658 114c 01       		.byte	0x1
 3659 114d 57110000 		.4byte	0x1157
 3660 1151 33       		.uleb128 0x33
 3661 1152 C3100000 		.4byte	0x10c3
 3662 1156 00       		.byte	0
 3663 1157 35       		.uleb128 0x35
 3664 1158 01       		.byte	0x1
 3665 1159 CD010000 		.4byte	.LASF199
 3666 115d 0A       		.byte	0xa
 3667 115e 53       		.byte	0x53
 3668 115f 01       		.byte	0x1
 3669 1160 01       		.byte	0x1
 3670 1161 6B110000 		.4byte	0x116b
 3671 1165 33       		.uleb128 0x33
 3672 1166 EC060000 		.4byte	0x6ec
 3673 116a 00       		.byte	0
 3674 116b 34       		.uleb128 0x34
 3675 116c 01       		.byte	0x1
 3676 116d 04080000 		.4byte	.LASF200
 3677 1171 03       		.byte	0x3
 3678 1172 0703     		.2byte	0x307
 3679 1174 01       		.byte	0x1
 3680 1175 01       		.byte	0x1
 3681 1176 80110000 		.4byte	0x1180
 3682 117a 33       		.uleb128 0x33
 3683 117b 1E060000 		.4byte	0x61e
 3684 117f 00       		.byte	0
 3685 1180 35       		.uleb128 0x35
 3686 1181 01       		.byte	0x1
 3687 1182 0F080000 		.4byte	.LASF201
 3688 1186 0A       		.byte	0xa
 3689 1187 38       		.byte	0x38
 3690 1188 01       		.byte	0x1
ARM GAS  /tmp/ccMlcuwN.s 			page 66


 3691 1189 01       		.byte	0x1
 3692 118a 99110000 		.4byte	0x1199
 3693 118e 33       		.uleb128 0x33
 3694 118f 29000000 		.4byte	0x29
 3695 1193 33       		.uleb128 0x33
 3696 1194 99110000 		.4byte	0x1199
 3697 1198 00       		.byte	0
 3698 1199 13       		.uleb128 0x13
 3699 119a 04       		.byte	0x4
 3700 119b F7060000 		.4byte	0x6f7
 3701 119f 36       		.uleb128 0x36
 3702 11a0 01       		.byte	0x1
 3703 11a1 C4080000 		.4byte	.LASF202
 3704 11a5 01       		.byte	0x1
 3705 11a6 34060000 		.4byte	0x634
 3706 11aa 01       		.byte	0x1
 3707 11ab 01       		.byte	0x1
 3708 11ac C0110000 		.4byte	0x11c0
 3709 11b0 33       		.uleb128 0x33
 3710 11b1 34060000 		.4byte	0x634
 3711 11b5 33       		.uleb128 0x33
 3712 11b6 C0110000 		.4byte	0x11c0
 3713 11ba 33       		.uleb128 0x33
 3714 11bb 0E020000 		.4byte	0x20e
 3715 11bf 00       		.byte	0
 3716 11c0 13       		.uleb128 0x13
 3717 11c1 04       		.byte	0x4
 3718 11c2 C6110000 		.4byte	0x11c6
 3719 11c6 37       		.uleb128 0x37
 3720 11c7 38       		.uleb128 0x38
 3721 11c8 01       		.byte	0x1
 3722 11c9 3A090000 		.4byte	.LASF203
 3723 11cd 0A       		.byte	0xa
 3724 11ce 4D       		.byte	0x4d
 3725 11cf 01       		.byte	0x1
 3726 11d0 49000000 		.4byte	0x49
 3727 11d4 01       		.byte	0x1
 3728 11d5 33       		.uleb128 0x33
 3729 11d6 C3100000 		.4byte	0x10c3
 3730 11da 33       		.uleb128 0x33
 3731 11db CD070000 		.4byte	0x7cd
 3732 11df 33       		.uleb128 0x33
 3733 11e0 D2070000 		.4byte	0x7d2
 3734 11e4 33       		.uleb128 0x33
 3735 11e5 49000000 		.4byte	0x49
 3736 11e9 00       		.byte	0
 3737 11ea 00       		.byte	0
 3738              		.section	.debug_abbrev,"",%progbits
 3739              	.Ldebug_abbrev0:
 3740 0000 01       		.uleb128 0x1
 3741 0001 11       		.uleb128 0x11
 3742 0002 01       		.byte	0x1
 3743 0003 25       		.uleb128 0x25
 3744 0004 0E       		.uleb128 0xe
 3745 0005 13       		.uleb128 0x13
 3746 0006 0B       		.uleb128 0xb
 3747 0007 03       		.uleb128 0x3
ARM GAS  /tmp/ccMlcuwN.s 			page 67


 3748 0008 0E       		.uleb128 0xe
 3749 0009 1B       		.uleb128 0x1b
 3750 000a 0E       		.uleb128 0xe
 3751 000b 55       		.uleb128 0x55
 3752 000c 06       		.uleb128 0x6
 3753 000d 11       		.uleb128 0x11
 3754 000e 01       		.uleb128 0x1
 3755 000f 52       		.uleb128 0x52
 3756 0010 01       		.uleb128 0x1
 3757 0011 10       		.uleb128 0x10
 3758 0012 06       		.uleb128 0x6
 3759 0013 00       		.byte	0
 3760 0014 00       		.byte	0
 3761 0015 02       		.uleb128 0x2
 3762 0016 24       		.uleb128 0x24
 3763 0017 00       		.byte	0
 3764 0018 0B       		.uleb128 0xb
 3765 0019 0B       		.uleb128 0xb
 3766 001a 3E       		.uleb128 0x3e
 3767 001b 0B       		.uleb128 0xb
 3768 001c 03       		.uleb128 0x3
 3769 001d 08       		.uleb128 0x8
 3770 001e 00       		.byte	0
 3771 001f 00       		.byte	0
 3772 0020 03       		.uleb128 0x3
 3773 0021 24       		.uleb128 0x24
 3774 0022 00       		.byte	0
 3775 0023 0B       		.uleb128 0xb
 3776 0024 0B       		.uleb128 0xb
 3777 0025 3E       		.uleb128 0x3e
 3778 0026 0B       		.uleb128 0xb
 3779 0027 03       		.uleb128 0x3
 3780 0028 0E       		.uleb128 0xe
 3781 0029 00       		.byte	0
 3782 002a 00       		.byte	0
 3783 002b 04       		.uleb128 0x4
 3784 002c 16       		.uleb128 0x16
 3785 002d 00       		.byte	0
 3786 002e 03       		.uleb128 0x3
 3787 002f 0E       		.uleb128 0xe
 3788 0030 3A       		.uleb128 0x3a
 3789 0031 0B       		.uleb128 0xb
 3790 0032 3B       		.uleb128 0x3b
 3791 0033 0B       		.uleb128 0xb
 3792 0034 49       		.uleb128 0x49
 3793 0035 13       		.uleb128 0x13
 3794 0036 00       		.byte	0
 3795 0037 00       		.byte	0
 3796 0038 05       		.uleb128 0x5
 3797 0039 13       		.uleb128 0x13
 3798 003a 01       		.byte	0x1
 3799 003b 03       		.uleb128 0x3
 3800 003c 0E       		.uleb128 0xe
 3801 003d 0B       		.uleb128 0xb
 3802 003e 0B       		.uleb128 0xb
 3803 003f 3A       		.uleb128 0x3a
 3804 0040 0B       		.uleb128 0xb
ARM GAS  /tmp/ccMlcuwN.s 			page 68


 3805 0041 3B       		.uleb128 0x3b
 3806 0042 05       		.uleb128 0x5
 3807 0043 01       		.uleb128 0x1
 3808 0044 13       		.uleb128 0x13
 3809 0045 00       		.byte	0
 3810 0046 00       		.byte	0
 3811 0047 06       		.uleb128 0x6
 3812 0048 0D       		.uleb128 0xd
 3813 0049 00       		.byte	0
 3814 004a 03       		.uleb128 0x3
 3815 004b 0E       		.uleb128 0xe
 3816 004c 3A       		.uleb128 0x3a
 3817 004d 0B       		.uleb128 0xb
 3818 004e 3B       		.uleb128 0x3b
 3819 004f 05       		.uleb128 0x5
 3820 0050 49       		.uleb128 0x49
 3821 0051 13       		.uleb128 0x13
 3822 0052 38       		.uleb128 0x38
 3823 0053 0A       		.uleb128 0xa
 3824 0054 00       		.byte	0
 3825 0055 00       		.byte	0
 3826 0056 07       		.uleb128 0x7
 3827 0057 0D       		.uleb128 0xd
 3828 0058 00       		.byte	0
 3829 0059 03       		.uleb128 0x3
 3830 005a 08       		.uleb128 0x8
 3831 005b 3A       		.uleb128 0x3a
 3832 005c 0B       		.uleb128 0xb
 3833 005d 3B       		.uleb128 0x3b
 3834 005e 05       		.uleb128 0x5
 3835 005f 49       		.uleb128 0x49
 3836 0060 13       		.uleb128 0x13
 3837 0061 38       		.uleb128 0x38
 3838 0062 0A       		.uleb128 0xa
 3839 0063 00       		.byte	0
 3840 0064 00       		.byte	0
 3841 0065 08       		.uleb128 0x8
 3842 0066 04       		.uleb128 0x4
 3843 0067 01       		.byte	0x1
 3844 0068 03       		.uleb128 0x3
 3845 0069 0E       		.uleb128 0xe
 3846 006a 0B       		.uleb128 0xb
 3847 006b 0B       		.uleb128 0xb
 3848 006c 3A       		.uleb128 0x3a
 3849 006d 0B       		.uleb128 0xb
 3850 006e 3B       		.uleb128 0x3b
 3851 006f 0B       		.uleb128 0xb
 3852 0070 01       		.uleb128 0x1
 3853 0071 13       		.uleb128 0x13
 3854 0072 00       		.byte	0
 3855 0073 00       		.byte	0
 3856 0074 09       		.uleb128 0x9
 3857 0075 28       		.uleb128 0x28
 3858 0076 00       		.byte	0
 3859 0077 03       		.uleb128 0x3
 3860 0078 0E       		.uleb128 0xe
 3861 0079 1C       		.uleb128 0x1c
ARM GAS  /tmp/ccMlcuwN.s 			page 69


 3862 007a 0D       		.uleb128 0xd
 3863 007b 00       		.byte	0
 3864 007c 00       		.byte	0
 3865 007d 0A       		.uleb128 0xa
 3866 007e 35       		.uleb128 0x35
 3867 007f 00       		.byte	0
 3868 0080 49       		.uleb128 0x49
 3869 0081 13       		.uleb128 0x13
 3870 0082 00       		.byte	0
 3871 0083 00       		.byte	0
 3872 0084 0B       		.uleb128 0xb
 3873 0085 04       		.uleb128 0x4
 3874 0086 01       		.byte	0x1
 3875 0087 0B       		.uleb128 0xb
 3876 0088 0B       		.uleb128 0xb
 3877 0089 3A       		.uleb128 0x3a
 3878 008a 0B       		.uleb128 0xb
 3879 008b 3B       		.uleb128 0x3b
 3880 008c 05       		.uleb128 0x5
 3881 008d 01       		.uleb128 0x1
 3882 008e 13       		.uleb128 0x13
 3883 008f 00       		.byte	0
 3884 0090 00       		.byte	0
 3885 0091 0C       		.uleb128 0xc
 3886 0092 16       		.uleb128 0x16
 3887 0093 00       		.byte	0
 3888 0094 03       		.uleb128 0x3
 3889 0095 0E       		.uleb128 0xe
 3890 0096 3A       		.uleb128 0x3a
 3891 0097 0B       		.uleb128 0xb
 3892 0098 3B       		.uleb128 0x3b
 3893 0099 05       		.uleb128 0x5
 3894 009a 49       		.uleb128 0x49
 3895 009b 13       		.uleb128 0x13
 3896 009c 00       		.byte	0
 3897 009d 00       		.byte	0
 3898 009e 0D       		.uleb128 0xd
 3899 009f 13       		.uleb128 0x13
 3900 00a0 01       		.byte	0x1
 3901 00a1 0B       		.uleb128 0xb
 3902 00a2 0B       		.uleb128 0xb
 3903 00a3 3A       		.uleb128 0x3a
 3904 00a4 0B       		.uleb128 0xb
 3905 00a5 3B       		.uleb128 0x3b
 3906 00a6 05       		.uleb128 0x5
 3907 00a7 01       		.uleb128 0x1
 3908 00a8 13       		.uleb128 0x13
 3909 00a9 00       		.byte	0
 3910 00aa 00       		.byte	0
 3911 00ab 0E       		.uleb128 0xe
 3912 00ac 13       		.uleb128 0x13
 3913 00ad 01       		.byte	0x1
 3914 00ae 0B       		.uleb128 0xb
 3915 00af 0B       		.uleb128 0xb
 3916 00b0 3A       		.uleb128 0x3a
 3917 00b1 0B       		.uleb128 0xb
 3918 00b2 3B       		.uleb128 0x3b
ARM GAS  /tmp/ccMlcuwN.s 			page 70


 3919 00b3 0B       		.uleb128 0xb
 3920 00b4 01       		.uleb128 0x1
 3921 00b5 13       		.uleb128 0x13
 3922 00b6 00       		.byte	0
 3923 00b7 00       		.byte	0
 3924 00b8 0F       		.uleb128 0xf
 3925 00b9 0D       		.uleb128 0xd
 3926 00ba 00       		.byte	0
 3927 00bb 03       		.uleb128 0x3
 3928 00bc 0E       		.uleb128 0xe
 3929 00bd 3A       		.uleb128 0x3a
 3930 00be 0B       		.uleb128 0xb
 3931 00bf 3B       		.uleb128 0x3b
 3932 00c0 0B       		.uleb128 0xb
 3933 00c1 49       		.uleb128 0x49
 3934 00c2 13       		.uleb128 0x13
 3935 00c3 38       		.uleb128 0x38
 3936 00c4 0A       		.uleb128 0xa
 3937 00c5 00       		.byte	0
 3938 00c6 00       		.byte	0
 3939 00c7 10       		.uleb128 0x10
 3940 00c8 0F       		.uleb128 0xf
 3941 00c9 00       		.byte	0
 3942 00ca 0B       		.uleb128 0xb
 3943 00cb 0B       		.uleb128 0xb
 3944 00cc 00       		.byte	0
 3945 00cd 00       		.byte	0
 3946 00ce 11       		.uleb128 0x11
 3947 00cf 13       		.uleb128 0x13
 3948 00d0 01       		.byte	0x1
 3949 00d1 03       		.uleb128 0x3
 3950 00d2 0E       		.uleb128 0xe
 3951 00d3 0B       		.uleb128 0xb
 3952 00d4 0B       		.uleb128 0xb
 3953 00d5 3A       		.uleb128 0x3a
 3954 00d6 0B       		.uleb128 0xb
 3955 00d7 3B       		.uleb128 0x3b
 3956 00d8 0B       		.uleb128 0xb
 3957 00d9 01       		.uleb128 0x1
 3958 00da 13       		.uleb128 0x13
 3959 00db 00       		.byte	0
 3960 00dc 00       		.byte	0
 3961 00dd 12       		.uleb128 0x12
 3962 00de 0D       		.uleb128 0xd
 3963 00df 00       		.byte	0
 3964 00e0 03       		.uleb128 0x3
 3965 00e1 08       		.uleb128 0x8
 3966 00e2 3A       		.uleb128 0x3a
 3967 00e3 0B       		.uleb128 0xb
 3968 00e4 3B       		.uleb128 0x3b
 3969 00e5 0B       		.uleb128 0xb
 3970 00e6 49       		.uleb128 0x49
 3971 00e7 13       		.uleb128 0x13
 3972 00e8 38       		.uleb128 0x38
 3973 00e9 0A       		.uleb128 0xa
 3974 00ea 00       		.byte	0
 3975 00eb 00       		.byte	0
ARM GAS  /tmp/ccMlcuwN.s 			page 71


 3976 00ec 13       		.uleb128 0x13
 3977 00ed 0F       		.uleb128 0xf
 3978 00ee 00       		.byte	0
 3979 00ef 0B       		.uleb128 0xb
 3980 00f0 0B       		.uleb128 0xb
 3981 00f1 49       		.uleb128 0x49
 3982 00f2 13       		.uleb128 0x13
 3983 00f3 00       		.byte	0
 3984 00f4 00       		.byte	0
 3985 00f5 14       		.uleb128 0x14
 3986 00f6 26       		.uleb128 0x26
 3987 00f7 00       		.byte	0
 3988 00f8 49       		.uleb128 0x49
 3989 00f9 13       		.uleb128 0x13
 3990 00fa 00       		.byte	0
 3991 00fb 00       		.byte	0
 3992 00fc 15       		.uleb128 0x15
 3993 00fd 17       		.uleb128 0x17
 3994 00fe 01       		.byte	0x1
 3995 00ff 0B       		.uleb128 0xb
 3996 0100 0B       		.uleb128 0xb
 3997 0101 3A       		.uleb128 0x3a
 3998 0102 0B       		.uleb128 0xb
 3999 0103 3B       		.uleb128 0x3b
 4000 0104 05       		.uleb128 0x5
 4001 0105 01       		.uleb128 0x1
 4002 0106 13       		.uleb128 0x13
 4003 0107 00       		.byte	0
 4004 0108 00       		.byte	0
 4005 0109 16       		.uleb128 0x16
 4006 010a 0D       		.uleb128 0xd
 4007 010b 00       		.byte	0
 4008 010c 03       		.uleb128 0x3
 4009 010d 08       		.uleb128 0x8
 4010 010e 3A       		.uleb128 0x3a
 4011 010f 0B       		.uleb128 0xb
 4012 0110 3B       		.uleb128 0x3b
 4013 0111 05       		.uleb128 0x5
 4014 0112 49       		.uleb128 0x49
 4015 0113 13       		.uleb128 0x13
 4016 0114 00       		.byte	0
 4017 0115 00       		.byte	0
 4018 0116 17       		.uleb128 0x17
 4019 0117 0D       		.uleb128 0xd
 4020 0118 00       		.byte	0
 4021 0119 03       		.uleb128 0x3
 4022 011a 0E       		.uleb128 0xe
 4023 011b 3A       		.uleb128 0x3a
 4024 011c 0B       		.uleb128 0xb
 4025 011d 3B       		.uleb128 0x3b
 4026 011e 05       		.uleb128 0x5
 4027 011f 49       		.uleb128 0x49
 4028 0120 13       		.uleb128 0x13
 4029 0121 00       		.byte	0
 4030 0122 00       		.byte	0
 4031 0123 18       		.uleb128 0x18
 4032 0124 01       		.uleb128 0x1
ARM GAS  /tmp/ccMlcuwN.s 			page 72


 4033 0125 01       		.byte	0x1
 4034 0126 49       		.uleb128 0x49
 4035 0127 13       		.uleb128 0x13
 4036 0128 01       		.uleb128 0x1
 4037 0129 13       		.uleb128 0x13
 4038 012a 00       		.byte	0
 4039 012b 00       		.byte	0
 4040 012c 19       		.uleb128 0x19
 4041 012d 21       		.uleb128 0x21
 4042 012e 00       		.byte	0
 4043 012f 49       		.uleb128 0x49
 4044 0130 13       		.uleb128 0x13
 4045 0131 2F       		.uleb128 0x2f
 4046 0132 0B       		.uleb128 0xb
 4047 0133 00       		.byte	0
 4048 0134 00       		.byte	0
 4049 0135 1A       		.uleb128 0x1a
 4050 0136 0D       		.uleb128 0xd
 4051 0137 00       		.byte	0
 4052 0138 03       		.uleb128 0x3
 4053 0139 0E       		.uleb128 0xe
 4054 013a 3A       		.uleb128 0x3a
 4055 013b 0B       		.uleb128 0xb
 4056 013c 3B       		.uleb128 0x3b
 4057 013d 0B       		.uleb128 0xb
 4058 013e 49       		.uleb128 0x49
 4059 013f 13       		.uleb128 0x13
 4060 0140 0B       		.uleb128 0xb
 4061 0141 0B       		.uleb128 0xb
 4062 0142 0D       		.uleb128 0xd
 4063 0143 0B       		.uleb128 0xb
 4064 0144 0C       		.uleb128 0xc
 4065 0145 0B       		.uleb128 0xb
 4066 0146 38       		.uleb128 0x38
 4067 0147 0A       		.uleb128 0xa
 4068 0148 00       		.byte	0
 4069 0149 00       		.byte	0
 4070 014a 1B       		.uleb128 0x1b
 4071 014b 2E       		.uleb128 0x2e
 4072 014c 00       		.byte	0
 4073 014d 3F       		.uleb128 0x3f
 4074 014e 0C       		.uleb128 0xc
 4075 014f 03       		.uleb128 0x3
 4076 0150 0E       		.uleb128 0xe
 4077 0151 3A       		.uleb128 0x3a
 4078 0152 0B       		.uleb128 0xb
 4079 0153 3B       		.uleb128 0x3b
 4080 0154 0B       		.uleb128 0xb
 4081 0155 27       		.uleb128 0x27
 4082 0156 0C       		.uleb128 0xc
 4083 0157 11       		.uleb128 0x11
 4084 0158 01       		.uleb128 0x1
 4085 0159 12       		.uleb128 0x12
 4086 015a 01       		.uleb128 0x1
 4087 015b 40       		.uleb128 0x40
 4088 015c 0A       		.uleb128 0xa
 4089 015d 9742     		.uleb128 0x2117
ARM GAS  /tmp/ccMlcuwN.s 			page 73


 4090 015f 0C       		.uleb128 0xc
 4091 0160 00       		.byte	0
 4092 0161 00       		.byte	0
 4093 0162 1C       		.uleb128 0x1c
 4094 0163 2E       		.uleb128 0x2e
 4095 0164 01       		.byte	0x1
 4096 0165 3F       		.uleb128 0x3f
 4097 0166 0C       		.uleb128 0xc
 4098 0167 03       		.uleb128 0x3
 4099 0168 0E       		.uleb128 0xe
 4100 0169 3A       		.uleb128 0x3a
 4101 016a 0B       		.uleb128 0xb
 4102 016b 3B       		.uleb128 0x3b
 4103 016c 0B       		.uleb128 0xb
 4104 016d 27       		.uleb128 0x27
 4105 016e 0C       		.uleb128 0xc
 4106 016f 49       		.uleb128 0x49
 4107 0170 13       		.uleb128 0x13
 4108 0171 11       		.uleb128 0x11
 4109 0172 01       		.uleb128 0x1
 4110 0173 12       		.uleb128 0x12
 4111 0174 01       		.uleb128 0x1
 4112 0175 40       		.uleb128 0x40
 4113 0176 06       		.uleb128 0x6
 4114 0177 9642     		.uleb128 0x2116
 4115 0179 0C       		.uleb128 0xc
 4116 017a 01       		.uleb128 0x1
 4117 017b 13       		.uleb128 0x13
 4118 017c 00       		.byte	0
 4119 017d 00       		.byte	0
 4120 017e 1D       		.uleb128 0x1d
 4121 017f 34       		.uleb128 0x34
 4122 0180 00       		.byte	0
 4123 0181 03       		.uleb128 0x3
 4124 0182 08       		.uleb128 0x8
 4125 0183 3A       		.uleb128 0x3a
 4126 0184 0B       		.uleb128 0xb
 4127 0185 3B       		.uleb128 0x3b
 4128 0186 0B       		.uleb128 0xb
 4129 0187 49       		.uleb128 0x49
 4130 0188 13       		.uleb128 0x13
 4131 0189 02       		.uleb128 0x2
 4132 018a 06       		.uleb128 0x6
 4133 018b 00       		.byte	0
 4134 018c 00       		.byte	0
 4135 018d 1E       		.uleb128 0x1e
 4136 018e 34       		.uleb128 0x34
 4137 018f 00       		.byte	0
 4138 0190 03       		.uleb128 0x3
 4139 0191 0E       		.uleb128 0xe
 4140 0192 3A       		.uleb128 0x3a
 4141 0193 0B       		.uleb128 0xb
 4142 0194 3B       		.uleb128 0x3b
 4143 0195 0B       		.uleb128 0xb
 4144 0196 49       		.uleb128 0x49
 4145 0197 13       		.uleb128 0x13
 4146 0198 00       		.byte	0
ARM GAS  /tmp/ccMlcuwN.s 			page 74


 4147 0199 00       		.byte	0
 4148 019a 1F       		.uleb128 0x1f
 4149 019b 2E       		.uleb128 0x2e
 4150 019c 01       		.byte	0x1
 4151 019d 3F       		.uleb128 0x3f
 4152 019e 0C       		.uleb128 0xc
 4153 019f 03       		.uleb128 0x3
 4154 01a0 0E       		.uleb128 0xe
 4155 01a1 3A       		.uleb128 0x3a
 4156 01a2 0B       		.uleb128 0xb
 4157 01a3 3B       		.uleb128 0x3b
 4158 01a4 0B       		.uleb128 0xb
 4159 01a5 27       		.uleb128 0x27
 4160 01a6 0C       		.uleb128 0xc
 4161 01a7 49       		.uleb128 0x49
 4162 01a8 13       		.uleb128 0x13
 4163 01a9 11       		.uleb128 0x11
 4164 01aa 01       		.uleb128 0x1
 4165 01ab 12       		.uleb128 0x12
 4166 01ac 01       		.uleb128 0x1
 4167 01ad 40       		.uleb128 0x40
 4168 01ae 06       		.uleb128 0x6
 4169 01af 9742     		.uleb128 0x2117
 4170 01b1 0C       		.uleb128 0xc
 4171 01b2 01       		.uleb128 0x1
 4172 01b3 13       		.uleb128 0x13
 4173 01b4 00       		.byte	0
 4174 01b5 00       		.byte	0
 4175 01b6 20       		.uleb128 0x20
 4176 01b7 34       		.uleb128 0x34
 4177 01b8 00       		.byte	0
 4178 01b9 03       		.uleb128 0x3
 4179 01ba 0E       		.uleb128 0xe
 4180 01bb 3A       		.uleb128 0x3a
 4181 01bc 0B       		.uleb128 0xb
 4182 01bd 3B       		.uleb128 0x3b
 4183 01be 0B       		.uleb128 0xb
 4184 01bf 49       		.uleb128 0x49
 4185 01c0 13       		.uleb128 0x13
 4186 01c1 02       		.uleb128 0x2
 4187 01c2 06       		.uleb128 0x6
 4188 01c3 00       		.byte	0
 4189 01c4 00       		.byte	0
 4190 01c5 21       		.uleb128 0x21
 4191 01c6 898201   		.uleb128 0x4109
 4192 01c9 00       		.byte	0
 4193 01ca 11       		.uleb128 0x11
 4194 01cb 01       		.uleb128 0x1
 4195 01cc 31       		.uleb128 0x31
 4196 01cd 13       		.uleb128 0x13
 4197 01ce 00       		.byte	0
 4198 01cf 00       		.byte	0
 4199 01d0 22       		.uleb128 0x22
 4200 01d1 05       		.uleb128 0x5
 4201 01d2 00       		.byte	0
 4202 01d3 03       		.uleb128 0x3
 4203 01d4 0E       		.uleb128 0xe
ARM GAS  /tmp/ccMlcuwN.s 			page 75


 4204 01d5 3A       		.uleb128 0x3a
 4205 01d6 0B       		.uleb128 0xb
 4206 01d7 3B       		.uleb128 0x3b
 4207 01d8 0B       		.uleb128 0xb
 4208 01d9 49       		.uleb128 0x49
 4209 01da 13       		.uleb128 0x13
 4210 01db 02       		.uleb128 0x2
 4211 01dc 06       		.uleb128 0x6
 4212 01dd 00       		.byte	0
 4213 01de 00       		.byte	0
 4214 01df 23       		.uleb128 0x23
 4215 01e0 34       		.uleb128 0x34
 4216 01e1 00       		.byte	0
 4217 01e2 03       		.uleb128 0x3
 4218 01e3 0E       		.uleb128 0xe
 4219 01e4 3A       		.uleb128 0x3a
 4220 01e5 0B       		.uleb128 0xb
 4221 01e6 3B       		.uleb128 0x3b
 4222 01e7 0B       		.uleb128 0xb
 4223 01e8 49       		.uleb128 0x49
 4224 01e9 13       		.uleb128 0x13
 4225 01ea 02       		.uleb128 0x2
 4226 01eb 0A       		.uleb128 0xa
 4227 01ec 00       		.byte	0
 4228 01ed 00       		.byte	0
 4229 01ee 24       		.uleb128 0x24
 4230 01ef 898201   		.uleb128 0x4109
 4231 01f2 01       		.byte	0x1
 4232 01f3 11       		.uleb128 0x11
 4233 01f4 01       		.uleb128 0x1
 4234 01f5 31       		.uleb128 0x31
 4235 01f6 13       		.uleb128 0x13
 4236 01f7 00       		.byte	0
 4237 01f8 00       		.byte	0
 4238 01f9 25       		.uleb128 0x25
 4239 01fa 8A8201   		.uleb128 0x410a
 4240 01fd 00       		.byte	0
 4241 01fe 02       		.uleb128 0x2
 4242 01ff 0A       		.uleb128 0xa
 4243 0200 9142     		.uleb128 0x2111
 4244 0202 0A       		.uleb128 0xa
 4245 0203 00       		.byte	0
 4246 0204 00       		.byte	0
 4247 0205 26       		.uleb128 0x26
 4248 0206 2E       		.uleb128 0x2e
 4249 0207 01       		.byte	0x1
 4250 0208 3F       		.uleb128 0x3f
 4251 0209 0C       		.uleb128 0xc
 4252 020a 03       		.uleb128 0x3
 4253 020b 0E       		.uleb128 0xe
 4254 020c 3A       		.uleb128 0x3a
 4255 020d 0B       		.uleb128 0xb
 4256 020e 3B       		.uleb128 0x3b
 4257 020f 05       		.uleb128 0x5
 4258 0210 27       		.uleb128 0x27
 4259 0211 0C       		.uleb128 0xc
 4260 0212 11       		.uleb128 0x11
ARM GAS  /tmp/ccMlcuwN.s 			page 76


 4261 0213 01       		.uleb128 0x1
 4262 0214 12       		.uleb128 0x12
 4263 0215 01       		.uleb128 0x1
 4264 0216 40       		.uleb128 0x40
 4265 0217 06       		.uleb128 0x6
 4266 0218 9742     		.uleb128 0x2117
 4267 021a 0C       		.uleb128 0xc
 4268 021b 01       		.uleb128 0x1
 4269 021c 13       		.uleb128 0x13
 4270 021d 00       		.byte	0
 4271 021e 00       		.byte	0
 4272 021f 27       		.uleb128 0x27
 4273 0220 34       		.uleb128 0x34
 4274 0221 00       		.byte	0
 4275 0222 03       		.uleb128 0x3
 4276 0223 0E       		.uleb128 0xe
 4277 0224 3A       		.uleb128 0x3a
 4278 0225 0B       		.uleb128 0xb
 4279 0226 3B       		.uleb128 0x3b
 4280 0227 05       		.uleb128 0x5
 4281 0228 49       		.uleb128 0x49
 4282 0229 13       		.uleb128 0x13
 4283 022a 02       		.uleb128 0x2
 4284 022b 06       		.uleb128 0x6
 4285 022c 00       		.byte	0
 4286 022d 00       		.byte	0
 4287 022e 28       		.uleb128 0x28
 4288 022f 34       		.uleb128 0x34
 4289 0230 00       		.byte	0
 4290 0231 03       		.uleb128 0x3
 4291 0232 08       		.uleb128 0x8
 4292 0233 3A       		.uleb128 0x3a
 4293 0234 0B       		.uleb128 0xb
 4294 0235 3B       		.uleb128 0x3b
 4295 0236 05       		.uleb128 0x5
 4296 0237 49       		.uleb128 0x49
 4297 0238 13       		.uleb128 0x13
 4298 0239 02       		.uleb128 0x2
 4299 023a 06       		.uleb128 0x6
 4300 023b 00       		.byte	0
 4301 023c 00       		.byte	0
 4302 023d 29       		.uleb128 0x29
 4303 023e 34       		.uleb128 0x34
 4304 023f 00       		.byte	0
 4305 0240 03       		.uleb128 0x3
 4306 0241 0E       		.uleb128 0xe
 4307 0242 3A       		.uleb128 0x3a
 4308 0243 0B       		.uleb128 0xb
 4309 0244 3B       		.uleb128 0x3b
 4310 0245 05       		.uleb128 0x5
 4311 0246 49       		.uleb128 0x49
 4312 0247 13       		.uleb128 0x13
 4313 0248 1C       		.uleb128 0x1c
 4314 0249 0B       		.uleb128 0xb
 4315 024a 00       		.byte	0
 4316 024b 00       		.byte	0
 4317 024c 2A       		.uleb128 0x2a
ARM GAS  /tmp/ccMlcuwN.s 			page 77


 4318 024d 2E       		.uleb128 0x2e
 4319 024e 01       		.byte	0x1
 4320 024f 3F       		.uleb128 0x3f
 4321 0250 0C       		.uleb128 0xc
 4322 0251 03       		.uleb128 0x3
 4323 0252 0E       		.uleb128 0xe
 4324 0253 3A       		.uleb128 0x3a
 4325 0254 0B       		.uleb128 0xb
 4326 0255 3B       		.uleb128 0x3b
 4327 0256 0B       		.uleb128 0xb
 4328 0257 27       		.uleb128 0x27
 4329 0258 0C       		.uleb128 0xc
 4330 0259 11       		.uleb128 0x11
 4331 025a 01       		.uleb128 0x1
 4332 025b 12       		.uleb128 0x12
 4333 025c 01       		.uleb128 0x1
 4334 025d 40       		.uleb128 0x40
 4335 025e 06       		.uleb128 0x6
 4336 025f 9742     		.uleb128 0x2117
 4337 0261 0C       		.uleb128 0xc
 4338 0262 01       		.uleb128 0x1
 4339 0263 13       		.uleb128 0x13
 4340 0264 00       		.byte	0
 4341 0265 00       		.byte	0
 4342 0266 2B       		.uleb128 0x2b
 4343 0267 898201   		.uleb128 0x4109
 4344 026a 01       		.byte	0x1
 4345 026b 11       		.uleb128 0x11
 4346 026c 01       		.uleb128 0x1
 4347 026d 31       		.uleb128 0x31
 4348 026e 13       		.uleb128 0x13
 4349 026f 01       		.uleb128 0x1
 4350 0270 13       		.uleb128 0x13
 4351 0271 00       		.byte	0
 4352 0272 00       		.byte	0
 4353 0273 2C       		.uleb128 0x2c
 4354 0274 2E       		.uleb128 0x2e
 4355 0275 01       		.byte	0x1
 4356 0276 3F       		.uleb128 0x3f
 4357 0277 0C       		.uleb128 0xc
 4358 0278 03       		.uleb128 0x3
 4359 0279 0E       		.uleb128 0xe
 4360 027a 3A       		.uleb128 0x3a
 4361 027b 0B       		.uleb128 0xb
 4362 027c 3B       		.uleb128 0x3b
 4363 027d 05       		.uleb128 0x5
 4364 027e 27       		.uleb128 0x27
 4365 027f 0C       		.uleb128 0xc
 4366 0280 49       		.uleb128 0x49
 4367 0281 13       		.uleb128 0x13
 4368 0282 11       		.uleb128 0x11
 4369 0283 01       		.uleb128 0x1
 4370 0284 12       		.uleb128 0x12
 4371 0285 01       		.uleb128 0x1
 4372 0286 40       		.uleb128 0x40
 4373 0287 06       		.uleb128 0x6
 4374 0288 9742     		.uleb128 0x2117
ARM GAS  /tmp/ccMlcuwN.s 			page 78


 4375 028a 0C       		.uleb128 0xc
 4376 028b 01       		.uleb128 0x1
 4377 028c 13       		.uleb128 0x13
 4378 028d 00       		.byte	0
 4379 028e 00       		.byte	0
 4380 028f 2D       		.uleb128 0x2d
 4381 0290 34       		.uleb128 0x34
 4382 0291 00       		.byte	0
 4383 0292 03       		.uleb128 0x3
 4384 0293 0E       		.uleb128 0xe
 4385 0294 3A       		.uleb128 0x3a
 4386 0295 0B       		.uleb128 0xb
 4387 0296 3B       		.uleb128 0x3b
 4388 0297 05       		.uleb128 0x5
 4389 0298 49       		.uleb128 0x49
 4390 0299 13       		.uleb128 0x13
 4391 029a 02       		.uleb128 0x2
 4392 029b 0A       		.uleb128 0xa
 4393 029c 00       		.byte	0
 4394 029d 00       		.byte	0
 4395 029e 2E       		.uleb128 0x2e
 4396 029f 2E       		.uleb128 0x2e
 4397 02a0 01       		.byte	0x1
 4398 02a1 3F       		.uleb128 0x3f
 4399 02a2 0C       		.uleb128 0xc
 4400 02a3 03       		.uleb128 0x3
 4401 02a4 0E       		.uleb128 0xe
 4402 02a5 3A       		.uleb128 0x3a
 4403 02a6 0B       		.uleb128 0xb
 4404 02a7 3B       		.uleb128 0x3b
 4405 02a8 05       		.uleb128 0x5
 4406 02a9 27       		.uleb128 0x27
 4407 02aa 0C       		.uleb128 0xc
 4408 02ab 11       		.uleb128 0x11
 4409 02ac 01       		.uleb128 0x1
 4410 02ad 12       		.uleb128 0x12
 4411 02ae 01       		.uleb128 0x1
 4412 02af 40       		.uleb128 0x40
 4413 02b0 06       		.uleb128 0x6
 4414 02b1 9642     		.uleb128 0x2116
 4415 02b3 0C       		.uleb128 0xc
 4416 02b4 01       		.uleb128 0x1
 4417 02b5 13       		.uleb128 0x13
 4418 02b6 00       		.byte	0
 4419 02b7 00       		.byte	0
 4420 02b8 2F       		.uleb128 0x2f
 4421 02b9 34       		.uleb128 0x34
 4422 02ba 00       		.byte	0
 4423 02bb 03       		.uleb128 0x3
 4424 02bc 08       		.uleb128 0x8
 4425 02bd 3A       		.uleb128 0x3a
 4426 02be 0B       		.uleb128 0xb
 4427 02bf 3B       		.uleb128 0x3b
 4428 02c0 05       		.uleb128 0x5
 4429 02c1 49       		.uleb128 0x49
 4430 02c2 13       		.uleb128 0x13
 4431 02c3 3F       		.uleb128 0x3f
ARM GAS  /tmp/ccMlcuwN.s 			page 79


 4432 02c4 0C       		.uleb128 0xc
 4433 02c5 3C       		.uleb128 0x3c
 4434 02c6 0C       		.uleb128 0xc
 4435 02c7 00       		.byte	0
 4436 02c8 00       		.byte	0
 4437 02c9 30       		.uleb128 0x30
 4438 02ca 34       		.uleb128 0x34
 4439 02cb 00       		.byte	0
 4440 02cc 03       		.uleb128 0x3
 4441 02cd 0E       		.uleb128 0xe
 4442 02ce 3A       		.uleb128 0x3a
 4443 02cf 0B       		.uleb128 0xb
 4444 02d0 3B       		.uleb128 0x3b
 4445 02d1 0B       		.uleb128 0xb
 4446 02d2 49       		.uleb128 0x49
 4447 02d3 13       		.uleb128 0x13
 4448 02d4 3F       		.uleb128 0x3f
 4449 02d5 0C       		.uleb128 0xc
 4450 02d6 3C       		.uleb128 0x3c
 4451 02d7 0C       		.uleb128 0xc
 4452 02d8 00       		.byte	0
 4453 02d9 00       		.byte	0
 4454 02da 31       		.uleb128 0x31
 4455 02db 34       		.uleb128 0x34
 4456 02dc 00       		.byte	0
 4457 02dd 03       		.uleb128 0x3
 4458 02de 0E       		.uleb128 0xe
 4459 02df 3A       		.uleb128 0x3a
 4460 02e0 0B       		.uleb128 0xb
 4461 02e1 3B       		.uleb128 0x3b
 4462 02e2 0B       		.uleb128 0xb
 4463 02e3 49       		.uleb128 0x49
 4464 02e4 13       		.uleb128 0x13
 4465 02e5 3F       		.uleb128 0x3f
 4466 02e6 0C       		.uleb128 0xc
 4467 02e7 02       		.uleb128 0x2
 4468 02e8 0A       		.uleb128 0xa
 4469 02e9 00       		.byte	0
 4470 02ea 00       		.byte	0
 4471 02eb 32       		.uleb128 0x32
 4472 02ec 2E       		.uleb128 0x2e
 4473 02ed 01       		.byte	0x1
 4474 02ee 3F       		.uleb128 0x3f
 4475 02ef 0C       		.uleb128 0xc
 4476 02f0 03       		.uleb128 0x3
 4477 02f1 0E       		.uleb128 0xe
 4478 02f2 3A       		.uleb128 0x3a
 4479 02f3 0B       		.uleb128 0xb
 4480 02f4 3B       		.uleb128 0x3b
 4481 02f5 0B       		.uleb128 0xb
 4482 02f6 27       		.uleb128 0x27
 4483 02f7 0C       		.uleb128 0xc
 4484 02f8 49       		.uleb128 0x49
 4485 02f9 13       		.uleb128 0x13
 4486 02fa 3C       		.uleb128 0x3c
 4487 02fb 0C       		.uleb128 0xc
 4488 02fc 01       		.uleb128 0x1
ARM GAS  /tmp/ccMlcuwN.s 			page 80


 4489 02fd 13       		.uleb128 0x13
 4490 02fe 00       		.byte	0
 4491 02ff 00       		.byte	0
 4492 0300 33       		.uleb128 0x33
 4493 0301 05       		.uleb128 0x5
 4494 0302 00       		.byte	0
 4495 0303 49       		.uleb128 0x49
 4496 0304 13       		.uleb128 0x13
 4497 0305 00       		.byte	0
 4498 0306 00       		.byte	0
 4499 0307 34       		.uleb128 0x34
 4500 0308 2E       		.uleb128 0x2e
 4501 0309 01       		.byte	0x1
 4502 030a 3F       		.uleb128 0x3f
 4503 030b 0C       		.uleb128 0xc
 4504 030c 03       		.uleb128 0x3
 4505 030d 0E       		.uleb128 0xe
 4506 030e 3A       		.uleb128 0x3a
 4507 030f 0B       		.uleb128 0xb
 4508 0310 3B       		.uleb128 0x3b
 4509 0311 05       		.uleb128 0x5
 4510 0312 27       		.uleb128 0x27
 4511 0313 0C       		.uleb128 0xc
 4512 0314 3C       		.uleb128 0x3c
 4513 0315 0C       		.uleb128 0xc
 4514 0316 01       		.uleb128 0x1
 4515 0317 13       		.uleb128 0x13
 4516 0318 00       		.byte	0
 4517 0319 00       		.byte	0
 4518 031a 35       		.uleb128 0x35
 4519 031b 2E       		.uleb128 0x2e
 4520 031c 01       		.byte	0x1
 4521 031d 3F       		.uleb128 0x3f
 4522 031e 0C       		.uleb128 0xc
 4523 031f 03       		.uleb128 0x3
 4524 0320 0E       		.uleb128 0xe
 4525 0321 3A       		.uleb128 0x3a
 4526 0322 0B       		.uleb128 0xb
 4527 0323 3B       		.uleb128 0x3b
 4528 0324 0B       		.uleb128 0xb
 4529 0325 27       		.uleb128 0x27
 4530 0326 0C       		.uleb128 0xc
 4531 0327 3C       		.uleb128 0x3c
 4532 0328 0C       		.uleb128 0xc
 4533 0329 01       		.uleb128 0x1
 4534 032a 13       		.uleb128 0x13
 4535 032b 00       		.byte	0
 4536 032c 00       		.byte	0
 4537 032d 36       		.uleb128 0x36
 4538 032e 2E       		.uleb128 0x2e
 4539 032f 01       		.byte	0x1
 4540 0330 3F       		.uleb128 0x3f
 4541 0331 0C       		.uleb128 0xc
 4542 0332 03       		.uleb128 0x3
 4543 0333 0E       		.uleb128 0xe
 4544 0334 27       		.uleb128 0x27
 4545 0335 0C       		.uleb128 0xc
ARM GAS  /tmp/ccMlcuwN.s 			page 81


 4546 0336 49       		.uleb128 0x49
 4547 0337 13       		.uleb128 0x13
 4548 0338 34       		.uleb128 0x34
 4549 0339 0C       		.uleb128 0xc
 4550 033a 3C       		.uleb128 0x3c
 4551 033b 0C       		.uleb128 0xc
 4552 033c 01       		.uleb128 0x1
 4553 033d 13       		.uleb128 0x13
 4554 033e 00       		.byte	0
 4555 033f 00       		.byte	0
 4556 0340 37       		.uleb128 0x37
 4557 0341 26       		.uleb128 0x26
 4558 0342 00       		.byte	0
 4559 0343 00       		.byte	0
 4560 0344 00       		.byte	0
 4561 0345 38       		.uleb128 0x38
 4562 0346 2E       		.uleb128 0x2e
 4563 0347 01       		.byte	0x1
 4564 0348 3F       		.uleb128 0x3f
 4565 0349 0C       		.uleb128 0xc
 4566 034a 03       		.uleb128 0x3
 4567 034b 0E       		.uleb128 0xe
 4568 034c 3A       		.uleb128 0x3a
 4569 034d 0B       		.uleb128 0xb
 4570 034e 3B       		.uleb128 0x3b
 4571 034f 0B       		.uleb128 0xb
 4572 0350 27       		.uleb128 0x27
 4573 0351 0C       		.uleb128 0xc
 4574 0352 49       		.uleb128 0x49
 4575 0353 13       		.uleb128 0x13
 4576 0354 3C       		.uleb128 0x3c
 4577 0355 0C       		.uleb128 0xc
 4578 0356 00       		.byte	0
 4579 0357 00       		.byte	0
 4580 0358 00       		.byte	0
 4581              		.section	.debug_loc,"",%progbits
 4582              	.Ldebug_loc0:
 4583              	.LLST0:
 4584 0000 00000000 		.4byte	.LFB79
 4585 0004 02000000 		.4byte	.LCFI0
 4586 0008 0200     		.2byte	0x2
 4587 000a 7D       		.byte	0x7d
 4588 000b 00       		.sleb128 0
 4589 000c 02000000 		.4byte	.LCFI0
 4590 0010 34000000 		.4byte	.LFE79
 4591 0014 0200     		.2byte	0x2
 4592 0016 7D       		.byte	0x7d
 4593 0017 08       		.sleb128 8
 4594 0018 00000000 		.4byte	0
 4595 001c 00000000 		.4byte	0
 4596              	.LLST1:
 4597 0020 00000000 		.4byte	.LVL0
 4598 0024 14000000 		.4byte	.LVL2
 4599 0028 0200     		.2byte	0x2
 4600 002a 30       		.byte	0x30
 4601 002b 9F       		.byte	0x9f
 4602 002c 00000000 		.4byte	0
ARM GAS  /tmp/ccMlcuwN.s 			page 82


 4603 0030 00000000 		.4byte	0
 4604              	.LLST2:
 4605 0034 00000000 		.4byte	.LFB80
 4606 0038 02000000 		.4byte	.LCFI1
 4607 003c 0200     		.2byte	0x2
 4608 003e 7D       		.byte	0x7d
 4609 003f 00       		.sleb128 0
 4610 0040 02000000 		.4byte	.LCFI1
 4611 0044 14000000 		.4byte	.LFE80
 4612 0048 0200     		.2byte	0x2
 4613 004a 7D       		.byte	0x7d
 4614 004b 08       		.sleb128 8
 4615 004c 00000000 		.4byte	0
 4616 0050 00000000 		.4byte	0
 4617              	.LLST3:
 4618 0054 06000000 		.4byte	.LVL4
 4619 0058 0A000000 		.4byte	.LVL5
 4620 005c 0100     		.2byte	0x1
 4621 005e 50       		.byte	0x50
 4622 005f 00000000 		.4byte	0
 4623 0063 00000000 		.4byte	0
 4624              	.LLST4:
 4625 0067 00000000 		.4byte	.LFB81
 4626 006b 02000000 		.4byte	.LCFI2
 4627 006f 0200     		.2byte	0x2
 4628 0071 7D       		.byte	0x7d
 4629 0072 00       		.sleb128 0
 4630 0073 02000000 		.4byte	.LCFI2
 4631 0077 28000000 		.4byte	.LFE81
 4632 007b 0200     		.2byte	0x2
 4633 007d 7D       		.byte	0x7d
 4634 007e 10       		.sleb128 16
 4635 007f 00000000 		.4byte	0
 4636 0083 00000000 		.4byte	0
 4637              	.LLST5:
 4638 0087 00000000 		.4byte	.LVL6
 4639 008b 10000000 		.4byte	.LVL7
 4640 008f 0100     		.2byte	0x1
 4641 0091 50       		.byte	0x50
 4642 0092 10000000 		.4byte	.LVL7
 4643 0096 28000000 		.4byte	.LFE81
 4644 009a 0400     		.2byte	0x4
 4645 009c F3       		.byte	0xf3
 4646 009d 01       		.uleb128 0x1
 4647 009e 50       		.byte	0x50
 4648 009f 9F       		.byte	0x9f
 4649 00a0 00000000 		.4byte	0
 4650 00a4 00000000 		.4byte	0
 4651              	.LLST6:
 4652 00a8 00000000 		.4byte	.LFB82
 4653 00ac 02000000 		.4byte	.LCFI3
 4654 00b0 0200     		.2byte	0x2
 4655 00b2 7D       		.byte	0x7d
 4656 00b3 00       		.sleb128 0
 4657 00b4 02000000 		.4byte	.LCFI3
 4658 00b8 64000000 		.4byte	.LFE82
 4659 00bc 0200     		.2byte	0x2
ARM GAS  /tmp/ccMlcuwN.s 			page 83


 4660 00be 7D       		.byte	0x7d
 4661 00bf 0C       		.sleb128 12
 4662 00c0 00000000 		.4byte	0
 4663 00c4 00000000 		.4byte	0
 4664              	.LLST7:
 4665 00c8 00000000 		.4byte	.LVL9
 4666 00cc 0A000000 		.4byte	.LVL10
 4667 00d0 0200     		.2byte	0x2
 4668 00d2 30       		.byte	0x30
 4669 00d3 9F       		.byte	0x9f
 4670 00d4 14000000 		.4byte	.LVL11
 4671 00d8 4A000000 		.4byte	.LVL17
 4672 00dc 0100     		.2byte	0x1
 4673 00de 52       		.byte	0x52
 4674 00df 00000000 		.4byte	0
 4675 00e3 00000000 		.4byte	0
 4676              	.LLST8:
 4677 00e7 00000000 		.4byte	.LVL9
 4678 00eb 0A000000 		.4byte	.LVL10
 4679 00ef 0200     		.2byte	0x2
 4680 00f1 30       		.byte	0x30
 4681 00f2 9F       		.byte	0x9f
 4682 00f3 1A000000 		.4byte	.LVL12
 4683 00f7 28000000 		.4byte	.LVL14
 4684 00fb 0100     		.2byte	0x1
 4685 00fd 50       		.byte	0x50
 4686 00fe 00000000 		.4byte	0
 4687 0102 00000000 		.4byte	0
 4688              	.LLST9:
 4689 0106 00000000 		.4byte	.LVL9
 4690 010a 0A000000 		.4byte	.LVL10
 4691 010e 0200     		.2byte	0x2
 4692 0110 30       		.byte	0x30
 4693 0111 9F       		.byte	0x9f
 4694 0112 1C000000 		.4byte	.LVL13
 4695 0116 2A000000 		.4byte	.LVL15
 4696 011a 0100     		.2byte	0x1
 4697 011c 51       		.byte	0x51
 4698 011d 2A000000 		.4byte	.LVL15
 4699 0121 48000000 		.4byte	.LVL16
 4700 0125 0100     		.2byte	0x1
 4701 0127 50       		.byte	0x50
 4702 0128 00000000 		.4byte	0
 4703 012c 00000000 		.4byte	0
 4704              	.LLST10:
 4705 0130 00000000 		.4byte	.LVL9
 4706 0134 0A000000 		.4byte	.LVL10
 4707 0138 0200     		.2byte	0x2
 4708 013a 30       		.byte	0x30
 4709 013b 9F       		.byte	0x9f
 4710 013c 00000000 		.4byte	0
 4711 0140 00000000 		.4byte	0
 4712              	.LLST11:
 4713 0144 00000000 		.4byte	.LFB77
 4714 0148 02000000 		.4byte	.LCFI4
 4715 014c 0200     		.2byte	0x2
 4716 014e 7D       		.byte	0x7d
ARM GAS  /tmp/ccMlcuwN.s 			page 84


 4717 014f 00       		.sleb128 0
 4718 0150 02000000 		.4byte	.LCFI4
 4719 0154 06000000 		.4byte	.LCFI5
 4720 0158 0200     		.2byte	0x2
 4721 015a 7D       		.byte	0x7d
 4722 015b 14       		.sleb128 20
 4723 015c 06000000 		.4byte	.LCFI5
 4724 0160 50010000 		.4byte	.LFE77
 4725 0164 0300     		.2byte	0x3
 4726 0166 7D       		.byte	0x7d
 4727 0167 C000     		.sleb128 64
 4728 0169 00000000 		.4byte	0
 4729 016d 00000000 		.4byte	0
 4730              	.LLST12:
 4731 0171 00000000 		.4byte	.LFB83
 4732 0175 02000000 		.4byte	.LCFI6
 4733 0179 0200     		.2byte	0x2
 4734 017b 7D       		.byte	0x7d
 4735 017c 00       		.sleb128 0
 4736 017d 02000000 		.4byte	.LCFI6
 4737 0181 44000000 		.4byte	.LFE83
 4738 0185 0200     		.2byte	0x2
 4739 0187 7D       		.byte	0x7d
 4740 0188 10       		.sleb128 16
 4741 0189 00000000 		.4byte	0
 4742 018d 00000000 		.4byte	0
 4743              	.LLST13:
 4744 0191 00000000 		.4byte	.LFB84
 4745 0195 02000000 		.4byte	.LCFI7
 4746 0199 0200     		.2byte	0x2
 4747 019b 7D       		.byte	0x7d
 4748 019c 00       		.sleb128 0
 4749 019d 02000000 		.4byte	.LCFI7
 4750 01a1 5C000000 		.4byte	.LFE84
 4751 01a5 0200     		.2byte	0x2
 4752 01a7 7D       		.byte	0x7d
 4753 01a8 18       		.sleb128 24
 4754 01a9 00000000 		.4byte	0
 4755 01ad 00000000 		.4byte	0
 4756              	.LLST14:
 4757 01b1 00000000 		.4byte	.LFB85
 4758 01b5 02000000 		.4byte	.LCFI8
 4759 01b9 0200     		.2byte	0x2
 4760 01bb 7D       		.byte	0x7d
 4761 01bc 00       		.sleb128 0
 4762 01bd 02000000 		.4byte	.LCFI8
 4763 01c1 80000000 		.4byte	.LFE85
 4764 01c5 0200     		.2byte	0x2
 4765 01c7 7D       		.byte	0x7d
 4766 01c8 18       		.sleb128 24
 4767 01c9 00000000 		.4byte	0
 4768 01cd 00000000 		.4byte	0
 4769              	.LLST15:
 4770 01d1 4A000000 		.4byte	.LVL50
 4771 01d5 4F000000 		.4byte	.LVL51-1
 4772 01d9 0100     		.2byte	0x1
 4773 01db 51       		.byte	0x51
ARM GAS  /tmp/ccMlcuwN.s 			page 85


 4774 01dc 00000000 		.4byte	0
 4775 01e0 00000000 		.4byte	0
 4776              	.LLST16:
 4777 01e4 00000000 		.4byte	.LFB86
 4778 01e8 02000000 		.4byte	.LCFI9
 4779 01ec 0200     		.2byte	0x2
 4780 01ee 7D       		.byte	0x7d
 4781 01ef 00       		.sleb128 0
 4782 01f0 02000000 		.4byte	.LCFI9
 4783 01f4 DC010000 		.4byte	.LFE86
 4784 01f8 0200     		.2byte	0x2
 4785 01fa 7D       		.byte	0x7d
 4786 01fb 20       		.sleb128 32
 4787 01fc 00000000 		.4byte	0
 4788 0200 00000000 		.4byte	0
 4789              	.LLST17:
 4790 0204 00000000 		.4byte	.LVL52
 4791 0208 46000000 		.4byte	.LVL53
 4792 020c 0200     		.2byte	0x2
 4793 020e 30       		.byte	0x30
 4794 020f 9F       		.byte	0x9f
 4795 0210 46000000 		.4byte	.LVL53
 4796 0214 55000000 		.4byte	.LVL54-1
 4797 0218 0100     		.2byte	0x1
 4798 021a 51       		.byte	0x51
 4799 021b 84000000 		.4byte	.LVL55
 4800 021f C6000000 		.4byte	.LVL56
 4801 0223 0200     		.2byte	0x2
 4802 0225 30       		.byte	0x30
 4803 0226 9F       		.byte	0x9f
 4804 0227 C6000000 		.4byte	.LVL56
 4805 022b DB000000 		.4byte	.LVL57-1
 4806 022f 0100     		.2byte	0x1
 4807 0231 51       		.byte	0x51
 4808 0232 00000000 		.4byte	0
 4809 0236 00000000 		.4byte	0
 4810              		.section	.debug_aranges,"",%progbits
 4811 0000 64000000 		.4byte	0x64
 4812 0004 0200     		.2byte	0x2
 4813 0006 00000000 		.4byte	.Ldebug_info0
 4814 000a 04       		.byte	0x4
 4815 000b 00       		.byte	0
 4816 000c 0000     		.2byte	0
 4817 000e 0000     		.2byte	0
 4818 0010 00000000 		.4byte	.LFB78
 4819 0014 24000000 		.4byte	.LFE78-.LFB78
 4820 0018 00000000 		.4byte	.LFB79
 4821 001c 34000000 		.4byte	.LFE79-.LFB79
 4822 0020 00000000 		.4byte	.LFB80
 4823 0024 14000000 		.4byte	.LFE80-.LFB80
 4824 0028 00000000 		.4byte	.LFB81
 4825 002c 28000000 		.4byte	.LFE81-.LFB81
 4826 0030 00000000 		.4byte	.LFB82
 4827 0034 64000000 		.4byte	.LFE82-.LFB82
 4828 0038 00000000 		.4byte	.LFB77
 4829 003c 50010000 		.4byte	.LFE77-.LFB77
 4830 0040 00000000 		.4byte	.LFB83
ARM GAS  /tmp/ccMlcuwN.s 			page 86


 4831 0044 44000000 		.4byte	.LFE83-.LFB83
 4832 0048 00000000 		.4byte	.LFB84
 4833 004c 5C000000 		.4byte	.LFE84-.LFB84
 4834 0050 00000000 		.4byte	.LFB85
 4835 0054 80000000 		.4byte	.LFE85-.LFB85
 4836 0058 00000000 		.4byte	.LFB86
 4837 005c DC010000 		.4byte	.LFE86-.LFB86
 4838 0060 00000000 		.4byte	0
 4839 0064 00000000 		.4byte	0
 4840              		.section	.debug_ranges,"",%progbits
 4841              	.Ldebug_ranges0:
 4842 0000 00000000 		.4byte	.LFB78
 4843 0004 24000000 		.4byte	.LFE78
 4844 0008 00000000 		.4byte	.LFB79
 4845 000c 34000000 		.4byte	.LFE79
 4846 0010 00000000 		.4byte	.LFB80
 4847 0014 14000000 		.4byte	.LFE80
 4848 0018 00000000 		.4byte	.LFB81
 4849 001c 28000000 		.4byte	.LFE81
 4850 0020 00000000 		.4byte	.LFB82
 4851 0024 64000000 		.4byte	.LFE82
 4852 0028 00000000 		.4byte	.LFB77
 4853 002c 50010000 		.4byte	.LFE77
 4854 0030 00000000 		.4byte	.LFB83
 4855 0034 44000000 		.4byte	.LFE83
 4856 0038 00000000 		.4byte	.LFB84
 4857 003c 5C000000 		.4byte	.LFE84
 4858 0040 00000000 		.4byte	.LFB85
 4859 0044 80000000 		.4byte	.LFE85
 4860 0048 00000000 		.4byte	.LFB86
 4861 004c DC010000 		.4byte	.LFE86
 4862 0050 00000000 		.4byte	0
 4863 0054 00000000 		.4byte	0
 4864              		.section	.debug_line,"",%progbits
 4865              	.Ldebug_line0:
 4866 0000 8C030000 		.section	.debug_str,"MS",%progbits,1
 4866      0200A601 
 4866      00000201 
 4866      FB0E0D00 
 4866      01010101 
 4867              	.LASF176:
 4868 0000 54494D32 		.ascii	"TIM2CC4CaptureNumber\000"
 4868      43433443 
 4868      61707475 
 4868      72654E75 
 4868      6D626572 
 4869              	.LASF130:
 4870 0015 73656E73 		.ascii	"sensor_threshold\000"
 4870      6F725F74 
 4870      68726573 
 4870      686F6C64 
 4870      00
 4871              	.LASF96:
 4872 0026 54494D5F 		.ascii	"TIM_Prescaler\000"
 4872      50726573 
 4872      63616C65 
 4872      7200
ARM GAS  /tmp/ccMlcuwN.s 			page 87


 4873              	.LASF35:
 4874 0034 45585449 		.ascii	"EXTI4_15_IRQn\000"
 4874      345F3135 
 4874      5F495251 
 4874      6E00
 4875              	.LASF136:
 4876 0042 67656172 		.ascii	"gears_ratio\000"
 4876      735F7261 
 4876      74696F00 
 4877              	.LASF113:
 4878 004e 72656761 		.ascii	"regarm_t\000"
 4878      726D5F74 
 4878      00
 4879              	.LASF210:
 4880 0057 69326353 		.ascii	"i2cSendS\000"
 4880      656E6453 
 4880      00
 4881              	.LASF175:
 4882 0060 54494D32 		.ascii	"TIM2CC3CaptureNumber\000"
 4882      43433343 
 4882      61707475 
 4882      72654E75 
 4882      6D626572 
 4883              	.LASF34:
 4884 0075 45585449 		.ascii	"EXTI2_3_IRQn\000"
 4884      325F335F 
 4884      4952516E 
 4884      00
 4885              	.LASF25:
 4886 0082 5356435F 		.ascii	"SVC_IRQn\000"
 4886      4952516E 
 4886      00
 4887              	.LASF112:
 4888 008b 73797374 		.ascii	"systime_t\000"
 4888      696D655F 
 4888      7400
 4889              	.LASF144:
 4890 0095 73686966 		.ascii	"shifting\000"
 4890      74696E67 
 4890      00
 4891              	.LASF107:
 4892 009e 54494D5F 		.ascii	"TIM_ICInitTypeDef\000"
 4892      4943496E 
 4892      69745479 
 4892      70654465 
 4892      6600
 4893              	.LASF183:
 4894 00b0 61636365 		.ascii	"accel1\000"
 4894      6C3100
 4895              	.LASF184:
 4896 00b7 61636365 		.ascii	"accel2\000"
 4896      6C3200
 4897              	.LASF143:
 4898 00be 5F5F7374 		.ascii	"__status\000"
 4898      61747573 
 4898      00
 4899              	.LASF0:
ARM GAS  /tmp/ccMlcuwN.s 			page 88


 4900 00c7 756E7369 		.ascii	"unsigned int\000"
 4900      676E6564 
 4900      20696E74 
 4900      00
 4901              	.LASF123:
 4902 00d4 6E657874 		.ascii	"next\000"
 4902      00
 4903              	.LASF60:
 4904 00d9 46756E63 		.ascii	"FunctionalState\000"
 4904      74696F6E 
 4904      616C5374 
 4904      61746500 
 4905              	.LASF155:
 4906 00e9 72617469 		.ascii	"ratio\000"
 4906      6F00
 4907              	.LASF48:
 4908 00ef 54494D31 		.ascii	"TIM16_IRQn\000"
 4908      365F4952 
 4908      516E00
 4909              	.LASF31:
 4910 00fa 464C4153 		.ascii	"FLASH_IRQn\000"
 4910      485F4952 
 4910      516E00
 4911              	.LASF188:
 4912 0105 73706432 		.ascii	"spd2arr_pos\000"
 4912      6172725F 
 4912      706F7300 
 4913              	.LASF33:
 4914 0111 45585449 		.ascii	"EXTI0_1_IRQn\000"
 4914      305F315F 
 4914      4952516E 
 4914      00
 4915              	.LASF98:
 4916 011e 54494D5F 		.ascii	"TIM_Period\000"
 4916      50657269 
 4916      6F6400
 4917              	.LASF133:
 4918 0129 73656E73 		.ascii	"sensor_direction\000"
 4918      6F725F64 
 4918      69726563 
 4918      74696F6E 
 4918      00
 4919              	.LASF129:
 4920 013a 6375745F 		.ascii	"cut_type\000"
 4920      74797065 
 4920      00
 4921              	.LASF120:
 4922 0143 73656D70 		.ascii	"semp\000"
 4922      00
 4923              	.LASF167:
 4924 0148 746D7073 		.ascii	"tmpstr\000"
 4924      747200
 4925              	.LASF121:
 4926 014f 65776D61 		.ascii	"ewmask\000"
 4926      736B00
 4927              	.LASF50:
 4928 0156 49324331 		.ascii	"I2C1_IRQn\000"
ARM GAS  /tmp/ccMlcuwN.s 			page 89


 4928      5F495251 
 4928      6E00
 4929              	.LASF26:
 4930 0160 50656E64 		.ascii	"PendSV_IRQn\000"
 4930      53565F49 
 4930      52516E00 
 4931              	.LASF192:
 4932 016c 6164635F 		.ascii	"adc_samples\000"
 4932      73616D70 
 4932      6C657300 
 4933              	.LASF64:
 4934 0178 54494D45 		.ascii	"TIMEOUTR\000"
 4934      4F555452 
 4934      00
 4935              	.LASF150:
 4936 0181 73706565 		.ascii	"speed\000"
 4936      6400
 4937              	.LASF181:
 4938 0187 54494D32 		.ascii	"TIM2CC4ReadValue1\000"
 4938      43433452 
 4938      65616456 
 4938      616C7565 
 4938      3100
 4939              	.LASF182:
 4940 0199 54494D32 		.ascii	"TIM2CC4ReadValue2\000"
 4940      43433452 
 4940      65616456 
 4940      616C7565 
 4940      3200
 4941              	.LASF32:
 4942 01ab 5243435F 		.ascii	"RCC_IRQn\000"
 4942      4952516E 
 4942      00
 4943              	.LASF95:
 4944 01b4 54494D5F 		.ascii	"TIM_TypeDef\000"
 4944      54797065 
 4944      44656600 
 4945              	.LASF147:
 4946 01c0 61636365 		.ascii	"acceleration\000"
 4946      6C657261 
 4946      74696F6E 
 4946      00
 4947              	.LASF199:
 4948 01cd 73657244 		.ascii	"serDbg\000"
 4948      626700
 4949              	.LASF11:
 4950 01d4 75696E74 		.ascii	"uint32_t\000"
 4950      33325F74 
 4950      00
 4951              	.LASF2:
 4952 01dd 696E7438 		.ascii	"int8_t\000"
 4952      5F7400
 4953              	.LASF21:
 4954 01e4 6576656E 		.ascii	"eventmask_t\000"
 4954      746D6173 
 4954      6B5F7400 
 4955              	.LASF89:
ARM GAS  /tmp/ccMlcuwN.s 			page 90


 4956 01f0 42445452 		.ascii	"BDTR\000"
 4956      00
 4957              	.LASF178:
 4958 01f5 54494D31 		.ascii	"TIM1CC4ReadValue2\000"
 4958      43433452 
 4958      65616456 
 4958      616C7565 
 4958      3200
 4959              	.LASF154:
 4960 0207 73656E73 		.ascii	"sensors_t\000"
 4960      6F72735F 
 4960      7400
 4961              	.LASF168:
 4962 0211 73657475 		.ascii	"setupLIS331\000"
 4962      704C4953 
 4962      33333100 
 4963              	.LASF111:
 4964 021d 4E564943 		.ascii	"NVIC_InitTypeDef\000"
 4964      5F496E69 
 4964      74547970 
 4964      65446566 
 4964      00
 4965              	.LASF85:
 4966 022e 43435231 		.ascii	"CCR1\000"
 4966      00
 4967              	.LASF86:
 4968 0233 43435232 		.ascii	"CCR2\000"
 4968      00
 4969              	.LASF87:
 4970 0238 43435233 		.ascii	"CCR3\000"
 4970      00
 4971              	.LASF88:
 4972 023d 43435234 		.ascii	"CCR4\000"
 4972      00
 4973              	.LASF77:
 4974 0242 43434D52 		.ascii	"CCMR1\000"
 4974      3100
 4975              	.LASF79:
 4976 0248 43434D52 		.ascii	"CCMR2\000"
 4976      3200
 4977              	.LASF52:
 4978 024e 53504931 		.ascii	"SPI1_IRQn\000"
 4978      5F495251 
 4978      6E00
 4979              	.LASF5:
 4980 0258 696E7431 		.ascii	"int16_t\000"
 4980      365F7400 
 4981              	.LASF14:
 4982 0260 6C6F6E67 		.ascii	"long long unsigned int\000"
 4982      206C6F6E 
 4982      6720756E 
 4982      7369676E 
 4982      65642069 
 4983              	.LASF22:
 4984 0277 636E745F 		.ascii	"cnt_t\000"
 4984      7400
 4985              	.LASF117:
ARM GAS  /tmp/ccMlcuwN.s 			page 91


 4986 027d 73656D61 		.ascii	"semaphore_t\000"
 4986      70686F72 
 4986      655F7400 
 4987              	.LASF106:
 4988 0289 54494D5F 		.ascii	"TIM_ICFilter\000"
 4988      49434669 
 4988      6C746572 
 4988      00
 4989              	.LASF139:
 4990 0296 5F5F7365 		.ascii	"__settings\000"
 4990      7474696E 
 4990      677300
 4991              	.LASF169:
 4992 02a1 6765744C 		.ascii	"getLISValues\000"
 4992      49535661 
 4992      6C756573 
 4992      00
 4993              	.LASF163:
 4994 02ae 73746172 		.ascii	"startSensors\000"
 4994      7453656E 
 4994      736F7273 
 4994      00
 4995              	.LASF66:
 4996 02bb 52584452 		.ascii	"RXDR\000"
 4996      00
 4997              	.LASF55:
 4998 02c0 55534152 		.ascii	"USART2_IRQn\000"
 4998      54325F49 
 4998      52516E00 
 4999              	.LASF197:
 5000 02cc 54494D5F 		.ascii	"TIM_Cmd\000"
 5000      436D6400 
 5001              	.LASF127:
 5002 02d4 5F426F6F 		.ascii	"_Bool\000"
 5002      6C00
 5003              	.LASF105:
 5004 02da 54494D5F 		.ascii	"TIM_ICPrescaler\000"
 5004      49435072 
 5004      65736361 
 5004      6C657200 
 5005              	.LASF61:
 5006 02ea 4F415231 		.ascii	"OAR1\000"
 5006      00
 5007              	.LASF62:
 5008 02ef 4F415232 		.ascii	"OAR2\000"
 5008      00
 5009              	.LASF110:
 5010 02f4 4E564943 		.ascii	"NVIC_IRQChannelCmd\000"
 5010      5F495251 
 5010      4368616E 
 5010      6E656C43 
 5010      6D6400
 5011              	.LASF73:
 5012 0307 44494552 		.ascii	"DIER\000"
 5012      00
 5013              	.LASF193:
 5014 030c 73656E73 		.ascii	"sensors\000"
ARM GAS  /tmp/ccMlcuwN.s 			page 92


 5014      6F727300 
 5015              	.LASF137:
 5016 0314 67656172 		.ascii	"gears_cut_time\000"
 5016      735F6375 
 5016      745F7469 
 5016      6D6500
 5017              	.LASF100:
 5018 0323 54494D5F 		.ascii	"TIM_RepetitionCounter\000"
 5018      52657065 
 5018      74697469 
 5018      6F6E436F 
 5018      756E7465 
 5019              	.LASF190:
 5020 0339 73657474 		.ascii	"settings\000"
 5020      696E6773 
 5020      00
 5021              	.LASF172:
 5022 0342 43617074 		.ascii	"Capture\000"
 5022      75726500 
 5023              	.LASF194:
 5024 034a 54494D5F 		.ascii	"TIM_TimeBaseInit\000"
 5024      54696D65 
 5024      42617365 
 5024      496E6974 
 5024      00
 5025              	.LASF81:
 5026 035b 43434552 		.ascii	"CCER\000"
 5026      00
 5027              	.LASF99:
 5028 0360 54494D5F 		.ascii	"TIM_ClockDivision\000"
 5028      436C6F63 
 5028      6B446976 
 5028      6973696F 
 5028      6E00
 5029              	.LASF118:
 5030 0372 63686172 		.ascii	"char\000"
 5030      00
 5031              	.LASF162:
 5032 0377 67657441 		.ascii	"getAnalogSensors\000"
 5032      6E616C6F 
 5032      6753656E 
 5032      736F7273 
 5032      00
 5033              	.LASF166:
 5034 0388 4E564943 		.ascii	"NVIC_InitStructure\000"
 5034      5F496E69 
 5034      74537472 
 5034      75637475 
 5034      726500
 5035              	.LASF58:
 5036 039b 44495341 		.ascii	"DISABLE\000"
 5036      424C4500 
 5037              	.LASF179:
 5038 03a3 54494D32 		.ascii	"TIM2CC3ReadValue1\000"
 5038      43433352 
 5038      65616456 
 5038      616C7565 
ARM GAS  /tmp/ccMlcuwN.s 			page 93


 5038      3100
 5039              	.LASF180:
 5040 03b5 54494D32 		.ascii	"TIM2CC3ReadValue2\000"
 5040      43433352 
 5040      65616456 
 5040      616C7565 
 5040      3200
 5041              	.LASF119:
 5042 03c7 74687265 		.ascii	"thread_reference_t\000"
 5042      61645F72 
 5042      65666572 
 5042      656E6365 
 5042      5F7400
 5043              	.LASF44:
 5044 03da 54494D33 		.ascii	"TIM3_IRQn\000"
 5044      5F495251 
 5044      6E00
 5045              	.LASF37:
 5046 03e4 444D4131 		.ascii	"DMA1_Channel1_IRQn\000"
 5046      5F436861 
 5046      6E6E656C 
 5046      315F4952 
 5046      516E00
 5047              	.LASF19:
 5048 03f7 74737461 		.ascii	"tstate_t\000"
 5048      74655F74 
 5048      00
 5049              	.LASF140:
 5050 0400 64617461 		.ascii	"data\000"
 5050      00
 5051              	.LASF97:
 5052 0405 54494D5F 		.ascii	"TIM_CounterMode\000"
 5052      436F756E 
 5052      7465724D 
 5052      6F646500 
 5053              	.LASF47:
 5054 0415 54494D31 		.ascii	"TIM15_IRQn\000"
 5054      355F4952 
 5054      516E00
 5055              	.LASF3:
 5056 0420 75696E74 		.ascii	"uint8_t\000"
 5056      385F7400 
 5057              	.LASF191:
 5058 0428 73746174 		.ascii	"status\000"
 5058      757300
 5059              	.LASF206:
 5060 042f 2F6D6564 		.ascii	"/media/data/src/OpenTCS/code\000"
 5060      69612F64 
 5060      6174612F 
 5060      7372632F 
 5060      4F70656E 
 5061              	.LASF173:
 5062 044c 56656374 		.ascii	"Vector7C\000"
 5062      6F723743 
 5062      00
 5063              	.LASF209:
 5064 0455 6761696E 		.ascii	"gain\000"
ARM GAS  /tmp/ccMlcuwN.s 			page 94


 5064      00
 5065              	.LASF71:
 5066 045a 534D4352 		.ascii	"SMCR\000"
 5066      00
 5067              	.LASF67:
 5068 045f 54584452 		.ascii	"TXDR\000"
 5068      00
 5069              	.LASF63:
 5070 0464 54494D49 		.ascii	"TIMINGR\000"
 5070      4E475200 
 5071              	.LASF13:
 5072 046c 6C6F6E67 		.ascii	"long long int\000"
 5072      206C6F6E 
 5072      6720696E 
 5072      7400
 5073              	.LASF28:
 5074 047a 57574447 		.ascii	"WWDG_IRQn\000"
 5074      5F495251 
 5074      6E00
 5075              	.LASF186:
 5076 0484 73706432 		.ascii	"spd2arr\000"
 5076      61727200 
 5077              	.LASF20:
 5078 048c 6D73675F 		.ascii	"msg_t\000"
 5078      7400
 5079              	.LASF174:
 5080 0492 54494D31 		.ascii	"TIM1CC4CaptureNumber\000"
 5080      43433443 
 5080      61707475 
 5080      72654E75 
 5080      6D626572 
 5081              	.LASF158:
 5082 04a7 67656172 		.ascii	"gear\000"
 5082      00
 5083              	.LASF145:
 5084 04ac 736C6970 		.ascii	"slipping\000"
 5084      70696E67 
 5084      00
 5085              	.LASF159:
 5086 04b5 73657450 		.ascii	"setPotGain\000"
 5086      6F744761 
 5086      696E00
 5087              	.LASF116:
 5088 04c0 696E7463 		.ascii	"intctx_t\000"
 5088      74785F74 
 5088      00
 5089              	.LASF36:
 5090 04c9 54535F49 		.ascii	"TS_IRQn\000"
 5090      52516E00 
 5091              	.LASF41:
 5092 04d1 54494D31 		.ascii	"TIM1_BRK_UP_TRG_COM_IRQn\000"
 5092      5F42524B 
 5092      5F55505F 
 5092      5452475F 
 5092      434F4D5F 
 5093              	.LASF146:
 5094 04ea 736C6970 		.ascii	"slipping_pct\000"
ARM GAS  /tmp/ccMlcuwN.s 			page 95


 5094      70696E67 
 5094      5F706374 
 5094      00
 5095              	.LASF65:
 5096 04f7 50454352 		.ascii	"PECR\000"
 5096      00
 5097              	.LASF157:
 5098 04fc 67657443 		.ascii	"getCurCutTime\000"
 5098      75724375 
 5098      7454696D 
 5098      6500
 5099              	.LASF29:
 5100 050a 5056445F 		.ascii	"PVD_IRQn\000"
 5100      4952516E 
 5100      00
 5101              	.LASF134:
 5102 0513 6D696E5F 		.ascii	"min_speed\000"
 5102      73706565 
 5102      6400
 5103              	.LASF198:
 5104 051d 69326349 		.ascii	"i2cInit\000"
 5104      6E697400 
 5105              	.LASF109:
 5106 0525 4E564943 		.ascii	"NVIC_IRQChannelPriority\000"
 5106      5F495251 
 5106      4368616E 
 5106      6E656C50 
 5106      72696F72 
 5107              	.LASF18:
 5108 053d 65706D61 		.ascii	"epmask\000"
 5108      736B00
 5109              	.LASF108:
 5110 0544 4E564943 		.ascii	"NVIC_IRQChannel\000"
 5110      5F495251 
 5110      4368616E 
 5110      6E656C00 
 5111              	.LASF131:
 5112 0554 736C6970 		.ascii	"slip_threshold\000"
 5112      5F746872 
 5112      6573686F 
 5112      6C6400
 5113              	.LASF40:
 5114 0563 41444331 		.ascii	"ADC1_COMP_IRQn\000"
 5114      5F434F4D 
 5114      505F4952 
 5114      516E00
 5115              	.LASF128:
 5116 0572 66756E63 		.ascii	"functions\000"
 5116      74696F6E 
 5116      7300
 5117              	.LASF196:
 5118 057c 4E564943 		.ascii	"NVIC_Init\000"
 5118      5F496E69 
 5118      7400
 5119              	.LASF148:
 5120 0586 73746174 		.ascii	"status_t\000"
 5120      75735F74 
ARM GAS  /tmp/ccMlcuwN.s 			page 96


 5120      00
 5121              	.LASF151:
 5122 058f 73747261 		.ascii	"strain_gauge\000"
 5122      696E5F67 
 5122      61756765 
 5122      00
 5123              	.LASF152:
 5124 059c 74635F73 		.ascii	"tc_switch\000"
 5124      77697463 
 5124      6800
 5125              	.LASF189:
 5126 05a6 6C69735F 		.ascii	"lis_data\000"
 5126      64617461 
 5126      00
 5127              	.LASF124:
 5128 05af 73797374 		.ascii	"systime\000"
 5128      696D6500 
 5129              	.LASF53:
 5130 05b7 53504932 		.ascii	"SPI2_IRQn\000"
 5130      5F495251 
 5130      6E00
 5131              	.LASF104:
 5132 05c1 54494D5F 		.ascii	"TIM_ICSelection\000"
 5132      49435365 
 5132      6C656374 
 5132      696F6E00 
 5133              	.LASF138:
 5134 05d1 74635F67 		.ascii	"tc_gear_trim\000"
 5134      6561725F 
 5134      7472696D 
 5134      00
 5135              	.LASF7:
 5136 05de 75696E74 		.ascii	"uint16_t\000"
 5136      31365F74 
 5136      00
 5137              	.LASF207:
 5138 05e7 4952516E 		.ascii	"IRQn\000"
 5138      00
 5139              	.LASF149:
 5140 05ec 5F5F7365 		.ascii	"__sensors\000"
 5140      6E736F72 
 5140      7300
 5141              	.LASF30:
 5142 05f6 5254435F 		.ascii	"RTC_IRQn\000"
 5142      4952516E 
 5142      00
 5143              	.LASF141:
 5144 05ff 43524356 		.ascii	"CRCValue\000"
 5144      616C7565 
 5144      00
 5145              	.LASF69:
 5146 0608 52455345 		.ascii	"RESERVED0\000"
 5146      52564544 
 5146      3000
 5147              	.LASF70:
 5148 0612 52455345 		.ascii	"RESERVED1\000"
 5148      52564544 
ARM GAS  /tmp/ccMlcuwN.s 			page 97


 5148      3100
 5149              	.LASF72:
 5150 061c 52455345 		.ascii	"RESERVED2\000"
 5150      52564544 
 5150      3200
 5151              	.LASF74:
 5152 0626 52455345 		.ascii	"RESERVED3\000"
 5152      52564544 
 5152      3300
 5153              	.LASF75:
 5154 0630 52455345 		.ascii	"RESERVED4\000"
 5154      52564544 
 5154      3400
 5155              	.LASF76:
 5156 063a 52455345 		.ascii	"RESERVED5\000"
 5156      52564544 
 5156      3500
 5157              	.LASF78:
 5158 0644 52455345 		.ascii	"RESERVED6\000"
 5158      52564544 
 5158      3600
 5159              	.LASF6:
 5160 064e 73686F72 		.ascii	"short int\000"
 5160      7420696E 
 5160      7400
 5161              	.LASF82:
 5162 0658 52455345 		.ascii	"RESERVED8\000"
 5162      52564544 
 5162      3800
 5163              	.LASF15:
 5164 0662 63747870 		.ascii	"ctxp\000"
 5164      00
 5165              	.LASF205:
 5166 0667 7372632F 		.ascii	"src/sensors.c\000"
 5166      73656E73 
 5166      6F72732E 
 5166      6300
 5167              	.LASF10:
 5168 0675 6C6F6E67 		.ascii	"long int\000"
 5168      20696E74 
 5168      00
 5169              	.LASF54:
 5170 067e 55534152 		.ascii	"USART1_IRQn\000"
 5170      54315F49 
 5170      52516E00 
 5171              	.LASF92:
 5172 068a 444D4152 		.ascii	"DMAR\000"
 5172      00
 5173              	.LASF23:
 5174 068f 4E6F6E4D 		.ascii	"NonMaskableInt_IRQn\000"
 5174      61736B61 
 5174      626C6549 
 5174      6E745F49 
 5174      52516E00 
 5175              	.LASF208:
 5176 06a3 67657443 		.ascii	"getCapture\000"
 5176      61707475 
ARM GAS  /tmp/ccMlcuwN.s 			page 98


 5176      726500
 5177              	.LASF42:
 5178 06ae 54494D31 		.ascii	"TIM1_CC_IRQn\000"
 5178      5F43435F 
 5178      4952516E 
 5178      00
 5179              	.LASF165:
 5180 06bb 54494D5F 		.ascii	"TIM_ICInitStructure\000"
 5180      4943496E 
 5180      69745374 
 5180      72756374 
 5180      75726500 
 5181              	.LASF103:
 5182 06cf 54494D5F 		.ascii	"TIM_ICPolarity\000"
 5182      4943506F 
 5182      6C617269 
 5182      747900
 5183              	.LASF49:
 5184 06de 54494D31 		.ascii	"TIM17_IRQn\000"
 5184      375F4952 
 5184      516E00
 5185              	.LASF39:
 5186 06e9 444D4131 		.ascii	"DMA1_Channel4_5_IRQn\000"
 5186      5F436861 
 5186      6E6E656C 
 5186      345F355F 
 5186      4952516E 
 5187              	.LASF126:
 5188 06fe 6E696C5F 		.ascii	"nil_system_t\000"
 5188      73797374 
 5188      656D5F74 
 5188      00
 5189              	.LASF122:
 5190 070b 63757272 		.ascii	"current\000"
 5190      656E7400 
 5191              	.LASF27:
 5192 0713 53797354 		.ascii	"SysTick_IRQn\000"
 5192      69636B5F 
 5192      4952516E 
 5192      00
 5193              	.LASF56:
 5194 0720 4345435F 		.ascii	"CEC_IRQn\000"
 5194      4952516E 
 5194      00
 5195              	.LASF59:
 5196 0729 454E4142 		.ascii	"ENABLE\000"
 5196      4C4500
 5197              	.LASF57:
 5198 0730 73697A65 		.ascii	"sizetype\000"
 5198      74797065 
 5198      00
 5199              	.LASF51:
 5200 0739 49324332 		.ascii	"I2C2_IRQn\000"
 5200      5F495251 
 5200      6E00
 5201              	.LASF12:
 5202 0743 6C6F6E67 		.ascii	"long unsigned int\000"
ARM GAS  /tmp/ccMlcuwN.s 			page 99


 5202      20756E73 
 5202      69676E65 
 5202      6420696E 
 5202      7400
 5203              	.LASF43:
 5204 0755 54494D32 		.ascii	"TIM2_IRQn\000"
 5204      5F495251 
 5204      6E00
 5205              	.LASF125:
 5206 075f 74687265 		.ascii	"threads\000"
 5206      61647300 
 5207              	.LASF9:
 5208 0767 696E7433 		.ascii	"int32_t\000"
 5208      325F7400 
 5209              	.LASF156:
 5210 076f 67657443 		.ascii	"getCurGearIdx\000"
 5210      75724765 
 5210      61724964 
 5210      7800
 5211              	.LASF160:
 5212 077d 74786461 		.ascii	"txdata\000"
 5212      746100
 5213              	.LASF177:
 5214 0784 54494D31 		.ascii	"TIM1CC4ReadValue1\000"
 5214      43433452 
 5214      65616456 
 5214      616C7565 
 5214      3100
 5215              	.LASF164:
 5216 0796 54494D5F 		.ascii	"TIM_TimeBaseStructure\000"
 5216      54696D65 
 5216      42617365 
 5216      53747275 
 5216      63747572 
 5217              	.LASF46:
 5218 07ac 54494D31 		.ascii	"TIM14_IRQn\000"
 5218      345F4952 
 5218      516E00
 5219              	.LASF38:
 5220 07b7 444D4131 		.ascii	"DMA1_Channel2_3_IRQn\000"
 5220      5F436861 
 5220      6E6E656C 
 5220      325F335F 
 5220      4952516E 
 5221              	.LASF185:
 5222 07cc 73706431 		.ascii	"spd1arr\000"
 5222      61727200 
 5223              	.LASF45:
 5224 07d4 54494D36 		.ascii	"TIM6_DAC_IRQn\000"
 5224      5F444143 
 5224      5F495251 
 5224      6E00
 5225              	.LASF4:
 5226 07e2 756E7369 		.ascii	"unsigned char\000"
 5226      676E6564 
 5226      20636861 
 5226      7200
ARM GAS  /tmp/ccMlcuwN.s 			page 100


 5227              	.LASF17:
 5228 07f0 74696D65 		.ascii	"timeout\000"
 5228      6F757400 
 5229              	.LASF68:
 5230 07f8 4932435F 		.ascii	"I2C_TypeDef\000"
 5230      54797065 
 5230      44656600 
 5231              	.LASF200:
 5232 0804 63685468 		.ascii	"chThdSleep\000"
 5232      64536C65 
 5232      657000
 5233              	.LASF201:
 5234 080f 69746F61 		.ascii	"itoa\000"
 5234      00
 5235              	.LASF83:
 5236 0814 52455345 		.ascii	"RESERVED10\000"
 5236      52564544 
 5236      313000
 5237              	.LASF84:
 5238 081f 52455345 		.ascii	"RESERVED12\000"
 5238      52564544 
 5238      313200
 5239              	.LASF90:
 5240 082a 52455345 		.ascii	"RESERVED17\000"
 5240      52564544 
 5240      313700
 5241              	.LASF91:
 5242 0835 52455345 		.ascii	"RESERVED18\000"
 5242      52564544 
 5242      313800
 5243              	.LASF93:
 5244 0840 52455345 		.ascii	"RESERVED19\000"
 5244      52564544 
 5244      313900
 5245              	.LASF16:
 5246 084b 73746174 		.ascii	"state\000"
 5246      6500
 5247              	.LASF153:
 5248 0851 76626174 		.ascii	"vbat\000"
 5248      00
 5249              	.LASF115:
 5250 0856 706F7274 		.ascii	"port_intctx\000"
 5250      5F696E74 
 5250      63747800 
 5251              	.LASF171:
 5252 0862 56656374 		.ascii	"Vector78\000"
 5252      6F723738 
 5252      00
 5253              	.LASF101:
 5254 086b 54494D5F 		.ascii	"TIM_TimeBaseInitTypeDef\000"
 5254      54696D65 
 5254      42617365 
 5254      496E6974 
 5254      54797065 
 5255              	.LASF114:
 5256 0883 6E696C5F 		.ascii	"nil_thread\000"
 5256      74687265 
ARM GAS  /tmp/ccMlcuwN.s 			page 101


 5256      616400
 5257              	.LASF1:
 5258 088e 7369676E 		.ascii	"signed char\000"
 5258      65642063 
 5258      68617200 
 5259              	.LASF8:
 5260 089a 73686F72 		.ascii	"short unsigned int\000"
 5260      7420756E 
 5260      7369676E 
 5260      65642069 
 5260      6E7400
 5261              	.LASF132:
 5262 08ad 73656E73 		.ascii	"sensor_gain\000"
 5262      6F725F67 
 5262      61696E00 
 5263              	.LASF94:
 5264 08b9 52455345 		.ascii	"RESERVED20\000"
 5264      52564544 
 5264      323000
 5265              	.LASF202:
 5266 08c4 6D656D63 		.ascii	"memcpy\000"
 5266      707900
 5267              	.LASF204:
 5268 08cb 474E5520 		.ascii	"GNU C 4.7.3 20130312 (release) [ARM/embedded-4_7-br"
 5268      4320342E 
 5268      372E3320 
 5268      32303133 
 5268      30333132 
 5269 08fe 616E6368 		.ascii	"anch revision 196615]\000"
 5269      20726576 
 5269      6973696F 
 5269      6E203139 
 5269      36363135 
 5270              	.LASF24:
 5271 0914 48617264 		.ascii	"HardFault_IRQn\000"
 5271      4661756C 
 5271      745F4952 
 5271      516E00
 5272              	.LASF142:
 5273 0923 73657474 		.ascii	"settings_t\000"
 5273      696E6773 
 5273      5F7400
 5274              	.LASF102:
 5275 092e 54494D5F 		.ascii	"TIM_Channel\000"
 5275      4368616E 
 5275      6E656C00 
 5276              	.LASF203:
 5277 093a 69326352 		.ascii	"i2cReceiveS\000"
 5277      65636569 
 5277      76655300 
 5278              	.LASF195:
 5279 0946 54494D5F 		.ascii	"TIM_ICInit\000"
 5279      4943496E 
 5279      697400
 5280              	.LASF135:
 5281 0951 6D696E5F 		.ascii	"min_rpm\000"
 5281      72706D00 
ARM GAS  /tmp/ccMlcuwN.s 			page 102


 5282              	.LASF187:
 5283 0959 73706431 		.ascii	"spd1arr_pos\000"
 5283      6172725F 
 5283      706F7300 
 5284              	.LASF80:
 5285 0965 52455345 		.ascii	"RESERVED7\000"
 5285      52564544 
 5285      3700
 5286              	.LASF161:
 5287 096f 6E625F73 		.ascii	"nb_samples\000"
 5287      616D706C 
 5287      657300
 5288              	.LASF170:
 5289 097a 72786461 		.ascii	"rxdata\000"
 5289      746100
 5290              		.ident	"GCC: (GNU Tools for ARM Embedded Processors) 4.7.3 20130312 (release) [ARM/embedded-4_7-br
ARM GAS  /tmp/ccMlcuwN.s 			page 103


DEFINED SYMBOLS
                            *ABS*:00000000 sensors.c
     /tmp/ccMlcuwN.s:18     .text.getCapture:00000000 $t
     /tmp/ccMlcuwN.s:23     .text.getCapture:00000000 getCapture
     /tmp/ccMlcuwN.s:55     .text.getCapture:00000020 $d
     /tmp/ccMlcuwN.s:61     .text.getCurGearIdx:00000000 $t
     /tmp/ccMlcuwN.s:66     .text.getCurGearIdx:00000000 getCurGearIdx
     /tmp/ccMlcuwN.s:114    .text.getCurGearIdx:0000002c $d
     /tmp/ccMlcuwN.s:120    .text.getCurCutTime:00000000 $t
     /tmp/ccMlcuwN.s:125    .text.getCurCutTime:00000000 getCurCutTime
     /tmp/ccMlcuwN.s:150    .text.getCurCutTime:00000010 $d
     /tmp/ccMlcuwN.s:155    .text.setPotGain:00000000 $t
     /tmp/ccMlcuwN.s:160    .text.setPotGain:00000000 setPotGain
     /tmp/ccMlcuwN.s:196    .text.setPotGain:00000024 $d
     /tmp/ccMlcuwN.s:201    .text.getAnalogSensors:00000000 $t
     /tmp/ccMlcuwN.s:206    .text.getAnalogSensors:00000000 getAnalogSensors
     /tmp/ccMlcuwN.s:295    .text.getAnalogSensors:00000054 $d
     /tmp/ccMlcuwN.s:303    .text.startSensors:00000000 $t
     /tmp/ccMlcuwN.s:308    .text.startSensors:00000000 startSensors
     /tmp/ccMlcuwN.s:558    .text.startSensors:00000124 $d
     /tmp/ccMlcuwN.s:573    .text.setupLIS331:00000000 $t
     /tmp/ccMlcuwN.s:578    .text.setupLIS331:00000000 setupLIS331
     /tmp/ccMlcuwN.s:634    .text.setupLIS331:0000003c $d
     /tmp/ccMlcuwN.s:640    .text.getLISValues:00000000 $t
     /tmp/ccMlcuwN.s:645    .text.getLISValues:00000000 getLISValues
     /tmp/ccMlcuwN.s:714    .text.getLISValues:00000054 $d
     /tmp/ccMlcuwN.s:720    .text.Vector78:00000000 $t
     /tmp/ccMlcuwN.s:725    .text.Vector78:00000000 Vector78
     /tmp/ccMlcuwN.s:822    .text.Vector78:00000068 $d
     /tmp/ccMlcuwN.s:833    .text.Vector7C:00000000 $t
     /tmp/ccMlcuwN.s:838    .text.Vector7C:00000000 Vector7C
     /tmp/ccMlcuwN.s:1168   .text.Vector7C:0000019c $d
     /tmp/ccMlcuwN.s:1246   .bss.sensors:00000000 sensors
     /tmp/ccMlcuwN.s:1194   .bss.accel1:00000000 $d
     /tmp/ccMlcuwN.s:1198   .bss.accel1:00000000 accel1
     /tmp/ccMlcuwN.s:1204   .bss.TIM2CC4CaptureNumber:00000000 TIM2CC4CaptureNumber
     /tmp/ccMlcuwN.s:1205   .bss.TIM2CC4CaptureNumber:00000000 $d
     /tmp/ccMlcuwN.s:1207   .bss.TIM1CC4ReadValue1:00000000 $d
     /tmp/ccMlcuwN.s:1211   .bss.TIM1CC4ReadValue1:00000000 TIM1CC4ReadValue1
     /tmp/ccMlcuwN.s:1214   .bss.TIM1CC4ReadValue2:00000000 $d
     /tmp/ccMlcuwN.s:1218   .bss.TIM1CC4ReadValue2:00000000 TIM1CC4ReadValue2
     /tmp/ccMlcuwN.s:1221   .bss.TIM2CC4ReadValue1:00000000 $d
     /tmp/ccMlcuwN.s:1225   .bss.TIM2CC4ReadValue1:00000000 TIM2CC4ReadValue1
     /tmp/ccMlcuwN.s:1228   .bss.TIM2CC3ReadValue1:00000000 $d
     /tmp/ccMlcuwN.s:1232   .bss.TIM2CC3ReadValue1:00000000 TIM2CC3ReadValue1
     /tmp/ccMlcuwN.s:1235   .bss.TIM2CC3ReadValue2:00000000 $d
     /tmp/ccMlcuwN.s:1239   .bss.TIM2CC3ReadValue2:00000000 TIM2CC3ReadValue2
     /tmp/ccMlcuwN.s:1242   .bss.sensors:00000000 $d
     /tmp/ccMlcuwN.s:1249   .bss.TIM2CC4ReadValue2:00000000 $d
     /tmp/ccMlcuwN.s:1253   .bss.TIM2CC4ReadValue2:00000000 TIM2CC4ReadValue2
     /tmp/ccMlcuwN.s:1256   .bss.accel2:00000000 $d
     /tmp/ccMlcuwN.s:1260   .bss.accel2:00000000 accel2
     /tmp/ccMlcuwN.s:1277   .bss.TIM2CC3CaptureNumber:00000000 TIM2CC3CaptureNumber
     /tmp/ccMlcuwN.s:1278   .bss.TIM2CC3CaptureNumber:00000000 $d
     /tmp/ccMlcuwN.s:1283   .bss.spd1arr_pos:00000000 spd1arr_pos
     /tmp/ccMlcuwN.s:1284   .bss.spd1arr_pos:00000000 $d
     /tmp/ccMlcuwN.s:1289   .bss.TIM1CC4CaptureNumber:00000000 TIM1CC4CaptureNumber
ARM GAS  /tmp/ccMlcuwN.s 			page 104


     /tmp/ccMlcuwN.s:1290   .bss.TIM1CC4CaptureNumber:00000000 $d
     /tmp/ccMlcuwN.s:1295   .bss.spd2arr_pos:00000000 spd2arr_pos
     /tmp/ccMlcuwN.s:1296   .bss.spd2arr_pos:00000000 $d
     /tmp/ccMlcuwN.s:1298   .bss.lis_data:00000000 $d
     /tmp/ccMlcuwN.s:1302   .bss.lis_data:00000000 lis_data
     /tmp/ccMlcuwN.s:1305   .bss.spd1arr:00000000 $d
     /tmp/ccMlcuwN.s:1309   .bss.spd1arr:00000000 spd1arr
     /tmp/ccMlcuwN.s:1312   .bss.spd2arr:00000000 $d
     /tmp/ccMlcuwN.s:1316   .bss.spd2arr:00000000 spd2arr
                     .debug_frame:00000010 $d

UNDEFINED SYMBOLS
__aeabi_uidiv
settings
i2cSendS
adc_samples
status
TIM_TimeBaseInit
TIM_ICInit
NVIC_Init
TIM_Cmd
i2cInit
serDbg
chThdSleep
itoa
memcpy
i2cReceiveS
__aeabi_idiv
