ARM GAS  /tmp/ccMlcuwN.s 			page 1


   1              		.cpu cortex-m0
   2              		.fpu softvfp
   3              		.eabi_attribute 20, 1
   4              		.eabi_attribute 21, 1
   5              		.eabi_attribute 23, 3
   6              		.eabi_attribute 24, 1
   7              		.eabi_attribute 25, 1
   8              		.eabi_attribute 26, 1
   9              		.eabi_attribute 30, 4
  10              		.eabi_attribute 34, 0
  11              		.eabi_attribute 18, 4
  12              		.code	16
  13              		.file	"sensors.c"
  14              		.text
  15              	.Ltext0:
  16              		.cfi_sections	.debug_frame
  17              		.section	.text.getCapture,"ax",%progbits
  18              		.align	1
  19              		.global	getCapture
  20              		.code	16
  21              		.thumb_func
  22              		.type	getCapture, %function
  23              	getCapture:
  24              	.LFB78:
  25              		.file 1 "src/sensors.c"
  26              		.loc 1 204 0
  27              		.cfi_startproc
  28              		.loc 1 206 0
  29 0000 074B     		ldr	r3, .L2
  30 0002 1022     		mov	r2, #16
  31 0004 9989     		ldrh	r1, [r3, #12]
  32              		.loc 1 209 0
  33 0006 8020     		mov	r0, #128
  34              		.loc 1 206 0
  35 0008 1143     		orr	r1, r2
  36 000a 9981     		strh	r1, [r3, #12]
  37              		.loc 1 209 0
  38 000c C305     		lsl	r3, r0, #23
  39 000e 9989     		ldrh	r1, [r3, #12]
  40 0010 0820     		mov	r0, #8
  41 0012 0143     		orr	r1, r0
  42 0014 9981     		strh	r1, [r3, #12]
  43              		.loc 1 210 0
  44 0016 9989     		ldrh	r1, [r3, #12]
  45              		.loc 1 211 0
  46              		@ sp needed for prologue
  47              		.loc 1 210 0
  48 0018 0A43     		orr	r2, r1
  49 001a 9A81     		strh	r2, [r3, #12]
  50              		.loc 1 211 0
  51 001c 7047     		bx	lr
  52              	.L3:
  53 001e C046     		.align	2
  54              	.L2:
  55 0020 002C0140 		.word	1073818624
  56              		.cfi_endproc
  57              	.LFE78:
ARM GAS  /tmp/ccMlcuwN.s 			page 2


  58              		.size	getCapture, .-getCapture
  59              		.global	__aeabi_uidiv
  60              		.section	.text.getCurGearIdx,"ax",%progbits
  61              		.align	1
  62              		.global	getCurGearIdx
  63              		.code	16
  64              		.thumb_func
  65              		.type	getCurGearIdx, %function
  66              	getCurGearIdx:
  67              	.LFB79:
  68              		.loc 1 214 0
  69              		.cfi_startproc
  70              	.LVL0:
  71 0000 10B5     		push	{r4, lr}
  72              	.LCFI0:
  73              		.cfi_def_cfa_offset 8
  74              		.cfi_offset 4, -8
  75              		.cfi_offset 14, -4
  76              		.loc 1 221 0
  77 0002 0A4B     		ldr	r3, .L9
  78 0004 6420     		mov	r0, #100
  79 0006 5A88     		ldrh	r2, [r3, #2]
  80              		.loc 1 222 0
  81 0008 1988     		ldrh	r1, [r3]
  82              		.loc 1 221 0
  83 000a 5043     		mul	r0, r2
  84              		.loc 1 222 0
  85 000c FFF7FEFF 		bl	__aeabi_uidiv
  86              	.LVL1:
  87 0010 0023     		mov	r3, #0
  88 0012 82B2     		uxth	r2, r0
  89              	.LVL2:
  90              	.L6:
  91              		.loc 1 213 0
  92 0014 0649     		ldr	r1, .L9+4
  93 0016 5C00     		lsl	r4, r3, #1
  94 0018 6418     		add	r4, r4, r1
  95              		.loc 1 225 0
  96 001a A189     		ldrh	r1, [r4, #12]
  97 001c D8B2     		uxtb	r0, r3
  98              	.LVL3:
  99 001e 9142     		cmp	r1, r2
 100 0020 03D9     		bls	.L5
 101 0022 0133     		add	r3, r3, #1
 102              		.loc 1 219 0
 103 0024 052B     		cmp	r3, #5
 104 0026 F5D1     		bne	.L6
 105              		.loc 1 230 0
 106 0028 0020     		mov	r0, #0
 107              	.L5:
 108              		.loc 1 231 0
 109              		@ sp needed for prologue
 110 002a 10BD     		pop	{r4, pc}
 111              	.L10:
 112              		.align	2
 113              	.L9:
 114 002c 00000000 		.word	.LANCHOR0
ARM GAS  /tmp/ccMlcuwN.s 			page 3


 115 0030 00000000 		.word	settings
 116              		.cfi_endproc
 117              	.LFE79:
 118              		.size	getCurGearIdx, .-getCurGearIdx
 119              		.section	.text.getCurCutTime,"ax",%progbits
 120              		.align	1
 121              		.global	getCurCutTime
 122              		.code	16
 123              		.thumb_func
 124              		.type	getCurCutTime, %function
 125              	getCurCutTime:
 126              	.LFB80:
 127              		.loc 1 234 0
 128              		.cfi_startproc
 129 0000 08B5     		push	{r3, lr}
 130              	.LCFI1:
 131              		.cfi_def_cfa_offset 8
 132              		.cfi_offset 3, -8
 133              		.cfi_offset 14, -4
 134              		.loc 1 235 0
 135 0002 FFF7FEFF 		bl	getCurGearIdx
 136              	.LVL4:
 137              		.loc 1 237 0
 138 0006 024B     		ldr	r3, .L12
 139              		.loc 1 238 0
 140              		@ sp needed for prologue
 141              		.loc 1 237 0
 142 0008 1818     		add	r0, r3, r0
 143              	.LVL5:
 144 000a 007E     		ldrb	r0, [r0, #24]
 145              		.loc 1 238 0
 146 000c 08BD     		pop	{r3, pc}
 147              	.L13:
 148 000e C046     		.align	2
 149              	.L12:
 150 0010 00000000 		.word	settings
 151              		.cfi_endproc
 152              	.LFE80:
 153              		.size	getCurCutTime, .-getCurCutTime
 154              		.section	.text.setPotGain,"ax",%progbits
 155              		.align	1
 156              		.global	setPotGain
 157              		.code	16
 158              		.thumb_func
 159              		.type	setPotGain, %function
 160              	setPotGain:
 161              	.LFB81:
 162              		.loc 1 241 0
 163              		.cfi_startproc
 164              	.LVL6:
 165 0000 07B5     		push	{r0, r1, r2, lr}
 166              	.LCFI2:
 167              		.cfi_def_cfa_offset 16
 168              		.cfi_offset 0, -16
 169              		.cfi_offset 1, -12
 170              		.cfi_offset 2, -8
 171              		.cfi_offset 14, -4
ARM GAS  /tmp/ccMlcuwN.s 			page 4


 172              		.loc 1 242 0
 173 0002 C309     		lsr	r3, r0, #7
 174 0004 4021     		mov	r1, #64
 175 0006 01AA     		add	r2, sp, #4
 176 0008 0B43     		orr	r3, r1
 177 000a 1370     		strb	r3, [r2]
 178 000c 7F23     		mov	r3, #127
 179 000e 1840     		and	r0, r3
 180              	.LVL7:
 181 0010 5070     		strb	r0, [r2, #1]
 182              		.loc 1 246 0
 183 0012 0223     		mov	r3, #2
 184 0014 0348     		ldr	r0, .L15
 185 0016 2E21     		mov	r1, #46
 186 0018 FFF7FEFF 		bl	i2cSendS
 187              	.LVL8:
 188              		.loc 1 262 0
 189              		@ sp needed for prologue
 190 001c 431E     		sub	r3, r0, #1
 191 001e 9841     		sbc	r0, r0, r3
 192 0020 0EBD     		pop	{r1, r2, r3, pc}
 193              	.L16:
 194 0022 C046     		.align	2
 195              	.L15:
 196 0024 00540040 		.word	1073763328
 197              		.cfi_endproc
 198              	.LFE81:
 199              		.size	setPotGain, .-setPotGain
 200              		.section	.text.getAnalogSensors,"ax",%progbits
 201              		.align	1
 202              		.global	getAnalogSensors
 203              		.code	16
 204              		.thumb_func
 205              		.type	getAnalogSensors, %function
 206              	getAnalogSensors:
 207              	.LFB82:
 208              		.loc 1 265 0
 209              		.cfi_startproc
 210              	.LVL9:
 211 0000 30B5     		push	{r4, r5, lr}
 212              	.LCFI3:
 213              		.cfi_def_cfa_offset 12
 214              		.cfi_offset 4, -12
 215              		.cfi_offset 5, -8
 216              		.cfi_offset 14, -4
 217              		.loc 1 265 0
 218 0002 0023     		mov	r3, #0
 219              		.loc 1 268 0
 220 0004 191C     		mov	r1, r3
 221              		.loc 1 267 0
 222 0006 181C     		mov	r0, r3
 223              		.loc 1 266 0
 224 0008 1A1C     		mov	r2, r3
 225              	.LVL10:
 226              	.L18:
 227              		.loc 1 276 0
 228 000a 124C     		ldr	r4, .L23
ARM GAS  /tmp/ccMlcuwN.s 			page 5


 229 000c 1C19     		add	r4, r3, r4
 230 000e 2588     		ldrh	r5, [r4]
 231 0010 0833     		add	r3, r3, #8
 232 0012 5219     		add	r2, r2, r5
 233              	.LVL11:
 234              		.loc 1 277 0
 235 0014 6588     		ldrh	r5, [r4, #2]
 236              		.loc 1 278 0
 237 0016 A488     		ldrh	r4, [r4, #4]
 238              		.loc 1 277 0
 239 0018 4019     		add	r0, r0, r5
 240              	.LVL12:
 241              		.loc 1 278 0
 242 001a 0919     		add	r1, r1, r4
 243              	.LVL13:
 244              		.loc 1 274 0
 245 001c 802B     		cmp	r3, #128
 246 001e F4D1     		bne	.L18
 247              		.loc 1 286 0
 248 0020 0D4B     		ldr	r3, .L23+4
 249              		.loc 1 283 0
 250 0022 0509     		lsr	r5, r0, #4
 251              		.loc 1 290 0
 252 0024 0D4C     		ldr	r4, .L23+8
 253              		.loc 1 284 0
 254 0026 0809     		lsr	r0, r1, #4
 255              	.LVL14:
 256              		.loc 1 282 0
 257 0028 1209     		lsr	r2, r2, #4
 258              	.LVL15:
 259              		.loc 1 286 0
 260 002a 9A80     		strh	r2, [r3, #4]
 261              		.loc 1 287 0
 262 002c DD80     		strh	r5, [r3, #6]
 263              		.loc 1 288 0
 264 002e 1881     		strh	r0, [r3, #8]
 265              		.loc 1 290 0
 266 0030 E179     		ldrb	r1, [r4, #7]
 267 0032 0B4B     		ldr	r3, .L23+12
 268 0034 6588     		ldrh	r5, [r4, #2]
 269 0036 0029     		cmp	r1, #0
 270 0038 02D1     		bne	.L19
 271              		.loc 1 293 0
 272 003a AA42     		cmp	r2, r5
 273 003c 4941     		adc	r1, r1, r1
 274 003e 02E0     		b	.L22
 275              	.L19:
 276              		.loc 1 298 0
 277 0040 0021     		mov	r1, #0
 278 0042 9542     		cmp	r5, r2
 279 0044 4941     		adc	r1, r1, r1
 280              	.L22:
 281 0046 1878     		ldrb	r0, [r3]
 282              	.LVL16:
 283 0048 0122     		mov	r2, #1
 284              	.LVL17:
 285 004a 1140     		and	r1, r2
ARM GAS  /tmp/ccMlcuwN.s 			page 6


 286 004c 9043     		bic	r0, r2
 287 004e 0143     		orr	r1, r0
 288 0050 1970     		strb	r1, [r3]
 289              		.loc 1 300 0
 290              		@ sp needed for prologue
 291 0052 30BD     		pop	{r4, r5, pc}
 292              	.L24:
 293              		.align	2
 294              	.L23:
 295 0054 00000000 		.word	adc_samples
 296 0058 00000000 		.word	.LANCHOR0
 297 005c 00000000 		.word	settings
 298 0060 00000000 		.word	status
 299              		.cfi_endproc
 300              	.LFE82:
 301              		.size	getAnalogSensors, .-getAnalogSensors
 302              		.section	.text.startSensors,"ax",%progbits
 303              		.align	1
 304              		.global	startSensors
 305              		.code	16
 306              		.thumb_func
 307              		.type	startSensors, %function
 308              	startSensors:
 309              	.LFB77:
 310              		.loc 1 109 0
 311              		.cfi_startproc
 312 0000 F0B5     		push	{r4, r5, r6, r7, lr}
 313              	.LCFI4:
 314              		.cfi_def_cfa_offset 20
 315              		.cfi_offset 4, -20
 316              		.cfi_offset 5, -16
 317              		.cfi_offset 6, -12
 318              		.cfi_offset 7, -8
 319              		.cfi_offset 14, -4
 320              		.loc 1 116 0
 321 0002 4848     		ldr	r0, .L28
 322              		.loc 1 109 0
 323 0004 8BB0     		sub	sp, sp, #44
 324              	.LCFI5:
 325              		.cfi_def_cfa_offset 64
 326              		.loc 1 115 0
 327 0006 07AD     		add	r5, sp, #28
 328 0008 474B     		ldr	r3, .L28+4
 329              		.loc 1 119 0
 330 000a 8021     		mov	r1, #128
 331              		.loc 1 117 0
 332 000c 0027     		mov	r7, #0
 333              		.loc 1 116 0
 334 000e 2880     		strh	r0, [r5]
 335              		.loc 1 119 0
 336 0010 C805     		lsl	r0, r1, #23
 337 0012 291C     		mov	r1, r5
 338              		.loc 1 121 0
 339 0014 04AC     		add	r4, sp, #16
 340              		.loc 1 117 0
 341 0016 2F81     		strh	r7, [r5, #8]
 342              		.loc 1 118 0
ARM GAS  /tmp/ccMlcuwN.s 			page 7


 343 0018 6F80     		strh	r7, [r5, #2]
 344              		.loc 1 115 0
 345 001a 0893     		str	r3, [sp, #32]
 346              		.loc 1 119 0
 347 001c FFF7FEFF 		bl	TIM_TimeBaseInit
 348              	.LVL18:
 349              		.loc 1 126 0
 350 0020 8020     		mov	r0, #128
 351              		.loc 1 125 0
 352 0022 1023     		mov	r3, #16
 353              		.loc 1 121 0
 354 0024 0822     		mov	r2, #8
 355              		.loc 1 126 0
 356 0026 211C     		mov	r1, r4
 357              		.loc 1 123 0
 358 0028 0126     		mov	r6, #1
 359              		.loc 1 126 0
 360 002a C005     		lsl	r0, r0, #23
 361              		.loc 1 125 0
 362 002c 2381     		strh	r3, [r4, #8]
 363              		.loc 1 121 0
 364 002e 2280     		strh	r2, [r4]
 365              		.loc 1 122 0
 366 0030 6780     		strh	r7, [r4, #2]
 367              		.loc 1 123 0
 368 0032 A680     		strh	r6, [r4, #4]
 369              		.loc 1 124 0
 370 0034 E780     		strh	r7, [r4, #6]
 371              		.loc 1 126 0
 372 0036 FFF7FEFF 		bl	TIM_ICInit
 373              	.LVL19:
 374              		.loc 1 129 0
 375 003a 8022     		mov	r2, #128
 376              		.loc 1 128 0
 377 003c 0C21     		mov	r1, #12
 378              		.loc 1 129 0
 379 003e D005     		lsl	r0, r2, #23
 380              		.loc 1 128 0
 381 0040 2180     		strh	r1, [r4]
 382              		.loc 1 129 0
 383 0042 211C     		mov	r1, r4
 384              		.loc 1 132 0
 385 0044 01AE     		add	r6, sp, #4
 386              		.loc 1 129 0
 387 0046 FFF7FEFF 		bl	TIM_ICInit
 388              	.LVL20:
 389              		.loc 1 133 0
 390 004a 0020     		mov	r0, #0
 391              		.loc 1 132 0
 392 004c 0F23     		mov	r3, #15
 393              		.loc 1 133 0
 394 004e 7070     		strb	r0, [r6, #1]
 395              		.loc 1 134 0
 396 0050 0121     		mov	r1, #1
 397              		.loc 1 135 0
 398 0052 301C     		mov	r0, r6
 399              		.loc 1 132 0
ARM GAS  /tmp/ccMlcuwN.s 			page 8


 400 0054 3370     		strb	r3, [r6]
 401              		.loc 1 134 0
 402 0056 B170     		strb	r1, [r6, #2]
 403              		.loc 1 135 0
 404 0058 FFF7FEFF 		bl	NVIC_Init
 405              	.LVL21:
 406              		.loc 1 138 0
 407 005c 8022     		mov	r2, #128
 408 005e D005     		lsl	r0, r2, #23
 409 0060 0121     		mov	r1, #1
 410 0062 FFF7FEFF 		bl	TIM_Cmd
 411              	.LVL22:
 412              		.loc 1 142 0
 413 0066 2F48     		ldr	r0, .L28
 414              		.loc 1 141 0
 415 0068 2F4B     		ldr	r3, .L28+4
 416              		.loc 1 142 0
 417 006a 2880     		strh	r0, [r5]
 418              		.loc 1 145 0
 419 006c 291C     		mov	r1, r5
 420 006e 2F48     		ldr	r0, .L28+8
 421              		.loc 1 141 0
 422 0070 6B60     		str	r3, [r5, #4]
 423              		.loc 1 143 0
 424 0072 2F81     		strh	r7, [r5, #8]
 425              		.loc 1 144 0
 426 0074 6F80     		strh	r7, [r5, #2]
 427              		.loc 1 145 0
 428 0076 FFF7FEFF 		bl	TIM_TimeBaseInit
 429              	.LVL23:
 430              		.loc 1 148 0
 431 007a 0221     		mov	r1, #2
 432              		.loc 1 149 0
 433 007c 0122     		mov	r2, #1
 434              		.loc 1 148 0
 435 007e 6180     		strh	r1, [r4, #2]
 436              		.loc 1 150 0
 437 0080 E780     		strh	r7, [r4, #6]
 438              		.loc 1 152 0
 439 0082 211C     		mov	r1, r4
 440 0084 2948     		ldr	r0, .L28+8
 441              		.loc 1 147 0
 442 0086 0C25     		mov	r5, #12
 443              		.loc 1 151 0
 444 0088 1027     		mov	r7, #16
 445              		.loc 1 149 0
 446 008a A280     		strh	r2, [r4, #4]
 447              		.loc 1 147 0
 448 008c 2580     		strh	r5, [r4]
 449              		.loc 1 151 0
 450 008e 2781     		strh	r7, [r4, #8]
 451              		.loc 1 152 0
 452 0090 FFF7FEFF 		bl	TIM_ICInit
 453              	.LVL24:
 454              		.loc 1 157 0
 455 0094 0120     		mov	r0, #1
 456              		.loc 1 156 0
ARM GAS  /tmp/ccMlcuwN.s 			page 9


 457 0096 0023     		mov	r3, #0
 458              		.loc 1 157 0
 459 0098 B070     		strb	r0, [r6, #2]
 460              		.loc 1 155 0
 461 009a 0E24     		mov	r4, #14
 462              		.loc 1 158 0
 463 009c 301C     		mov	r0, r6
 464              		.loc 1 156 0
 465 009e 7370     		strb	r3, [r6, #1]
 466              		.loc 1 155 0
 467 00a0 3470     		strb	r4, [r6]
 468              		.loc 1 158 0
 469 00a2 FFF7FEFF 		bl	NVIC_Init
 470              	.LVL25:
 471              		.loc 1 161 0
 472 00a6 0121     		mov	r1, #1
 473 00a8 2048     		ldr	r0, .L28+8
 474 00aa FFF7FEFF 		bl	TIM_Cmd
 475              	.LVL26:
 476              		.loc 1 163 0
 477 00ae 2048     		ldr	r0, .L28+12
 478 00b0 FFF7FEFF 		bl	i2cInit
 479              	.LVL27:
 480              		.loc 1 164 0
 481 00b4 1F4E     		ldr	r6, .L28+16
 482 00b6 B079     		ldrb	r0, [r6, #6]
 483 00b8 FFF7FEFF 		bl	setPotGain
 484              	.LVL28:
 485              		.loc 1 166 0
 486 00bc 1E48     		ldr	r0, .L28+20
 487              	.L27:
 488              		.loc 1 176 0
 489 00be FA25     		mov	r5, #250
 490              		.loc 1 166 0
 491 00c0 FFF7FEFF 		bl	serDbg
 492              	.LVL29:
 493              		.loc 1 174 0
 494 00c4 FFF7FEFF 		bl	getAnalogSensors
 495              	.LVL30:
 496              		.loc 1 175 0
 497 00c8 FFF7FEFF 		bl	getCapture
 498              	.LVL31:
 499              		.loc 1 176 0
 500 00cc 6800     		lsl	r0, r5, #1
 501 00ce FFF7FEFF 		bl	chThdSleep
 502              	.LVL32:
 503              		.loc 1 186 0
 504 00d2 1A48     		ldr	r0, .L28+24
 505 00d4 FFF7FEFF 		bl	serDbg
 506              	.LVL33:
 507              		.loc 1 187 0
 508 00d8 194F     		ldr	r7, .L28+28
 509 00da 02A9     		add	r1, sp, #8
 510 00dc 3888     		ldrh	r0, [r7]
 511 00de FFF7FEFF 		bl	itoa
 512              	.LVL34:
 513              		.loc 1 188 0
ARM GAS  /tmp/ccMlcuwN.s 			page 10


 514 00e2 02A8     		add	r0, sp, #8
 515 00e4 FFF7FEFF 		bl	serDbg
 516              	.LVL35:
 517              		.loc 1 189 0
 518 00e8 164C     		ldr	r4, .L28+32
 519 00ea 201C     		mov	r0, r4
 520 00ec FFF7FEFF 		bl	serDbg
 521              	.LVL36:
 522              		.loc 1 191 0
 523 00f0 1548     		ldr	r0, .L28+36
 524 00f2 FFF7FEFF 		bl	serDbg
 525              	.LVL37:
 526              		.loc 1 192 0
 527 00f6 02A9     		add	r1, sp, #8
 528 00f8 B888     		ldrh	r0, [r7, #4]
 529 00fa FFF7FEFF 		bl	itoa
 530              	.LVL38:
 531              		.loc 1 193 0
 532 00fe 02A8     		add	r0, sp, #8
 533 0100 FFF7FEFF 		bl	serDbg
 534              	.LVL39:
 535              		.loc 1 194 0
 536 0104 201C     		mov	r0, r4
 537 0106 FFF7FEFF 		bl	serDbg
 538              	.LVL40:
 539              		.loc 1 196 0
 540 010a 1048     		ldr	r0, .L28+40
 541 010c FFF7FEFF 		bl	serDbg
 542              	.LVL41:
 543              		.loc 1 197 0
 544 0110 F888     		ldrh	r0, [r7, #6]
 545 0112 02A9     		add	r1, sp, #8
 546 0114 FFF7FEFF 		bl	itoa
 547              	.LVL42:
 548              		.loc 1 198 0
 549 0118 02A8     		add	r0, sp, #8
 550 011a FFF7FEFF 		bl	serDbg
 551              	.LVL43:
 552              		.loc 1 199 0
 553 011e 201C     		mov	r0, r4
 554 0120 CDE7     		b	.L27
 555              	.L29:
 556 0122 C046     		.align	2
 557              	.L28:
 558 0124 DF010000 		.word	479
 559 0128 FFFF0000 		.word	65535
 560 012c 002C0140 		.word	1073818624
 561 0130 00540040 		.word	1073763328
 562 0134 00000000 		.word	settings
 563 0138 00000000 		.word	.LC11
 564 013c 18000000 		.word	.LC13
 565 0140 00000000 		.word	.LANCHOR0
 566 0144 1E000000 		.word	.LC16
 567 0148 21000000 		.word	.LC18
 568 014c 30000000 		.word	.LC20
 569              		.cfi_endproc
 570              	.LFE77:
ARM GAS  /tmp/ccMlcuwN.s 			page 11


 571              		.size	startSensors, .-startSensors
 572              		.section	.text.setupLIS331,"ax",%progbits
 573              		.align	1
 574              		.global	setupLIS331
 575              		.code	16
 576              		.thumb_func
 577              		.type	setupLIS331, %function
 578              	setupLIS331:
 579              	.LFB83:
 580              		.loc 1 303 0
 581              		.cfi_startproc
 582 0000 13B5     		push	{r0, r1, r4, lr}
 583              	.LCFI6:
 584              		.cfi_def_cfa_offset 16
 585              		.cfi_offset 0, -16
 586              		.cfi_offset 1, -12
 587              		.cfi_offset 4, -8
 588              		.cfi_offset 14, -4
 589              		.loc 1 304 0
 590 0002 01AC     		add	r4, sp, #4
 591 0004 0D49     		ldr	r1, .L33
 592 0006 0222     		mov	r2, #2
 593 0008 201C     		mov	r0, r4
 594 000a FFF7FEFF 		bl	memcpy
 595              	.LVL44:
 596              		.loc 1 307 0
 597 000e 0223     		mov	r3, #2
 598 0010 0B48     		ldr	r0, .L33+4
 599 0012 1921     		mov	r1, #25
 600 0014 221C     		mov	r2, r4
 601 0016 FFF7FEFF 		bl	i2cSendS
 602              	.LVL45:
 603 001a 031C     		mov	r3, r0
 604              		.loc 1 310 0
 605 001c 0120     		mov	r0, #1
 606              		.loc 1 307 0
 607 001e 002B     		cmp	r3, #0
 608 0020 0BD1     		bne	.L31
 609              		.loc 1 314 0
 610 0022 2320     		mov	r0, #35
 611              		.loc 1 315 0
 612 0024 1021     		mov	r1, #16
 613              		.loc 1 314 0
 614 0026 2070     		strb	r0, [r4]
 615              		.loc 1 315 0
 616 0028 6170     		strb	r1, [r4, #1]
 617              		.loc 1 316 0
 618 002a 0223     		mov	r3, #2
 619 002c 0448     		ldr	r0, .L33+4
 620 002e 1921     		mov	r1, #25
 621 0030 221C     		mov	r2, r4
 622 0032 FFF7FEFF 		bl	i2cSendS
 623              	.LVL46:
 624              		.loc 1 310 0
 625 0036 431E     		sub	r3, r0, #1
 626 0038 9841     		sbc	r0, r0, r3
 627              	.L31:
ARM GAS  /tmp/ccMlcuwN.s 			page 12


 628              		.loc 1 322 0
 629              		@ sp needed for prologue
 630 003a 16BD     		pop	{r1, r2, r4, pc}
 631              	.L34:
 632              		.align	2
 633              	.L33:
 634 003c 00000000 		.word	.LANCHOR1
 635 0040 00540040 		.word	1073763328
 636              		.cfi_endproc
 637              	.LFE83:
 638              		.size	setupLIS331, .-setupLIS331
 639              		.section	.text.getLISValues,"ax",%progbits
 640              		.align	1
 641              		.global	getLISValues
 642              		.code	16
 643              		.thumb_func
 644              		.type	getLISValues, %function
 645              	getLISValues:
 646              	.LFB84:
 647              		.loc 1 325 0
 648              		.cfi_startproc
 649 0000 1FB5     		push	{r0, r1, r2, r3, r4, lr}
 650              	.LCFI7:
 651              		.cfi_def_cfa_offset 24
 652              		.cfi_offset 0, -24
 653              		.cfi_offset 1, -20
 654              		.cfi_offset 2, -16
 655              		.cfi_offset 3, -12
 656              		.cfi_offset 4, -8
 657              		.cfi_offset 14, -4
 658              		.loc 1 326 0
 659 0002 6A46     		mov	r2, sp
 660 0004 2823     		mov	r3, #40
 661 0006 0732     		add	r2, r2, #7
 662 0008 1370     		strb	r3, [r2]
 663              	.LVL47:
 664              		.loc 1 329 0
 665 000a 1248     		ldr	r0, .L39
 666 000c 1921     		mov	r1, #25
 667 000e 0123     		mov	r3, #1
 668 0010 FFF7FEFF 		bl	i2cSendS
 669              	.LVL48:
 670 0014 0028     		cmp	r0, #0
 671 0016 01D0     		beq	.L36
 672              	.L38:
 673              		.loc 1 332 0
 674 0018 0120     		mov	r0, #1
 675 001a 18E0     		b	.L37
 676              	.L36:
 677              		.loc 1 334 0
 678 001c 02AC     		add	r4, sp, #8
 679 001e 0D48     		ldr	r0, .L39
 680 0020 1921     		mov	r1, #25
 681 0022 221C     		mov	r2, r4
 682 0024 0623     		mov	r3, #6
 683 0026 FFF7FEFF 		bl	i2cReceiveS
 684              	.LVL49:
ARM GAS  /tmp/ccMlcuwN.s 			page 13


 685 002a 0028     		cmp	r0, #0
 686 002c F4D1     		bne	.L38
 687              		.loc 1 339 0
 688 002e 6278     		ldrb	r2, [r4, #1]
 689 0030 2178     		ldrb	r1, [r4]
 690 0032 094B     		ldr	r3, .L39+4
 691 0034 1202     		lsl	r2, r2, #8
 692 0036 5218     		add	r2, r2, r1
 693 0038 1A80     		strh	r2, [r3]
 694              		.loc 1 340 0
 695 003a E178     		ldrb	r1, [r4, #3]
 696 003c 0A02     		lsl	r2, r1, #8
 697 003e A178     		ldrb	r1, [r4, #2]
 698 0040 5218     		add	r2, r2, r1
 699 0042 5A80     		strh	r2, [r3, #2]
 700              		.loc 1 341 0
 701 0044 6179     		ldrb	r1, [r4, #5]
 702 0046 2479     		ldrb	r4, [r4, #4]
 703 0048 0A02     		lsl	r2, r1, #8
 704 004a 1119     		add	r1, r2, r4
 705 004c 9980     		strh	r1, [r3, #4]
 706              	.L37:
 707              		.loc 1 344 0
 708 004e 04B0     		add	sp, sp, #16
 709              		@ sp needed for prologue
 710 0050 10BD     		pop	{r4, pc}
 711              	.L40:
 712 0052 C046     		.align	2
 713              	.L39:
 714 0054 00540040 		.word	1073763328
 715 0058 00000000 		.word	.LANCHOR2
 716              		.cfi_endproc
 717              	.LFE84:
 718              		.size	getLISValues, .-getLISValues
 719              		.section	.text.Vector78,"ax",%progbits
 720              		.align	1
 721              		.global	Vector78
 722              		.code	16
 723              		.thumb_func
 724              		.type	Vector78, %function
 725              	Vector78:
 726              	.LFB85:
 727              		.loc 1 347 0
 728              		.cfi_startproc
 729 0000 F8B5     		push	{r3, r4, r5, r6, r7, lr}
 730              	.LCFI8:
 731              		.cfi_def_cfa_offset 24
 732              		.cfi_offset 3, -24
 733              		.cfi_offset 4, -20
 734              		.cfi_offset 5, -16
 735              		.cfi_offset 6, -12
 736              		.cfi_offset 7, -8
 737              		.cfi_offset 14, -4
 738              		.loc 1 350 0
 739 0002 194B     		ldr	r3, .L49
 740 0004 1022     		mov	r2, #16
 741 0006 198A     		ldrh	r1, [r3, #16]
ARM GAS  /tmp/ccMlcuwN.s 			page 14


 742 0008 1C1C     		mov	r4, r3
 743 000a 1142     		tst	r1, r2
 744 000c 2BD0     		beq	.L41
 745              		.loc 1 354 0
 746 000e 188A     		ldrh	r0, [r3, #16]
 747              		.loc 1 356 0
 748 0010 164F     		ldr	r7, .L49+4
 749              		.loc 1 354 0
 750 0012 9043     		bic	r0, r2
 751 0014 1882     		strh	r0, [r3, #16]
 752              		.loc 1 356 0
 753 0016 3978     		ldrb	r1, [r7]
 754 0018 3E1C     		mov	r6, r7
 755 001a 0029     		cmp	r1, #0
 756 001c 05D1     		bne	.L44
 757              		.loc 1 359 0
 758 001e 1C6C     		ldr	r4, [r3, #64]
 759 0020 1348     		ldr	r0, .L49+8
 760              		.loc 1 360 0
 761 0022 0121     		mov	r1, #1
 762              		.loc 1 359 0
 763 0024 0480     		strh	r4, [r0]
 764              		.loc 1 360 0
 765 0026 3970     		strb	r1, [r7]
 766 0028 1DE0     		b	.L41
 767              	.L44:
 768              		.loc 1 362 0
 769 002a 0129     		cmp	r1, #1
 770 002c 1BD1     		bne	.L41
 771              		.loc 1 368 0
 772 002e 104F     		ldr	r7, .L49+8
 773              		.loc 1 365 0
 774 0030 1A6C     		ldr	r2, [r3, #64]
 775              		.loc 1 368 0
 776 0032 3888     		ldrh	r0, [r7]
 777              		.loc 1 365 0
 778 0034 0F4B     		ldr	r3, .L49+12
 779 0036 95B2     		uxth	r5, r2
 780 0038 1104     		lsl	r1, r2, #16
 781 003a 1D80     		strh	r5, [r3]
 782              		.loc 1 370 0
 783 003c 090C     		lsr	r1, r1, #16
 784              		.loc 1 368 0
 785 003e 8542     		cmp	r5, r0
 786 0040 02D8     		bhi	.L48
 787              	.L46:
 788              		.loc 1 374 0
 789 0042 8022     		mov	r2, #128
 790 0044 5302     		lsl	r3, r2, #9
 791 0046 C918     		add	r1, r1, r3
 792              	.L48:
 793 0048 091A     		sub	r1, r1, r0
 794              	.LVL50:
 795              		.loc 1 378 0
 796 004a 0B48     		ldr	r0, .L49+16
 797 004c FFF7FEFF 		bl	__aeabi_uidiv
 798              	.LVL51:
ARM GAS  /tmp/ccMlcuwN.s 			page 15


 799 0050 3C22     		mov	r2, #60
 800 0052 5043     		mul	r0, r2
 801 0054 094B     		ldr	r3, .L49+20
 802              		.loc 1 380 0
 803 0056 3D80     		strh	r5, [r7]
 804              		.loc 1 381 0
 805 0058 0025     		mov	r5, #0
 806              		.loc 1 378 0
 807 005a 1880     		strh	r0, [r3]
 808              		.loc 1 381 0
 809 005c 3570     		strb	r5, [r6]
 810              		.loc 1 384 0
 811 005e A689     		ldrh	r6, [r4, #12]
 812 0060 1027     		mov	r7, #16
 813 0062 BE43     		bic	r6, r7
 814 0064 A681     		strh	r6, [r4, #12]
 815              	.L41:
 816              		.loc 1 387 0
 817              		@ sp needed for prologue
 818 0066 F8BD     		pop	{r3, r4, r5, r6, r7, pc}
 819              	.L50:
 820              		.align	2
 821              	.L49:
 822 0068 002C0140 		.word	1073818624
 823 006c 00000000 		.word	.LANCHOR3
 824 0070 00000000 		.word	.LANCHOR4
 825 0074 00000000 		.word	.LANCHOR5
 826 0078 A0860100 		.word	100000
 827 007c 00000000 		.word	.LANCHOR0
 828              		.cfi_endproc
 829              	.LFE85:
 830              		.size	Vector78, .-Vector78
 831              		.global	__aeabi_idiv
 832              		.section	.text.Vector7C,"ax",%progbits
 833              		.align	1
 834              		.global	Vector7C
 835              		.code	16
 836              		.thumb_func
 837              		.type	Vector7C, %function
 838              	Vector7C:
 839              	.LFB86:
 840              		.loc 1 390 0
 841              		.cfi_startproc
 842              	.LVL52:
 843 0000 F7B5     		push	{r0, r1, r2, r4, r5, r6, r7, lr}
 844              	.LCFI9:
 845              		.cfi_def_cfa_offset 32
 846              		.cfi_offset 0, -32
 847              		.cfi_offset 1, -28
 848              		.cfi_offset 2, -24
 849              		.cfi_offset 4, -20
 850              		.cfi_offset 5, -16
 851              		.cfi_offset 6, -12
 852              		.cfi_offset 7, -8
 853              		.cfi_offset 14, -4
 854              		.loc 1 393 0
 855 0002 8023     		mov	r3, #128
ARM GAS  /tmp/ccMlcuwN.s 			page 16


 856 0004 D805     		lsl	r0, r3, #23
 857 0006 018A     		ldrh	r1, [r0, #16]
 858 0008 0822     		mov	r2, #8
 859 000a 644C     		ldr	r4, .L88
 860 000c 644D     		ldr	r5, .L88+4
 861 000e 1142     		tst	r1, r2
 862 0010 38D0     		beq	.L52
 863              		.loc 1 397 0
 864 0012 038A     		ldrh	r3, [r0, #16]
 865 0014 9343     		bic	r3, r2
 866              		.loc 1 399 0
 867 0016 634A     		ldr	r2, .L88+8
 868              		.loc 1 397 0
 869 0018 0382     		strh	r3, [r0, #16]
 870              		.loc 1 399 0
 871 001a 1778     		ldrb	r7, [r2]
 872 001c 002F     		cmp	r7, #0
 873 001e 02D1     		bne	.L53
 874              		.loc 1 402 0
 875 0020 C66B     		ldr	r6, [r0, #60]
 876 0022 6149     		ldr	r1, .L88+12
 877 0024 3BE0     		b	.L83
 878              	.L53:
 879              		.loc 1 405 0
 880 0026 012F     		cmp	r7, #1
 881 0028 6DD1     		bne	.L54
 882              		.loc 1 411 0
 883 002a 5F4B     		ldr	r3, .L88+12
 884              		.loc 1 408 0
 885 002c C06B     		ldr	r0, [r0, #60]
 886 002e 5F49     		ldr	r1, .L88+16
 887              		.loc 1 411 0
 888 0030 1A88     		ldrh	r2, [r3]
 889              		.loc 1 408 0
 890 0032 86B2     		uxth	r6, r0
 891 0034 0704     		lsl	r7, r0, #16
 892 0036 0E80     		strh	r6, [r1]
 893              		.loc 1 413 0
 894 0038 390C     		lsr	r1, r7, #16
 895              		.loc 1 411 0
 896 003a 9642     		cmp	r6, r2
 897 003c 02D8     		bhi	.L80
 898              	.L56:
 899              		.loc 1 417 0
 900 003e 8020     		mov	r0, #128
 901 0040 4302     		lsl	r3, r0, #9
 902 0042 C918     		add	r1, r1, r3
 903              	.L80:
 904 0044 891A     		sub	r1, r1, r2
 905              	.LVL53:
 906              		.loc 1 421 0
 907 0046 5A4A     		ldr	r2, .L88+20
 908 0048 1778     		ldrb	r7, [r2]
 909 004a 78B2     		sxtb	r0, r7
 910 004c 8300     		lsl	r3, r0, #2
 911 004e 5948     		ldr	r0, .L88+24
 912 0050 0093     		str	r3, [sp]
ARM GAS  /tmp/ccMlcuwN.s 			page 17


 913 0052 FFF7FEFF 		bl	__aeabi_uidiv
 914              	.LVL54:
 915 0056 0137     		add	r7, r7, #1
 916 0058 0099     		ldr	r1, [sp]
 917 005a FAB2     		uxtb	r2, r7
 918              		.loc 1 423 0
 919 005c 57B2     		sxtb	r7, r2
 920              		.loc 1 421 0
 921 005e 6050     		str	r0, [r4, r1]
 922              		.loc 1 423 0
 923 0060 012F     		cmp	r7, #1
 924 0062 02DC     		bgt	.L58
 925              		.loc 1 421 0
 926 0064 5248     		ldr	r0, .L88+20
 927 0066 0270     		strb	r2, [r0]
 928 0068 02E0     		b	.L59
 929              	.L58:
 930              		.loc 1 423 0 discriminator 1
 931 006a 5149     		ldr	r1, .L88+20
 932 006c 0023     		mov	r3, #0
 933 006e 0B70     		strb	r3, [r1]
 934              	.L59:
 935              		.loc 1 425 0
 936 0070 4D4A     		ldr	r2, .L88+12
 937              		.loc 1 426 0
 938 0072 4C4F     		ldr	r7, .L88+8
 939              		.loc 1 425 0
 940 0074 1680     		strh	r6, [r2]
 941              		.loc 1 429 0
 942 0076 8020     		mov	r0, #128
 943              		.loc 1 426 0
 944 0078 0026     		mov	r6, #0
 945 007a 3E70     		strb	r6, [r7]
 946              		.loc 1 429 0
 947 007c C005     		lsl	r0, r0, #23
 948 007e 8289     		ldrh	r2, [r0, #12]
 949 0080 0827     		mov	r7, #8
 950 0082 3EE0     		b	.L84
 951              	.LVL55:
 952              	.L52:
 953              		.loc 1 433 0
 954 0084 068A     		ldrh	r6, [r0, #16]
 955 0086 1027     		mov	r7, #16
 956 0088 3E42     		tst	r6, r7
 957 008a 3CD0     		beq	.L54
 958              		.loc 1 437 0
 959 008c 038A     		ldrh	r3, [r0, #16]
 960              		.loc 1 439 0
 961 008e 4A4A     		ldr	r2, .L88+28
 962              		.loc 1 437 0
 963 0090 BB43     		bic	r3, r7
 964 0092 0382     		strh	r3, [r0, #16]
 965              		.loc 1 439 0
 966 0094 1678     		ldrb	r6, [r2]
 967 0096 002E     		cmp	r6, #0
 968 0098 05D1     		bne	.L61
 969              		.loc 1 442 0
ARM GAS  /tmp/ccMlcuwN.s 			page 18


 970 009a 066C     		ldr	r6, [r0, #64]
 971 009c 4749     		ldr	r1, .L88+32
 972              	.L83:
 973              		.loc 1 443 0
 974 009e 0123     		mov	r3, #1
 975              		.loc 1 442 0
 976 00a0 0E80     		strh	r6, [r1]
 977              		.loc 1 443 0
 978 00a2 1370     		strb	r3, [r2]
 979 00a4 2FE0     		b	.L54
 980              	.L61:
 981              		.loc 1 445 0
 982 00a6 012E     		cmp	r6, #1
 983 00a8 2DD1     		bne	.L54
 984              		.loc 1 448 0
 985 00aa 006C     		ldr	r0, [r0, #64]
 986 00ac 444F     		ldr	r7, .L88+36
 987              		.loc 1 451 0
 988 00ae 434B     		ldr	r3, .L88+32
 989              		.loc 1 448 0
 990 00b0 86B2     		uxth	r6, r0
 991 00b2 3E80     		strh	r6, [r7]
 992              		.loc 1 451 0
 993 00b4 1F88     		ldrh	r7, [r3]
 994 00b6 0104     		lsl	r1, r0, #16
 995              		.loc 1 453 0
 996 00b8 0B0C     		lsr	r3, r1, #16
 997              		.loc 1 451 0
 998 00ba BE42     		cmp	r6, r7
 999 00bc 02D8     		bhi	.L81
 1000              	.L62:
 1001              		.loc 1 457 0
 1002 00be 8022     		mov	r2, #128
 1003 00c0 5002     		lsl	r0, r2, #9
 1004 00c2 1B18     		add	r3, r3, r0
 1005              	.L81:
 1006 00c4 D91B     		sub	r1, r3, r7
 1007              	.LVL56:
 1008              		.loc 1 461 0
 1009 00c6 3F4F     		ldr	r7, .L88+40
 1010 00c8 0023     		mov	r3, #0
 1011 00ca 3A78     		ldrb	r2, [r7]
 1012 00cc 6846     		mov	r0, sp
 1013 00ce 0092     		str	r2, [sp]
 1014 00d0 C256     		ldrsb	r2, [r0, r3]
 1015 00d2 9000     		lsl	r0, r2, #2
 1016 00d4 0190     		str	r0, [sp, #4]
 1017 00d6 3748     		ldr	r0, .L88+24
 1018 00d8 FFF7FEFF 		bl	__aeabi_uidiv
 1019              	.LVL57:
 1020 00dc 009B     		ldr	r3, [sp]
 1021 00de 0199     		ldr	r1, [sp, #4]
 1022 00e0 0133     		add	r3, r3, #1
 1023 00e2 6850     		str	r0, [r5, r1]
 1024 00e4 D8B2     		uxtb	r0, r3
 1025              		.loc 1 463 0
 1026 00e6 42B2     		sxtb	r2, r0
ARM GAS  /tmp/ccMlcuwN.s 			page 19


 1027 00e8 012A     		cmp	r2, #1
 1028 00ea 00DD     		ble	.L82
 1029              	.L64:
 1030              		.loc 1 463 0 is_stmt 0 discriminator 1
 1031 00ec 0020     		mov	r0, #0
 1032              	.L82:
 1033 00ee 3870     		strb	r0, [r7]
 1034              		.loc 1 465 0 is_stmt 1 discriminator 1
 1035 00f0 324F     		ldr	r7, .L88+32
 1036              		.loc 1 466 0 discriminator 1
 1037 00f2 3149     		ldr	r1, .L88+28
 1038              		.loc 1 465 0 discriminator 1
 1039 00f4 3E80     		strh	r6, [r7]
 1040              		.loc 1 469 0 discriminator 1
 1041 00f6 8023     		mov	r3, #128
 1042              		.loc 1 466 0 discriminator 1
 1043 00f8 0026     		mov	r6, #0
 1044 00fa 0E70     		strb	r6, [r1]
 1045              		.loc 1 469 0 discriminator 1
 1046 00fc D805     		lsl	r0, r3, #23
 1047 00fe 8289     		ldrh	r2, [r0, #12]
 1048 0100 1027     		mov	r7, #16
 1049              	.L84:
 1050              		.loc 1 469 0 is_stmt 0
 1051 0102 BA43     		bic	r2, r7
 1052 0104 8281     		strh	r2, [r0, #12]
 1053              	.L54:
 1054              		.loc 1 473 0 is_stmt 1
 1055 0106 2A49     		ldr	r1, .L88+20
 1056 0108 0022     		mov	r2, #0
 1057 010a 8E56     		ldrsb	r6, [r1, r2]
 1058 010c 2E4F     		ldr	r7, .L88+44
 1059 010e 002E     		cmp	r6, #0
 1060 0110 02D1     		bne	.L66
 1061              		.loc 1 475 0
 1062 0112 6068     		ldr	r0, [r4, #4]
 1063 0114 2368     		ldr	r3, [r4]
 1064 0116 01E0     		b	.L85
 1065              	.L66:
 1066              		.loc 1 479 0
 1067 0118 2068     		ldr	r0, [r4]
 1068 011a 6368     		ldr	r3, [r4, #4]
 1069              	.L85:
 1070 011c C11A     		sub	r1, r0, r3
 1071              		.loc 1 482 0
 1072 011e 294A     		ldr	r2, .L88+40
 1073              		.loc 1 479 0
 1074 0120 3980     		strh	r1, [r7]
 1075              		.loc 1 482 0
 1076 0122 0026     		mov	r6, #0
 1077 0124 9057     		ldrsb	r0, [r2, r6]
 1078 0126 294B     		ldr	r3, .L88+48
 1079 0128 0028     		cmp	r0, #0
 1080 012a 02D1     		bne	.L68
 1081              		.loc 1 484 0
 1082 012c 6868     		ldr	r0, [r5, #4]
 1083 012e 2968     		ldr	r1, [r5]
ARM GAS  /tmp/ccMlcuwN.s 			page 20


 1084 0130 00E0     		b	.L86
 1085              	.L68:
 1086              		.loc 1 488 0
 1087 0132 03CD     		ldmia	r5!, {r0, r1}
 1088              	.L86:
 1089 0134 451A     		sub	r5, r0, r1
 1090              		.loc 1 492 0
 1091 0136 1A49     		ldr	r1, .L88+4
 1092 0138 2468     		ldr	r4, [r4]
 1093 013a 0A68     		ldr	r2, [r1]
 1094              		.loc 1 488 0
 1095 013c 1D80     		strh	r5, [r3]
 1096 013e 244E     		ldr	r6, .L88+52
 1097              		.loc 1 492 0
 1098 0140 9442     		cmp	r4, r2
 1099 0142 01DB     		blt	.L70
 1100              		.loc 1 494 0
 1101 0144 7480     		strh	r4, [r6, #2]
 1102 0146 00E0     		b	.L71
 1103              	.L70:
 1104              		.loc 1 498 0
 1105 0148 7280     		strh	r2, [r6, #2]
 1106              	.L71:
 1107              		.loc 1 502 0
 1108 014a 3F88     		ldrh	r7, [r7]
 1109 014c 1B88     		ldrh	r3, [r3]
 1110 014e 39B2     		sxth	r1, r7
 1111 0150 18B2     		sxth	r0, r3
 1112 0152 204D     		ldr	r5, .L88+56
 1113 0154 8142     		cmp	r1, r0
 1114 0156 01DB     		blt	.L72
 1115              		.loc 1 504 0
 1116 0158 2F71     		strb	r7, [r5, #4]
 1117 015a 00E0     		b	.L73
 1118              	.L72:
 1119              		.loc 1 508 0
 1120 015c 2B71     		strb	r3, [r5, #4]
 1121              	.L73:
 1122              		.loc 1 511 0
 1123 015e FA24     		mov	r4, #250
 1124 0160 401A     		sub	r0, r0, r1
 1125 0162 A200     		lsl	r2, r4, #2
 1126 0164 5043     		mul	r0, r2
 1127 0166 FFF7FEFF 		bl	__aeabi_idiv
 1128              	.LVL58:
 1129              		.loc 1 513 0
 1130 016a 1B4B     		ldr	r3, .L88+60
 1131              		.loc 1 511 0
 1132 016c 87B2     		uxth	r7, r0
 1133 016e 6F80     		strh	r7, [r5, #2]
 1134              		.loc 1 513 0
 1135 0170 7188     		ldrh	r1, [r6, #2]
 1136 0172 1889     		ldrh	r0, [r3, #8]
 1137 0174 8142     		cmp	r1, r0
 1138 0176 07D9     		bls	.L74
 1139              		.loc 1 514 0
 1140 0178 3688     		ldrh	r6, [r6]
ARM GAS  /tmp/ccMlcuwN.s 			page 21


 1141 017a 5C89     		ldrh	r4, [r3, #10]
 1142 017c A642     		cmp	r6, r4
 1143 017e 03D9     		bls	.L74
 1144              		.loc 1 515 0
 1145 0180 3AB2     		sxth	r2, r7
 1146 0182 9F88     		ldrh	r7, [r3, #4]
 1147 0184 BA42     		cmp	r2, r7
 1148 0186 03DC     		bgt	.L75
 1149              	.L74:
 1150              		.loc 1 517 0
 1151 0188 2B78     		ldrb	r3, [r5]
 1152 018a 0220     		mov	r0, #2
 1153 018c 8343     		bic	r3, r0
 1154 018e 02E0     		b	.L87
 1155              	.L75:
 1156              		.loc 1 521 0
 1157 0190 2B78     		ldrb	r3, [r5]
 1158 0192 0221     		mov	r1, #2
 1159 0194 0B43     		orr	r3, r1
 1160              	.L87:
 1161 0196 2B70     		strb	r3, [r5]
 1162              		.loc 1 522 0
 1163              		@ sp needed for prologue
 1164 0198 F7BD     		pop	{r0, r1, r2, r4, r5, r6, r7, pc}
 1165              	.L89:
 1166 019a C046     		.align	2
 1167              	.L88:
 1168 019c 00000000 		.word	.LANCHOR10
 1169 01a0 00000000 		.word	.LANCHOR15
 1170 01a4 00000000 		.word	.LANCHOR6
 1171 01a8 00000000 		.word	.LANCHOR7
 1172 01ac 00000000 		.word	.LANCHOR8
 1173 01b0 00000000 		.word	.LANCHOR9
 1174 01b4 A0860100 		.word	100000
 1175 01b8 00000000 		.word	.LANCHOR11
 1176 01bc 00000000 		.word	.LANCHOR12
 1177 01c0 00000000 		.word	.LANCHOR13
 1178 01c4 00000000 		.word	.LANCHOR14
 1179 01c8 00000000 		.word	.LANCHOR16
 1180 01cc 00000000 		.word	.LANCHOR17
 1181 01d0 00000000 		.word	.LANCHOR0
 1182 01d4 00000000 		.word	status
 1183 01d8 00000000 		.word	settings
 1184              		.cfi_endproc
 1185              	.LFE86:
 1186              		.size	Vector7C, .-Vector7C
 1187              		.global	sensors
 1188              		.section	.rodata
 1189              		.set	.LANCHOR1,. + 0
 1190              	.LC0:
 1191 0000 20       		.byte	32
 1192 0001 3F       		.byte	63
 1193              		.section	.bss.accel1,"aw",%nobits
 1194              		.align	1
 1195              		.set	.LANCHOR16,. + 0
 1196              		.type	accel1, %object
 1197              		.size	accel1, 2
ARM GAS  /tmp/ccMlcuwN.s 			page 22


 1198              	accel1:
 1199 0000 0000     		.space	2
 1200              		.section	.bss.TIM2CC4CaptureNumber,"aw",%nobits
 1201              		.set	.LANCHOR11,. + 0
 1202              		.type	TIM2CC4CaptureNumber, %object
 1203              		.size	TIM2CC4CaptureNumber, 1
 1204              	TIM2CC4CaptureNumber:
 1205 0000 00       		.space	1
 1206              		.section	.bss.TIM1CC4ReadValue1,"aw",%nobits
 1207              		.align	1
 1208              		.set	.LANCHOR4,. + 0
 1209              		.type	TIM1CC4ReadValue1, %object
 1210              		.size	TIM1CC4ReadValue1, 2
 1211              	TIM1CC4ReadValue1:
 1212 0000 0000     		.space	2
 1213              		.section	.bss.TIM1CC4ReadValue2,"aw",%nobits
 1214              		.align	1
 1215              		.set	.LANCHOR5,. + 0
 1216              		.type	TIM1CC4ReadValue2, %object
 1217              		.size	TIM1CC4ReadValue2, 2
 1218              	TIM1CC4ReadValue2:
 1219 0000 0000     		.space	2
 1220              		.section	.bss.TIM2CC4ReadValue1,"aw",%nobits
 1221              		.align	1
 1222              		.set	.LANCHOR12,. + 0
 1223              		.type	TIM2CC4ReadValue1, %object
 1224              		.size	TIM2CC4ReadValue1, 2
 1225              	TIM2CC4ReadValue1:
 1226 0000 0000     		.space	2
 1227              		.section	.bss.TIM2CC3ReadValue1,"aw",%nobits
 1228              		.align	1
 1229              		.set	.LANCHOR7,. + 0
 1230              		.type	TIM2CC3ReadValue1, %object
 1231              		.size	TIM2CC3ReadValue1, 2
 1232              	TIM2CC3ReadValue1:
 1233 0000 0000     		.space	2
 1234              		.section	.bss.TIM2CC3ReadValue2,"aw",%nobits
 1235              		.align	1
 1236              		.set	.LANCHOR8,. + 0
 1237              		.type	TIM2CC3ReadValue2, %object
 1238              		.size	TIM2CC3ReadValue2, 2
 1239              	TIM2CC3ReadValue2:
 1240 0000 0000     		.space	2
 1241              		.section	.bss.sensors,"aw",%nobits
 1242              		.align	1
 1243              		.set	.LANCHOR0,. + 0
 1244              		.type	sensors, %object
 1245              		.size	sensors, 10
 1246              	sensors:
 1247 0000 00000000 		.space	10
 1247      00000000 
 1247      0000
 1248              		.section	.bss.TIM2CC4ReadValue2,"aw",%nobits
 1249              		.align	1
 1250              		.set	.LANCHOR13,. + 0
 1251              		.type	TIM2CC4ReadValue2, %object
 1252              		.size	TIM2CC4ReadValue2, 2
ARM GAS  /tmp/ccMlcuwN.s 			page 23


 1253              	TIM2CC4ReadValue2:
 1254 0000 0000     		.space	2
 1255              		.section	.bss.accel2,"aw",%nobits
 1256              		.align	1
 1257              		.set	.LANCHOR17,. + 0
 1258              		.type	accel2, %object
 1259              		.size	accel2, 2
 1260              	accel2:
 1261 0000 0000     		.space	2
 1262              		.section	.rodata.str1.1,"aMS",%progbits,1
 1263              	.LC11:
 1264 0000 73746172 		.ascii	"startSensors Complete\015\012\000"
 1264      7453656E 
 1264      736F7273 
 1264      20436F6D 
 1264      706C6574 
 1265              	.LC13:
 1266 0018 52504D3A 		.ascii	"RPM: \000"
 1266      2000
 1267              	.LC16:
 1268 001e 0D0A00   		.ascii	"\015\012\000"
 1269              	.LC18:
 1270 0021 53747261 		.ascii	"Strain gauge: \000"
 1270      696E2067 
 1270      61756765 
 1270      3A2000
 1271              	.LC20:
 1272 0030 54432053 		.ascii	"TC Switch: \000"
 1272      77697463 
 1272      683A2000 
 1273              		.section	.bss.TIM2CC3CaptureNumber,"aw",%nobits
 1274              		.set	.LANCHOR6,. + 0
 1275              		.type	TIM2CC3CaptureNumber, %object
 1276              		.size	TIM2CC3CaptureNumber, 1
 1277              	TIM2CC3CaptureNumber:
 1278 0000 00       		.space	1
 1279              		.section	.bss.spd1arr_pos,"aw",%nobits
 1280              		.set	.LANCHOR9,. + 0
 1281              		.type	spd1arr_pos, %object
 1282              		.size	spd1arr_pos, 1
 1283              	spd1arr_pos:
 1284 0000 00       		.space	1
 1285              		.section	.bss.TIM1CC4CaptureNumber,"aw",%nobits
 1286              		.set	.LANCHOR3,. + 0
 1287              		.type	TIM1CC4CaptureNumber, %object
 1288              		.size	TIM1CC4CaptureNumber, 1
 1289              	TIM1CC4CaptureNumber:
 1290 0000 00       		.space	1
 1291              		.section	.bss.spd2arr_pos,"aw",%nobits
 1292              		.set	.LANCHOR14,. + 0
 1293              		.type	spd2arr_pos, %object
 1294              		.size	spd2arr_pos, 1
 1295              	spd2arr_pos:
 1296 0000 00       		.space	1
 1297              		.section	.bss.lis_data,"aw",%nobits
 1298              		.align	1
 1299              		.set	.LANCHOR2,. + 0
ARM GAS  /tmp/ccMlcuwN.s 			page 24


 1300              		.type	lis_data, %object
 1301              		.size	lis_data, 6
 1302              	lis_data:
 1303 0000 00000000 		.space	6
 1303      0000
 1304              		.section	.bss.spd1arr,"aw",%nobits
 1305              		.align	2
 1306              		.set	.LANCHOR10,. + 0
 1307              		.type	spd1arr, %object
 1308              		.size	spd1arr, 8
 1309              	spd1arr:
 1310 0000 00000000 		.space	8
 1310      00000000 
 1311              		.section	.bss.spd2arr,"aw",%nobits
 1312              		.align	2
 1313              		.set	.LANCHOR15,. + 0
 1314              		.type	spd2arr, %object
 1315              		.size	spd2arr, 8
 1316              	spd2arr:
 1317 0000 00000000 		.space	8
 1317      00000000 
 1318              		.text
 1319              	.Letext0:
 1320              		.file 2 "/media/data/src/x-tools/gcc-arm-none-eabi-4_7-2013q1/bin/../lib/gcc/arm-none-eabi/4.7.3/.
 1321              		.file 3 "./os/nil/include/nil.h"
 1322              		.file 4 "./os/nil/ports/ARMCMx/compilers/GCC/niltypes.h"
 1323              		.file 5 "./os/ext/CMSIS/ST/stm32f0xx.h"
 1324              		.file 6 "lib/STM32F0xx_StdPeriph_Driver/inc/stm32f0xx_tim.h"
 1325              		.file 7 "lib/STM32F0xx_StdPeriph_Driver/inc/stm32f0xx_misc.h"
 1326              		.file 8 "./os/nil/ports/ARMCMx/nilcore.h"
 1327              		.file 9 "./os/nil/ports/ARMCMx/nilcore_v6m.h"
 1328              		.file 10 "inc/threads.h"