ARM GAS  /tmp/ccctMJn7.s 			page 1


   1              		.cpu cortex-m0
   2              		.fpu softvfp
   3              		.eabi_attribute 20, 1
   4              		.eabi_attribute 21, 1
   5              		.eabi_attribute 23, 3
   6              		.eabi_attribute 24, 1
   7              		.eabi_attribute 25, 1
   8              		.eabi_attribute 26, 1
   9              		.eabi_attribute 30, 4
  10              		.eabi_attribute 34, 0
  11              		.eabi_attribute 18, 4
  12              		.code	16
  13              		.file	"serial_protocol.c"
  14              		.text
  15              	.Ltext0:
  16              		.cfi_sections	.debug_frame
  17              		.section	.text.doChecksum,"ax",%progbits
  18              		.align	1
  19              		.global	doChecksum
  20              		.code	16
  21              		.thumb_func
  22              		.type	doChecksum, %function
  23              	doChecksum:
  24              	.LFB78:
  25              		.file 1 "src/serial_protocol.c"
  26              		.loc 1 58 0
  27              		.cfi_startproc
  28              	.LVL0:
  29 0000 00B5     		push	{lr}
  30              	.LCFI0:
  31              		.cfi_def_cfa_offset 4
  32              		.cfi_offset 14, -4
  33              		.loc 1 58 0
  34 0002 031C     		mov	r3, r0
  35              		.loc 1 59 0
  36 0004 0020     		mov	r0, #0
  37              	.LVL1:
  38              	.L2:
  39              		.loc 1 61 0 discriminator 1
  40 0006 0139     		sub	r1, r1, #1
  41              	.LVL2:
  42 0008 C9B2     		uxtb	r1, r1
  43              	.LVL3:
  44 000a FF29     		cmp	r1, #255
  45 000c 04D0     		beq	.L5
  46              	.L3:
  47              		.loc 1 62 0
  48 000e 1A78     		ldrb	r2, [r3]
  49 0010 0133     		add	r3, r3, #1
  50              	.LVL4:
  51 0012 8018     		add	r0, r0, r2
  52              	.LVL5:
  53 0014 C0B2     		uxtb	r0, r0
  54              	.LVL6:
  55 0016 F6E7     		b	.L2
  56              	.L5:
  57              		.loc 1 65 0
ARM GAS  /tmp/ccctMJn7.s 			page 2


  58              		@ sp needed for prologue
  59 0018 00BD     		pop	{pc}
  60              		.cfi_endproc
  61              	.LFE78:
  62              		.size	doChecksum, .-doChecksum
  63              		.section	.text.searchBuffer,"ax",%progbits
  64              		.align	1
  65              		.global	searchBuffer
  66              		.code	16
  67              		.thumb_func
  68              		.type	searchBuffer, %function
  69              	searchBuffer:
  70              	.LFB79:
  71              		.loc 1 68 0
  72              		.cfi_startproc
  73              	.LVL7:
  74 0000 00B5     		push	{lr}
  75              	.LCFI1:
  76              		.cfi_def_cfa_offset 4
  77              		.cfi_offset 14, -4
  78              		.loc 1 68 0
  79 0002 0023     		mov	r3, #0
  80              	.LVL8:
  81              	.L9:
  82              		.loc 1 72 0
  83 0004 084A     		ldr	r2, .L11
  84 0006 D8B2     		uxtb	r0, r3
  85 0008 9A18     		add	r2, r3, r2
  86 000a 1178     		ldrb	r1, [r2]
  87 000c AB29     		cmp	r1, #171
  88 000e 04D1     		bne	.L7
  89              		.loc 1 73 0
  90 0010 5278     		ldrb	r2, [r2, #1]
  91 0012 CD2A     		cmp	r2, #205
  92 0014 01D1     		bne	.L7
  93              		.loc 1 74 0
  94 0016 C3B2     		uxtb	r3, r0
  95 0018 03E0     		b	.L8
  96              	.L7:
  97 001a 0133     		add	r3, r3, #1
  98              		.loc 1 70 0
  99 001c 3F2B     		cmp	r3, #63
 100 001e F1D1     		bne	.L9
 101              		.loc 1 77 0
 102 0020 FF23     		mov	r3, #255
 103              	.L8:
 104 0022 58B2     		sxtb	r0, r3
 105              		.loc 1 78 0
 106              		@ sp needed for prologue
 107 0024 00BD     		pop	{pc}
 108              	.L12:
 109 0026 C046     		.align	2
 110              	.L11:
 111 0028 00000000 		.word	usart_rxbuf
 112              		.cfi_endproc
 113              	.LFE79:
 114              		.size	searchBuffer, .-searchBuffer
ARM GAS  /tmp/ccctMJn7.s 			page 3


 115              		.section	.text.saveSettings,"ax",%progbits
 116              		.align	1
 117              		.global	saveSettings
 118              		.code	16
 119              		.thumb_func
 120              		.type	saveSettings, %function
 121              	saveSettings:
 122              	.LFB83:
 123              		.loc 1 96 0
 124              		.cfi_startproc
 125 0000 08B5     		push	{r3, lr}
 126              	.LCFI2:
 127              		.cfi_def_cfa_offset 8
 128              		.cfi_offset 3, -8
 129              		.cfi_offset 14, -4
 130              		.loc 1 97 0
 131 0002 044B     		ldr	r3, .L14
 132 0004 0020     		mov	r0, #0
 133 0006 1956     		ldrsb	r1, [r3, r0]
 134 0008 034A     		ldr	r2, .L14+4
 135 000a 0431     		add	r1, r1, #4
 136 000c 8818     		add	r0, r1, r2
 137 000e FFF7FEFF 		bl	writeSettings
 138              	.LVL9:
 139              		.loc 1 98 0
 140              		@ sp needed for prologue
 141 0012 08BD     		pop	{r3, pc}
 142              	.L15:
 143              		.align	2
 144              	.L14:
 145 0014 00000000 		.word	.LANCHOR0
 146 0018 00000000 		.word	usart_rxbuf
 147              		.cfi_endproc
 148              	.LFE83:
 149              		.size	saveSettings, .-saveSettings
 150              		.section	.text.sendToGUI,"ax",%progbits
 151              		.align	1
 152              		.global	sendToGUI
 153              		.code	16
 154              		.thumb_func
 155              		.type	sendToGUI, %function
 156              	sendToGUI:
 157              	.LFB84:
 158              		.loc 1 101 0
 159              		.cfi_startproc
 160              	.LVL10:
 161 0000 08B5     		push	{r3, lr}
 162              	.LCFI3:
 163              		.cfi_def_cfa_offset 8
 164              		.cfi_offset 3, -8
 165              		.cfi_offset 14, -4
 166              		.loc 1 101 0
 167 0002 031C     		mov	r3, r0
 168 0004 0A1C     		mov	r2, r1
 169              		.loc 1 102 0
 170 0006 0348     		ldr	r0, .L17
 171              	.LVL11:
ARM GAS  /tmp/ccctMJn7.s 			page 4


 172 0008 191C     		mov	r1, r3
 173              	.LVL12:
 174 000a FFF7FEFF 		bl	usartSendI
 175              	.LVL13:
 176              		.loc 1 105 0
 177              		@ sp needed for prologue
 178 000e 0020     		mov	r0, #0
 179 0010 08BD     		pop	{r3, pc}
 180              	.L18:
 181 0012 C046     		.align	2
 182              	.L17:
 183 0014 00380140 		.word	1073821696
 184              		.cfi_endproc
 185              	.LFE84:
 186              		.size	sendToGUI, .-sendToGUI
 187              		.section	.text.sendSettings,"ax",%progbits
 188              		.align	1
 189              		.global	sendSettings
 190              		.code	16
 191              		.thumb_func
 192              		.type	sendSettings, %function
 193              	sendSettings:
 194              	.LFB82:
 195              		.loc 1 91 0
 196              		.cfi_startproc
 197 0000 08B5     		push	{r3, lr}
 198              	.LCFI4:
 199              		.cfi_def_cfa_offset 8
 200              		.cfi_offset 3, -8
 201              		.cfi_offset 14, -4
 202              		.loc 1 92 0
 203 0002 0248     		ldr	r0, .L20
 204 0004 2421     		mov	r1, #36
 205 0006 FFF7FEFF 		bl	sendToGUI
 206              	.LVL14:
 207              		.loc 1 93 0
 208              		@ sp needed for prologue
 209 000a 08BD     		pop	{r3, pc}
 210              	.L21:
 211              		.align	2
 212              	.L20:
 213 000c 00000000 		.word	settings
 214              		.cfi_endproc
 215              	.LFE82:
 216              		.size	sendSettings, .-sendSettings
 217              		.section	.text.sendInfo,"ax",%progbits
 218              		.align	1
 219              		.global	sendInfo
 220              		.code	16
 221              		.thumb_func
 222              		.type	sendInfo, %function
 223              	sendInfo:
 224              	.LFB81:
 225              		.loc 1 86 0
 226              		.cfi_startproc
 227 0000 08B5     		push	{r3, lr}
 228              	.LCFI5:
ARM GAS  /tmp/ccctMJn7.s 			page 5


 229              		.cfi_def_cfa_offset 8
 230              		.cfi_offset 3, -8
 231              		.cfi_offset 14, -4
 232              		.loc 1 87 0
 233 0002 0248     		ldr	r0, .L23
 234 0004 0621     		mov	r1, #6
 235 0006 FFF7FEFF 		bl	sendToGUI
 236              	.LVL15:
 237              		.loc 1 88 0
 238              		@ sp needed for prologue
 239 000a 08BD     		pop	{r3, pc}
 240              	.L24:
 241              		.align	2
 242              	.L23:
 243 000c 00000000 		.word	status
 244              		.cfi_endproc
 245              	.LFE81:
 246              		.size	sendInfo, .-sendInfo
 247              		.section	.text.sendDiag,"ax",%progbits
 248              		.align	1
 249              		.global	sendDiag
 250              		.code	16
 251              		.thumb_func
 252              		.type	sendDiag, %function
 253              	sendDiag:
 254              	.LFB80:
 255              		.loc 1 81 0
 256              		.cfi_startproc
 257 0000 08B5     		push	{r3, lr}
 258              	.LCFI6:
 259              		.cfi_def_cfa_offset 8
 260              		.cfi_offset 3, -8
 261              		.cfi_offset 14, -4
 262              		.loc 1 82 0
 263 0002 0248     		ldr	r0, .L26
 264 0004 0A21     		mov	r1, #10
 265 0006 FFF7FEFF 		bl	sendToGUI
 266              	.LVL16:
 267              		.loc 1 83 0
 268              		@ sp needed for prologue
 269 000a 08BD     		pop	{r3, pc}
 270              	.L27:
 271              		.align	2
 272              	.L26:
 273 000c 00000000 		.word	sensors
 274              		.cfi_endproc
 275              	.LFE80:
 276              		.size	sendDiag, .-sendDiag
 277              		.section	.text.processCmd,"ax",%progbits
 278              		.align	1
 279              		.global	processCmd
 280              		.code	16
 281              		.thumb_func
 282              		.type	processCmd, %function
 283              	processCmd:
 284              	.LFB85:
 285              		.loc 1 108 0
ARM GAS  /tmp/ccctMJn7.s 			page 6


 286              		.cfi_startproc
 287              	.LVL17:
 288              		.loc 1 109 0
 289 0000 0138     		sub	r0, r0, #1
 290              	.LVL18:
 291              		.loc 1 108 0
 292 0002 08B5     		push	{r3, lr}
 293              	.LCFI7:
 294              		.cfi_def_cfa_offset 8
 295              		.cfi_offset 3, -8
 296              		.cfi_offset 14, -4
 297              		.loc 1 124 0
 298 0004 0123     		mov	r3, #1
 299              		.loc 1 109 0
 300 0006 0328     		cmp	r0, #3
 301 0008 0FD8     		bhi	.L29
 302 000a FFF7FEFF 		bl	__gnu_thumb1_case_uqi
 303              	.L34:
 304 000e 02       		.byte	(.L30-.L34)/2
 305 000f 05       		.byte	(.L31-.L34)/2
 306 0010 08       		.byte	(.L32-.L34)/2
 307 0011 0B       		.byte	(.L33-.L34)/2
 308              		.align	1
 309              	.L30:
 310              		.loc 1 112 0
 311 0012 FFF7FEFF 		bl	sendDiag
 312              	.LVL19:
 313 0016 07E0     		b	.L36
 314              	.L31:
 315              		.loc 1 115 0
 316 0018 FFF7FEFF 		bl	sendInfo
 317              	.LVL20:
 318 001c 04E0     		b	.L36
 319              	.L32:
 320              		.loc 1 118 0
 321 001e FFF7FEFF 		bl	sendSettings
 322              	.LVL21:
 323 0022 01E0     		b	.L36
 324              	.L33:
 325              		.loc 1 121 0
 326 0024 FFF7FEFF 		bl	saveSettings
 327              	.LVL22:
 328              	.L36:
 329              		.loc 1 127 0
 330 0028 0023     		mov	r3, #0
 331              	.L29:
 332              		.loc 1 128 0
 333 002a 181C     		mov	r0, r3
 334              		@ sp needed for prologue
 335 002c 08BD     		pop	{r3, pc}
 336              		.cfi_endproc
 337              	.LFE85:
 338              		.size	processCmd, .-processCmd
 339              		.section	.text.startSerialCom,"ax",%progbits
 340              		.align	1
 341              		.global	startSerialCom
 342              		.code	16
ARM GAS  /tmp/ccctMJn7.s 			page 7


 343              		.thumb_func
 344              		.type	startSerialCom, %function
 345              	startSerialCom:
 346              	.LFB77:
 347              		.loc 1 26 0
 348              		.cfi_startproc
 349 0000 F7B5     		push	{r0, r1, r2, r4, r5, r6, r7, lr}
 350              	.LCFI8:
 351              		.cfi_def_cfa_offset 32
 352              		.cfi_offset 0, -32
 353              		.cfi_offset 1, -28
 354              		.cfi_offset 2, -24
 355              		.cfi_offset 4, -20
 356              		.cfi_offset 5, -16
 357              		.cfi_offset 6, -12
 358              		.cfi_offset 7, -8
 359              		.cfi_offset 14, -4
 360              	.L46:
 361              		.loc 1 31 0
 362 0002 FA20     		mov	r0, #250
 363 0004 FFF7FEFF 		bl	chThdSleep
 364              	.LVL23:
 365              		.loc 1 33 0
 366 0008 104E     		ldr	r6, .L47
 367 000a 3378     		ldrb	r3, [r6]
 368 000c 002B     		cmp	r3, #0
 369 000e F8D0     		beq	.L46
 370              		.loc 1 35 0
 371 0010 FFF7FEFF 		bl	searchBuffer
 372              	.LVL24:
 373 0014 0E49     		ldr	r1, .L47+4
 374 0016 0870     		strb	r0, [r1]
 375 0018 0028     		cmp	r0, #0
 376 001a F2DB     		blt	.L46
 377              		.loc 1 37 0
 378 001c 0D4D     		ldr	r5, .L47+8
 379 001e 2C18     		add	r4, r5, r0
 380 0020 A078     		ldrb	r0, [r4, #2]
 381 0022 0190     		str	r0, [sp, #4]
 382              	.LVL25:
 383              		.loc 1 38 0
 384 0024 E778     		ldrb	r7, [r4, #3]
 385              	.LVL26:
 386              		.loc 1 43 0
 387 0026 201C     		mov	r0, r4
 388 0028 391C     		mov	r1, r7
 389 002a FFF7FEFF 		bl	doChecksum
 390              	.LVL27:
 391 002e E25D     		ldrb	r2, [r4, r7]
 392 0030 8242     		cmp	r2, r0
 393 0032 E6D1     		bne	.L46
 394              		.loc 1 47 0
 395 0034 0024     		mov	r4, #0
 396              		.loc 1 49 0
 397 0036 0198     		ldr	r0, [sp, #4]
 398              		.loc 1 47 0
 399 0038 3470     		strb	r4, [r6]
ARM GAS  /tmp/ccctMJn7.s 			page 8


 400              		.loc 1 49 0
 401 003a FFF7FEFF 		bl	processCmd
 402              	.LVL28:
 403              		.loc 1 52 0
 404 003e 281C     		mov	r0, r5
 405 0040 211C     		mov	r1, r4
 406 0042 4022     		mov	r2, #64
 407 0044 FFF7FEFF 		bl	memset
 408              	.LVL29:
 409 0048 DBE7     		b	.L46
 410              	.L48:
 411 004a C046     		.align	2
 412              	.L47:
 413 004c 00000000 		.word	.LANCHOR1
 414 0050 00000000 		.word	.LANCHOR0
 415 0054 00000000 		.word	usart_rxbuf
 416              		.cfi_endproc
 417              	.LFE77:
 418              		.size	startSerialCom, .-startSerialCom
 419              		.section	.text.Vector6C,"ax",%progbits
 420              		.align	1
 421              		.global	Vector6C
 422              		.code	16
 423              		.thumb_func
 424              		.type	Vector6C, %function
 425              	Vector6C:
 426              	.LFB86:
 427              		.loc 1 131 0
 428              		.cfi_startproc
 429              		.loc 1 133 0
 430 0000 064B     		ldr	r3, .L54
 431 0002 8022     		mov	r2, #128
 432 0004 1968     		ldr	r1, [r3]
 433 0006 9002     		lsl	r0, r2, #10
 434              		.loc 1 131 0
 435 0008 00B5     		push	{lr}
 436              	.LCFI9:
 437              		.cfi_def_cfa_offset 4
 438              		.cfi_offset 14, -4
 439              		.loc 1 133 0
 440 000a 0142     		tst	r1, r0
 441 000c 05D0     		beq	.L49
 442              		.loc 1 136 0
 443 000e 5968     		ldr	r1, [r3, #4]
 444              		.loc 1 138 0
 445 0010 0122     		mov	r2, #1
 446              		.loc 1 136 0
 447 0012 0843     		orr	r0, r1
 448 0014 5860     		str	r0, [r3, #4]
 449              		.loc 1 138 0
 450 0016 024B     		ldr	r3, .L54+4
 451 0018 1A70     		strb	r2, [r3]
 452              	.L49:
 453              		.loc 1 140 0
 454              		@ sp needed for prologue
 455 001a 00BD     		pop	{pc}
 456              	.L55:
ARM GAS  /tmp/ccctMJn7.s 			page 9


 457              		.align	2
 458              	.L54:
 459 001c 00000240 		.word	1073872896
 460 0020 00000000 		.word	.LANCHOR1
 461              		.cfi_endproc
 462              	.LFE86:
 463              		.size	Vector6C, .-Vector6C
 464              		.global	update
 465              		.global	cmd_pos
 466              		.section	.bss.update,"aw",%nobits
 467              		.set	.LANCHOR1,. + 0
 468              		.type	update, %object
 469              		.size	update, 1
 470              	update:
 471 0000 00       		.space	1
 472              		.section	.bss.cmd_pos,"aw",%nobits
 473              		.set	.LANCHOR0,. + 0
 474              		.type	cmd_pos, %object
 475              		.size	cmd_pos, 1
 476              	cmd_pos:
 477 0000 00       		.space	1
 478              		.text
 479              	.Letext0:
 480              		.file 2 "/media/data/src/x-tools/gcc-arm-none-eabi-4_7-2013q1/bin/../lib/gcc/arm-none-eabi/4.7.3/.
 481              		.file 3 "./os/nil/include/nil.h"
 482              		.file 4 "./os/nil/ports/ARMCMx/compilers/GCC/niltypes.h"
 483              		.file 5 "./os/ext/CMSIS/ST/stm32f0xx.h"
 484              		.file 6 "./os/nil/ports/ARMCMx/nilcore.h"
 485              		.file 7 "./os/nil/ports/ARMCMx/nilcore_v6m.h"
 486              		.file 8 "inc/threads.h"