ARM GAS  /tmp/ccsfOltz.s 			page 1


   1              		.cpu cortex-m0
   2              		.fpu softvfp
   3              		.eabi_attribute 20, 1
   4              		.eabi_attribute 21, 1
   5              		.eabi_attribute 23, 3
   6              		.eabi_attribute 24, 1
   7              		.eabi_attribute 25, 1
   8              		.eabi_attribute 26, 1
   9              		.eabi_attribute 30, 4
  10              		.eabi_attribute 34, 0
  11              		.eabi_attribute 18, 4
  12              		.code	16
  13              		.file	"ssd1306.c"
  14              		.text
  15              	.Ltext0:
  16              		.cfi_sections	.debug_frame
  17              		.section	.text.ssd1306SendByte,"ax",%progbits
  18              		.align	1
  19              		.global	ssd1306SendByte
  20              		.code	16
  21              		.thumb_func
  22              		.type	ssd1306SendByte, %function
  23              	ssd1306SendByte:
  24              	.LFB77:
  25              		.file 1 "src/ssd1306.c"
  26              		.loc 1 69 0
  27              		.cfi_startproc
  28              	.LVL0:
  29 0000 011C     		mov	r1, r0
  30 0002 08B5     		push	{r3, lr}
  31              	.LCFI0:
  32              		.cfi_def_cfa_offset 8
  33              		.cfi_offset 3, -8
  34              		.cfi_offset 14, -4
  35              		.loc 1 70 0
  36 0004 0348     		ldr	r0, .L5
  37              	.LVL1:
  38 0006 FFF7FEFF 		bl	SPI_SendData8
  39              	.LVL2:
  40              	.L2:
  41              		.loc 1 71 0 discriminator 1
  42 000a 024B     		ldr	r3, .L5
  43 000c 1889     		ldrh	r0, [r3, #8]
  44 000e 0206     		lsl	r2, r0, #24
  45 0010 FBD4     		bmi	.L2
  46              		.loc 1 72 0
  47              		@ sp needed for prologue
  48 0012 08BD     		pop	{r3, pc}
  49              	.L6:
  50              		.align	2
  51              	.L5:
  52 0014 00300140 		.word	1073819648
  53              		.cfi_endproc
  54              	.LFE77:
  55              		.size	ssd1306SendByte, .-ssd1306SendByte
  56              		.section	.text.ssd1306Init,"ax",%progbits
  57              		.align	1
ARM GAS  /tmp/ccsfOltz.s 			page 2


  58              		.global	ssd1306Init
  59              		.code	16
  60              		.thumb_func
  61              		.type	ssd1306Init, %function
  62              	ssd1306Init:
  63              	.LFB78:
  64              		.loc 1 84 0
  65              		.cfi_startproc
  66              	.LVL3:
  67 0000 F8B5     		push	{r3, r4, r5, r6, r7, lr}
  68              	.LCFI1:
  69              		.cfi_def_cfa_offset 24
  70              		.cfi_offset 3, -24
  71              		.cfi_offset 4, -20
  72              		.cfi_offset 5, -16
  73              		.cfi_offset 6, -12
  74              		.cfi_offset 7, -8
  75              		.cfi_offset 14, -4
  76              		.loc 1 88 0
  77 0002 4B4C     		ldr	r4, .L17
  78 0004 8025     		mov	r5, #128
  79 0006 AF01     		lsl	r7, r5, #6
  80              		.loc 1 84 0
  81 0008 061C     		mov	r6, r0
  82              		.loc 1 85 0
  83 000a 4A48     		ldr	r0, .L17+4
  84              	.LVL4:
  85 000c FFF7FEFF 		bl	spiInit
  86              	.LVL5:
  87              		.loc 1 89 0
  88 0010 3220     		mov	r0, #50
  89              		.loc 1 88 0
  90 0012 6783     		strh	r7, [r4, #26]
  91              		.loc 1 89 0
  92 0014 FFF7FEFF 		bl	chThdSleep
  93              	.LVL6:
  94              		.loc 1 91 0
  95 0018 3220     		mov	r0, #50
  96              		.loc 1 90 0
  97 001a 2783     		strh	r7, [r4, #24]
  98              		.loc 1 91 0
  99 001c FFF7FEFF 		bl	chThdSleep
 100              	.LVL7:
 101              		.loc 1 94 0
 102 0020 8020     		mov	r0, #128
 103 0022 4501     		lsl	r5, r0, #5
 104 0024 6583     		strh	r5, [r4, #26]
 105 0026 AE20     		mov	r0, #174
 106 0028 FFF7FEFF 		bl	ssd1306SendByte
 107              	.LVL8:
 108              		.loc 1 95 0
 109 002c 0020     		mov	r0, #0
 110 002e 6583     		strh	r5, [r4, #26]
 111 0030 FFF7FEFF 		bl	ssd1306SendByte
 112              	.LVL9:
 113              		.loc 1 96 0
 114 0034 1020     		mov	r0, #16
ARM GAS  /tmp/ccsfOltz.s 			page 3


 115 0036 6583     		strh	r5, [r4, #26]
 116 0038 FFF7FEFF 		bl	ssd1306SendByte
 117              	.LVL10:
 118              		.loc 1 97 0
 119 003c 4020     		mov	r0, #64
 120 003e 6583     		strh	r5, [r4, #26]
 121 0040 FFF7FEFF 		bl	ssd1306SendByte
 122              	.LVL11:
 123              		.loc 1 98 0
 124 0044 8120     		mov	r0, #129
 125 0046 6583     		strh	r5, [r4, #26]
 126 0048 FFF7FEFF 		bl	ssd1306SendByte
 127              	.LVL12:
 128              		.loc 1 100 0
 129 004c 6583     		strh	r5, [r4, #26]
 130 004e 9F20     		mov	r0, #159
 131              		.loc 1 99 0
 132 0050 012E     		cmp	r6, #1
 133 0052 00D0     		beq	.L14
 134              		.loc 1 102 0
 135 0054 CF20     		mov	r0, #207
 136              	.L14:
 137 0056 FFF7FEFF 		bl	ssd1306SendByte
 138              	.LVL13:
 139              		.loc 1 103 0
 140 005a 8021     		mov	r1, #128
 141 005c A120     		mov	r0, #161
 142 005e 6583     		strh	r5, [r4, #26]
 143 0060 4F01     		lsl	r7, r1, #5
 144 0062 FFF7FEFF 		bl	ssd1306SendByte
 145              	.LVL14:
 146              		.loc 1 104 0
 147 0066 A620     		mov	r0, #166
 148 0068 6583     		strh	r5, [r4, #26]
 149 006a FFF7FEFF 		bl	ssd1306SendByte
 150              	.LVL15:
 151              		.loc 1 105 0
 152 006e A420     		mov	r0, #164
 153 0070 6583     		strh	r5, [r4, #26]
 154 0072 FFF7FEFF 		bl	ssd1306SendByte
 155              	.LVL16:
 156              		.loc 1 106 0
 157 0076 A820     		mov	r0, #168
 158 0078 6583     		strh	r5, [r4, #26]
 159 007a FFF7FEFF 		bl	ssd1306SendByte
 160              	.LVL17:
 161              		.loc 1 107 0
 162 007e 3F20     		mov	r0, #63
 163 0080 6583     		strh	r5, [r4, #26]
 164 0082 FFF7FEFF 		bl	ssd1306SendByte
 165              	.LVL18:
 166              		.loc 1 108 0
 167 0086 D320     		mov	r0, #211
 168 0088 6583     		strh	r5, [r4, #26]
 169 008a FFF7FEFF 		bl	ssd1306SendByte
 170              	.LVL19:
 171              		.loc 1 109 0
ARM GAS  /tmp/ccsfOltz.s 			page 4


 172 008e 0020     		mov	r0, #0
 173 0090 6583     		strh	r5, [r4, #26]
 174 0092 FFF7FEFF 		bl	ssd1306SendByte
 175              	.LVL20:
 176              		.loc 1 110 0
 177 0096 D520     		mov	r0, #213
 178 0098 6583     		strh	r5, [r4, #26]
 179 009a FFF7FEFF 		bl	ssd1306SendByte
 180              	.LVL21:
 181              		.loc 1 111 0
 182 009e 8020     		mov	r0, #128
 183 00a0 6583     		strh	r5, [r4, #26]
 184 00a2 FFF7FEFF 		bl	ssd1306SendByte
 185              	.LVL22:
 186              		.loc 1 112 0
 187 00a6 D920     		mov	r0, #217
 188 00a8 6583     		strh	r5, [r4, #26]
 189 00aa FFF7FEFF 		bl	ssd1306SendByte
 190              	.LVL23:
 191              		.loc 1 114 0
 192 00ae 204B     		ldr	r3, .L17
 193 00b0 2220     		mov	r0, #34
 194 00b2 5F83     		strh	r7, [r3, #26]
 195              		.loc 1 113 0
 196 00b4 012E     		cmp	r6, #1
 197 00b6 00D0     		beq	.L15
 198              		.loc 1 116 0
 199 00b8 F120     		mov	r0, #241
 200              	.L15:
 201 00ba FFF7FEFF 		bl	ssd1306SendByte
 202              	.LVL24:
 203              		.loc 1 117 0
 204 00be 8022     		mov	r2, #128
 205 00c0 5501     		lsl	r5, r2, #5
 206 00c2 DA20     		mov	r0, #218
 207 00c4 6583     		strh	r5, [r4, #26]
 208 00c6 FFF7FEFF 		bl	ssd1306SendByte
 209              	.LVL25:
 210              		.loc 1 118 0
 211 00ca 1220     		mov	r0, #18
 212 00cc 6583     		strh	r5, [r4, #26]
 213 00ce FFF7FEFF 		bl	ssd1306SendByte
 214              	.LVL26:
 215              		.loc 1 119 0
 216 00d2 DB20     		mov	r0, #219
 217 00d4 6583     		strh	r5, [r4, #26]
 218 00d6 FFF7FEFF 		bl	ssd1306SendByte
 219              	.LVL27:
 220              		.loc 1 120 0
 221 00da 4020     		mov	r0, #64
 222 00dc 6583     		strh	r5, [r4, #26]
 223 00de FFF7FEFF 		bl	ssd1306SendByte
 224              	.LVL28:
 225              		.loc 1 121 0
 226 00e2 2020     		mov	r0, #32
 227 00e4 6583     		strh	r5, [r4, #26]
 228 00e6 FFF7FEFF 		bl	ssd1306SendByte
ARM GAS  /tmp/ccsfOltz.s 			page 5


 229              	.LVL29:
 230              		.loc 1 122 0
 231 00ea 0020     		mov	r0, #0
 232 00ec 6583     		strh	r5, [r4, #26]
 233 00ee FFF7FEFF 		bl	ssd1306SendByte
 234              	.LVL30:
 235              		.loc 1 123 0
 236 00f2 A120     		mov	r0, #161
 237 00f4 6583     		strh	r5, [r4, #26]
 238 00f6 FFF7FEFF 		bl	ssd1306SendByte
 239              	.LVL31:
 240              		.loc 1 117 0
 241 00fa 0D4F     		ldr	r7, .L17
 242              		.loc 1 124 0
 243 00fc C820     		mov	r0, #200
 244 00fe 6583     		strh	r5, [r4, #26]
 245 0100 FFF7FEFF 		bl	ssd1306SendByte
 246              	.LVL32:
 247              		.loc 1 125 0
 248 0104 8D20     		mov	r0, #141
 249 0106 6583     		strh	r5, [r4, #26]
 250 0108 FFF7FEFF 		bl	ssd1306SendByte
 251              	.LVL33:
 252              		.loc 1 127 0
 253 010c 7D83     		strh	r5, [r7, #26]
 254 010e 1020     		mov	r0, #16
 255              		.loc 1 126 0
 256 0110 012E     		cmp	r6, #1
 257 0112 00D0     		beq	.L16
 258              		.loc 1 129 0
 259 0114 1420     		mov	r0, #20
 260              	.L16:
 261 0116 FFF7FEFF 		bl	ssd1306SendByte
 262              	.LVL34:
 263              		.loc 1 132 0
 264 011a 074E     		ldr	r6, .L17+8
 265              		.loc 1 135 0
 266 011c 0748     		ldr	r0, .L17+12
 267              		.loc 1 132 0
 268 011e 0024     		mov	r4, #0
 269              		.loc 1 136 0
 270 0120 3221     		mov	r1, #50
 271              		.loc 1 132 0
 272 0122 3480     		strh	r4, [r6]
 273              		.loc 1 137 0
 274              		@ sp needed for prologue
 275              		.loc 1 133 0
 276 0124 B480     		strh	r4, [r6, #4]
 277              		.loc 1 134 0
 278 0126 7462     		str	r4, [r6, #36]
 279              		.loc 1 135 0
 280 0128 3085     		strh	r0, [r6, #40]
 281              		.loc 1 136 0
 282 012a F162     		str	r1, [r6, #44]
 283              		.loc 1 137 0
 284 012c F8BD     		pop	{r3, r4, r5, r6, r7, pc}
 285              	.L18:
ARM GAS  /tmp/ccsfOltz.s 			page 6


 286 012e C046     		.align	2
 287              	.L17:
 288 0130 00040048 		.word	1207960576
 289 0134 00300140 		.word	1073819648
 290 0138 00480140 		.word	1073825792
 291 013c BF5D0000 		.word	23999
 292              		.cfi_endproc
 293              	.LFE78:
 294              		.size	ssd1306Init, .-ssd1306Init
 295              		.section	.text.ssd1306TurnOn,"ax",%progbits
 296              		.align	1
 297              		.global	ssd1306TurnOn
 298              		.code	16
 299              		.thumb_func
 300              		.type	ssd1306TurnOn, %function
 301              	ssd1306TurnOn:
 302              	.LFB79:
 303              		.loc 1 140 0
 304              		.cfi_startproc
 305 0000 08B5     		push	{r3, lr}
 306              	.LCFI2:
 307              		.cfi_def_cfa_offset 8
 308              		.cfi_offset 3, -8
 309              		.cfi_offset 14, -4
 310              		.loc 1 142 0
 311 0002 8022     		mov	r2, #128
 312 0004 094B     		ldr	r3, .L20
 313 0006 5001     		lsl	r0, r2, #5
 314 0008 5883     		strh	r0, [r3, #26]
 315 000a AF20     		mov	r0, #175
 316 000c FFF7FEFF 		bl	ssd1306SendByte
 317              	.LVL35:
 318              		.loc 1 143 0
 319 0010 074B     		ldr	r3, .L20+4
 320 0012 0122     		mov	r2, #1
 321 0014 9989     		ldrh	r1, [r3, #12]
 322              	.LBB4:
 323              	.LBB5:
 324              		.file 2 "./os/ext/CMSIS/include/core_cm0.h"
 325              		.loc 2 517 0
 326 0016 8020     		mov	r0, #128
 327              	.LBE5:
 328              	.LBE4:
 329              		.loc 1 143 0
 330 0018 1143     		orr	r1, r2
 331 001a 9981     		strh	r1, [r3, #12]
 332              	.LVL36:
 333              	.LBB7:
 334              	.LBB6:
 335              		.loc 2 517 0
 336 001c 0549     		ldr	r1, .L20+8
 337 001e C003     		lsl	r0, r0, #15
 338 0020 0860     		str	r0, [r1]
 339              	.LBE6:
 340              	.LBE7:
 341              		.loc 1 145 0
 342 0022 1888     		ldrh	r0, [r3]
ARM GAS  /tmp/ccsfOltz.s 			page 7


 343              		.loc 1 146 0
 344              		@ sp needed for prologue
 345              		.loc 1 145 0
 346 0024 0243     		orr	r2, r0
 347 0026 1A80     		strh	r2, [r3]
 348              		.loc 1 146 0
 349 0028 08BD     		pop	{r3, pc}
 350              	.L21:
 351 002a C046     		.align	2
 352              	.L20:
 353 002c 00040048 		.word	1207960576
 354 0030 00480140 		.word	1073825792
 355 0034 00E100E0 		.word	-536813312
 356              		.cfi_endproc
 357              	.LFE79:
 358              		.size	ssd1306TurnOn, .-ssd1306TurnOn
 359              		.section	.text.ssd1306TurnOff,"ax",%progbits
 360              		.align	1
 361              		.global	ssd1306TurnOff
 362              		.code	16
 363              		.thumb_func
 364              		.type	ssd1306TurnOff, %function
 365              	ssd1306TurnOff:
 366              	.LFB80:
 367              		.loc 1 149 0
 368              		.cfi_startproc
 369 0000 08B5     		push	{r3, lr}
 370              	.LCFI3:
 371              		.cfi_def_cfa_offset 8
 372              		.cfi_offset 3, -8
 373              		.cfi_offset 14, -4
 374              		.loc 1 150 0
 375 0002 0A4B     		ldr	r3, .L23
 376 0004 0122     		mov	r2, #1
 377 0006 1988     		ldrh	r1, [r3]
 378              		.loc 1 155 0
 379              		@ sp needed for prologue
 380              		.loc 1 150 0
 381 0008 9143     		bic	r1, r2
 382 000a 1980     		strh	r1, [r3]
 383              		.loc 1 151 0
 384 000c 9889     		ldrh	r0, [r3, #12]
 385              		.loc 1 154 0
 386 000e 8021     		mov	r1, #128
 387              		.loc 1 151 0
 388 0010 9043     		bic	r0, r2
 389 0012 9881     		strh	r0, [r3, #12]
 390              	.LVL37:
 391              	.LBB10:
 392              	.LBB11:
 393              		.loc 2 529 0
 394 0014 8023     		mov	r3, #128
 395 0016 0648     		ldr	r0, .L23+4
 396 0018 DA03     		lsl	r2, r3, #15
 397              	.LBE11:
 398              	.LBE10:
 399              		.loc 1 154 0
ARM GAS  /tmp/ccsfOltz.s 			page 8


 400 001a 064B     		ldr	r3, .L23+8
 401              	.LBB13:
 402              	.LBB12:
 403              		.loc 2 529 0
 404 001c C267     		str	r2, [r0, #124]
 405              	.LBE12:
 406              	.LBE13:
 407              		.loc 1 154 0
 408 001e 4A01     		lsl	r2, r1, #5
 409 0020 5A83     		strh	r2, [r3, #26]
 410 0022 AE20     		mov	r0, #174
 411 0024 FFF7FEFF 		bl	ssd1306SendByte
 412              	.LVL38:
 413              		.loc 1 155 0
 414 0028 08BD     		pop	{r3, pc}
 415              	.L24:
 416 002a C046     		.align	2
 417              	.L23:
 418 002c 00480140 		.word	1073825792
 419 0030 04E100E0 		.word	-536813308
 420 0034 00040048 		.word	1207960576
 421              		.cfi_endproc
 422              	.LFE80:
 423              		.size	ssd1306TurnOff, .-ssd1306TurnOff
 424              		.section	.text.ssd1306DrawPixel,"ax",%progbits
 425              		.align	1
 426              		.global	ssd1306DrawPixel
 427              		.code	16
 428              		.thumb_func
 429              		.type	ssd1306DrawPixel, %function
 430              	ssd1306DrawPixel:
 431              	.LFB81:
 432              		.loc 1 168 0
 433              		.cfi_startproc
 434              	.LVL39:
 435              		.loc 1 169 0
 436 0000 43B2     		sxtb	r3, r0
 437              		.loc 1 168 0
 438 0002 00B5     		push	{lr}
 439              	.LCFI4:
 440              		.cfi_def_cfa_offset 4
 441              		.cfi_offset 14, -4
 442              		.loc 1 169 0
 443 0004 002B     		cmp	r3, #0
 444 0006 0DDB     		blt	.L25
 445              		.loc 1 169 0 is_stmt 0 discriminator 1
 446 0008 3F29     		cmp	r1, #63
 447 000a 0BD8     		bhi	.L25
 448              	.LVL40:
 449              	.LBB16:
 450              	.LBB17:
 451              		.loc 1 172 0 is_stmt 1
 452 000c CA08     		lsr	r2, r1, #3
 453 000e D301     		lsl	r3, r2, #7
 454 0010 0722     		mov	r2, #7
 455 0012 C018     		add	r0, r0, r3
 456              	.LVL41:
ARM GAS  /tmp/ccsfOltz.s 			page 9


 457 0014 1140     		and	r1, r2
 458              	.LVL42:
 459 0016 044B     		ldr	r3, .L27
 460 0018 0122     		mov	r2, #1
 461 001a 8A40     		lsl	r2, r2, r1
 462 001c 111C     		mov	r1, r2
 463 001e 1A5C     		ldrb	r2, [r3, r0]
 464 0020 1143     		orr	r1, r2
 465 0022 1954     		strb	r1, [r3, r0]
 466              	.L25:
 467              	.LBE17:
 468              	.LBE16:
 469              		.loc 1 173 0
 470              		@ sp needed for prologue
 471 0024 00BD     		pop	{pc}
 472              	.L28:
 473 0026 C046     		.align	2
 474              	.L27:
 475 0028 00000000 		.word	.LANCHOR0
 476              		.cfi_endproc
 477              	.LFE81:
 478              		.size	ssd1306DrawPixel, .-ssd1306DrawPixel
 479              		.section	.text.ssd1306ClearPixel,"ax",%progbits
 480              		.align	1
 481              		.global	ssd1306ClearPixel
 482              		.code	16
 483              		.thumb_func
 484              		.type	ssd1306ClearPixel, %function
 485              	ssd1306ClearPixel:
 486              	.LFB82:
 487              		.loc 1 186 0
 488              		.cfi_startproc
 489              	.LVL43:
 490              		.loc 1 187 0
 491 0000 43B2     		sxtb	r3, r0
 492              		.loc 1 186 0
 493 0002 00B5     		push	{lr}
 494              	.LCFI5:
 495              		.cfi_def_cfa_offset 4
 496              		.cfi_offset 14, -4
 497              		.loc 1 187 0
 498 0004 002B     		cmp	r3, #0
 499 0006 0DDB     		blt	.L29
 500              		.loc 1 187 0 is_stmt 0 discriminator 1
 501 0008 3F29     		cmp	r1, #63
 502 000a 0BD8     		bhi	.L29
 503              	.LVL44:
 504              	.LBB20:
 505              	.LBB21:
 506              		.loc 1 190 0 is_stmt 1
 507 000c CA08     		lsr	r2, r1, #3
 508 000e D301     		lsl	r3, r2, #7
 509 0010 0722     		mov	r2, #7
 510 0012 C018     		add	r0, r0, r3
 511              	.LVL45:
 512 0014 1140     		and	r1, r2
 513              	.LVL46:
ARM GAS  /tmp/ccsfOltz.s 			page 10


 514 0016 044B     		ldr	r3, .L31
 515 0018 0122     		mov	r2, #1
 516 001a 8A40     		lsl	r2, r2, r1
 517 001c 111C     		mov	r1, r2
 518 001e 1A5C     		ldrb	r2, [r3, r0]
 519 0020 8A43     		bic	r2, r1
 520 0022 1A54     		strb	r2, [r3, r0]
 521              	.L29:
 522              	.LBE21:
 523              	.LBE20:
 524              		.loc 1 191 0
 525              		@ sp needed for prologue
 526 0024 00BD     		pop	{pc}
 527              	.L32:
 528 0026 C046     		.align	2
 529              	.L31:
 530 0028 00000000 		.word	.LANCHOR0
 531              		.cfi_endproc
 532              	.LFE82:
 533              		.size	ssd1306ClearPixel, .-ssd1306ClearPixel
 534              		.section	.text.ssd1306GetPixel,"ax",%progbits
 535              		.align	1
 536              		.global	ssd1306GetPixel
 537              		.code	16
 538              		.thumb_func
 539              		.type	ssd1306GetPixel, %function
 540              	ssd1306GetPixel:
 541              	.LFB83:
 542              		.loc 1 206 0
 543              		.cfi_startproc
 544              	.LVL47:
 545              		.loc 1 207 0
 546 0000 42B2     		sxtb	r2, r0
 547              		.loc 1 206 0
 548 0002 031C     		mov	r3, r0
 549 0004 00B5     		push	{lr}
 550              	.LCFI6:
 551              		.cfi_def_cfa_offset 4
 552              		.cfi_offset 14, -4
 553              		.loc 1 207 0
 554 0006 0020     		mov	r0, #0
 555              	.LVL48:
 556 0008 002A     		cmp	r2, #0
 557 000a 0CDB     		blt	.L34
 558              		.loc 1 207 0 is_stmt 0 discriminator 2
 559 000c 3F29     		cmp	r1, #63
 560 000e 0AD8     		bhi	.L34
 561              		.loc 1 208 0 is_stmt 1
 562 0010 C808     		lsr	r0, r1, #3
 563 0012 C201     		lsl	r2, r0, #7
 564              	.LVL49:
 565 0014 0448     		ldr	r0, .L37
 566 0016 D318     		add	r3, r2, r3
 567 0018 1A5C     		ldrb	r2, [r3, r0]
 568 001a 0723     		mov	r3, #7
 569 001c 1940     		and	r1, r3
 570              	.LVL50:
ARM GAS  /tmp/ccsfOltz.s 			page 11


 571 001e 101C     		mov	r0, r2
 572 0020 0841     		asr	r0, r0, r1
 573 0022 0121     		mov	r1, #1
 574 0024 0840     		and	r0, r1
 575              	.L34:
 576              		.loc 1 209 0
 577              		@ sp needed for prologue
 578 0026 00BD     		pop	{pc}
 579              	.L38:
 580              		.align	2
 581              	.L37:
 582 0028 00000000 		.word	.LANCHOR0
 583              		.cfi_endproc
 584              	.LFE83:
 585              		.size	ssd1306GetPixel, .-ssd1306GetPixel
 586              		.section	.text.ssd1306ClearScreen,"ax",%progbits
 587              		.align	1
 588              		.global	ssd1306ClearScreen
 589              		.code	16
 590              		.thumb_func
 591              		.type	ssd1306ClearScreen, %function
 592              	ssd1306ClearScreen:
 593              	.LFB84:
 594              		.loc 1 217 0
 595              		.cfi_startproc
 596 0000 08B5     		push	{r3, lr}
 597              	.LCFI7:
 598              		.cfi_def_cfa_offset 8
 599              		.cfi_offset 3, -8
 600              		.cfi_offset 14, -4
 601              		.loc 1 218 0
 602 0002 8022     		mov	r2, #128
 603 0004 0248     		ldr	r0, .L40
 604 0006 0021     		mov	r1, #0
 605 0008 D200     		lsl	r2, r2, #3
 606 000a FFF7FEFF 		bl	memset
 607              	.LVL51:
 608              		.loc 1 219 0
 609              		@ sp needed for prologue
 610 000e 08BD     		pop	{r3, pc}
 611              	.L41:
 612              		.align	2
 613              	.L40:
 614 0010 00000000 		.word	.LANCHOR0
 615              		.cfi_endproc
 616              	.LFE84:
 617              		.size	ssd1306ClearScreen, .-ssd1306ClearScreen
 618              		.section	.text.ssd1306DrawLine,"ax",%progbits
 619              		.align	1
 620              		.global	ssd1306DrawLine
 621              		.code	16
 622              		.thumb_func
 623              		.type	ssd1306DrawLine, %function
 624              	ssd1306DrawLine:
 625              	.LFB85:
 626              		.loc 1 226 0
 627              		.cfi_startproc
ARM GAS  /tmp/ccsfOltz.s 			page 12


 628              	.LVL52:
 629 0000 F0B5     		push	{r4, r5, r6, r7, lr}
 630              	.LCFI8:
 631              		.cfi_def_cfa_offset 20
 632              		.cfi_offset 4, -20
 633              		.cfi_offset 5, -16
 634              		.cfi_offset 6, -12
 635              		.cfi_offset 7, -8
 636              		.cfi_offset 14, -4
 637 0002 87B0     		sub	sp, sp, #28
 638              	.LCFI9:
 639              		.cfi_def_cfa_offset 48
 640              		.loc 1 231 0
 641 0004 8242     		cmp	r2, r0
 642 0006 04D3     		bcc	.L43
 643              		.loc 1 232 0
 644 0008 141A     		sub	r4, r2, r0
 645              		.loc 1 233 0
 646 000a 0126     		mov	r6, #1
 647              		.loc 1 232 0
 648 000c E2B2     		uxtb	r2, r4
 649              	.LVL53:
 650              		.loc 1 233 0
 651 000e 0296     		str	r6, [sp, #8]
 652 0010 03E0     		b	.L44
 653              	.LVL54:
 654              	.L43:
 655              		.loc 1 235 0
 656 0012 821A     		sub	r2, r0, r2
 657              	.LVL55:
 658              		.loc 1 236 0
 659 0014 FF25     		mov	r5, #255
 660              		.loc 1 235 0
 661 0016 D2B2     		uxtb	r2, r2
 662              	.LVL56:
 663              		.loc 1 236 0
 664 0018 0295     		str	r5, [sp, #8]
 665              	.LVL57:
 666              	.L44:
 667              		.loc 1 238 0
 668 001a 8B42     		cmp	r3, r1
 669 001c 04D3     		bcc	.L45
 670              		.loc 1 239 0
 671 001e 5D1A     		sub	r5, r3, r1
 672              		.loc 1 240 0
 673 0020 0124     		mov	r4, #1
 674              		.loc 1 239 0
 675 0022 EBB2     		uxtb	r3, r5
 676              	.LVL58:
 677              		.loc 1 240 0
 678 0024 0394     		str	r4, [sp, #12]
 679 0026 03E0     		b	.L46
 680              	.LVL59:
 681              	.L45:
 682              		.loc 1 242 0
 683 0028 CB1A     		sub	r3, r1, r3
 684              	.LVL60:
ARM GAS  /tmp/ccsfOltz.s 			page 13


 685              		.loc 1 243 0
 686 002a FF27     		mov	r7, #255
 687              		.loc 1 242 0
 688 002c DBB2     		uxtb	r3, r3
 689              	.LVL61:
 690              		.loc 1 243 0
 691 002e 0397     		str	r7, [sp, #12]
 692              	.LVL62:
 693              	.L46:
 694              		.loc 1 246 0
 695 0030 9A42     		cmp	r2, r3
 696 0032 32D3     		bcc	.L47
 697              	.LVL63:
 698              		.loc 1 247 0
 699 0034 5B00     		lsl	r3, r3, #1
 700              	.LVL64:
 701              		.loc 1 248 0
 702 0036 DCB2     		uxtb	r4, r3
 703 0038 A71A     		sub	r7, r4, r2
 704 003a BDB2     		uxth	r5, r7
 705 003c 029F     		ldr	r7, [sp, #8]
 706              		.loc 1 249 0
 707 003e AE1A     		sub	r6, r5, r2
 708              		.loc 1 248 0
 709 0040 0494     		str	r4, [sp, #16]
 710 0042 3818     		add	r0, r7, r0
 711              	.LVL65:
 712              		.loc 1 249 0
 713 0044 B4B2     		uxth	r4, r6
 714 0046 0594     		str	r4, [sp, #20]
 715              		.loc 1 248 0
 716 0048 ABB2     		uxth	r3, r5
 717              	.LVL66:
 718 004a C0B2     		uxtb	r0, r0
 719              		.loc 1 251 0
 720 004c 0024     		mov	r4, #0
 721              	.LVL67:
 722              	.L48:
 723 004e 029D     		ldr	r5, [sp, #8]
 724 0050 461B     		sub	r6, r0, r5
 725 0052 F7B2     		uxtb	r7, r6
 726              	.LVL68:
 727              		.loc 1 251 0 is_stmt 0 discriminator 1
 728 0054 9442     		cmp	r4, r2
 729 0056 53DC     		bgt	.L42
 730              	.L51:
 731              		.loc 1 252 0 is_stmt 1
 732 0058 CD08     		lsr	r5, r1, #3
 733 005a EE01     		lsl	r6, r5, #7
 734              	.LVL69:
 735 005c BF19     		add	r7, r7, r6
 736              	.LVL70:
 737 005e 0097     		str	r7, [sp]
 738 0060 0727     		mov	r7, #7
 739 0062 0F40     		and	r7, r1
 740 0064 0125     		mov	r5, #1
 741 0066 274E     		ldr	r6, .L57
ARM GAS  /tmp/ccsfOltz.s 			page 14


 742 0068 BD40     		lsl	r5, r5, r7
 743 006a 009F     		ldr	r7, [sp]
 744 006c ED43     		mvn	r5, r5
 745 006e F75D     		ldrb	r7, [r6, r7]
 746 0070 3D43     		orr	r5, r7
 747 0072 009F     		ldr	r7, [sp]
 748 0074 F555     		strb	r5, [r6, r7]
 749              		.loc 1 253 0
 750 0076 1EB2     		sxth	r6, r3
 751 0078 002E     		cmp	r6, #0
 752 007a 03DA     		bge	.L49
 753              		.loc 1 254 0
 754 007c 049E     		ldr	r6, [sp, #16]
 755 007e F518     		add	r5, r6, r3
 756 0080 ABB2     		uxth	r3, r5
 757              	.LVL71:
 758 0082 05E0     		b	.L50
 759              	.LVL72:
 760              	.L49:
 761              		.loc 1 257 0
 762 0084 059D     		ldr	r5, [sp, #20]
 763              		.loc 1 259 0
 764 0086 039F     		ldr	r7, [sp, #12]
 765              		.loc 1 257 0
 766 0088 EB18     		add	r3, r5, r3
 767              	.LVL73:
 768              		.loc 1 259 0
 769 008a C919     		add	r1, r1, r7
 770              	.LVL74:
 771              		.loc 1 257 0
 772 008c 9BB2     		uxth	r3, r3
 773              	.LVL75:
 774              		.loc 1 259 0
 775 008e C9B2     		uxtb	r1, r1
 776              	.LVL76:
 777              	.L50:
 778 0090 029F     		ldr	r7, [sp, #8]
 779 0092 0134     		add	r4, r4, #1
 780 0094 C019     		add	r0, r0, r7
 781              	.LVL77:
 782 0096 C0B2     		uxtb	r0, r0
 783 0098 D9E7     		b	.L48
 784              	.LVL78:
 785              	.L47:
 786              		.loc 1 263 0
 787 009a 5200     		lsl	r2, r2, #1
 788              	.LVL79:
 789              		.loc 1 264 0
 790 009c D6B2     		uxtb	r6, r2
 791 009e F71A     		sub	r7, r6, r3
 792 00a0 BDB2     		uxth	r5, r7
 793 00a2 039F     		ldr	r7, [sp, #12]
 794              		.loc 1 265 0
 795 00a4 EC1A     		sub	r4, r5, r3
 796              		.loc 1 264 0
 797 00a6 0496     		str	r6, [sp, #16]
 798 00a8 7918     		add	r1, r7, r1
ARM GAS  /tmp/ccsfOltz.s 			page 15


 799              	.LVL80:
 800              		.loc 1 265 0
 801 00aa A6B2     		uxth	r6, r4
 802              		.loc 1 264 0
 803 00ac AAB2     		uxth	r2, r5
 804              	.LVL81:
 805              		.loc 1 265 0
 806 00ae 0596     		str	r6, [sp, #20]
 807              	.LVL82:
 808 00b0 C9B2     		uxtb	r1, r1
 809              		.loc 1 267 0
 810 00b2 0024     		mov	r4, #0
 811              	.LVL83:
 812              	.L52:
 813 00b4 039D     		ldr	r5, [sp, #12]
 814 00b6 4E1B     		sub	r6, r1, r5
 815 00b8 F5B2     		uxtb	r5, r6
 816              	.LVL84:
 817              		.loc 1 267 0 is_stmt 0 discriminator 1
 818 00ba 9C42     		cmp	r4, r3
 819 00bc 20DC     		bgt	.L42
 820              	.L55:
 821              		.loc 1 268 0 is_stmt 1
 822 00be EF08     		lsr	r7, r5, #3
 823 00c0 FE01     		lsl	r6, r7, #7
 824              	.LVL85:
 825 00c2 8719     		add	r7, r0, r6
 826 00c4 0726     		mov	r6, #7
 827 00c6 3540     		and	r5, r6
 828              	.LVL86:
 829 00c8 0126     		mov	r6, #1
 830 00ca 0197     		str	r7, [sp, #4]
 831 00cc AE40     		lsl	r6, r6, r5
 832 00ce 0D4F     		ldr	r7, .L57
 833 00d0 F543     		mvn	r5, r6
 834 00d2 019E     		ldr	r6, [sp, #4]
 835 00d4 BE5D     		ldrb	r6, [r7, r6]
 836 00d6 3543     		orr	r5, r6
 837 00d8 019E     		ldr	r6, [sp, #4]
 838 00da BD55     		strb	r5, [r7, r6]
 839              		.loc 1 269 0
 840 00dc 17B2     		sxth	r7, r2
 841 00de 002F     		cmp	r7, #0
 842 00e0 03DA     		bge	.L53
 843              		.loc 1 270 0
 844 00e2 049F     		ldr	r7, [sp, #16]
 845 00e4 BD18     		add	r5, r7, r2
 846 00e6 AAB2     		uxth	r2, r5
 847              	.LVL87:
 848 00e8 05E0     		b	.L54
 849              	.LVL88:
 850              	.L53:
 851              		.loc 1 273 0
 852 00ea 059D     		ldr	r5, [sp, #20]
 853              		.loc 1 274 0
 854 00ec 029E     		ldr	r6, [sp, #8]
 855              		.loc 1 273 0
ARM GAS  /tmp/ccsfOltz.s 			page 16


 856 00ee AA18     		add	r2, r5, r2
 857              	.LVL89:
 858              		.loc 1 274 0
 859 00f0 8019     		add	r0, r0, r6
 860              	.LVL90:
 861              		.loc 1 273 0
 862 00f2 92B2     		uxth	r2, r2
 863              	.LVL91:
 864              		.loc 1 274 0
 865 00f4 C0B2     		uxtb	r0, r0
 866              	.LVL92:
 867              	.L54:
 868 00f6 039E     		ldr	r6, [sp, #12]
 869 00f8 0134     		add	r4, r4, #1
 870 00fa 8919     		add	r1, r1, r6
 871              	.LVL93:
 872 00fc C9B2     		uxtb	r1, r1
 873 00fe D9E7     		b	.L52
 874              	.LVL94:
 875              	.L42:
 876              		.loc 1 279 0
 877 0100 07B0     		add	sp, sp, #28
 878              		@ sp needed for prologue
 879 0102 F0BD     		pop	{r4, r5, r6, r7, pc}
 880              	.L58:
 881              		.align	2
 882              	.L57:
 883 0104 00000000 		.word	.LANCHOR0
 884              		.cfi_endproc
 885              	.LFE85:
 886              		.size	ssd1306DrawLine, .-ssd1306DrawLine
 887              		.section	.text.ssd1306DrawCircle,"ax",%progbits
 888              		.align	1
 889              		.global	ssd1306DrawCircle
 890              		.code	16
 891              		.thumb_func
 892              		.type	ssd1306DrawCircle, %function
 893              	ssd1306DrawCircle:
 894              	.LFB86:
 895              		.loc 1 286 0
 896              		.cfi_startproc
 897              	.LVL95:
 898 0000 F0B5     		push	{r4, r5, r6, r7, lr}
 899              	.LCFI10:
 900              		.cfi_def_cfa_offset 20
 901              		.cfi_offset 4, -20
 902              		.cfi_offset 5, -16
 903              		.cfi_offset 6, -12
 904              		.cfi_offset 7, -8
 905              		.cfi_offset 14, -4
 906 0002 9446     		mov	ip, r2
 907              	.LVL96:
 908 0004 89B0     		sub	sp, sp, #36
 909              	.LCFI11:
 910              		.cfi_def_cfa_offset 56
 911              		.loc 1 291 0
 912 0006 0122     		mov	r2, #1
ARM GAS  /tmp/ccsfOltz.s 			page 17


 913              	.LVL97:
 914              		.loc 1 286 0
 915 0008 0490     		str	r0, [sp, #16]
 916              		.loc 1 291 0
 917 000a 6046     		mov	r0, ip
 918              	.LVL98:
 919              		.loc 1 286 0
 920 000c 0591     		str	r1, [sp, #20]
 921              		.loc 1 291 0
 922 000e 111A     		sub	r1, r2, r0
 923              	.LVL99:
 924 0010 8BB2     		uxth	r3, r1
 925 0012 0193     		str	r3, [sp, #4]
 926              	.LVL100:
 927 0014 0022     		mov	r2, #0
 928              	.LVL101:
 929              	.L65:
 930              		.loc 1 294 0
 931 0016 6446     		mov	r4, ip
 932 0018 059E     		ldr	r6, [sp, #20]
 933 001a 25B2     		sxth	r5, r4
 934 001c 7019     		add	r0, r6, r5
 935 001e C717     		asr	r7, r0, #31
 936 0020 790F     		lsr	r1, r7, #29
 937 0022 0B18     		add	r3, r1, r0
 938 0024 0295     		str	r5, [sp, #8]
 939              		.loc 1 286 0
 940 0026 049D     		ldr	r5, [sp, #16]
 941              		.loc 1 294 0
 942 0028 DC10     		asr	r4, r3, #3
 943 002a E601     		lsl	r6, r4, #7
 944              		.loc 1 286 0
 945 002c 5719     		add	r7, r2, r5
 946              		.loc 1 294 0
 947 002e 4C4B     		ldr	r3, .L67
 948 0030 B919     		add	r1, r7, r6
 949 0032 0096     		str	r6, [sp]
 950 0034 0391     		str	r1, [sp, #12]
 951 0036 1840     		and	r0, r3
 952 0038 04D5     		bpl	.L60
 953 003a 0824     		mov	r4, #8
 954 003c 0138     		sub	r0, r0, #1
 955 003e 6642     		neg	r6, r4
 956 0040 3043     		orr	r0, r6
 957 0042 0130     		add	r0, r0, #1
 958              	.L60:
 959 0044 0126     		mov	r6, #1
 960 0046 351C     		mov	r5, r6
 961 0048 8540     		lsl	r5, r5, r0
 962 004a EF43     		mvn	r7, r5
 963 004c 454B     		ldr	r3, .L67+4
 964 004e F9B2     		uxtb	r1, r7
 965 0050 039D     		ldr	r5, [sp, #12]
 966 0052 0691     		str	r1, [sp, #24]
 967 0054 585D     		ldrb	r0, [r3, r5]
 968 0056 069C     		ldr	r4, [sp, #24]
 969              		.loc 1 286 0
ARM GAS  /tmp/ccsfOltz.s 			page 18


 970 0058 059F     		ldr	r7, [sp, #20]
 971              		.loc 1 294 0
 972 005a 2043     		orr	r0, r4
 973 005c 5855     		strb	r0, [r3, r5]
 974              		.loc 1 295 0
 975 005e 0499     		ldr	r1, [sp, #16]
 976              		.loc 1 286 0
 977 0060 D519     		add	r5, r2, r7
 978              		.loc 1 295 0
 979 0062 0298     		ldr	r0, [sp, #8]
 980              		.loc 1 286 0
 981 0064 0795     		str	r5, [sp, #28]
 982              		.loc 1 295 0
 983 0066 EC10     		asr	r4, r5, #3
 984 0068 0918     		add	r1, r1, r0
 985 006a E001     		lsl	r0, r4, #7
 986 006c 079C     		ldr	r4, [sp, #28]
 987 006e 0727     		mov	r7, #7
 988 0070 3C40     		and	r4, r7
 989 0072 0D18     		add	r5, r1, r0
 990 0074 A640     		lsl	r6, r6, r4
 991 0076 F643     		mvn	r6, r6
 992 0078 5C5D     		ldrb	r4, [r3, r5]
 993 007a F6B2     		uxtb	r6, r6
 994 007c 3443     		orr	r4, r6
 995 007e 5C55     		strb	r4, [r3, r5]
 996              		.loc 1 286 0
 997 0080 049D     		ldr	r5, [sp, #16]
 998              		.loc 1 296 0
 999 0082 009C     		ldr	r4, [sp]
 1000              		.loc 1 286 0
 1001 0084 AF1A     		sub	r7, r5, r2
 1002              		.loc 1 296 0
 1003 0086 3C19     		add	r4, r7, r4
 1004              		.loc 1 286 0
 1005 0088 0797     		str	r7, [sp, #28]
 1006              		.loc 1 296 0
 1007 008a 1D5D     		ldrb	r5, [r3, r4]
 1008 008c 069F     		ldr	r7, [sp, #24]
 1009 008e 3D43     		orr	r5, r7
 1010 0090 1D55     		strb	r5, [r3, r4]
 1011              		.loc 1 297 0
 1012 0092 049C     		ldr	r4, [sp, #16]
 1013 0094 029D     		ldr	r5, [sp, #8]
 1014 0096 671B     		sub	r7, r4, r5
 1015 0098 3818     		add	r0, r7, r0
 1016 009a 1C5C     		ldrb	r4, [r3, r0]
 1017 009c 2643     		orr	r6, r4
 1018 009e 1E54     		strb	r6, [r3, r0]
 1019              		.loc 1 286 0
 1020 00a0 059E     		ldr	r6, [sp, #20]
 1021 00a2 B01A     		sub	r0, r6, r2
 1022              		.loc 1 298 0
 1023 00a4 C517     		asr	r5, r0, #31
 1024 00a6 6C0F     		lsr	r4, r5, #29
 1025 00a8 2618     		add	r6, r4, r0
 1026 00aa F510     		asr	r5, r6, #3
ARM GAS  /tmp/ccsfOltz.s 			page 19


 1027 00ac 2C4E     		ldr	r6, .L67
 1028 00ae EC01     		lsl	r4, r5, #7
 1029 00b0 0919     		add	r1, r1, r4
 1030 00b2 3040     		and	r0, r6
 1031 00b4 04D5     		bpl	.L61
 1032 00b6 0825     		mov	r5, #8
 1033 00b8 0138     		sub	r0, r0, #1
 1034 00ba 6E42     		neg	r6, r5
 1035 00bc 3043     		orr	r0, r6
 1036 00be 0130     		add	r0, r0, #1
 1037              	.L61:
 1038 00c0 0125     		mov	r5, #1
 1039 00c2 8540     		lsl	r5, r5, r0
 1040 00c4 EE43     		mvn	r6, r5
 1041 00c6 5D5C     		ldrb	r5, [r3, r1]
 1042 00c8 F0B2     		uxtb	r0, r6
 1043 00ca 0543     		orr	r5, r0
 1044              		.loc 1 299 0
 1045 00cc 039E     		ldr	r6, [sp, #12]
 1046              		.loc 1 298 0
 1047 00ce 5D54     		strb	r5, [r3, r1]
 1048              		.loc 1 299 0
 1049 00d0 995D     		ldrb	r1, [r3, r6]
 1050 00d2 069D     		ldr	r5, [sp, #24]
 1051 00d4 2943     		orr	r1, r5
 1052 00d6 9955     		strb	r1, [r3, r6]
 1053              		.loc 1 300 0
 1054 00d8 059E     		ldr	r6, [sp, #20]
 1055 00da 0299     		ldr	r1, [sp, #8]
 1056 00dc 711A     		sub	r1, r6, r1
 1057 00de CD17     		asr	r5, r1, #31
 1058 00e0 6E0F     		lsr	r6, r5, #29
 1059 00e2 7518     		add	r5, r6, r1
 1060 00e4 EE10     		asr	r6, r5, #3
 1061 00e6 F501     		lsl	r5, r6, #7
 1062 00e8 079E     		ldr	r6, [sp, #28]
 1063 00ea 7519     		add	r5, r6, r5
 1064 00ec 1C4E     		ldr	r6, .L67
 1065 00ee 3140     		and	r1, r6
 1066 00f0 04D5     		bpl	.L62
 1067 00f2 0826     		mov	r6, #8
 1068 00f4 0139     		sub	r1, r1, #1
 1069 00f6 7642     		neg	r6, r6
 1070 00f8 3143     		orr	r1, r6
 1071 00fa 0131     		add	r1, r1, #1
 1072              	.L62:
 1073 00fc 0126     		mov	r6, #1
 1074 00fe 8E40     		lsl	r6, r6, r1
 1075 0100 F143     		mvn	r1, r6
 1076 0102 5E5D     		ldrb	r6, [r3, r5]
 1077              		.loc 1 301 0
 1078 0104 3F19     		add	r7, r7, r4
 1079              		.loc 1 300 0
 1080 0106 3143     		orr	r1, r6
 1081 0108 5955     		strb	r1, [r3, r5]
 1082              		.loc 1 301 0
 1083 010a 164B     		ldr	r3, .L67+4
ARM GAS  /tmp/ccsfOltz.s 			page 20


 1084              		.loc 1 302 0
 1085 010c 6D46     		mov	r5, sp
 1086              		.loc 1 301 0
 1087 010e DC5D     		ldrb	r4, [r3, r7]
 1088 0110 511C     		add	r1, r2, #1
 1089 0112 2043     		orr	r0, r4
 1090 0114 D855     		strb	r0, [r3, r7]
 1091              		.loc 1 302 0
 1092 0116 0427     		mov	r7, #4
 1093 0118 E85F     		ldrsh	r0, [r5, r7]
 1094 011a 0028     		cmp	r0, #0
 1095 011c 09DA     		bge	.L63
 1096              		.loc 1 303 0
 1097 011e 019C     		ldr	r4, [sp, #4]
 1098              		.loc 1 286 0
 1099 0120 92B2     		uxth	r2, r2
 1100 0122 5300     		lsl	r3, r2, #1
 1101              		.loc 1 303 0
 1102 0124 0334     		add	r4, r4, #3
 1103 0126 E518     		add	r5, r4, r3
 1104 0128 A8B2     		uxth	r0, r5
 1105              		.loc 1 286 0
 1106 012a 0132     		add	r2, r2, #1
 1107              		.loc 1 303 0
 1108 012c 0190     		str	r0, [sp, #4]
 1109              		.loc 1 286 0
 1110 012e 90B2     		uxth	r0, r2
 1111              	.LVL102:
 1112 0130 0CE0     		b	.L64
 1113              	.LVL103:
 1114              	.L63:
 1115              		.loc 1 305 0
 1116 0132 029F     		ldr	r7, [sp, #8]
 1117 0134 019E     		ldr	r6, [sp, #4]
 1118 0136 D21B     		sub	r2, r2, r7
 1119 0138 0536     		add	r6, r6, #5
 1120 013a 5300     		lsl	r3, r2, #1
 1121 013c F418     		add	r4, r6, r3
 1122 013e 6646     		mov	r6, ip
 1123 0140 013E     		sub	r6, r6, #1
 1124 0142 A5B2     		uxth	r5, r4
 1125 0144 B7B2     		uxth	r7, r6
 1126 0146 0195     		str	r5, [sp, #4]
 1127              		.loc 1 286 0
 1128 0148 88B2     		uxth	r0, r1
 1129              	.LVL104:
 1130              		.loc 1 305 0
 1131 014a BC46     		mov	ip, r7
 1132              	.LVL105:
 1133              	.L64:
 1134 014c 0A1C     		mov	r2, r1
 1135              		.loc 1 306 0
 1136 014e 6146     		mov	r1, ip
 1137 0150 06B2     		sxth	r6, r0
 1138 0152 0FB2     		sxth	r7, r1
 1139 0154 BE42     		cmp	r6, r7
 1140 0156 00DC     		bgt	.LCB1065
ARM GAS  /tmp/ccsfOltz.s 			page 21


 1141 0158 5DE7     		b	.L65	@long jump
 1142              	.LCB1065:
 1143              		.loc 1 307 0
 1144 015a 09B0     		add	sp, sp, #36
 1145              		@ sp needed for prologue
 1146 015c F0BD     		pop	{r4, r5, r6, r7, pc}
 1147              	.L68:
 1148 015e C046     		.align	2
 1149              	.L67:
 1150 0160 07000080 		.word	-2147483641
 1151 0164 00000000 		.word	.LANCHOR0
 1152              		.cfi_endproc
 1153              	.LFE86:
 1154              		.size	ssd1306DrawCircle, .-ssd1306DrawCircle
 1155              		.section	.text.ssd1306FillArea,"ax",%progbits
 1156              		.align	1
 1157              		.global	ssd1306FillArea
 1158              		.code	16
 1159              		.thumb_func
 1160              		.type	ssd1306FillArea, %function
 1161              	ssd1306FillArea:
 1162              	.LFB87:
 1163              		.loc 1 314 0
 1164              		.cfi_startproc
 1165              	.LVL106:
 1166 0000 F0B5     		push	{r4, r5, r6, r7, lr}
 1167              	.LCFI12:
 1168              		.cfi_def_cfa_offset 20
 1169              		.cfi_offset 4, -20
 1170              		.cfi_offset 5, -16
 1171              		.cfi_offset 6, -12
 1172              		.cfi_offset 7, -8
 1173              		.cfi_offset 14, -4
 1174              		.loc 1 318 0
 1175 0002 1218     		add	r2, r2, r0
 1176              	.LVL107:
 1177              		.loc 1 319 0
 1178 0004 5B18     		add	r3, r3, r1
 1179              	.LVL108:
 1180              		.loc 1 314 0
 1181 0006 85B0     		sub	sp, sp, #20
 1182              	.LCFI13:
 1183              		.cfi_def_cfa_offset 40
 1184              		.loc 1 318 0
 1185 0008 D4B2     		uxtb	r4, r2
 1186              		.loc 1 319 0
 1187 000a DDB2     		uxtb	r5, r3
 1188              		.loc 1 318 0
 1189 000c 0294     		str	r4, [sp, #8]
 1190              	.LVL109:
 1191              		.loc 1 319 0
 1192 000e 0195     		str	r5, [sp, #4]
 1193              	.LVL110:
 1194              	.L70:
 1195              		.loc 1 320 0 discriminator 1
 1196 0010 019E     		ldr	r6, [sp, #4]
 1197 0012 B142     		cmp	r1, r6
ARM GAS  /tmp/ccsfOltz.s 			page 22


 1198 0014 18D2     		bcs	.L69
 1199              		.loc 1 322 0
 1200 0016 0722     		mov	r2, #7
 1201 0018 0A40     		and	r2, r1
 1202 001a 0124     		mov	r4, #1
 1203 001c 9440     		lsl	r4, r4, r2
 1204 001e E543     		mvn	r5, r4
 1205 0020 CF08     		lsr	r7, r1, #3
 1206 0022 EEB2     		uxtb	r6, r5
 1207 0024 FF01     		lsl	r7, r7, #7
 1208 0026 0396     		str	r6, [sp, #12]
 1209 0028 041C     		mov	r4, r0
 1210              	.L73:
 1211              	.LVL111:
 1212              		.loc 1 321 0 discriminator 1
 1213 002a 029A     		ldr	r2, [sp, #8]
 1214 002c 9442     		cmp	r4, r2
 1215 002e 08D2     		bcs	.L74
 1216              	.L71:
 1217              		.loc 1 322 0 discriminator 2
 1218 0030 064E     		ldr	r6, .L75
 1219 0032 E519     		add	r5, r4, r7
 1220 0034 725D     		ldrb	r2, [r6, r5]
 1221 0036 039B     		ldr	r3, [sp, #12]
 1222              		.loc 1 321 0 discriminator 2
 1223 0038 0134     		add	r4, r4, #1
 1224              	.LVL112:
 1225              		.loc 1 322 0 discriminator 2
 1226 003a 1A43     		orr	r2, r3
 1227 003c 7255     		strb	r2, [r6, r5]
 1228              		.loc 1 321 0 discriminator 2
 1229 003e E4B2     		uxtb	r4, r4
 1230              	.LVL113:
 1231 0040 F3E7     		b	.L73
 1232              	.L74:
 1233              		.loc 1 320 0
 1234 0042 0131     		add	r1, r1, #1
 1235              	.LVL114:
 1236 0044 C9B2     		uxtb	r1, r1
 1237              	.LVL115:
 1238 0046 E3E7     		b	.L70
 1239              	.LVL116:
 1240              	.L69:
 1241              		.loc 1 323 0
 1242 0048 05B0     		add	sp, sp, #20
 1243              		@ sp needed for prologue
 1244 004a F0BD     		pop	{r4, r5, r6, r7, pc}
 1245              	.L76:
 1246              		.align	2
 1247              	.L75:
 1248 004c 00000000 		.word	.LANCHOR0
 1249              		.cfi_endproc
 1250              	.LFE87:
 1251              		.size	ssd1306FillArea, .-ssd1306FillArea
 1252              		.section	.text.ssd1306Refresh,"ax",%progbits
 1253              		.align	1
 1254              		.global	ssd1306Refresh
ARM GAS  /tmp/ccsfOltz.s 			page 23


 1255              		.code	16
 1256              		.thumb_func
 1257              		.type	ssd1306Refresh, %function
 1258              	ssd1306Refresh:
 1259              	.LFB88:
 1260              		.loc 1 331 0
 1261              		.cfi_startproc
 1262 0000 38B5     		push	{r3, r4, r5, lr}
 1263              	.LCFI14:
 1264              		.cfi_def_cfa_offset 16
 1265              		.cfi_offset 3, -16
 1266              		.cfi_offset 4, -12
 1267              		.cfi_offset 5, -8
 1268              		.cfi_offset 14, -4
 1269              		.loc 1 332 0
 1270 0002 0B4C     		ldr	r4, .L78
 1271 0004 8025     		mov	r5, #128
 1272 0006 6D01     		lsl	r5, r5, #5
 1273 0008 6583     		strh	r5, [r4, #26]
 1274 000a 0020     		mov	r0, #0
 1275 000c FFF7FEFF 		bl	ssd1306SendByte
 1276              	.LVL117:
 1277              		.loc 1 333 0
 1278 0010 6583     		strh	r5, [r4, #26]
 1279 0012 1020     		mov	r0, #16
 1280 0014 FFF7FEFF 		bl	ssd1306SendByte
 1281              	.LVL118:
 1282              		.loc 1 334 0
 1283 0018 6583     		strh	r5, [r4, #26]
 1284 001a 4020     		mov	r0, #64
 1285 001c FFF7FEFF 		bl	ssd1306SendByte
 1286              	.LVL119:
 1287              		.loc 1 338 0
 1288 0020 8022     		mov	r2, #128
 1289              		.loc 1 336 0
 1290 0022 2583     		strh	r5, [r4, #24]
 1291              		.loc 1 338 0
 1292 0024 0349     		ldr	r1, .L78+4
 1293 0026 D200     		lsl	r2, r2, #3
 1294 0028 0348     		ldr	r0, .L78+8
 1295 002a FFF7FEFF 		bl	spiSendS
 1296              	.LVL120:
 1297              		.loc 1 339 0
 1298              		@ sp needed for prologue
 1299 002e 38BD     		pop	{r3, r4, r5, pc}
 1300              	.L79:
 1301              		.align	2
 1302              	.L78:
 1303 0030 00040048 		.word	1207960576
 1304 0034 00000000 		.word	.LANCHOR0
 1305 0038 00300140 		.word	1073819648
 1306              		.cfi_endproc
 1307              	.LFE88:
 1308              		.size	ssd1306Refresh, .-ssd1306Refresh
 1309              		.section	.text.ssd1306DrawChar,"ax",%progbits
 1310              		.align	1
 1311              		.global	ssd1306DrawChar
ARM GAS  /tmp/ccsfOltz.s 			page 24


 1312              		.code	16
 1313              		.thumb_func
 1314              		.type	ssd1306DrawChar, %function
 1315              	ssd1306DrawChar:
 1316              	.LFB89:
 1317              		.loc 1 347 0
 1318              		.cfi_startproc
 1319              	.LVL121:
 1320 0000 82B0     		sub	sp, sp, #8
 1321              	.LCFI15:
 1322              		.cfi_def_cfa_offset 8
 1323 0002 F0B5     		push	{r4, r5, r6, r7, lr}
 1324              	.LCFI16:
 1325              		.cfi_def_cfa_offset 28
 1326              		.cfi_offset 4, -28
 1327              		.cfi_offset 5, -24
 1328              		.cfi_offset 6, -20
 1329              		.cfi_offset 7, -16
 1330              		.cfi_offset 14, -12
 1331 0004 85B0     		sub	sp, sp, #20
 1332              	.LCFI17:
 1333              		.cfi_def_cfa_offset 48
 1334 0006 00AF     		add	r7, sp, #0
 1335              	.LCFI18:
 1336              		.cfi_def_cfa_register 7
 1337 0008 DCB2     		uxtb	r4, r3
 1338              	.LVL122:
 1339              		.loc 1 347 0
 1340 000a 7960     		str	r1, [r7, #4]
 1341 000c FB62     		str	r3, [r7, #44]
 1342 000e 191C     		mov	r1, r3
 1343              	.LVL123:
 1344              		.loc 1 348 0
 1345 0010 E31D     		add	r3, r4, #7
 1346              	.LVL124:
 1347              		.loc 1 347 0
 1348 0012 B860     		str	r0, [r7, #8]
 1349              		.loc 1 348 0
 1350 0014 D808     		lsr	r0, r3, #3
 1351              	.LVL125:
 1352              		.loc 1 347 0
 1353 0016 0E0C     		lsr	r6, r1, #16
 1354              		.loc 1 348 0
 1355 0018 C500     		lsl	r5, r0, #3
 1356 001a 6946     		mov	r1, sp
 1357 001c 4B1B     		sub	r3, r1, r5
 1358 001e 9D46     		mov	sp, r3
 1359 0020 6846     		mov	r0, sp
 1360              		.loc 1 351 0
 1361 0022 F6B2     		uxtb	r6, r6
 1362              		.loc 1 348 0
 1363 0024 F860     		str	r0, [r7, #12]
 1364              	.LVL126:
 1365              		.loc 1 351 0
 1366 0026 9642     		cmp	r6, r2
 1367 0028 03D8     		bhi	.L81
 1368              		.loc 1 351 0 is_stmt 0 discriminator 1
ARM GAS  /tmp/ccsfOltz.s 			page 25


 1369 002a 2F21     		mov	r1, #47
 1370 002c CB5D     		ldrb	r3, [r1, r7]
 1371 002e 9342     		cmp	r3, r2
 1372 0030 01D2     		bcs	.L82
 1373              	.L81:
 1374              		.loc 1 356 0 is_stmt 1 discriminator 1
 1375 0032 FE68     		ldr	r6, [r7, #12]
 1376 0034 0EE0     		b	.L83
 1377              	.L82:
 1378              		.loc 1 356 0 is_stmt 0
 1379 0036 203A     		sub	r2, r2, #32
 1380              	.LVL127:
 1381 0038 6243     		mul	r2, r4
 1382 003a 3E6B     		ldr	r6, [r7, #48]
 1383 003c 0020     		mov	r0, #0
 1384              	.LVL128:
 1385              	.L84:
 1386              		.loc 1 354 0 is_stmt 1 discriminator 1
 1387 003e C5B2     		uxtb	r5, r0
 1388 0040 A542     		cmp	r5, r4
 1389 0042 05D2     		bcs	.L88
 1390              	.L85:
 1391              		.loc 1 346 0 discriminator 2
 1392 0044 B518     		add	r5, r6, r2
 1393              		.loc 1 356 0 discriminator 2
 1394 0046 295C     		ldrb	r1, [r5, r0]
 1395 0048 FB68     		ldr	r3, [r7, #12]
 1396 004a 1954     		strb	r1, [r3, r0]
 1397 004c 0130     		add	r0, r0, #1
 1398 004e F6E7     		b	.L84
 1399              	.L88:
 1400              		.loc 1 370 0
 1401 0050 0025     		mov	r5, #0
 1402 0052 20E0     		b	.L86
 1403              	.L83:
 1404              		.loc 1 362 0 discriminator 1
 1405 0054 FA68     		ldr	r2, [r7, #12]
 1406 0056 B01A     		sub	r0, r6, r2
 1407 0058 C5B2     		uxtb	r5, r0
 1408 005a A542     		cmp	r5, r4
 1409 005c F8D2     		bcs	.L88
 1410              	.L87:
 1411              		.loc 1 364 0 discriminator 2
 1412 005e FF21     		mov	r1, #255
 1413 0060 3170     		strb	r1, [r6]
 1414 0062 0136     		add	r6, r6, #1
 1415 0064 F6E7     		b	.L83
 1416              	.LVL129:
 1417              	.L90:
 1418              	.LBB22:
 1419              		.loc 1 375 0
 1420 0066 F868     		ldr	r0, [r7, #12]
 1421 0068 F343     		mvn	r3, r6
 1422 006a 415D     		ldrb	r1, [r0, r5]
 1423 006c 0833     		add	r3, r3, #8
 1424 006e 9940     		lsl	r1, r1, r3
 1425 0070 0A1C     		mov	r2, r1
ARM GAS  /tmp/ccsfOltz.s 			page 26


 1426              	.LVL130:
 1427              		.loc 1 377 0
 1428 0072 1106     		lsl	r1, r2, #24
 1429 0074 07D5     		bpl	.L89
 1430              	.LVL131:
 1431              		.loc 1 346 0
 1432 0076 B868     		ldr	r0, [r7, #8]
 1433 0078 7B68     		ldr	r3, [r7, #4]
 1434 007a 4119     		add	r1, r0, r5
 1435 007c 9A19     		add	r2, r3, r6
 1436              	.LVL132:
 1437              		.loc 1 379 0
 1438 007e C8B2     		uxtb	r0, r1
 1439 0080 D1B2     		uxtb	r1, r2
 1440 0082 FFF7FEFF 		bl	ssd1306DrawPixel
 1441              	.LVL133:
 1442              	.L89:
 1443              	.LBE22:
 1444              		.loc 1 372 0
 1445 0086 0136     		add	r6, r6, #1
 1446              	.LVL134:
 1447 0088 B6B2     		uxth	r6, r6
 1448              	.LVL135:
 1449              	.L91:
 1450              		.loc 1 372 0 is_stmt 0 discriminator 1
 1451 008a 2D23     		mov	r3, #45
 1452 008c DA5D     		ldrb	r2, [r3, r7]
 1453 008e B242     		cmp	r2, r6
 1454 0090 E9DA     		bge	.L90
 1455              		.loc 1 370 0 is_stmt 1
 1456 0092 0135     		add	r5, r5, #1
 1457              	.LVL136:
 1458 0094 ADB2     		uxth	r5, r5
 1459              	.LVL137:
 1460              	.L86:
 1461              		.loc 1 370 0 is_stmt 0 discriminator 1
 1462 0096 A542     		cmp	r5, r4
 1463 0098 01D2     		bcs	.L96
 1464              	.L92:
 1465              		.loc 1 370 0
 1466 009a 0026     		mov	r6, #0
 1467 009c F5E7     		b	.L91
 1468              	.L96:
 1469              		.loc 1 383 0 is_stmt 1
 1470 009e BD46     		mov	sp, r7
 1471              	.LVL138:
 1472 00a0 05B0     		add	sp, sp, #20
 1473              		@ sp needed for prologue
 1474              	.LVL139:
 1475              	.LVL140:
 1476 00a2 F0BC     		pop	{r4, r5, r6, r7}
 1477 00a4 08BC     		pop	{r3}
 1478 00a6 02B0     		add	sp, sp, #8
 1479 00a8 1847     		bx	r3
 1480              		.cfi_endproc
 1481              	.LFE89:
 1482              		.size	ssd1306DrawChar, .-ssd1306DrawChar
ARM GAS  /tmp/ccsfOltz.s 			page 27


 1483              		.section	.text.ssd1306DrawString,"ax",%progbits
 1484              		.align	1
 1485              		.global	ssd1306DrawString
 1486              		.code	16
 1487              		.thumb_func
 1488              		.type	ssd1306DrawString, %function
 1489              	ssd1306DrawString:
 1490              	.LFB90:
 1491              		.loc 1 419 0
 1492              		.cfi_startproc
 1493              	.LVL141:
 1494 0000 82B0     		sub	sp, sp, #8
 1495              	.LCFI19:
 1496              		.cfi_def_cfa_offset 8
 1497 0002 F7B5     		push	{r0, r1, r2, r4, r5, r6, r7, lr}
 1498              	.LCFI20:
 1499              		.cfi_def_cfa_offset 40
 1500              		.cfi_offset 0, -40
 1501              		.cfi_offset 1, -36
 1502              		.cfi_offset 2, -32
 1503              		.cfi_offset 4, -28
 1504              		.cfi_offset 5, -24
 1505              		.cfi_offset 6, -20
 1506              		.cfi_offset 7, -16
 1507              		.cfi_offset 14, -12
 1508              		.loc 1 419 0
 1509 0004 061C     		mov	r6, r0
 1510 0006 0F1C     		mov	r7, r1
 1511 0008 151C     		mov	r5, r2
 1512 000a 0993     		str	r3, [sp, #36]
 1513              		.loc 1 421 0
 1514 000c 0024     		mov	r4, #0
 1515              	.LVL142:
 1516              	.L98:
 1517              		.loc 1 421 0 is_stmt 0 discriminator 1
 1518 000e 281C     		mov	r0, r5
 1519 0010 FFF7FEFF 		bl	strlen
 1520              	.LVL143:
 1521 0014 8442     		cmp	r4, r0
 1522 0016 0FD2     		bcs	.L100
 1523              	.L99:
 1524              		.loc 1 423 0 is_stmt 1 discriminator 2
 1525 0018 09AB     		add	r3, sp, #36
 1526 001a 1878     		ldrb	r0, [r3]
 1527 001c 0A9B     		ldr	r3, [sp, #40]
 1528 001e 0130     		add	r0, r0, #1
 1529 0020 6043     		mul	r0, r4
 1530 0022 3118     		add	r1, r6, r0
 1531 0024 C8B2     		uxtb	r0, r1
 1532 0026 2A5D     		ldrb	r2, [r5, r4]
 1533 0028 0093     		str	r3, [sp]
 1534 002a 391C     		mov	r1, r7
 1535 002c 099B     		ldr	r3, [sp, #36]
 1536              		.loc 1 421 0 discriminator 2
 1537 002e 0134     		add	r4, r4, #1
 1538              	.LVL144:
 1539              		.loc 1 423 0 discriminator 2
ARM GAS  /tmp/ccsfOltz.s 			page 28


 1540 0030 FFF7FEFF 		bl	ssd1306DrawChar
 1541              	.LVL145:
 1542              		.loc 1 421 0 discriminator 2
 1543 0034 E4B2     		uxtb	r4, r4
 1544              	.LVL146:
 1545 0036 EAE7     		b	.L98
 1546              	.L100:
 1547              		.loc 1 425 0
 1548              		@ sp needed for prologue
 1549              	.LVL147:
 1550              	.LVL148:
 1551 0038 F7BC     		pop	{r0, r1, r2, r4, r5, r6, r7}
 1552 003a 08BC     		pop	{r3}
 1553 003c 02B0     		add	sp, sp, #8
 1554 003e 1847     		bx	r3
 1555              		.cfi_endproc
 1556              	.LFE90:
 1557              		.size	ssd1306DrawString, .-ssd1306DrawString
 1558              		.section	.text.ssd1306ShiftFrameBuffer,"ax",%progbits
 1559              		.align	1
 1560              		.global	ssd1306ShiftFrameBuffer
 1561              		.code	16
 1562              		.thumb_func
 1563              		.type	ssd1306ShiftFrameBuffer, %function
 1564              	ssd1306ShiftFrameBuffer:
 1565              	.LFB91:
 1566              		.loc 1 467 0
 1567              		.cfi_startproc
 1568              	.LVL149:
 1569 0000 F8B5     		push	{r3, r4, r5, r6, r7, lr}
 1570              	.LCFI21:
 1571              		.cfi_def_cfa_offset 24
 1572              		.cfi_offset 3, -24
 1573              		.cfi_offset 4, -20
 1574              		.cfi_offset 5, -16
 1575              		.cfi_offset 6, -12
 1576              		.cfi_offset 7, -8
 1577              		.cfi_offset 14, -4
 1578              		.loc 1 467 0
 1579 0002 071E     		sub	r7, r0, #0
 1580              		.loc 1 468 0
 1581 0004 23D0     		beq	.L101
 1582              		.loc 1 469 0
 1583 0006 0025     		mov	r5, #0
 1584 0008 3F28     		cmp	r0, #63
 1585 000a 18D9     		bls	.L115
 1586              		.loc 1 472 0
 1587 000c FFF7FEFF 		bl	ssd1306ClearScreen
 1588              	.LVL150:
 1589              		.loc 1 473 0
 1590 0010 1DE0     		b	.L101
 1591              	.L108:
 1592              		.loc 1 466 0
 1593 0012 3F23     		mov	r3, #63
 1594 0014 581B     		sub	r0, r3, r5
 1595              		.loc 1 484 0
 1596 0016 B842     		cmp	r0, r7
ARM GAS  /tmp/ccsfOltz.s 			page 29


 1597 0018 14DD     		ble	.L105
 1598              		.loc 1 466 0
 1599 001a F119     		add	r1, r6, r7
 1600              		.loc 1 487 0
 1601 001c C9B2     		uxtb	r1, r1
 1602 001e 201C     		mov	r0, r4
 1603 0020 FFF7FEFF 		bl	ssd1306GetPixel
 1604              	.LVL151:
 1605 0024 0028     		cmp	r0, #0
 1606 0026 0DD0     		beq	.L105
 1607              		.loc 1 487 0 is_stmt 0 discriminator 1
 1608 0028 201C     		mov	r0, r4
 1609 002a 311C     		mov	r1, r6
 1610 002c FFF7FEFF 		bl	ssd1306DrawPixel
 1611              	.LVL152:
 1612              	.L107:
 1613              		.loc 1 482 0 is_stmt 1
 1614 0030 0134     		add	r4, r4, #1
 1615 0032 E4B2     		uxtb	r4, r4
 1616              	.LVL153:
 1617 0034 802C     		cmp	r4, #128
 1618 0036 ECD1     		bne	.L108
 1619              	.LVL154:
 1620 0038 0135     		add	r5, r5, #1
 1621              		.loc 1 480 0
 1622 003a 402D     		cmp	r5, #64
 1623 003c 07D0     		beq	.L101
 1624              	.LVL155:
 1625              	.L115:
 1626 003e EEB2     		uxtb	r6, r5
 1627              	.LVL156:
 1628              		.loc 1 467 0 discriminator 1
 1629 0040 0024     		mov	r4, #0
 1630 0042 E6E7     		b	.L108
 1631              	.LVL157:
 1632              	.L105:
 1633              		.loc 1 492 0
 1634 0044 201C     		mov	r0, r4
 1635 0046 311C     		mov	r1, r6
 1636 0048 FFF7FEFF 		bl	ssd1306ClearPixel
 1637              	.LVL158:
 1638 004c F0E7     		b	.L107
 1639              	.L101:
 1640              		.loc 1 496 0
 1641              		@ sp needed for prologue
 1642 004e F8BD     		pop	{r3, r4, r5, r6, r7, pc}
 1643              		.cfi_endproc
 1644              	.LFE91:
 1645              		.size	ssd1306ShiftFrameBuffer, .-ssd1306ShiftFrameBuffer
 1646              		.section	.text.Vector98,"ax",%progbits
 1647              		.align	1
 1648              		.global	Vector98
 1649              		.code	16
 1650              		.thumb_func
 1651              		.type	Vector98, %function
 1652              	Vector98:
 1653              	.LFB92:
ARM GAS  /tmp/ccsfOltz.s 			page 30


 1654              		.loc 1 499 0
 1655              		.cfi_startproc
 1656 0000 38B5     		push	{r3, r4, r5, lr}
 1657              	.LCFI22:
 1658              		.cfi_def_cfa_offset 16
 1659              		.cfi_offset 3, -16
 1660              		.cfi_offset 4, -12
 1661              		.cfi_offset 5, -8
 1662              		.cfi_offset 14, -4
 1663              		.loc 1 500 0
 1664 0002 124B     		ldr	r3, .L123
 1665 0004 0122     		mov	r2, #1
 1666 0006 198A     		ldrh	r1, [r3, #16]
 1667 0008 1142     		tst	r1, r2
 1668 000a 1ED0     		beq	.L118
 1669              		.loc 1 502 0
 1670 000c 188A     		ldrh	r0, [r3, #16]
 1671              		.loc 1 504 0
 1672 000e 104C     		ldr	r4, .L123+4
 1673 0010 8025     		mov	r5, #128
 1674              		.loc 1 502 0
 1675 0012 9043     		bic	r0, r2
 1676              		.loc 1 504 0
 1677 0014 6D01     		lsl	r5, r5, #5
 1678              		.loc 1 502 0
 1679 0016 1882     		strh	r0, [r3, #16]
 1680              		.loc 1 504 0
 1681 0018 6583     		strh	r5, [r4, #26]
 1682 001a 0020     		mov	r0, #0
 1683 001c FFF7FEFF 		bl	ssd1306SendByte
 1684              	.LVL159:
 1685              		.loc 1 505 0
 1686 0020 6583     		strh	r5, [r4, #26]
 1687 0022 1020     		mov	r0, #16
 1688 0024 FFF7FEFF 		bl	ssd1306SendByte
 1689              	.LVL160:
 1690              		.loc 1 506 0
 1691 0028 6583     		strh	r5, [r4, #26]
 1692 002a 4020     		mov	r0, #64
 1693 002c FFF7FEFF 		bl	ssd1306SendByte
 1694              	.LVL161:
 1695              		.loc 1 510 0
 1696 0030 8023     		mov	r3, #128
 1697              		.loc 1 508 0
 1698 0032 2583     		strh	r5, [r4, #24]
 1699              		.loc 1 510 0
 1700 0034 0749     		ldr	r1, .L123+8
 1701 0036 DA00     		lsl	r2, r3, #3
 1702 0038 0748     		ldr	r0, .L123+12
 1703 003a FFF7FEFF 		bl	spiSendI
 1704              	.LVL162:
 1705              		.loc 1 512 0
 1706 003e 0748     		ldr	r0, .L123+16
 1707 0040 8022     		mov	r2, #128
 1708 0042 4169     		ldr	r1, [r0, #20]
 1709 0044 5400     		lsl	r4, r2, #1
 1710 0046 4C40     		eor	r4, r1
ARM GAS  /tmp/ccsfOltz.s 			page 31


 1711 0048 4461     		str	r4, [r0, #20]
 1712              	.L118:
 1713              		.loc 1 514 0
 1714              		@ sp needed for prologue
 1715 004a 38BD     		pop	{r3, r4, r5, pc}
 1716              	.L124:
 1717              		.align	2
 1718              	.L123:
 1719 004c 00480140 		.word	1073825792
 1720 0050 00040048 		.word	1207960576
 1721 0054 00000000 		.word	.LANCHOR0
 1722 0058 00300140 		.word	1073819648
 1723 005c 00080048 		.word	1207961600
 1724              		.cfi_endproc
 1725              	.LFE92:
 1726              		.size	Vector98, .-Vector98
 1727              		.section	.bss.buffer,"aw",%nobits
 1728              		.set	.LANCHOR0,. + 0
 1729              		.type	buffer, %object
 1730              		.size	buffer, 1024
 1731              	buffer:
 1732 0000 00000000 		.space	1024
 1732      00000000 
 1732      00000000 
 1732      00000000 
 1732      00000000 
 1733              		.text
 1734              	.Letext0:
 1735              		.file 3 "./os/nil/include/nil.h"
 1736              		.file 4 "/media/data/src/x-tools/gcc-arm-none-eabi-4_7-2013q1/bin/../lib/gcc/arm-none-eabi/4.7.3/i
 1737              		.file 5 "/media/data/src/x-tools/gcc-arm-none-eabi-4_7-2013q1/bin/../lib/gcc/arm-none-eabi/4.7.3/.
 1738              		.file 6 "./os/nil/ports/ARMCMx/compilers/GCC/niltypes.h"
 1739              		.file 7 "./os/ext/CMSIS/ST/stm32f0xx.h"
 1740              		.file 8 "./os/nil/ports/ARMCMx/nilcore.h"
 1741              		.file 9 "./os/nil/ports/ARMCMx/nilcore_v6m.h"
 1742              		.file 10 "inc/smallfonts.h"
 1743              		.file 11 "./os/hal/ports/STM32/GPIOv2/pal_lld.h"
 1744              		.file 12 "lib/STM32F0xx_StdPeriph_Driver/inc/stm32f0xx_spi.h"
 1745              		.file 13 "inc/threads.h"
 1746              		.file 14 "/media/data/src/x-tools/gcc-arm-none-eabi-4_7-2013q1/bin/../lib/gcc/arm-none-eabi/4.7.3/